TMS320C2000 Assembler PC v18.12.4 Fri Feb 17 15:09:28 2023

Copyright (c) 1996-2018 Texas Instruments Incorporated
C:\Users\User\AppData\Local\Temp\{ACBAF943-9FA4-4A12-94B4-A2BF97C77D4E} PAGE    1

       1              ;***************************************************************
       2              ;* TMS320C2000 G3 C/C++ Codegen                             PC v18.12.4.LTS *
       3              ;* Date/Time created: Fri Feb 17 15:09:28 2023                 *
       4              ;***************************************************************
       5                      .compiler_opts --abi=coffabi --float_support=softlib --hll_source=on --mem_model:code=flat --mem_mode
       6                      .asg    XAR2, FP
       7              
       8              $C$DW$CU        .dwtag  DW_TAG_compile_unit
       9                      .dwattr $C$DW$CU, DW_AT_name("D:/GIANT/GAINT_TI_instaspin/motorware/motorware_1_01_00_18/sw/drivers/c
      10                      .dwattr $C$DW$CU, DW_AT_producer("TI TMS320C2000 G3 C/C++ Codegen PC v18.12.4.LTS Copyright (c) 1996-
      11                      .dwattr $C$DW$CU, DW_AT_TI_version(0x01)
      12                      .dwattr $C$DW$CU, DW_AT_comp_dir("D:\GIANT\GAINT_TI_instaspin\motorware\motorware_1_01_00_18\sw\solut
      13              ;       C:\ti\ccs930\ccs\tools\compiler\ti-cgt-c2000_18.12.4.LTS\bin\opt2000.exe C:\\Users\\User\\AppData\\Lo
      14              ;       C:\ti\ccs930\ccs\tools\compiler\ti-cgt-c2000_18.12.4.LTS\bin\ac2000.exe -@C:\\Users\\User\\AppData\\L
      15 00000000               .sect   ".text"
      16                      .clink
      17                      .global _CLK_setXClkInSrc
      18              
      19              $C$DW$1 .dwtag  DW_TAG_subprogram
      20                      .dwattr $C$DW$1, DW_AT_name("CLK_setXClkInSrc")
      21                      .dwattr $C$DW$1, DW_AT_low_pc(_CLK_setXClkInSrc)
      22                      .dwattr $C$DW$1, DW_AT_high_pc(0x00)
      23                      .dwattr $C$DW$1, DW_AT_TI_symbol_name("_CLK_setXClkInSrc")
      24                      .dwattr $C$DW$1, DW_AT_external
      25                      .dwattr $C$DW$1, DW_AT_TI_begin_file("D:/GIANT/GAINT_TI_instaspin/motorware/motorware_1_01_00_18/sw/d
      26                      .dwattr $C$DW$1, DW_AT_TI_begin_line(0x3a8)
      27                      .dwattr $C$DW$1, DW_AT_TI_begin_column(0x06)
      28                      .dwattr $C$DW$1, DW_AT_TI_max_frame_size(-2)
      29                      .dwpsn  file "D:/GIANT/GAINT_TI_instaspin/motorware/motorware_1_01_00_18/sw/drivers/clk/src/32b/f28x/
      30              
      31                      .dwfde $C$DW$CIE, _CLK_setXClkInSrc
      32              $C$DW$2 .dwtag  DW_TAG_formal_parameter
      33                      .dwattr $C$DW$2, DW_AT_name("clkHandle")
      34                      .dwattr $C$DW$2, DW_AT_TI_symbol_name("_clkHandle")
      35                      .dwattr $C$DW$2, DW_AT_type(*$C$DW$T$60)
      36                      .dwattr $C$DW$2, DW_AT_location[DW_OP_reg12]
      37              
      38              $C$DW$3 .dwtag  DW_TAG_formal_parameter
      39                      .dwattr $C$DW$3, DW_AT_name("src")
      40                      .dwattr $C$DW$3, DW_AT_TI_symbol_name("_src")
      41                      .dwattr $C$DW$3, DW_AT_type(*$C$DW$T$47)
      42                      .dwattr $C$DW$3, DW_AT_location[DW_OP_reg0]
      43              
      44              
      45              ;***************************************************************
      46              ;* FNAME: _CLK_setXClkInSrc             FR SIZE:   0           *
      47              ;*                                                             *
      48              ;* FUNCTION ENVIRONMENT                                        *
      49              ;*                                                             *
      50              ;* FUNCTION PROPERTIES                                         *
      51              ;*                            0 Parameter,  0 Auto,  0 SOE     *
      52              ;***************************************************************
      53              
      54              _CLK_setXClkInSrc:
      55              ;* AR4   assigned to _clkHandle
TMS320C2000 Assembler PC v18.12.4 Fri Feb 17 15:09:28 2023

Copyright (c) 1996-2018 Texas Instruments Incorporated
C:\Users\User\AppData\Local\Temp\{ACBAF943-9FA4-4A12-94B4-A2BF97C77D4E} PAGE    2

      56              $C$DW$4 .dwtag  DW_TAG_variable
      57                      .dwattr $C$DW$4, DW_AT_name("clkHandle")
      58                      .dwattr $C$DW$4, DW_AT_TI_symbol_name("_clkHandle")
      59                      .dwattr $C$DW$4, DW_AT_type(*$C$DW$T$61)
      60                      .dwattr $C$DW$4, DW_AT_location[DW_OP_reg12]
      61              
      62              ;* AL    assigned to _src
      63              $C$DW$5 .dwtag  DW_TAG_variable
      64                      .dwattr $C$DW$5, DW_AT_name("src")
      65                      .dwattr $C$DW$5, DW_AT_TI_symbol_name("_src")
      66                      .dwattr $C$DW$5, DW_AT_type(*$C$DW$T$48)
      67                      .dwattr $C$DW$5, DW_AT_location[DW_OP_reg0]
      68              
      69                      .dwcfi  cfa_offset, -2
      70                      .dwcfi  save_reg_to_mem, 26, 0
      71 00000000 7622   EALLOW
      72                      .dwpsn  file "D:/GIANT/GAINT_TI_instaspin/motorware/motorware_1_01_00_18/sw/drivers/clk/src/32b/f28x/
      73 00000001 18C4          AND       *+XAR4[0],#0xffbf     ; [CPU_ALU] |943| 
         00000002 FFBF 
      74                      .dwpsn  file "D:/GIANT/GAINT_TI_instaspin/motorware/motorware_1_01_00_18/sw/drivers/clk/src/32b/f28x/
      75 00000003 98C4          OR        *+XAR4[0],AL          ; [CPU_ALU] |946| 
      76 00000004 761A   EDIS
      77 00000005 FF69          SPM       #0                    ; [CPU_ALU] 
      78              $C$DW$6 .dwtag  DW_TAG_TI_branch
      79                      .dwattr $C$DW$6, DW_AT_low_pc(0x00)
      80                      .dwattr $C$DW$6, DW_AT_TI_return
      81              
      82 00000006 0006          LRETR     ; [CPU_ALU] 
      83                      ; return occurs ; [] 
      84                      .dwattr $C$DW$1, DW_AT_TI_end_file("D:/GIANT/GAINT_TI_instaspin/motorware/motorware_1_01_00_18/sw/dri
      85                      .dwattr $C$DW$1, DW_AT_TI_end_line(0x3b7)
      86                      .dwattr $C$DW$1, DW_AT_TI_end_column(0x01)
      87                      .dwendentry
      88                      .dwendtag $C$DW$1
      89              
      90 00000007               .sect   ".text"
      91                      .clink
      92                      .global _CLK_setWatchDogSrc
      93              
      94              $C$DW$7 .dwtag  DW_TAG_subprogram
      95                      .dwattr $C$DW$7, DW_AT_name("CLK_setWatchDogSrc")
      96                      .dwattr $C$DW$7, DW_AT_low_pc(_CLK_setWatchDogSrc)
      97                      .dwattr $C$DW$7, DW_AT_high_pc(0x00)
      98                      .dwattr $C$DW$7, DW_AT_TI_symbol_name("_CLK_setWatchDogSrc")
      99                      .dwattr $C$DW$7, DW_AT_external
     100                      .dwattr $C$DW$7, DW_AT_TI_begin_file("D:/GIANT/GAINT_TI_instaspin/motorware/motorware_1_01_00_18/sw/d
     101                      .dwattr $C$DW$7, DW_AT_TI_begin_line(0x3e1)
     102                      .dwattr $C$DW$7, DW_AT_TI_begin_column(0x06)
     103                      .dwattr $C$DW$7, DW_AT_TI_max_frame_size(-2)
     104                      .dwpsn  file "D:/GIANT/GAINT_TI_instaspin/motorware/motorware_1_01_00_18/sw/drivers/clk/src/32b/f28x/
     105              
     106                      .dwfde $C$DW$CIE, _CLK_setWatchDogSrc
     107              $C$DW$8 .dwtag  DW_TAG_formal_parameter
     108                      .dwattr $C$DW$8, DW_AT_name("clkHandle")
     109                      .dwattr $C$DW$8, DW_AT_TI_symbol_name("_clkHandle")
TMS320C2000 Assembler PC v18.12.4 Fri Feb 17 15:09:28 2023

Copyright (c) 1996-2018 Texas Instruments Incorporated
C:\Users\User\AppData\Local\Temp\{ACBAF943-9FA4-4A12-94B4-A2BF97C77D4E} PAGE    3

     110                      .dwattr $C$DW$8, DW_AT_type(*$C$DW$T$60)
     111                      .dwattr $C$DW$8, DW_AT_location[DW_OP_reg12]
     112              
     113              $C$DW$9 .dwtag  DW_TAG_formal_parameter
     114                      .dwattr $C$DW$9, DW_AT_name("src")
     115                      .dwattr $C$DW$9, DW_AT_TI_symbol_name("_src")
     116                      .dwattr $C$DW$9, DW_AT_type(*$C$DW$T$56)
     117                      .dwattr $C$DW$9, DW_AT_location[DW_OP_reg0]
     118              
     119              
     120              ;***************************************************************
     121              ;* FNAME: _CLK_setWatchDogSrc           FR SIZE:   0           *
     122              ;*                                                             *
     123              ;* FUNCTION ENVIRONMENT                                        *
     124              ;*                                                             *
     125              ;* FUNCTION PROPERTIES                                         *
     126              ;*                            0 Parameter,  0 Auto,  0 SOE     *
     127              ;***************************************************************
     128              
     129              _CLK_setWatchDogSrc:
     130              ;* AR4   assigned to _clkHandle
     131              $C$DW$10        .dwtag  DW_TAG_variable
     132                      .dwattr $C$DW$10, DW_AT_name("clkHandle")
     133                      .dwattr $C$DW$10, DW_AT_TI_symbol_name("_clkHandle")
     134                      .dwattr $C$DW$10, DW_AT_type(*$C$DW$T$61)
     135                      .dwattr $C$DW$10, DW_AT_location[DW_OP_reg12]
     136              
     137              ;* AL    assigned to _src
     138              $C$DW$11        .dwtag  DW_TAG_variable
     139                      .dwattr $C$DW$11, DW_AT_name("src")
     140                      .dwattr $C$DW$11, DW_AT_TI_symbol_name("_src")
     141                      .dwattr $C$DW$11, DW_AT_type(*$C$DW$T$57)
     142                      .dwattr $C$DW$11, DW_AT_location[DW_OP_reg0]
     143              
     144                      .dwcfi  cfa_offset, -2
     145                      .dwcfi  save_reg_to_mem, 26, 0
     146 00000007 7622   EALLOW
     147                      .dwpsn  file "D:/GIANT/GAINT_TI_instaspin/motorware/motorware_1_01_00_18/sw/drivers/clk/src/32b/f28x/
     148 00000008 18D4          AND       *+XAR4[2],#0xfffb     ; [CPU_ALU] |1001| 
         00000009 FFFB 
     149                      .dwpsn  file "D:/GIANT/GAINT_TI_instaspin/motorware/motorware_1_01_00_18/sw/drivers/clk/src/32b/f28x/
     150 0000000a 98D4          OR        *+XAR4[2],AL          ; [CPU_ALU] |1004| 
     151 0000000b 761A   EDIS
     152 0000000c FF69          SPM       #0                    ; [CPU_ALU] 
     153              $C$DW$12        .dwtag  DW_TAG_TI_branch
     154                      .dwattr $C$DW$12, DW_AT_low_pc(0x00)
     155                      .dwattr $C$DW$12, DW_AT_TI_return
     156              
     157 0000000d 0006          LRETR     ; [CPU_ALU] 
     158                      ; return occurs ; [] 
     159                      .dwattr $C$DW$7, DW_AT_TI_end_file("D:/GIANT/GAINT_TI_instaspin/motorware/motorware_1_01_00_18/sw/dri
     160                      .dwattr $C$DW$7, DW_AT_TI_end_line(0x3f1)
     161                      .dwattr $C$DW$7, DW_AT_TI_end_column(0x01)
     162                      .dwendentry
     163                      .dwendtag $C$DW$7
TMS320C2000 Assembler PC v18.12.4 Fri Feb 17 15:09:28 2023

Copyright (c) 1996-2018 Texas Instruments Incorporated
C:\Users\User\AppData\Local\Temp\{ACBAF943-9FA4-4A12-94B4-A2BF97C77D4E} PAGE    4

     164              
     165 0000000e               .sect   ".text"
     166                      .clink
     167                      .global _CLK_setTimer2Src
     168              
     169              $C$DW$13        .dwtag  DW_TAG_subprogram
     170                      .dwattr $C$DW$13, DW_AT_name("CLK_setTimer2Src")
     171                      .dwattr $C$DW$13, DW_AT_low_pc(_CLK_setTimer2Src)
     172                      .dwattr $C$DW$13, DW_AT_high_pc(0x00)
     173                      .dwattr $C$DW$13, DW_AT_TI_symbol_name("_CLK_setTimer2Src")
     174                      .dwattr $C$DW$13, DW_AT_external
     175                      .dwattr $C$DW$13, DW_AT_TI_begin_file("D:/GIANT/GAINT_TI_instaspin/motorware/motorware_1_01_00_18/sw/
     176                      .dwattr $C$DW$13, DW_AT_TI_begin_line(0x3ce)
     177                      .dwattr $C$DW$13, DW_AT_TI_begin_column(0x06)
     178                      .dwattr $C$DW$13, DW_AT_TI_max_frame_size(-2)
     179                      .dwpsn  file "D:/GIANT/GAINT_TI_instaspin/motorware/motorware_1_01_00_18/sw/drivers/clk/src/32b/f28x/
     180              
     181                      .dwfde $C$DW$CIE, _CLK_setTimer2Src
     182              $C$DW$14        .dwtag  DW_TAG_formal_parameter
     183                      .dwattr $C$DW$14, DW_AT_name("clkHandle")
     184                      .dwattr $C$DW$14, DW_AT_TI_symbol_name("_clkHandle")
     185                      .dwattr $C$DW$14, DW_AT_type(*$C$DW$T$60)
     186                      .dwattr $C$DW$14, DW_AT_location[DW_OP_reg12]
     187              
     188              $C$DW$15        .dwtag  DW_TAG_formal_parameter
     189                      .dwattr $C$DW$15, DW_AT_name("src")
     190                      .dwattr $C$DW$15, DW_AT_TI_symbol_name("_src")
     191                      .dwattr $C$DW$15, DW_AT_type(*$C$DW$T$53)
     192                      .dwattr $C$DW$15, DW_AT_location[DW_OP_reg0]
     193              
     194              
     195              ;***************************************************************
     196              ;* FNAME: _CLK_setTimer2Src             FR SIZE:   0           *
     197              ;*                                                             *
     198              ;* FUNCTION ENVIRONMENT                                        *
     199              ;*                                                             *
     200              ;* FUNCTION PROPERTIES                                         *
     201              ;*                            0 Parameter,  0 Auto,  0 SOE     *
     202              ;***************************************************************
     203              
     204              _CLK_setTimer2Src:
     205              ;* AR4   assigned to _clkHandle
     206              $C$DW$16        .dwtag  DW_TAG_variable
     207                      .dwattr $C$DW$16, DW_AT_name("clkHandle")
     208                      .dwattr $C$DW$16, DW_AT_TI_symbol_name("_clkHandle")
     209                      .dwattr $C$DW$16, DW_AT_type(*$C$DW$T$61)
     210                      .dwattr $C$DW$16, DW_AT_location[DW_OP_reg12]
     211              
     212              ;* AL    assigned to _src
     213              $C$DW$17        .dwtag  DW_TAG_variable
     214                      .dwattr $C$DW$17, DW_AT_name("src")
     215                      .dwattr $C$DW$17, DW_AT_TI_symbol_name("_src")
     216                      .dwattr $C$DW$17, DW_AT_type(*$C$DW$T$54)
     217                      .dwattr $C$DW$17, DW_AT_location[DW_OP_reg0]
     218              
TMS320C2000 Assembler PC v18.12.4 Fri Feb 17 15:09:28 2023

Copyright (c) 1996-2018 Texas Instruments Incorporated
C:\Users\User\AppData\Local\Temp\{ACBAF943-9FA4-4A12-94B4-A2BF97C77D4E} PAGE    5

     219                      .dwcfi  cfa_offset, -2
     220                      .dwcfi  save_reg_to_mem, 26, 0
     221 0000000e 7622   EALLOW
     222                      .dwpsn  file "D:/GIANT/GAINT_TI_instaspin/motorware/motorware_1_01_00_18/sw/drivers/clk/src/32b/f28x/
     223 0000000f 18D4          AND       *+XAR4[2],#0xffe7     ; [CPU_ALU] |982| 
         00000010 FFE7 
     224                      .dwpsn  file "D:/GIANT/GAINT_TI_instaspin/motorware/motorware_1_01_00_18/sw/drivers/clk/src/32b/f28x/
     225 00000011 98D4          OR        *+XAR4[2],AL          ; [CPU_ALU] |985| 
     226 00000012 761A   EDIS
     227 00000013 FF69          SPM       #0                    ; [CPU_ALU] 
     228              $C$DW$18        .dwtag  DW_TAG_TI_branch
     229                      .dwattr $C$DW$18, DW_AT_low_pc(0x00)
     230                      .dwattr $C$DW$18, DW_AT_TI_return
     231              
     232 00000014 0006          LRETR     ; [CPU_ALU] 
     233                      ; return occurs ; [] 
     234                      .dwattr $C$DW$13, DW_AT_TI_end_file("D:/GIANT/GAINT_TI_instaspin/motorware/motorware_1_01_00_18/sw/dr
     235                      .dwattr $C$DW$13, DW_AT_TI_end_line(0x3de)
     236                      .dwattr $C$DW$13, DW_AT_TI_end_column(0x01)
     237                      .dwendentry
     238                      .dwendtag $C$DW$13
     239              
     240 00000015               .sect   ".text"
     241                      .clink
     242                      .global _CLK_setTimer2PreScale
     243              
     244              $C$DW$19        .dwtag  DW_TAG_subprogram
     245                      .dwattr $C$DW$19, DW_AT_name("CLK_setTimer2PreScale")
     246                      .dwattr $C$DW$19, DW_AT_low_pc(_CLK_setTimer2PreScale)
     247                      .dwattr $C$DW$19, DW_AT_high_pc(0x00)
     248                      .dwattr $C$DW$19, DW_AT_TI_symbol_name("_CLK_setTimer2PreScale")
     249                      .dwattr $C$DW$19, DW_AT_external
     250                      .dwattr $C$DW$19, DW_AT_TI_begin_file("D:/GIANT/GAINT_TI_instaspin/motorware/motorware_1_01_00_18/sw/
     251                      .dwattr $C$DW$19, DW_AT_TI_begin_line(0x3ba)
     252                      .dwattr $C$DW$19, DW_AT_TI_begin_column(0x06)
     253                      .dwattr $C$DW$19, DW_AT_TI_max_frame_size(-2)
     254                      .dwpsn  file "D:/GIANT/GAINT_TI_instaspin/motorware/motorware_1_01_00_18/sw/drivers/clk/src/32b/f28x/
     255              
     256                      .dwfde $C$DW$CIE, _CLK_setTimer2PreScale
     257              $C$DW$20        .dwtag  DW_TAG_formal_parameter
     258                      .dwattr $C$DW$20, DW_AT_name("clkHandle")
     259                      .dwattr $C$DW$20, DW_AT_TI_symbol_name("_clkHandle")
     260                      .dwattr $C$DW$20, DW_AT_type(*$C$DW$T$60)
     261                      .dwattr $C$DW$20, DW_AT_location[DW_OP_reg12]
     262              
     263              $C$DW$21        .dwtag  DW_TAG_formal_parameter
     264                      .dwattr $C$DW$21, DW_AT_name("preScaler")
     265                      .dwattr $C$DW$21, DW_AT_TI_symbol_name("_preScaler")
     266                      .dwattr $C$DW$21, DW_AT_type(*$C$DW$T$50)
     267                      .dwattr $C$DW$21, DW_AT_location[DW_OP_reg0]
     268              
     269              
     270              ;***************************************************************
     271              ;* FNAME: _CLK_setTimer2PreScale        FR SIZE:   0           *
     272              ;*                                                             *
TMS320C2000 Assembler PC v18.12.4 Fri Feb 17 15:09:28 2023

Copyright (c) 1996-2018 Texas Instruments Incorporated
C:\Users\User\AppData\Local\Temp\{ACBAF943-9FA4-4A12-94B4-A2BF97C77D4E} PAGE    6

     273              ;* FUNCTION ENVIRONMENT                                        *
     274              ;*                                                             *
     275              ;* FUNCTION PROPERTIES                                         *
     276              ;*                            0 Parameter,  0 Auto,  0 SOE     *
     277              ;***************************************************************
     278              
     279              _CLK_setTimer2PreScale:
     280              ;* AR4   assigned to _clkHandle
     281              $C$DW$22        .dwtag  DW_TAG_variable
     282                      .dwattr $C$DW$22, DW_AT_name("clkHandle")
     283                      .dwattr $C$DW$22, DW_AT_TI_symbol_name("_clkHandle")
     284                      .dwattr $C$DW$22, DW_AT_type(*$C$DW$T$61)
     285                      .dwattr $C$DW$22, DW_AT_location[DW_OP_reg12]
     286              
     287              ;* AL    assigned to _preScaler
     288              $C$DW$23        .dwtag  DW_TAG_variable
     289                      .dwattr $C$DW$23, DW_AT_name("preScaler")
     290                      .dwattr $C$DW$23, DW_AT_TI_symbol_name("_preScaler")
     291                      .dwattr $C$DW$23, DW_AT_type(*$C$DW$T$51)
     292                      .dwattr $C$DW$23, DW_AT_location[DW_OP_reg0]
     293              
     294                      .dwcfi  cfa_offset, -2
     295                      .dwcfi  save_reg_to_mem, 26, 0
     296 00000015 7622   EALLOW
     297                      .dwpsn  file "D:/GIANT/GAINT_TI_instaspin/motorware/motorware_1_01_00_18/sw/drivers/clk/src/32b/f28x/
     298 00000016 18D4          AND       *+XAR4[2],#0xff1f     ; [CPU_ALU] |963| 
         00000017 FF1F 
     299                      .dwpsn  file "D:/GIANT/GAINT_TI_instaspin/motorware/motorware_1_01_00_18/sw/drivers/clk/src/32b/f28x/
     300 00000018 98D4          OR        *+XAR4[2],AL          ; [CPU_ALU] |966| 
     301 00000019 761A   EDIS
     302 0000001a FF69          SPM       #0                    ; [CPU_ALU] 
     303              $C$DW$24        .dwtag  DW_TAG_TI_branch
     304                      .dwattr $C$DW$24, DW_AT_low_pc(0x00)
     305                      .dwattr $C$DW$24, DW_AT_TI_return
     306              
     307 0000001b 0006          LRETR     ; [CPU_ALU] 
     308                      ; return occurs ; [] 
     309                      .dwattr $C$DW$19, DW_AT_TI_end_file("D:/GIANT/GAINT_TI_instaspin/motorware/motorware_1_01_00_18/sw/dr
     310                      .dwattr $C$DW$19, DW_AT_TI_end_line(0x3cb)
     311                      .dwattr $C$DW$19, DW_AT_TI_end_column(0x01)
     312                      .dwendentry
     313                      .dwendtag $C$DW$19
     314              
     315 0000001c               .sect   ".text"
     316                      .clink
     317                      .global _CLK_setOscSrc
     318              
     319              $C$DW$25        .dwtag  DW_TAG_subprogram
     320                      .dwattr $C$DW$25, DW_AT_name("CLK_setOscSrc")
     321                      .dwattr $C$DW$25, DW_AT_low_pc(_CLK_setOscSrc)
     322                      .dwattr $C$DW$25, DW_AT_high_pc(0x00)
     323                      .dwattr $C$DW$25, DW_AT_TI_symbol_name("_CLK_setOscSrc")
     324                      .dwattr $C$DW$25, DW_AT_external
     325                      .dwattr $C$DW$25, DW_AT_TI_begin_file("D:/GIANT/GAINT_TI_instaspin/motorware/motorware_1_01_00_18/sw/
     326                      .dwattr $C$DW$25, DW_AT_TI_begin_line(0x382)
TMS320C2000 Assembler PC v18.12.4 Fri Feb 17 15:09:28 2023

Copyright (c) 1996-2018 Texas Instruments Incorporated
C:\Users\User\AppData\Local\Temp\{ACBAF943-9FA4-4A12-94B4-A2BF97C77D4E} PAGE    7

     327                      .dwattr $C$DW$25, DW_AT_TI_begin_column(0x06)
     328                      .dwattr $C$DW$25, DW_AT_TI_max_frame_size(-2)
     329                      .dwpsn  file "D:/GIANT/GAINT_TI_instaspin/motorware/motorware_1_01_00_18/sw/drivers/clk/src/32b/f28x/
     330              
     331                      .dwfde $C$DW$CIE, _CLK_setOscSrc
     332              $C$DW$26        .dwtag  DW_TAG_formal_parameter
     333                      .dwattr $C$DW$26, DW_AT_name("clkHandle")
     334                      .dwattr $C$DW$26, DW_AT_TI_symbol_name("_clkHandle")
     335                      .dwattr $C$DW$26, DW_AT_type(*$C$DW$T$60)
     336                      .dwattr $C$DW$26, DW_AT_location[DW_OP_reg12]
     337              
     338              $C$DW$27        .dwtag  DW_TAG_formal_parameter
     339                      .dwattr $C$DW$27, DW_AT_name("src")
     340                      .dwattr $C$DW$27, DW_AT_TI_symbol_name("_src")
     341                      .dwattr $C$DW$27, DW_AT_type(*$C$DW$T$41)
     342                      .dwattr $C$DW$27, DW_AT_location[DW_OP_reg0]
     343              
     344              
     345              ;***************************************************************
     346              ;* FNAME: _CLK_setOscSrc                FR SIZE:   0           *
     347              ;*                                                             *
     348              ;* FUNCTION ENVIRONMENT                                        *
     349              ;*                                                             *
     350              ;* FUNCTION PROPERTIES                                         *
     351              ;*                            0 Parameter,  0 Auto,  0 SOE     *
     352              ;***************************************************************
     353              
     354              _CLK_setOscSrc:
     355              ;* AR4   assigned to _clkHandle
     356              $C$DW$28        .dwtag  DW_TAG_variable
     357                      .dwattr $C$DW$28, DW_AT_name("clkHandle")
     358                      .dwattr $C$DW$28, DW_AT_TI_symbol_name("_clkHandle")
     359                      .dwattr $C$DW$28, DW_AT_type(*$C$DW$T$61)
     360                      .dwattr $C$DW$28, DW_AT_location[DW_OP_reg12]
     361              
     362              ;* AL    assigned to _src
     363              $C$DW$29        .dwtag  DW_TAG_variable
     364                      .dwattr $C$DW$29, DW_AT_name("src")
     365                      .dwattr $C$DW$29, DW_AT_TI_symbol_name("_src")
     366                      .dwattr $C$DW$29, DW_AT_type(*$C$DW$T$42)
     367                      .dwattr $C$DW$29, DW_AT_location[DW_OP_reg0]
     368              
     369                      .dwcfi  cfa_offset, -2
     370                      .dwcfi  save_reg_to_mem, 26, 0
     371 0000001c 7622   EALLOW
     372                      .dwpsn  file "D:/GIANT/GAINT_TI_instaspin/motorware/motorware_1_01_00_18/sw/drivers/clk/src/32b/f28x/
     373 0000001d 18D4          AND       *+XAR4[2],#0xfffe     ; [CPU_ALU] |906| 
         0000001e FFFE 
     374                      .dwpsn  file "D:/GIANT/GAINT_TI_instaspin/motorware/motorware_1_01_00_18/sw/drivers/clk/src/32b/f28x/
     375 0000001f 98D4          OR        *+XAR4[2],AL          ; [CPU_ALU] |909| 
     376 00000020 761A   EDIS
     377 00000021 FF69          SPM       #0                    ; [CPU_ALU] 
     378              $C$DW$30        .dwtag  DW_TAG_TI_branch
     379                      .dwattr $C$DW$30, DW_AT_low_pc(0x00)
     380                      .dwattr $C$DW$30, DW_AT_TI_return
TMS320C2000 Assembler PC v18.12.4 Fri Feb 17 15:09:28 2023

Copyright (c) 1996-2018 Texas Instruments Incorporated
C:\Users\User\AppData\Local\Temp\{ACBAF943-9FA4-4A12-94B4-A2BF97C77D4E} PAGE    8

     381              
     382 00000022 0006          LRETR     ; [CPU_ALU] 
     383                      ; return occurs ; [] 
     384                      .dwattr $C$DW$25, DW_AT_TI_end_file("D:/GIANT/GAINT_TI_instaspin/motorware/motorware_1_01_00_18/sw/dr
     385                      .dwattr $C$DW$25, DW_AT_TI_end_line(0x392)
     386                      .dwattr $C$DW$25, DW_AT_TI_end_column(0x01)
     387                      .dwendentry
     388                      .dwendtag $C$DW$25
     389              
     390 00000023               .sect   ".text"
     391                      .clink
     392                      .global _CLK_setOsc2Src
     393              
     394              $C$DW$31        .dwtag  DW_TAG_subprogram
     395                      .dwattr $C$DW$31, DW_AT_name("CLK_setOsc2Src")
     396                      .dwattr $C$DW$31, DW_AT_low_pc(_CLK_setOsc2Src)
     397                      .dwattr $C$DW$31, DW_AT_high_pc(0x00)
     398                      .dwattr $C$DW$31, DW_AT_TI_symbol_name("_CLK_setOsc2Src")
     399                      .dwattr $C$DW$31, DW_AT_external
     400                      .dwattr $C$DW$31, DW_AT_TI_begin_file("D:/GIANT/GAINT_TI_instaspin/motorware/motorware_1_01_00_18/sw/
     401                      .dwattr $C$DW$31, DW_AT_TI_begin_line(0x395)
     402                      .dwattr $C$DW$31, DW_AT_TI_begin_column(0x06)
     403                      .dwattr $C$DW$31, DW_AT_TI_max_frame_size(-2)
     404                      .dwpsn  file "D:/GIANT/GAINT_TI_instaspin/motorware/motorware_1_01_00_18/sw/drivers/clk/src/32b/f28x/
     405              
     406                      .dwfde $C$DW$CIE, _CLK_setOsc2Src
     407              $C$DW$32        .dwtag  DW_TAG_formal_parameter
     408                      .dwattr $C$DW$32, DW_AT_name("clkHandle")
     409                      .dwattr $C$DW$32, DW_AT_TI_symbol_name("_clkHandle")
     410                      .dwattr $C$DW$32, DW_AT_type(*$C$DW$T$60)
     411                      .dwattr $C$DW$32, DW_AT_location[DW_OP_reg12]
     412              
     413              $C$DW$33        .dwtag  DW_TAG_formal_parameter
     414                      .dwattr $C$DW$33, DW_AT_name("src")
     415                      .dwattr $C$DW$33, DW_AT_TI_symbol_name("_src")
     416                      .dwattr $C$DW$33, DW_AT_type(*$C$DW$T$44)
     417                      .dwattr $C$DW$33, DW_AT_location[DW_OP_reg0]
     418              
     419              
     420              ;***************************************************************
     421              ;* FNAME: _CLK_setOsc2Src               FR SIZE:   0           *
     422              ;*                                                             *
     423              ;* FUNCTION ENVIRONMENT                                        *
     424              ;*                                                             *
     425              ;* FUNCTION PROPERTIES                                         *
     426              ;*                            0 Parameter,  0 Auto,  0 SOE     *
     427              ;***************************************************************
     428              
     429              _CLK_setOsc2Src:
     430              ;* AR4   assigned to _clkHandle
     431              $C$DW$34        .dwtag  DW_TAG_variable
     432                      .dwattr $C$DW$34, DW_AT_name("clkHandle")
     433                      .dwattr $C$DW$34, DW_AT_TI_symbol_name("_clkHandle")
     434                      .dwattr $C$DW$34, DW_AT_type(*$C$DW$T$61)
     435                      .dwattr $C$DW$34, DW_AT_location[DW_OP_reg12]
TMS320C2000 Assembler PC v18.12.4 Fri Feb 17 15:09:28 2023

Copyright (c) 1996-2018 Texas Instruments Incorporated
C:\Users\User\AppData\Local\Temp\{ACBAF943-9FA4-4A12-94B4-A2BF97C77D4E} PAGE    9

     436              
     437              ;* AL    assigned to _src
     438              $C$DW$35        .dwtag  DW_TAG_variable
     439                      .dwattr $C$DW$35, DW_AT_name("src")
     440                      .dwattr $C$DW$35, DW_AT_TI_symbol_name("_src")
     441                      .dwattr $C$DW$35, DW_AT_type(*$C$DW$T$45)
     442                      .dwattr $C$DW$35, DW_AT_location[DW_OP_reg0]
     443              
     444                      .dwcfi  cfa_offset, -2
     445                      .dwcfi  save_reg_to_mem, 26, 0
     446 00000023 7622   EALLOW
     447                      .dwpsn  file "D:/GIANT/GAINT_TI_instaspin/motorware/motorware_1_01_00_18/sw/drivers/clk/src/32b/f28x/
     448 00000024 18D4          AND       *+XAR4[2],#0xfffd     ; [CPU_ALU] |925| 
         00000025 FFFD 
     449                      .dwpsn  file "D:/GIANT/GAINT_TI_instaspin/motorware/motorware_1_01_00_18/sw/drivers/clk/src/32b/f28x/
     450 00000026 98D4          OR        *+XAR4[2],AL          ; [CPU_ALU] |928| 
     451 00000027 761A   EDIS
     452 00000028 FF69          SPM       #0                    ; [CPU_ALU] 
     453              $C$DW$36        .dwtag  DW_TAG_TI_branch
     454                      .dwattr $C$DW$36, DW_AT_low_pc(0x00)
     455                      .dwattr $C$DW$36, DW_AT_TI_return
     456              
     457 00000029 0006          LRETR     ; [CPU_ALU] 
     458                      ; return occurs ; [] 
     459                      .dwattr $C$DW$31, DW_AT_TI_end_file("D:/GIANT/GAINT_TI_instaspin/motorware/motorware_1_01_00_18/sw/dr
     460                      .dwattr $C$DW$31, DW_AT_TI_end_line(0x3a5)
     461                      .dwattr $C$DW$31, DW_AT_TI_end_column(0x01)
     462                      .dwendentry
     463                      .dwendtag $C$DW$31
     464              
     465 0000002a               .sect   ".text"
     466                      .clink
     467                      .global _CLK_setLowSpdPreScaler
     468              
     469              $C$DW$37        .dwtag  DW_TAG_subprogram
     470                      .dwattr $C$DW$37, DW_AT_name("CLK_setLowSpdPreScaler")
     471                      .dwattr $C$DW$37, DW_AT_low_pc(_CLK_setLowSpdPreScaler)
     472                      .dwattr $C$DW$37, DW_AT_high_pc(0x00)
     473                      .dwattr $C$DW$37, DW_AT_TI_symbol_name("_CLK_setLowSpdPreScaler")
     474                      .dwattr $C$DW$37, DW_AT_external
     475                      .dwattr $C$DW$37, DW_AT_TI_begin_file("D:/GIANT/GAINT_TI_instaspin/motorware/motorware_1_01_00_18/sw/
     476                      .dwattr $C$DW$37, DW_AT_TI_begin_line(0x371)
     477                      .dwattr $C$DW$37, DW_AT_TI_begin_column(0x06)
     478                      .dwattr $C$DW$37, DW_AT_TI_max_frame_size(-2)
     479                      .dwpsn  file "D:/GIANT/GAINT_TI_instaspin/motorware/motorware_1_01_00_18/sw/drivers/clk/src/32b/f28x/
     480              
     481                      .dwfde $C$DW$CIE, _CLK_setLowSpdPreScaler
     482              $C$DW$38        .dwtag  DW_TAG_formal_parameter
     483                      .dwattr $C$DW$38, DW_AT_name("clkHandle")
     484                      .dwattr $C$DW$38, DW_AT_TI_symbol_name("_clkHandle")
     485                      .dwattr $C$DW$38, DW_AT_type(*$C$DW$T$60)
     486                      .dwattr $C$DW$38, DW_AT_location[DW_OP_reg12]
     487              
     488              $C$DW$39        .dwtag  DW_TAG_formal_parameter
     489                      .dwattr $C$DW$39, DW_AT_name("preScaler")
TMS320C2000 Assembler PC v18.12.4 Fri Feb 17 15:09:28 2023

Copyright (c) 1996-2018 Texas Instruments Incorporated
C:\Users\User\AppData\Local\Temp\{ACBAF943-9FA4-4A12-94B4-A2BF97C77D4E} PAGE   10

     490                      .dwattr $C$DW$39, DW_AT_TI_symbol_name("_preScaler")
     491                      .dwattr $C$DW$39, DW_AT_type(*$C$DW$T$38)
     492                      .dwattr $C$DW$39, DW_AT_location[DW_OP_reg0]
     493              
     494              
     495              ;***************************************************************
     496              ;* FNAME: _CLK_setLowSpdPreScaler       FR SIZE:   0           *
     497              ;*                                                             *
     498              ;* FUNCTION ENVIRONMENT                                        *
     499              ;*                                                             *
     500              ;* FUNCTION PROPERTIES                                         *
     501              ;*                            0 Parameter,  0 Auto,  0 SOE     *
     502              ;***************************************************************
     503              
     504              _CLK_setLowSpdPreScaler:
     505              ;* AR4   assigned to _clkHandle
     506              $C$DW$40        .dwtag  DW_TAG_variable
     507                      .dwattr $C$DW$40, DW_AT_name("clkHandle")
     508                      .dwattr $C$DW$40, DW_AT_TI_symbol_name("_clkHandle")
     509                      .dwattr $C$DW$40, DW_AT_type(*$C$DW$T$61)
     510                      .dwattr $C$DW$40, DW_AT_location[DW_OP_reg12]
     511              
     512              ;* AL    assigned to _preScaler
     513              $C$DW$41        .dwtag  DW_TAG_variable
     514                      .dwattr $C$DW$41, DW_AT_name("preScaler")
     515                      .dwattr $C$DW$41, DW_AT_TI_symbol_name("_preScaler")
     516                      .dwattr $C$DW$41, DW_AT_type(*$C$DW$T$39)
     517                      .dwattr $C$DW$41, DW_AT_location[DW_OP_reg0]
     518              
     519                      .dwcfi  cfa_offset, -2
     520                      .dwcfi  save_reg_to_mem, 26, 0
     521 0000002a 7622   EALLOW
     522                      .dwpsn  file "D:/GIANT/GAINT_TI_instaspin/motorware/motorware_1_01_00_18/sw/drivers/clk/src/32b/f28x/
     523 0000002b D00B          MOVB      XAR0,#11              ; [CPU_ALU] |890| 
     524 0000002c 9694          MOV       *+XAR4[AR0],AL        ; [CPU_ALU] |890| 
     525 0000002d 761A   EDIS
     526 0000002e FF69          SPM       #0                    ; [CPU_ALU] 
     527              $C$DW$42        .dwtag  DW_TAG_TI_branch
     528                      .dwattr $C$DW$42, DW_AT_low_pc(0x00)
     529                      .dwattr $C$DW$42, DW_AT_TI_return
     530              
     531 0000002f 0006          LRETR     ; [CPU_ALU] 
     532                      ; return occurs ; [] 
     533                      .dwattr $C$DW$37, DW_AT_TI_end_file("D:/GIANT/GAINT_TI_instaspin/motorware/motorware_1_01_00_18/sw/dr
     534                      .dwattr $C$DW$37, DW_AT_TI_end_line(0x37f)
     535                      .dwattr $C$DW$37, DW_AT_TI_end_column(0x01)
     536                      .dwendentry
     537                      .dwendtag $C$DW$37
     538              
     539 00000030               .sect   ".text"
     540                      .clink
     541                      .global _CLK_setClkOutPreScaler
     542              
     543              $C$DW$43        .dwtag  DW_TAG_subprogram
     544                      .dwattr $C$DW$43, DW_AT_name("CLK_setClkOutPreScaler")
TMS320C2000 Assembler PC v18.12.4 Fri Feb 17 15:09:28 2023

Copyright (c) 1996-2018 Texas Instruments Incorporated
C:\Users\User\AppData\Local\Temp\{ACBAF943-9FA4-4A12-94B4-A2BF97C77D4E} PAGE   11

     545                      .dwattr $C$DW$43, DW_AT_low_pc(_CLK_setClkOutPreScaler)
     546                      .dwattr $C$DW$43, DW_AT_high_pc(0x00)
     547                      .dwattr $C$DW$43, DW_AT_TI_symbol_name("_CLK_setClkOutPreScaler")
     548                      .dwattr $C$DW$43, DW_AT_external
     549                      .dwattr $C$DW$43, DW_AT_TI_begin_file("D:/GIANT/GAINT_TI_instaspin/motorware/motorware_1_01_00_18/sw/
     550                      .dwattr $C$DW$43, DW_AT_TI_begin_line(0x35d)
     551                      .dwattr $C$DW$43, DW_AT_TI_begin_column(0x06)
     552                      .dwattr $C$DW$43, DW_AT_TI_max_frame_size(-2)
     553                      .dwpsn  file "D:/GIANT/GAINT_TI_instaspin/motorware/motorware_1_01_00_18/sw/drivers/clk/src/32b/f28x/
     554              
     555                      .dwfde $C$DW$CIE, _CLK_setClkOutPreScaler
     556              $C$DW$44        .dwtag  DW_TAG_formal_parameter
     557                      .dwattr $C$DW$44, DW_AT_name("clkHandle")
     558                      .dwattr $C$DW$44, DW_AT_TI_symbol_name("_clkHandle")
     559                      .dwattr $C$DW$44, DW_AT_type(*$C$DW$T$60)
     560                      .dwattr $C$DW$44, DW_AT_location[DW_OP_reg12]
     561              
     562              $C$DW$45        .dwtag  DW_TAG_formal_parameter
     563                      .dwattr $C$DW$45, DW_AT_name("preScaler")
     564                      .dwattr $C$DW$45, DW_AT_TI_symbol_name("_preScaler")
     565                      .dwattr $C$DW$45, DW_AT_type(*$C$DW$T$35)
     566                      .dwattr $C$DW$45, DW_AT_location[DW_OP_reg0]
     567              
     568              
     569              ;***************************************************************
     570              ;* FNAME: _CLK_setClkOutPreScaler       FR SIZE:   0           *
     571              ;*                                                             *
     572              ;* FUNCTION ENVIRONMENT                                        *
     573              ;*                                                             *
     574              ;* FUNCTION PROPERTIES                                         *
     575              ;*                            0 Parameter,  0 Auto,  0 SOE     *
     576              ;***************************************************************
     577              
     578              _CLK_setClkOutPreScaler:
     579              ;* AR4   assigned to _clkHandle
     580              $C$DW$46        .dwtag  DW_TAG_variable
     581                      .dwattr $C$DW$46, DW_AT_name("clkHandle")
     582                      .dwattr $C$DW$46, DW_AT_TI_symbol_name("_clkHandle")
     583                      .dwattr $C$DW$46, DW_AT_type(*$C$DW$T$61)
     584                      .dwattr $C$DW$46, DW_AT_location[DW_OP_reg12]
     585              
     586              ;* AL    assigned to _preScaler
     587              $C$DW$47        .dwtag  DW_TAG_variable
     588                      .dwattr $C$DW$47, DW_AT_name("preScaler")
     589                      .dwattr $C$DW$47, DW_AT_TI_symbol_name("_preScaler")
     590                      .dwattr $C$DW$47, DW_AT_type(*$C$DW$T$36)
     591                      .dwattr $C$DW$47, DW_AT_location[DW_OP_reg0]
     592              
     593                      .dwcfi  cfa_offset, -2
     594                      .dwcfi  save_reg_to_mem, 26, 0
     595 00000030 7622   EALLOW
     596                      .dwpsn  file "D:/GIANT/GAINT_TI_instaspin/motorware/motorware_1_01_00_18/sw/drivers/clk/src/32b/f28x/
     597 00000031 18C4          AND       *+XAR4[0],#0xfffc     ; [CPU_ALU] |870| 
         00000032 FFFC 
     598                      .dwpsn  file "D:/GIANT/GAINT_TI_instaspin/motorware/motorware_1_01_00_18/sw/drivers/clk/src/32b/f28x/
TMS320C2000 Assembler PC v18.12.4 Fri Feb 17 15:09:28 2023

Copyright (c) 1996-2018 Texas Instruments Incorporated
C:\Users\User\AppData\Local\Temp\{ACBAF943-9FA4-4A12-94B4-A2BF97C77D4E} PAGE   12

     599 00000033 98C4          OR        *+XAR4[0],AL          ; [CPU_ALU] |873| 
     600 00000034 761A   EDIS
     601 00000035 FF69          SPM       #0                    ; [CPU_ALU] 
     602              $C$DW$48        .dwtag  DW_TAG_TI_branch
     603                      .dwattr $C$DW$48, DW_AT_low_pc(0x00)
     604                      .dwattr $C$DW$48, DW_AT_TI_return
     605              
     606 00000036 0006          LRETR     ; [CPU_ALU] 
     607                      ; return occurs ; [] 
     608                      .dwattr $C$DW$43, DW_AT_TI_end_file("D:/GIANT/GAINT_TI_instaspin/motorware/motorware_1_01_00_18/sw/dr
     609                      .dwattr $C$DW$43, DW_AT_TI_end_line(0x36e)
     610                      .dwattr $C$DW$43, DW_AT_TI_end_column(0x01)
     611                      .dwendentry
     612                      .dwendtag $C$DW$43
     613              
     614 00000037               .sect   ".text"
     615                      .clink
     616                      .global _CLK_init
     617              
     618              $C$DW$49        .dwtag  DW_TAG_subprogram
     619                      .dwattr $C$DW$49, DW_AT_name("CLK_init")
     620                      .dwattr $C$DW$49, DW_AT_low_pc(_CLK_init)
     621                      .dwattr $C$DW$49, DW_AT_high_pc(0x00)
     622                      .dwattr $C$DW$49, DW_AT_TI_symbol_name("_CLK_init")
     623                      .dwattr $C$DW$49, DW_AT_external
     624                      .dwattr $C$DW$49, DW_AT_type(*$C$DW$T$60)
     625                      .dwattr $C$DW$49, DW_AT_TI_begin_file("D:/GIANT/GAINT_TI_instaspin/motorware/motorware_1_01_00_18/sw/
     626                      .dwattr $C$DW$49, DW_AT_TI_begin_line(0x34e)
     627                      .dwattr $C$DW$49, DW_AT_TI_begin_column(0x0c)
     628                      .dwattr $C$DW$49, DW_AT_TI_max_frame_size(-2)
     629                      .dwpsn  file "D:/GIANT/GAINT_TI_instaspin/motorware/motorware_1_01_00_18/sw/drivers/clk/src/32b/f28x/
     630              
     631                      .dwfde $C$DW$CIE, _CLK_init
     632              $C$DW$50        .dwtag  DW_TAG_formal_parameter
     633                      .dwattr $C$DW$50, DW_AT_name("pMemory")
     634                      .dwattr $C$DW$50, DW_AT_TI_symbol_name("_pMemory")
     635                      .dwattr $C$DW$50, DW_AT_type(*$C$DW$T$3)
     636                      .dwattr $C$DW$50, DW_AT_location[DW_OP_reg12]
     637              
     638              $C$DW$51        .dwtag  DW_TAG_formal_parameter
     639                      .dwattr $C$DW$51, DW_AT_name("numBytes")
     640                      .dwattr $C$DW$51, DW_AT_TI_symbol_name("_numBytes")
     641                      .dwattr $C$DW$51, DW_AT_type(*$C$DW$T$62)
     642                      .dwattr $C$DW$51, DW_AT_location[DW_OP_reg0]
     643              
     644              
     645              ;***************************************************************
     646              ;* FNAME: _CLK_init                     FR SIZE:   0           *
     647              ;*                                                             *
     648              ;* FUNCTION ENVIRONMENT                                        *
     649              ;*                                                             *
     650              ;* FUNCTION PROPERTIES                                         *
     651              ;*                            0 Parameter,  0 Auto,  0 SOE     *
     652              ;***************************************************************
     653              
TMS320C2000 Assembler PC v18.12.4 Fri Feb 17 15:09:28 2023

Copyright (c) 1996-2018 Texas Instruments Incorporated
C:\Users\User\AppData\Local\Temp\{ACBAF943-9FA4-4A12-94B4-A2BF97C77D4E} PAGE   13

     654              _CLK_init:
     655              ;* AR6   assigned to _numBytes
     656              $C$DW$52        .dwtag  DW_TAG_variable
     657                      .dwattr $C$DW$52, DW_AT_name("numBytes")
     658                      .dwattr $C$DW$52, DW_AT_TI_symbol_name("_numBytes")
     659                      .dwattr $C$DW$52, DW_AT_type(*$C$DW$T$63)
     660                      .dwattr $C$DW$52, DW_AT_location[DW_OP_reg16]
     661              
     662                      .dwcfi  cfa_offset, -2
     663                      .dwcfi  save_reg_to_mem, 26, 0
     664 00000037 1EA6          MOVL      XAR6,ACC              ; [CPU_ALU] |847| 
     665                      .dwpsn  file "D:/GIANT/GAINT_TI_instaspin/motorware/motorware_1_01_00_18/sw/drivers/clk/src/32b/f28x/
     666 00000038 0211          MOVB      ACC,#17               ; [CPU_ALU] |852| 
     667 00000039 0FA6          CMPL      ACC,XAR6              ; [CPU_ALU] |852| 
     668 0000003a 6902          B         $C$L1,LOS             ; [CPU_ALU] |852| 
     669                      ; branchcc occurs ; [] |852| 
     670 0000003b D400          MOVB      XAR4,#0               ; [CPU_ALU] |852| 
     671              $C$L1:    
     672              $C$DW$53        .dwtag  DW_TAG_TI_branch
     673                      .dwattr $C$DW$53, DW_AT_low_pc(0x00)
     674                      .dwattr $C$DW$53, DW_AT_TI_return
     675              
     676 0000003c 0006          LRETR     ; [CPU_ALU] 
     677                      ; return occurs ; [] 
     678                      .dwattr $C$DW$49, DW_AT_TI_end_file("D:/GIANT/GAINT_TI_instaspin/motorware/motorware_1_01_00_18/sw/dr
     679                      .dwattr $C$DW$49, DW_AT_TI_end_line(0x35a)
     680                      .dwattr $C$DW$49, DW_AT_TI_end_column(0x01)
     681                      .dwendentry
     682                      .dwendtag $C$DW$49
     683              
     684 0000003d               .sect   ".text"
     685                      .clink
     686                      .global _CLK_enableWatchDogHaltMode
     687              
     688              $C$DW$54        .dwtag  DW_TAG_subprogram
     689                      .dwattr $C$DW$54, DW_AT_name("CLK_enableWatchDogHaltMode")
     690                      .dwattr $C$DW$54, DW_AT_low_pc(_CLK_enableWatchDogHaltMode)
     691                      .dwattr $C$DW$54, DW_AT_high_pc(0x00)
     692                      .dwattr $C$DW$54, DW_AT_TI_symbol_name("_CLK_enableWatchDogHaltMode")
     693                      .dwattr $C$DW$54, DW_AT_external
     694                      .dwattr $C$DW$54, DW_AT_TI_begin_file("D:/GIANT/GAINT_TI_instaspin/motorware/motorware_1_01_00_18/sw/
     695                      .dwattr $C$DW$54, DW_AT_TI_begin_line(0x33e)
     696                      .dwattr $C$DW$54, DW_AT_TI_begin_column(0x06)
     697                      .dwattr $C$DW$54, DW_AT_TI_max_frame_size(-2)
     698                      .dwpsn  file "D:/GIANT/GAINT_TI_instaspin/motorware/motorware_1_01_00_18/sw/drivers/clk/src/32b/f28x/
     699              
     700                      .dwfde $C$DW$CIE, _CLK_enableWatchDogHaltMode
     701              $C$DW$55        .dwtag  DW_TAG_formal_parameter
     702                      .dwattr $C$DW$55, DW_AT_name("clkHandle")
     703                      .dwattr $C$DW$55, DW_AT_TI_symbol_name("_clkHandle")
     704                      .dwattr $C$DW$55, DW_AT_type(*$C$DW$T$60)
     705                      .dwattr $C$DW$55, DW_AT_location[DW_OP_reg12]
     706              
     707              
     708              ;***************************************************************
TMS320C2000 Assembler PC v18.12.4 Fri Feb 17 15:09:28 2023

Copyright (c) 1996-2018 Texas Instruments Incorporated
C:\Users\User\AppData\Local\Temp\{ACBAF943-9FA4-4A12-94B4-A2BF97C77D4E} PAGE   14

     709              ;* FNAME: _CLK_enableWatchDogHaltMode   FR SIZE:   0           *
     710              ;*                                                             *
     711              ;* FUNCTION ENVIRONMENT                                        *
     712              ;*                                                             *
     713              ;* FUNCTION PROPERTIES                                         *
     714              ;*                            0 Parameter,  0 Auto,  0 SOE     *
     715              ;***************************************************************
     716              
     717              _CLK_enableWatchDogHaltMode:
     718              ;* AR4   assigned to _clkHandle
     719              $C$DW$56        .dwtag  DW_TAG_variable
     720                      .dwattr $C$DW$56, DW_AT_name("clkHandle")
     721                      .dwattr $C$DW$56, DW_AT_TI_symbol_name("_clkHandle")
     722                      .dwattr $C$DW$56, DW_AT_type(*$C$DW$T$61)
     723                      .dwattr $C$DW$56, DW_AT_location[DW_OP_reg12]
     724              
     725                      .dwcfi  cfa_offset, -2
     726                      .dwcfi  save_reg_to_mem, 26, 0
     727 0000003d 7622   EALLOW
     728                      .dwpsn  file "D:/GIANT/GAINT_TI_instaspin/motorware/motorware_1_01_00_18/sw/drivers/clk/src/32b/f28x/
     729 0000003e 18D4          AND       *+XAR4[2],#0xefff     ; [CPU_ALU] |838| 
         0000003f EFFF 
     730 00000040 761A   EDIS
     731 00000041 FF69          SPM       #0                    ; [CPU_ALU] 
     732              $C$DW$57        .dwtag  DW_TAG_TI_branch
     733                      .dwattr $C$DW$57, DW_AT_low_pc(0x00)
     734                      .dwattr $C$DW$57, DW_AT_TI_return
     735              
     736 00000042 0006          LRETR     ; [CPU_ALU] 
     737                      ; return occurs ; [] 
     738                      .dwattr $C$DW$54, DW_AT_TI_end_file("D:/GIANT/GAINT_TI_instaspin/motorware/motorware_1_01_00_18/sw/dr
     739                      .dwattr $C$DW$54, DW_AT_TI_end_line(0x34b)
     740                      .dwattr $C$DW$54, DW_AT_TI_end_column(0x01)
     741                      .dwendentry
     742                      .dwendtag $C$DW$54
     743              
     744 00000043               .sect   ".text"
     745                      .clink
     746                      .global _CLK_enableTbClockSync
     747              
     748              $C$DW$58        .dwtag  DW_TAG_subprogram
     749                      .dwattr $C$DW$58, DW_AT_name("CLK_enableTbClockSync")
     750                      .dwattr $C$DW$58, DW_AT_low_pc(_CLK_enableTbClockSync)
     751                      .dwattr $C$DW$58, DW_AT_high_pc(0x00)
     752                      .dwattr $C$DW$58, DW_AT_TI_symbol_name("_CLK_enableTbClockSync")
     753                      .dwattr $C$DW$58, DW_AT_external
     754                      .dwattr $C$DW$58, DW_AT_TI_begin_file("D:/GIANT/GAINT_TI_instaspin/motorware/motorware_1_01_00_18/sw/
     755                      .dwattr $C$DW$58, DW_AT_TI_begin_line(0x32e)
     756                      .dwattr $C$DW$58, DW_AT_TI_begin_column(0x06)
     757                      .dwattr $C$DW$58, DW_AT_TI_max_frame_size(-2)
     758                      .dwpsn  file "D:/GIANT/GAINT_TI_instaspin/motorware/motorware_1_01_00_18/sw/drivers/clk/src/32b/f28x/
     759              
     760                      .dwfde $C$DW$CIE, _CLK_enableTbClockSync
     761              $C$DW$59        .dwtag  DW_TAG_formal_parameter
     762                      .dwattr $C$DW$59, DW_AT_name("clkHandle")
TMS320C2000 Assembler PC v18.12.4 Fri Feb 17 15:09:28 2023

Copyright (c) 1996-2018 Texas Instruments Incorporated
C:\Users\User\AppData\Local\Temp\{ACBAF943-9FA4-4A12-94B4-A2BF97C77D4E} PAGE   15

     763                      .dwattr $C$DW$59, DW_AT_TI_symbol_name("_clkHandle")
     764                      .dwattr $C$DW$59, DW_AT_type(*$C$DW$T$60)
     765                      .dwattr $C$DW$59, DW_AT_location[DW_OP_reg12]
     766              
     767              
     768              ;***************************************************************
     769              ;* FNAME: _CLK_enableTbClockSync        FR SIZE:   0           *
     770              ;*                                                             *
     771              ;* FUNCTION ENVIRONMENT                                        *
     772              ;*                                                             *
     773              ;* FUNCTION PROPERTIES                                         *
     774              ;*                            0 Parameter,  0 Auto,  0 SOE     *
     775              ;***************************************************************
     776              
     777 00000043       _CLK_enableTbClockSync:
     778                      .dwcfi  cfa_offset, -2
     779                      .dwcfi  save_reg_to_mem, 26, 0
     780 00000043 7622   EALLOW
     781                      .dwpsn  file "D:/GIANT/GAINT_TI_instaspin/motorware/motorware_1_01_00_18/sw/drivers/clk/src/32b/f28x/
     782 00000044 DC0C          ADDB      XAR4,#12              ; [CPU_ALU] |822| 
     783 00000045 1AC4          OR        *+XAR4[0],#0x0004     ; [CPU_ALU] |822| 
         00000046 0004 
     784 00000047 761A   EDIS
     785 00000048 FF69          SPM       #0                    ; [CPU_ALU] 
     786              $C$DW$60        .dwtag  DW_TAG_TI_branch
     787                      .dwattr $C$DW$60, DW_AT_low_pc(0x00)
     788                      .dwattr $C$DW$60, DW_AT_TI_return
     789              
     790 00000049 0006          LRETR     ; [CPU_ALU] 
     791                      ; return occurs ; [] 
     792                      .dwattr $C$DW$58, DW_AT_TI_end_file("D:/GIANT/GAINT_TI_instaspin/motorware/motorware_1_01_00_18/sw/dr
     793                      .dwattr $C$DW$58, DW_AT_TI_end_line(0x33b)
     794                      .dwattr $C$DW$58, DW_AT_TI_end_column(0x01)
     795                      .dwendentry
     796                      .dwendtag $C$DW$58
     797              
     798 0000004a               .sect   ".text"
     799                      .clink
     800                      .global _CLK_enableSpibClock
     801              
     802              $C$DW$61        .dwtag  DW_TAG_subprogram
     803                      .dwattr $C$DW$61, DW_AT_name("CLK_enableSpibClock")
     804                      .dwattr $C$DW$61, DW_AT_low_pc(_CLK_enableSpibClock)
     805                      .dwattr $C$DW$61, DW_AT_high_pc(0x00)
     806                      .dwattr $C$DW$61, DW_AT_TI_symbol_name("_CLK_enableSpibClock")
     807                      .dwattr $C$DW$61, DW_AT_external
     808                      .dwattr $C$DW$61, DW_AT_TI_begin_file("D:/GIANT/GAINT_TI_instaspin/motorware/motorware_1_01_00_18/sw/
     809                      .dwattr $C$DW$61, DW_AT_TI_begin_line(0x31e)
     810                      .dwattr $C$DW$61, DW_AT_TI_begin_column(0x06)
     811                      .dwattr $C$DW$61, DW_AT_TI_max_frame_size(-2)
     812                      .dwpsn  file "D:/GIANT/GAINT_TI_instaspin/motorware/motorware_1_01_00_18/sw/drivers/clk/src/32b/f28x/
     813              
     814                      .dwfde $C$DW$CIE, _CLK_enableSpibClock
     815              $C$DW$62        .dwtag  DW_TAG_formal_parameter
     816                      .dwattr $C$DW$62, DW_AT_name("clkHandle")
TMS320C2000 Assembler PC v18.12.4 Fri Feb 17 15:09:28 2023

Copyright (c) 1996-2018 Texas Instruments Incorporated
C:\Users\User\AppData\Local\Temp\{ACBAF943-9FA4-4A12-94B4-A2BF97C77D4E} PAGE   16

     817                      .dwattr $C$DW$62, DW_AT_TI_symbol_name("_clkHandle")
     818                      .dwattr $C$DW$62, DW_AT_type(*$C$DW$T$60)
     819                      .dwattr $C$DW$62, DW_AT_location[DW_OP_reg12]
     820              
     821              
     822              ;***************************************************************
     823              ;* FNAME: _CLK_enableSpibClock          FR SIZE:   0           *
     824              ;*                                                             *
     825              ;* FUNCTION ENVIRONMENT                                        *
     826              ;*                                                             *
     827              ;* FUNCTION PROPERTIES                                         *
     828              ;*                            0 Parameter,  0 Auto,  0 SOE     *
     829              ;***************************************************************
     830              
     831 0000004a       _CLK_enableSpibClock:
     832                      .dwcfi  cfa_offset, -2
     833                      .dwcfi  save_reg_to_mem, 26, 0
     834 0000004a 7622   EALLOW
     835                      .dwpsn  file "D:/GIANT/GAINT_TI_instaspin/motorware/motorware_1_01_00_18/sw/drivers/clk/src/32b/f28x/
     836 0000004b DC0C          ADDB      XAR4,#12              ; [CPU_ALU] |806| 
     837 0000004c 1AC4          OR        *+XAR4[0],#0x0200     ; [CPU_ALU] |806| 
         0000004d 0200 
     838 0000004e 761A   EDIS
     839 0000004f FF69          SPM       #0                    ; [CPU_ALU] 
     840              $C$DW$63        .dwtag  DW_TAG_TI_branch
     841                      .dwattr $C$DW$63, DW_AT_low_pc(0x00)
     842                      .dwattr $C$DW$63, DW_AT_TI_return
     843              
     844 00000050 0006          LRETR     ; [CPU_ALU] 
     845                      ; return occurs ; [] 
     846                      .dwattr $C$DW$61, DW_AT_TI_end_file("D:/GIANT/GAINT_TI_instaspin/motorware/motorware_1_01_00_18/sw/dr
     847                      .dwattr $C$DW$61, DW_AT_TI_end_line(0x32b)
     848                      .dwattr $C$DW$61, DW_AT_TI_end_column(0x01)
     849                      .dwendentry
     850                      .dwendtag $C$DW$61
     851              
     852 00000051               .sect   ".text"
     853                      .clink
     854                      .global _CLK_enableSpiaClock
     855              
     856              $C$DW$64        .dwtag  DW_TAG_subprogram
     857                      .dwattr $C$DW$64, DW_AT_name("CLK_enableSpiaClock")
     858                      .dwattr $C$DW$64, DW_AT_low_pc(_CLK_enableSpiaClock)
     859                      .dwattr $C$DW$64, DW_AT_high_pc(0x00)
     860                      .dwattr $C$DW$64, DW_AT_TI_symbol_name("_CLK_enableSpiaClock")
     861                      .dwattr $C$DW$64, DW_AT_external
     862                      .dwattr $C$DW$64, DW_AT_TI_begin_file("D:/GIANT/GAINT_TI_instaspin/motorware/motorware_1_01_00_18/sw/
     863                      .dwattr $C$DW$64, DW_AT_TI_begin_line(0x30e)
     864                      .dwattr $C$DW$64, DW_AT_TI_begin_column(0x06)
     865                      .dwattr $C$DW$64, DW_AT_TI_max_frame_size(-2)
     866                      .dwpsn  file "D:/GIANT/GAINT_TI_instaspin/motorware/motorware_1_01_00_18/sw/drivers/clk/src/32b/f28x/
     867              
     868                      .dwfde $C$DW$CIE, _CLK_enableSpiaClock
     869              $C$DW$65        .dwtag  DW_TAG_formal_parameter
     870                      .dwattr $C$DW$65, DW_AT_name("clkHandle")
TMS320C2000 Assembler PC v18.12.4 Fri Feb 17 15:09:28 2023

Copyright (c) 1996-2018 Texas Instruments Incorporated
C:\Users\User\AppData\Local\Temp\{ACBAF943-9FA4-4A12-94B4-A2BF97C77D4E} PAGE   17

     871                      .dwattr $C$DW$65, DW_AT_TI_symbol_name("_clkHandle")
     872                      .dwattr $C$DW$65, DW_AT_type(*$C$DW$T$60)
     873                      .dwattr $C$DW$65, DW_AT_location[DW_OP_reg12]
     874              
     875              
     876              ;***************************************************************
     877              ;* FNAME: _CLK_enableSpiaClock          FR SIZE:   0           *
     878              ;*                                                             *
     879              ;* FUNCTION ENVIRONMENT                                        *
     880              ;*                                                             *
     881              ;* FUNCTION PROPERTIES                                         *
     882              ;*                            0 Parameter,  0 Auto,  0 SOE     *
     883              ;***************************************************************
     884              
     885 00000051       _CLK_enableSpiaClock:
     886                      .dwcfi  cfa_offset, -2
     887                      .dwcfi  save_reg_to_mem, 26, 0
     888 00000051 7622   EALLOW
     889                      .dwpsn  file "D:/GIANT/GAINT_TI_instaspin/motorware/motorware_1_01_00_18/sw/drivers/clk/src/32b/f28x/
     890 00000052 DC0C          ADDB      XAR4,#12              ; [CPU_ALU] |790| 
     891 00000053 1AC4          OR        *+XAR4[0],#0x0100     ; [CPU_ALU] |790| 
         00000054 0100 
     892 00000055 761A   EDIS
     893 00000056 FF69          SPM       #0                    ; [CPU_ALU] 
     894              $C$DW$66        .dwtag  DW_TAG_TI_branch
     895                      .dwattr $C$DW$66, DW_AT_low_pc(0x00)
     896                      .dwattr $C$DW$66, DW_AT_TI_return
     897              
     898 00000057 0006          LRETR     ; [CPU_ALU] 
     899                      ; return occurs ; [] 
     900                      .dwattr $C$DW$64, DW_AT_TI_end_file("D:/GIANT/GAINT_TI_instaspin/motorware/motorware_1_01_00_18/sw/dr
     901                      .dwattr $C$DW$64, DW_AT_TI_end_line(0x31b)
     902                      .dwattr $C$DW$64, DW_AT_TI_end_column(0x01)
     903                      .dwendentry
     904                      .dwendtag $C$DW$64
     905              
     906 00000058               .sect   ".text"
     907                      .clink
     908                      .global _CLK_enableScibClock
     909              
     910              $C$DW$67        .dwtag  DW_TAG_subprogram
     911                      .dwattr $C$DW$67, DW_AT_name("CLK_enableScibClock")
     912                      .dwattr $C$DW$67, DW_AT_low_pc(_CLK_enableScibClock)
     913                      .dwattr $C$DW$67, DW_AT_high_pc(0x00)
     914                      .dwattr $C$DW$67, DW_AT_TI_symbol_name("_CLK_enableScibClock")
     915                      .dwattr $C$DW$67, DW_AT_external
     916                      .dwattr $C$DW$67, DW_AT_TI_begin_file("D:/GIANT/GAINT_TI_instaspin/motorware/motorware_1_01_00_18/sw/
     917                      .dwattr $C$DW$67, DW_AT_TI_begin_line(0x2fe)
     918                      .dwattr $C$DW$67, DW_AT_TI_begin_column(0x06)
     919                      .dwattr $C$DW$67, DW_AT_TI_max_frame_size(-2)
     920                      .dwpsn  file "D:/GIANT/GAINT_TI_instaspin/motorware/motorware_1_01_00_18/sw/drivers/clk/src/32b/f28x/
     921              
     922                      .dwfde $C$DW$CIE, _CLK_enableScibClock
     923              $C$DW$68        .dwtag  DW_TAG_formal_parameter
     924                      .dwattr $C$DW$68, DW_AT_name("clkHandle")
TMS320C2000 Assembler PC v18.12.4 Fri Feb 17 15:09:28 2023

Copyright (c) 1996-2018 Texas Instruments Incorporated
C:\Users\User\AppData\Local\Temp\{ACBAF943-9FA4-4A12-94B4-A2BF97C77D4E} PAGE   18

     925                      .dwattr $C$DW$68, DW_AT_TI_symbol_name("_clkHandle")
     926                      .dwattr $C$DW$68, DW_AT_type(*$C$DW$T$60)
     927                      .dwattr $C$DW$68, DW_AT_location[DW_OP_reg12]
     928              
     929              
     930              ;***************************************************************
     931              ;* FNAME: _CLK_enableScibClock          FR SIZE:   0           *
     932              ;*                                                             *
     933              ;* FUNCTION ENVIRONMENT                                        *
     934              ;*                                                             *
     935              ;* FUNCTION PROPERTIES                                         *
     936              ;*                            0 Parameter,  0 Auto,  0 SOE     *
     937              ;***************************************************************
     938              
     939 00000058       _CLK_enableScibClock:
     940                      .dwcfi  cfa_offset, -2
     941                      .dwcfi  save_reg_to_mem, 26, 0
     942 00000058 7622   EALLOW
     943                      .dwpsn  file "D:/GIANT/GAINT_TI_instaspin/motorware/motorware_1_01_00_18/sw/drivers/clk/src/32b/f28x/
     944 00000059 DC0C          ADDB      XAR4,#12              ; [CPU_ALU] |774| 
     945 0000005a 1AC4          OR        *+XAR4[0],#0x0800     ; [CPU_ALU] |774| 
         0000005b 0800 
     946 0000005c 761A   EDIS
     947 0000005d FF69          SPM       #0                    ; [CPU_ALU] 
     948              $C$DW$69        .dwtag  DW_TAG_TI_branch
     949                      .dwattr $C$DW$69, DW_AT_low_pc(0x00)
     950                      .dwattr $C$DW$69, DW_AT_TI_return
     951              
     952 0000005e 0006          LRETR     ; [CPU_ALU] 
     953                      ; return occurs ; [] 
     954                      .dwattr $C$DW$67, DW_AT_TI_end_file("D:/GIANT/GAINT_TI_instaspin/motorware/motorware_1_01_00_18/sw/dr
     955                      .dwattr $C$DW$67, DW_AT_TI_end_line(0x30b)
     956                      .dwattr $C$DW$67, DW_AT_TI_end_column(0x01)
     957                      .dwendentry
     958                      .dwendtag $C$DW$67
     959              
     960 0000005f               .sect   ".text"
     961                      .clink
     962                      .global _CLK_enableSciaClock
     963              
     964              $C$DW$70        .dwtag  DW_TAG_subprogram
     965                      .dwattr $C$DW$70, DW_AT_name("CLK_enableSciaClock")
     966                      .dwattr $C$DW$70, DW_AT_low_pc(_CLK_enableSciaClock)
     967                      .dwattr $C$DW$70, DW_AT_high_pc(0x00)
     968                      .dwattr $C$DW$70, DW_AT_TI_symbol_name("_CLK_enableSciaClock")
     969                      .dwattr $C$DW$70, DW_AT_external
     970                      .dwattr $C$DW$70, DW_AT_TI_begin_file("D:/GIANT/GAINT_TI_instaspin/motorware/motorware_1_01_00_18/sw/
     971                      .dwattr $C$DW$70, DW_AT_TI_begin_line(0x2ee)
     972                      .dwattr $C$DW$70, DW_AT_TI_begin_column(0x06)
     973                      .dwattr $C$DW$70, DW_AT_TI_max_frame_size(-2)
     974                      .dwpsn  file "D:/GIANT/GAINT_TI_instaspin/motorware/motorware_1_01_00_18/sw/drivers/clk/src/32b/f28x/
     975              
     976                      .dwfde $C$DW$CIE, _CLK_enableSciaClock
     977              $C$DW$71        .dwtag  DW_TAG_formal_parameter
     978                      .dwattr $C$DW$71, DW_AT_name("clkHandle")
TMS320C2000 Assembler PC v18.12.4 Fri Feb 17 15:09:28 2023

Copyright (c) 1996-2018 Texas Instruments Incorporated
C:\Users\User\AppData\Local\Temp\{ACBAF943-9FA4-4A12-94B4-A2BF97C77D4E} PAGE   19

     979                      .dwattr $C$DW$71, DW_AT_TI_symbol_name("_clkHandle")
     980                      .dwattr $C$DW$71, DW_AT_type(*$C$DW$T$60)
     981                      .dwattr $C$DW$71, DW_AT_location[DW_OP_reg12]
     982              
     983              
     984              ;***************************************************************
     985              ;* FNAME: _CLK_enableSciaClock          FR SIZE:   0           *
     986              ;*                                                             *
     987              ;* FUNCTION ENVIRONMENT                                        *
     988              ;*                                                             *
     989              ;* FUNCTION PROPERTIES                                         *
     990              ;*                            0 Parameter,  0 Auto,  0 SOE     *
     991              ;***************************************************************
     992              
     993 0000005f       _CLK_enableSciaClock:
     994                      .dwcfi  cfa_offset, -2
     995                      .dwcfi  save_reg_to_mem, 26, 0
     996 0000005f 7622   EALLOW
     997                      .dwpsn  file "D:/GIANT/GAINT_TI_instaspin/motorware/motorware_1_01_00_18/sw/drivers/clk/src/32b/f28x/
     998 00000060 DC0C          ADDB      XAR4,#12              ; [CPU_ALU] |758| 
     999 00000061 1AC4          OR        *+XAR4[0],#0x0400     ; [CPU_ALU] |758| 
         00000062 0400 
    1000 00000063 761A   EDIS
    1001 00000064 FF69          SPM       #0                    ; [CPU_ALU] 
    1002              $C$DW$72        .dwtag  DW_TAG_TI_branch
    1003                      .dwattr $C$DW$72, DW_AT_low_pc(0x00)
    1004                      .dwattr $C$DW$72, DW_AT_TI_return
    1005              
    1006 00000065 0006          LRETR     ; [CPU_ALU] 
    1007                      ; return occurs ; [] 
    1008                      .dwattr $C$DW$70, DW_AT_TI_end_file("D:/GIANT/GAINT_TI_instaspin/motorware/motorware_1_01_00_18/sw/dr
    1009                      .dwattr $C$DW$70, DW_AT_TI_end_line(0x2fb)
    1010                      .dwattr $C$DW$70, DW_AT_TI_end_column(0x01)
    1011                      .dwendentry
    1012                      .dwendtag $C$DW$70
    1013              
    1014 00000066               .sect   ".text"
    1015                      .clink
    1016                      .global _CLK_enablePwmClock
    1017              
    1018              $C$DW$73        .dwtag  DW_TAG_subprogram
    1019                      .dwattr $C$DW$73, DW_AT_name("CLK_enablePwmClock")
    1020                      .dwattr $C$DW$73, DW_AT_low_pc(_CLK_enablePwmClock)
    1021                      .dwattr $C$DW$73, DW_AT_high_pc(0x00)
    1022                      .dwattr $C$DW$73, DW_AT_TI_symbol_name("_CLK_enablePwmClock")
    1023                      .dwattr $C$DW$73, DW_AT_external
    1024                      .dwattr $C$DW$73, DW_AT_TI_begin_file("D:/GIANT/GAINT_TI_instaspin/motorware/motorware_1_01_00_18/sw/
    1025                      .dwattr $C$DW$73, DW_AT_TI_begin_line(0x2de)
    1026                      .dwattr $C$DW$73, DW_AT_TI_begin_column(0x06)
    1027                      .dwattr $C$DW$73, DW_AT_TI_max_frame_size(-2)
    1028                      .dwpsn  file "D:/GIANT/GAINT_TI_instaspin/motorware/motorware_1_01_00_18/sw/drivers/clk/src/32b/f28x/
    1029              
    1030                      .dwfde $C$DW$CIE, _CLK_enablePwmClock
    1031              $C$DW$74        .dwtag  DW_TAG_formal_parameter
    1032                      .dwattr $C$DW$74, DW_AT_name("clkHandle")
TMS320C2000 Assembler PC v18.12.4 Fri Feb 17 15:09:28 2023

Copyright (c) 1996-2018 Texas Instruments Incorporated
C:\Users\User\AppData\Local\Temp\{ACBAF943-9FA4-4A12-94B4-A2BF97C77D4E} PAGE   20

    1033                      .dwattr $C$DW$74, DW_AT_TI_symbol_name("_clkHandle")
    1034                      .dwattr $C$DW$74, DW_AT_type(*$C$DW$T$60)
    1035                      .dwattr $C$DW$74, DW_AT_location[DW_OP_reg12]
    1036              
    1037              $C$DW$75        .dwtag  DW_TAG_formal_parameter
    1038                      .dwattr $C$DW$75, DW_AT_name("pwmNumber")
    1039                      .dwattr $C$DW$75, DW_AT_TI_symbol_name("_pwmNumber")
    1040                      .dwattr $C$DW$75, DW_AT_type(*$C$DW$T$32)
    1041                      .dwattr $C$DW$75, DW_AT_location[DW_OP_reg0]
    1042              
    1043              
    1044              ;***************************************************************
    1045              ;* FNAME: _CLK_enablePwmClock           FR SIZE:   0           *
    1046              ;*                                                             *
    1047              ;* FUNCTION ENVIRONMENT                                        *
    1048              ;*                                                             *
    1049              ;* FUNCTION PROPERTIES                                         *
    1050              ;*                            0 Parameter,  0 Auto,  0 SOE     *
    1051              ;***************************************************************
    1052              
    1053              _CLK_enablePwmClock:
    1054              ;* T     assigned to _pwmNumber
    1055              $C$DW$76        .dwtag  DW_TAG_variable
    1056                      .dwattr $C$DW$76, DW_AT_name("pwmNumber")
    1057                      .dwattr $C$DW$76, DW_AT_TI_symbol_name("_pwmNumber")
    1058                      .dwattr $C$DW$76, DW_AT_type(*$C$DW$T$33)
    1059                      .dwattr $C$DW$76, DW_AT_location[DW_OP_reg22]
    1060              
    1061                      .dwcfi  cfa_offset, -2
    1062                      .dwcfi  save_reg_to_mem, 26, 0
    1063 00000066 2DA9          MOV       T,AL                  ; [CPU_ALU] |735| 
    1064 00000067 7622   EALLOW
    1065                      .dwpsn  file "D:/GIANT/GAINT_TI_instaspin/motorware/motorware_1_01_00_18/sw/drivers/clk/src/32b/f28x/
    1066 00000068 DC0D          ADDB      XAR4,#13              ; [CPU_ALU] |742| 
    1067 00000069 9A01          MOVB      AL,#1                 ; [CPU_ALU] |742| 
    1068 0000006a FF66          LSL       AL,T                  ; [CPU_ALU] |742| 
    1069 0000006b 98C4          OR        *+XAR4[0],AL          ; [CPU_ALU] |742| 
    1070 0000006c 761A   EDIS
    1071 0000006d FF69          SPM       #0                    ; [CPU_ALU] 
    1072              $C$DW$77        .dwtag  DW_TAG_TI_branch
    1073                      .dwattr $C$DW$77, DW_AT_low_pc(0x00)
    1074                      .dwattr $C$DW$77, DW_AT_TI_return
    1075              
    1076 0000006e 0006          LRETR     ; [CPU_ALU] 
    1077                      ; return occurs ; [] 
    1078                      .dwattr $C$DW$73, DW_AT_TI_end_file("D:/GIANT/GAINT_TI_instaspin/motorware/motorware_1_01_00_18/sw/dr
    1079                      .dwattr $C$DW$73, DW_AT_TI_end_line(0x2eb)
    1080                      .dwattr $C$DW$73, DW_AT_TI_end_column(0x01)
    1081                      .dwendentry
    1082                      .dwendtag $C$DW$73
    1083              
    1084 0000006f               .sect   ".text"
    1085                      .clink
    1086                      .global _CLK_enableOsc2HaltMode
    1087              
TMS320C2000 Assembler PC v18.12.4 Fri Feb 17 15:09:28 2023

Copyright (c) 1996-2018 Texas Instruments Incorporated
C:\Users\User\AppData\Local\Temp\{ACBAF943-9FA4-4A12-94B4-A2BF97C77D4E} PAGE   21

    1088              $C$DW$78        .dwtag  DW_TAG_subprogram
    1089                      .dwattr $C$DW$78, DW_AT_name("CLK_enableOsc2HaltMode")
    1090                      .dwattr $C$DW$78, DW_AT_low_pc(_CLK_enableOsc2HaltMode)
    1091                      .dwattr $C$DW$78, DW_AT_high_pc(0x00)
    1092                      .dwattr $C$DW$78, DW_AT_TI_symbol_name("_CLK_enableOsc2HaltMode")
    1093                      .dwattr $C$DW$78, DW_AT_external
    1094                      .dwattr $C$DW$78, DW_AT_TI_begin_file("D:/GIANT/GAINT_TI_instaspin/motorware/motorware_1_01_00_18/sw/
    1095                      .dwattr $C$DW$78, DW_AT_TI_begin_line(0x2ce)
    1096                      .dwattr $C$DW$78, DW_AT_TI_begin_column(0x06)
    1097                      .dwattr $C$DW$78, DW_AT_TI_max_frame_size(-2)
    1098                      .dwpsn  file "D:/GIANT/GAINT_TI_instaspin/motorware/motorware_1_01_00_18/sw/drivers/clk/src/32b/f28x/
    1099              
    1100                      .dwfde $C$DW$CIE, _CLK_enableOsc2HaltMode
    1101              $C$DW$79        .dwtag  DW_TAG_formal_parameter
    1102                      .dwattr $C$DW$79, DW_AT_name("clkHandle")
    1103                      .dwattr $C$DW$79, DW_AT_TI_symbol_name("_clkHandle")
    1104                      .dwattr $C$DW$79, DW_AT_type(*$C$DW$T$60)
    1105                      .dwattr $C$DW$79, DW_AT_location[DW_OP_reg12]
    1106              
    1107              
    1108              ;***************************************************************
    1109              ;* FNAME: _CLK_enableOsc2HaltMode       FR SIZE:   0           *
    1110              ;*                                                             *
    1111              ;* FUNCTION ENVIRONMENT                                        *
    1112              ;*                                                             *
    1113              ;* FUNCTION PROPERTIES                                         *
    1114              ;*                            0 Parameter,  0 Auto,  0 SOE     *
    1115              ;***************************************************************
    1116              
    1117              _CLK_enableOsc2HaltMode:
    1118              ;* AR4   assigned to _clkHandle
    1119              $C$DW$80        .dwtag  DW_TAG_variable
    1120                      .dwattr $C$DW$80, DW_AT_name("clkHandle")
    1121                      .dwattr $C$DW$80, DW_AT_TI_symbol_name("_clkHandle")
    1122                      .dwattr $C$DW$80, DW_AT_type(*$C$DW$T$61)
    1123                      .dwattr $C$DW$80, DW_AT_location[DW_OP_reg12]
    1124              
    1125                      .dwcfi  cfa_offset, -2
    1126                      .dwcfi  save_reg_to_mem, 26, 0
    1127 0000006f 7622   EALLOW
    1128                      .dwpsn  file "D:/GIANT/GAINT_TI_instaspin/motorware/motorware_1_01_00_18/sw/drivers/clk/src/32b/f28x/
    1129 00000070 18D4          AND       *+XAR4[2],#0xf7ff     ; [CPU_ALU] |726| 
         00000071 F7FF 
    1130 00000072 761A   EDIS
    1131 00000073 FF69          SPM       #0                    ; [CPU_ALU] 
    1132              $C$DW$81        .dwtag  DW_TAG_TI_branch
    1133                      .dwattr $C$DW$81, DW_AT_low_pc(0x00)
    1134                      .dwattr $C$DW$81, DW_AT_TI_return
    1135              
    1136 00000074 0006          LRETR     ; [CPU_ALU] 
    1137                      ; return occurs ; [] 
    1138                      .dwattr $C$DW$78, DW_AT_TI_end_file("D:/GIANT/GAINT_TI_instaspin/motorware/motorware_1_01_00_18/sw/dr
    1139                      .dwattr $C$DW$78, DW_AT_TI_end_line(0x2db)
    1140                      .dwattr $C$DW$78, DW_AT_TI_end_column(0x01)
    1141                      .dwendentry
TMS320C2000 Assembler PC v18.12.4 Fri Feb 17 15:09:28 2023

Copyright (c) 1996-2018 Texas Instruments Incorporated
C:\Users\User\AppData\Local\Temp\{ACBAF943-9FA4-4A12-94B4-A2BF97C77D4E} PAGE   22

    1142                      .dwendtag $C$DW$78
    1143              
    1144 00000075               .sect   ".text"
    1145                      .clink
    1146                      .global _CLK_enableOsc2
    1147              
    1148              $C$DW$82        .dwtag  DW_TAG_subprogram
    1149                      .dwattr $C$DW$82, DW_AT_name("CLK_enableOsc2")
    1150                      .dwattr $C$DW$82, DW_AT_low_pc(_CLK_enableOsc2)
    1151                      .dwattr $C$DW$82, DW_AT_high_pc(0x00)
    1152                      .dwattr $C$DW$82, DW_AT_TI_symbol_name("_CLK_enableOsc2")
    1153                      .dwattr $C$DW$82, DW_AT_external
    1154                      .dwattr $C$DW$82, DW_AT_TI_begin_file("D:/GIANT/GAINT_TI_instaspin/motorware/motorware_1_01_00_18/sw/
    1155                      .dwattr $C$DW$82, DW_AT_TI_begin_line(0x2be)
    1156                      .dwattr $C$DW$82, DW_AT_TI_begin_column(0x06)
    1157                      .dwattr $C$DW$82, DW_AT_TI_max_frame_size(-2)
    1158                      .dwpsn  file "D:/GIANT/GAINT_TI_instaspin/motorware/motorware_1_01_00_18/sw/drivers/clk/src/32b/f28x/
    1159              
    1160                      .dwfde $C$DW$CIE, _CLK_enableOsc2
    1161              $C$DW$83        .dwtag  DW_TAG_formal_parameter
    1162                      .dwattr $C$DW$83, DW_AT_name("clkHandle")
    1163                      .dwattr $C$DW$83, DW_AT_TI_symbol_name("_clkHandle")
    1164                      .dwattr $C$DW$83, DW_AT_type(*$C$DW$T$60)
    1165                      .dwattr $C$DW$83, DW_AT_location[DW_OP_reg12]
    1166              
    1167              
    1168              ;***************************************************************
    1169              ;* FNAME: _CLK_enableOsc2               FR SIZE:   0           *
    1170              ;*                                                             *
    1171              ;* FUNCTION ENVIRONMENT                                        *
    1172              ;*                                                             *
    1173              ;* FUNCTION PROPERTIES                                         *
    1174              ;*                            0 Parameter,  0 Auto,  0 SOE     *
    1175              ;***************************************************************
    1176              
    1177              _CLK_enableOsc2:
    1178              ;* AR4   assigned to _clkHandle
    1179              $C$DW$84        .dwtag  DW_TAG_variable
    1180                      .dwattr $C$DW$84, DW_AT_name("clkHandle")
    1181                      .dwattr $C$DW$84, DW_AT_TI_symbol_name("_clkHandle")
    1182                      .dwattr $C$DW$84, DW_AT_type(*$C$DW$T$61)
    1183                      .dwattr $C$DW$84, DW_AT_location[DW_OP_reg12]
    1184              
    1185                      .dwcfi  cfa_offset, -2
    1186                      .dwcfi  save_reg_to_mem, 26, 0
    1187 00000075 7622   EALLOW
    1188                      .dwpsn  file "D:/GIANT/GAINT_TI_instaspin/motorware/motorware_1_01_00_18/sw/drivers/clk/src/32b/f28x/
    1189 00000076 18D4          AND       *+XAR4[2],#0xfbff     ; [CPU_ALU] |710| 
         00000077 FBFF 
    1190 00000078 761A   EDIS
    1191 00000079 FF69          SPM       #0                    ; [CPU_ALU] 
    1192              $C$DW$85        .dwtag  DW_TAG_TI_branch
    1193                      .dwattr $C$DW$85, DW_AT_low_pc(0x00)
    1194                      .dwattr $C$DW$85, DW_AT_TI_return
    1195              
TMS320C2000 Assembler PC v18.12.4 Fri Feb 17 15:09:28 2023

Copyright (c) 1996-2018 Texas Instruments Incorporated
C:\Users\User\AppData\Local\Temp\{ACBAF943-9FA4-4A12-94B4-A2BF97C77D4E} PAGE   23

    1196 0000007a 0006          LRETR     ; [CPU_ALU] 
    1197                      ; return occurs ; [] 
    1198                      .dwattr $C$DW$82, DW_AT_TI_end_file("D:/GIANT/GAINT_TI_instaspin/motorware/motorware_1_01_00_18/sw/dr
    1199                      .dwattr $C$DW$82, DW_AT_TI_end_line(0x2cb)
    1200                      .dwattr $C$DW$82, DW_AT_TI_end_column(0x01)
    1201                      .dwendentry
    1202                      .dwendtag $C$DW$82
    1203              
    1204 0000007b               .sect   ".text"
    1205                      .clink
    1206                      .global _CLK_enableOsc1HaltMode
    1207              
    1208              $C$DW$86        .dwtag  DW_TAG_subprogram
    1209                      .dwattr $C$DW$86, DW_AT_name("CLK_enableOsc1HaltMode")
    1210                      .dwattr $C$DW$86, DW_AT_low_pc(_CLK_enableOsc1HaltMode)
    1211                      .dwattr $C$DW$86, DW_AT_high_pc(0x00)
    1212                      .dwattr $C$DW$86, DW_AT_TI_symbol_name("_CLK_enableOsc1HaltMode")
    1213                      .dwattr $C$DW$86, DW_AT_external
    1214                      .dwattr $C$DW$86, DW_AT_TI_begin_file("D:/GIANT/GAINT_TI_instaspin/motorware/motorware_1_01_00_18/sw/
    1215                      .dwattr $C$DW$86, DW_AT_TI_begin_line(0x2ae)
    1216                      .dwattr $C$DW$86, DW_AT_TI_begin_column(0x06)
    1217                      .dwattr $C$DW$86, DW_AT_TI_max_frame_size(-2)
    1218                      .dwpsn  file "D:/GIANT/GAINT_TI_instaspin/motorware/motorware_1_01_00_18/sw/drivers/clk/src/32b/f28x/
    1219              
    1220                      .dwfde $C$DW$CIE, _CLK_enableOsc1HaltMode
    1221              $C$DW$87        .dwtag  DW_TAG_formal_parameter
    1222                      .dwattr $C$DW$87, DW_AT_name("clkHandle")
    1223                      .dwattr $C$DW$87, DW_AT_TI_symbol_name("_clkHandle")
    1224                      .dwattr $C$DW$87, DW_AT_type(*$C$DW$T$60)
    1225                      .dwattr $C$DW$87, DW_AT_location[DW_OP_reg12]
    1226              
    1227              
    1228              ;***************************************************************
    1229              ;* FNAME: _CLK_enableOsc1HaltMode       FR SIZE:   0           *
    1230              ;*                                                             *
    1231              ;* FUNCTION ENVIRONMENT                                        *
    1232              ;*                                                             *
    1233              ;* FUNCTION PROPERTIES                                         *
    1234              ;*                            0 Parameter,  0 Auto,  0 SOE     *
    1235              ;***************************************************************
    1236              
    1237              _CLK_enableOsc1HaltMode:
    1238              ;* AR4   assigned to _clkHandle
    1239              $C$DW$88        .dwtag  DW_TAG_variable
    1240                      .dwattr $C$DW$88, DW_AT_name("clkHandle")
    1241                      .dwattr $C$DW$88, DW_AT_TI_symbol_name("_clkHandle")
    1242                      .dwattr $C$DW$88, DW_AT_type(*$C$DW$T$61)
    1243                      .dwattr $C$DW$88, DW_AT_location[DW_OP_reg12]
    1244              
    1245                      .dwcfi  cfa_offset, -2
    1246                      .dwcfi  save_reg_to_mem, 26, 0
    1247 0000007b 7622   EALLOW
    1248                      .dwpsn  file "D:/GIANT/GAINT_TI_instaspin/motorware/motorware_1_01_00_18/sw/drivers/clk/src/32b/f28x/
    1249 0000007c 18D4          AND       *+XAR4[2],#0xfdff     ; [CPU_ALU] |694| 
         0000007d FDFF 
TMS320C2000 Assembler PC v18.12.4 Fri Feb 17 15:09:28 2023

Copyright (c) 1996-2018 Texas Instruments Incorporated
C:\Users\User\AppData\Local\Temp\{ACBAF943-9FA4-4A12-94B4-A2BF97C77D4E} PAGE   24

    1250 0000007e 761A   EDIS
    1251 0000007f FF69          SPM       #0                    ; [CPU_ALU] 
    1252              $C$DW$89        .dwtag  DW_TAG_TI_branch
    1253                      .dwattr $C$DW$89, DW_AT_low_pc(0x00)
    1254                      .dwattr $C$DW$89, DW_AT_TI_return
    1255              
    1256 00000080 0006          LRETR     ; [CPU_ALU] 
    1257                      ; return occurs ; [] 
    1258                      .dwattr $C$DW$86, DW_AT_TI_end_file("D:/GIANT/GAINT_TI_instaspin/motorware/motorware_1_01_00_18/sw/dr
    1259                      .dwattr $C$DW$86, DW_AT_TI_end_line(0x2bb)
    1260                      .dwattr $C$DW$86, DW_AT_TI_end_column(0x01)
    1261                      .dwendentry
    1262                      .dwendtag $C$DW$86
    1263              
    1264 00000081               .sect   ".text"
    1265                      .clink
    1266                      .global _CLK_enableOsc1
    1267              
    1268              $C$DW$90        .dwtag  DW_TAG_subprogram
    1269                      .dwattr $C$DW$90, DW_AT_name("CLK_enableOsc1")
    1270                      .dwattr $C$DW$90, DW_AT_low_pc(_CLK_enableOsc1)
    1271                      .dwattr $C$DW$90, DW_AT_high_pc(0x00)
    1272                      .dwattr $C$DW$90, DW_AT_TI_symbol_name("_CLK_enableOsc1")
    1273                      .dwattr $C$DW$90, DW_AT_external
    1274                      .dwattr $C$DW$90, DW_AT_TI_begin_file("D:/GIANT/GAINT_TI_instaspin/motorware/motorware_1_01_00_18/sw/
    1275                      .dwattr $C$DW$90, DW_AT_TI_begin_line(0x29e)
    1276                      .dwattr $C$DW$90, DW_AT_TI_begin_column(0x06)
    1277                      .dwattr $C$DW$90, DW_AT_TI_max_frame_size(-2)
    1278                      .dwpsn  file "D:/GIANT/GAINT_TI_instaspin/motorware/motorware_1_01_00_18/sw/drivers/clk/src/32b/f28x/
    1279              
    1280                      .dwfde $C$DW$CIE, _CLK_enableOsc1
    1281              $C$DW$91        .dwtag  DW_TAG_formal_parameter
    1282                      .dwattr $C$DW$91, DW_AT_name("clkHandle")
    1283                      .dwattr $C$DW$91, DW_AT_TI_symbol_name("_clkHandle")
    1284                      .dwattr $C$DW$91, DW_AT_type(*$C$DW$T$60)
    1285                      .dwattr $C$DW$91, DW_AT_location[DW_OP_reg12]
    1286              
    1287              
    1288              ;***************************************************************
    1289              ;* FNAME: _CLK_enableOsc1               FR SIZE:   0           *
    1290              ;*                                                             *
    1291              ;* FUNCTION ENVIRONMENT                                        *
    1292              ;*                                                             *
    1293              ;* FUNCTION PROPERTIES                                         *
    1294              ;*                            0 Parameter,  0 Auto,  0 SOE     *
    1295              ;***************************************************************
    1296              
    1297              _CLK_enableOsc1:
    1298              ;* AR4   assigned to _clkHandle
    1299              $C$DW$92        .dwtag  DW_TAG_variable
    1300                      .dwattr $C$DW$92, DW_AT_name("clkHandle")
    1301                      .dwattr $C$DW$92, DW_AT_TI_symbol_name("_clkHandle")
    1302                      .dwattr $C$DW$92, DW_AT_type(*$C$DW$T$61)
    1303                      .dwattr $C$DW$92, DW_AT_location[DW_OP_reg12]
    1304              
TMS320C2000 Assembler PC v18.12.4 Fri Feb 17 15:09:28 2023

Copyright (c) 1996-2018 Texas Instruments Incorporated
C:\Users\User\AppData\Local\Temp\{ACBAF943-9FA4-4A12-94B4-A2BF97C77D4E} PAGE   25

    1305                      .dwcfi  cfa_offset, -2
    1306                      .dwcfi  save_reg_to_mem, 26, 0
    1307 00000081 7622   EALLOW
    1308                      .dwpsn  file "D:/GIANT/GAINT_TI_instaspin/motorware/motorware_1_01_00_18/sw/drivers/clk/src/32b/f28x/
    1309 00000082 18D4          AND       *+XAR4[2],#0xfeff     ; [CPU_ALU] |678| 
         00000083 FEFF 
    1310 00000084 761A   EDIS
    1311 00000085 FF69          SPM       #0                    ; [CPU_ALU] 
    1312              $C$DW$93        .dwtag  DW_TAG_TI_branch
    1313                      .dwattr $C$DW$93, DW_AT_low_pc(0x00)
    1314                      .dwattr $C$DW$93, DW_AT_TI_return
    1315              
    1316 00000086 0006          LRETR     ; [CPU_ALU] 
    1317                      ; return occurs ; [] 
    1318                      .dwattr $C$DW$90, DW_AT_TI_end_file("D:/GIANT/GAINT_TI_instaspin/motorware/motorware_1_01_00_18/sw/dr
    1319                      .dwattr $C$DW$90, DW_AT_TI_end_line(0x2ab)
    1320                      .dwattr $C$DW$90, DW_AT_TI_end_column(0x01)
    1321                      .dwendentry
    1322                      .dwendtag $C$DW$90
    1323              
    1324 00000087               .sect   ".text"
    1325                      .clink
    1326                      .global _CLK_enableLinAClock
    1327              
    1328              $C$DW$94        .dwtag  DW_TAG_subprogram
    1329                      .dwattr $C$DW$94, DW_AT_name("CLK_enableLinAClock")
    1330                      .dwattr $C$DW$94, DW_AT_low_pc(_CLK_enableLinAClock)
    1331                      .dwattr $C$DW$94, DW_AT_high_pc(0x00)
    1332                      .dwattr $C$DW$94, DW_AT_TI_symbol_name("_CLK_enableLinAClock")
    1333                      .dwattr $C$DW$94, DW_AT_external
    1334                      .dwattr $C$DW$94, DW_AT_TI_begin_file("D:/GIANT/GAINT_TI_instaspin/motorware/motorware_1_01_00_18/sw/
    1335                      .dwattr $C$DW$94, DW_AT_TI_begin_line(0x28e)
    1336                      .dwattr $C$DW$94, DW_AT_TI_begin_column(0x06)
    1337                      .dwattr $C$DW$94, DW_AT_TI_max_frame_size(-2)
    1338                      .dwpsn  file "D:/GIANT/GAINT_TI_instaspin/motorware/motorware_1_01_00_18/sw/drivers/clk/src/32b/f28x/
    1339              
    1340                      .dwfde $C$DW$CIE, _CLK_enableLinAClock
    1341              $C$DW$95        .dwtag  DW_TAG_formal_parameter
    1342                      .dwattr $C$DW$95, DW_AT_name("clkHandle")
    1343                      .dwattr $C$DW$95, DW_AT_TI_symbol_name("_clkHandle")
    1344                      .dwattr $C$DW$95, DW_AT_type(*$C$DW$T$60)
    1345                      .dwattr $C$DW$95, DW_AT_location[DW_OP_reg12]
    1346              
    1347              
    1348              ;***************************************************************
    1349              ;* FNAME: _CLK_enableLinAClock          FR SIZE:   0           *
    1350              ;*                                                             *
    1351              ;* FUNCTION ENVIRONMENT                                        *
    1352              ;*                                                             *
    1353              ;* FUNCTION PROPERTIES                                         *
    1354              ;*                            0 Parameter,  0 Auto,  0 SOE     *
    1355              ;***************************************************************
    1356              
    1357 00000087       _CLK_enableLinAClock:
    1358                      .dwcfi  cfa_offset, -2
TMS320C2000 Assembler PC v18.12.4 Fri Feb 17 15:09:28 2023

Copyright (c) 1996-2018 Texas Instruments Incorporated
C:\Users\User\AppData\Local\Temp\{ACBAF943-9FA4-4A12-94B4-A2BF97C77D4E} PAGE   26

    1359                      .dwcfi  save_reg_to_mem, 26, 0
    1360 00000087 7622   EALLOW
    1361                      .dwpsn  file "D:/GIANT/GAINT_TI_instaspin/motorware/motorware_1_01_00_18/sw/drivers/clk/src/32b/f28x/
    1362 00000088 DC0C          ADDB      XAR4,#12              ; [CPU_ALU] |662| 
    1363 00000089 1AC4          OR        *+XAR4[0],#0x0002     ; [CPU_ALU] |662| 
         0000008a 0002 
    1364 0000008b 761A   EDIS
    1365 0000008c FF69          SPM       #0                    ; [CPU_ALU] 
    1366              $C$DW$96        .dwtag  DW_TAG_TI_branch
    1367                      .dwattr $C$DW$96, DW_AT_low_pc(0x00)
    1368                      .dwattr $C$DW$96, DW_AT_TI_return
    1369              
    1370 0000008d 0006          LRETR     ; [CPU_ALU] 
    1371                      ; return occurs ; [] 
    1372                      .dwattr $C$DW$94, DW_AT_TI_end_file("D:/GIANT/GAINT_TI_instaspin/motorware/motorware_1_01_00_18/sw/dr
    1373                      .dwattr $C$DW$94, DW_AT_TI_end_line(0x29b)
    1374                      .dwattr $C$DW$94, DW_AT_TI_end_column(0x01)
    1375                      .dwendentry
    1376                      .dwendtag $C$DW$94
    1377              
    1378 0000008e               .sect   ".text"
    1379                      .clink
    1380                      .global _CLK_enableI2cClock
    1381              
    1382              $C$DW$97        .dwtag  DW_TAG_subprogram
    1383                      .dwattr $C$DW$97, DW_AT_name("CLK_enableI2cClock")
    1384                      .dwattr $C$DW$97, DW_AT_low_pc(_CLK_enableI2cClock)
    1385                      .dwattr $C$DW$97, DW_AT_high_pc(0x00)
    1386                      .dwattr $C$DW$97, DW_AT_TI_symbol_name("_CLK_enableI2cClock")
    1387                      .dwattr $C$DW$97, DW_AT_external
    1388                      .dwattr $C$DW$97, DW_AT_TI_begin_file("D:/GIANT/GAINT_TI_instaspin/motorware/motorware_1_01_00_18/sw/
    1389                      .dwattr $C$DW$97, DW_AT_TI_begin_line(0x27e)
    1390                      .dwattr $C$DW$97, DW_AT_TI_begin_column(0x06)
    1391                      .dwattr $C$DW$97, DW_AT_TI_max_frame_size(-2)
    1392                      .dwpsn  file "D:/GIANT/GAINT_TI_instaspin/motorware/motorware_1_01_00_18/sw/drivers/clk/src/32b/f28x/
    1393              
    1394                      .dwfde $C$DW$CIE, _CLK_enableI2cClock
    1395              $C$DW$98        .dwtag  DW_TAG_formal_parameter
    1396                      .dwattr $C$DW$98, DW_AT_name("clkHandle")
    1397                      .dwattr $C$DW$98, DW_AT_TI_symbol_name("_clkHandle")
    1398                      .dwattr $C$DW$98, DW_AT_type(*$C$DW$T$60)
    1399                      .dwattr $C$DW$98, DW_AT_location[DW_OP_reg12]
    1400              
    1401              
    1402              ;***************************************************************
    1403              ;* FNAME: _CLK_enableI2cClock           FR SIZE:   0           *
    1404              ;*                                                             *
    1405              ;* FUNCTION ENVIRONMENT                                        *
    1406              ;*                                                             *
    1407              ;* FUNCTION PROPERTIES                                         *
    1408              ;*                            0 Parameter,  0 Auto,  0 SOE     *
    1409              ;***************************************************************
    1410              
    1411 0000008e       _CLK_enableI2cClock:
    1412                      .dwcfi  cfa_offset, -2
TMS320C2000 Assembler PC v18.12.4 Fri Feb 17 15:09:28 2023

Copyright (c) 1996-2018 Texas Instruments Incorporated
C:\Users\User\AppData\Local\Temp\{ACBAF943-9FA4-4A12-94B4-A2BF97C77D4E} PAGE   27

    1413                      .dwcfi  save_reg_to_mem, 26, 0
    1414 0000008e 7622   EALLOW
    1415                      .dwpsn  file "D:/GIANT/GAINT_TI_instaspin/motorware/motorware_1_01_00_18/sw/drivers/clk/src/32b/f28x/
    1416 0000008f DC0C          ADDB      XAR4,#12              ; [CPU_ALU] |646| 
    1417 00000090 1AC4          OR        *+XAR4[0],#0x0010     ; [CPU_ALU] |646| 
         00000091 0010 
    1418 00000092 761A   EDIS
    1419 00000093 FF69          SPM       #0                    ; [CPU_ALU] 
    1420              $C$DW$99        .dwtag  DW_TAG_TI_branch
    1421                      .dwattr $C$DW$99, DW_AT_low_pc(0x00)
    1422                      .dwattr $C$DW$99, DW_AT_TI_return
    1423              
    1424 00000094 0006          LRETR     ; [CPU_ALU] 
    1425                      ; return occurs ; [] 
    1426                      .dwattr $C$DW$97, DW_AT_TI_end_file("D:/GIANT/GAINT_TI_instaspin/motorware/motorware_1_01_00_18/sw/dr
    1427                      .dwattr $C$DW$97, DW_AT_TI_end_line(0x28b)
    1428                      .dwattr $C$DW$97, DW_AT_TI_end_column(0x01)
    1429                      .dwendentry
    1430                      .dwendtag $C$DW$97
    1431              
    1432 00000095               .sect   ".text"
    1433                      .clink
    1434                      .global _CLK_enableHrPwmClock
    1435              
    1436              $C$DW$100       .dwtag  DW_TAG_subprogram
    1437                      .dwattr $C$DW$100, DW_AT_name("CLK_enableHrPwmClock")
    1438                      .dwattr $C$DW$100, DW_AT_low_pc(_CLK_enableHrPwmClock)
    1439                      .dwattr $C$DW$100, DW_AT_high_pc(0x00)
    1440                      .dwattr $C$DW$100, DW_AT_TI_symbol_name("_CLK_enableHrPwmClock")
    1441                      .dwattr $C$DW$100, DW_AT_external
    1442                      .dwattr $C$DW$100, DW_AT_TI_begin_file("D:/GIANT/GAINT_TI_instaspin/motorware/motorware_1_01_00_18/sw
    1443                      .dwattr $C$DW$100, DW_AT_TI_begin_line(0x26e)
    1444                      .dwattr $C$DW$100, DW_AT_TI_begin_column(0x06)
    1445                      .dwattr $C$DW$100, DW_AT_TI_max_frame_size(-2)
    1446                      .dwpsn  file "D:/GIANT/GAINT_TI_instaspin/motorware/motorware_1_01_00_18/sw/drivers/clk/src/32b/f28x/
    1447              
    1448                      .dwfde $C$DW$CIE, _CLK_enableHrPwmClock
    1449              $C$DW$101       .dwtag  DW_TAG_formal_parameter
    1450                      .dwattr $C$DW$101, DW_AT_name("clkHandle")
    1451                      .dwattr $C$DW$101, DW_AT_TI_symbol_name("_clkHandle")
    1452                      .dwattr $C$DW$101, DW_AT_type(*$C$DW$T$60)
    1453                      .dwattr $C$DW$101, DW_AT_location[DW_OP_reg12]
    1454              
    1455              
    1456              ;***************************************************************
    1457              ;* FNAME: _CLK_enableHrPwmClock         FR SIZE:   0           *
    1458              ;*                                                             *
    1459              ;* FUNCTION ENVIRONMENT                                        *
    1460              ;*                                                             *
    1461              ;* FUNCTION PROPERTIES                                         *
    1462              ;*                            0 Parameter,  0 Auto,  0 SOE     *
    1463              ;***************************************************************
    1464              
    1465 00000095       _CLK_enableHrPwmClock:
    1466                      .dwcfi  cfa_offset, -2
TMS320C2000 Assembler PC v18.12.4 Fri Feb 17 15:09:28 2023

Copyright (c) 1996-2018 Texas Instruments Incorporated
C:\Users\User\AppData\Local\Temp\{ACBAF943-9FA4-4A12-94B4-A2BF97C77D4E} PAGE   28

    1467                      .dwcfi  save_reg_to_mem, 26, 0
    1468 00000095 7622   EALLOW
    1469                      .dwpsn  file "D:/GIANT/GAINT_TI_instaspin/motorware/motorware_1_01_00_18/sw/drivers/clk/src/32b/f28x/
    1470 00000096 DC0C          ADDB      XAR4,#12              ; [CPU_ALU] |630| 
    1471 00000097 1AC4          OR        *+XAR4[0],#0x0001     ; [CPU_ALU] |630| 
         00000098 0001 
    1472 00000099 761A   EDIS
    1473 0000009a FF69          SPM       #0                    ; [CPU_ALU] 
    1474              $C$DW$102       .dwtag  DW_TAG_TI_branch
    1475                      .dwattr $C$DW$102, DW_AT_low_pc(0x00)
    1476                      .dwattr $C$DW$102, DW_AT_TI_return
    1477              
    1478 0000009b 0006          LRETR     ; [CPU_ALU] 
    1479                      ; return occurs ; [] 
    1480                      .dwattr $C$DW$100, DW_AT_TI_end_file("D:/GIANT/GAINT_TI_instaspin/motorware/motorware_1_01_00_18/sw/d
    1481                      .dwattr $C$DW$100, DW_AT_TI_end_line(0x27b)
    1482                      .dwattr $C$DW$100, DW_AT_TI_end_column(0x01)
    1483                      .dwendentry
    1484                      .dwendtag $C$DW$100
    1485              
    1486 0000009c               .sect   ".text"
    1487                      .clink
    1488                      .global _CLK_enableGpioInputClock
    1489              
    1490              $C$DW$103       .dwtag  DW_TAG_subprogram
    1491                      .dwattr $C$DW$103, DW_AT_name("CLK_enableGpioInputClock")
    1492                      .dwattr $C$DW$103, DW_AT_low_pc(_CLK_enableGpioInputClock)
    1493                      .dwattr $C$DW$103, DW_AT_high_pc(0x00)
    1494                      .dwattr $C$DW$103, DW_AT_TI_symbol_name("_CLK_enableGpioInputClock")
    1495                      .dwattr $C$DW$103, DW_AT_external
    1496                      .dwattr $C$DW$103, DW_AT_TI_begin_file("D:/GIANT/GAINT_TI_instaspin/motorware/motorware_1_01_00_18/sw
    1497                      .dwattr $C$DW$103, DW_AT_TI_begin_line(0x25e)
    1498                      .dwattr $C$DW$103, DW_AT_TI_begin_column(0x06)
    1499                      .dwattr $C$DW$103, DW_AT_TI_max_frame_size(-2)
    1500                      .dwpsn  file "D:/GIANT/GAINT_TI_instaspin/motorware/motorware_1_01_00_18/sw/drivers/clk/src/32b/f28x/
    1501              
    1502                      .dwfde $C$DW$CIE, _CLK_enableGpioInputClock
    1503              $C$DW$104       .dwtag  DW_TAG_formal_parameter
    1504                      .dwattr $C$DW$104, DW_AT_name("clkHandle")
    1505                      .dwattr $C$DW$104, DW_AT_TI_symbol_name("_clkHandle")
    1506                      .dwattr $C$DW$104, DW_AT_type(*$C$DW$T$60)
    1507                      .dwattr $C$DW$104, DW_AT_location[DW_OP_reg12]
    1508              
    1509              
    1510              ;***************************************************************
    1511              ;* FNAME: _CLK_enableGpioInputClock     FR SIZE:   0           *
    1512              ;*                                                             *
    1513              ;* FUNCTION ENVIRONMENT                                        *
    1514              ;*                                                             *
    1515              ;* FUNCTION PROPERTIES                                         *
    1516              ;*                            0 Parameter,  0 Auto,  0 SOE     *
    1517              ;***************************************************************
    1518              
    1519 0000009c       _CLK_enableGpioInputClock:
    1520                      .dwcfi  cfa_offset, -2
TMS320C2000 Assembler PC v18.12.4 Fri Feb 17 15:09:28 2023

Copyright (c) 1996-2018 Texas Instruments Incorporated
C:\Users\User\AppData\Local\Temp\{ACBAF943-9FA4-4A12-94B4-A2BF97C77D4E} PAGE   29

    1521                      .dwcfi  save_reg_to_mem, 26, 0
    1522 0000009c 7622   EALLOW
    1523                      .dwpsn  file "D:/GIANT/GAINT_TI_instaspin/motorware/motorware_1_01_00_18/sw/drivers/clk/src/32b/f28x/
    1524 0000009d DC10          ADDB      XAR4,#16              ; [CPU_ALU] |614| 
    1525 0000009e 1AC4          OR        *+XAR4[0],#0x2000     ; [CPU_ALU] |614| 
         0000009f 2000 
    1526 000000a0 761A   EDIS
    1527 000000a1 FF69          SPM       #0                    ; [CPU_ALU] 
    1528              $C$DW$105       .dwtag  DW_TAG_TI_branch
    1529                      .dwattr $C$DW$105, DW_AT_low_pc(0x00)
    1530                      .dwattr $C$DW$105, DW_AT_TI_return
    1531              
    1532 000000a2 0006          LRETR     ; [CPU_ALU] 
    1533                      ; return occurs ; [] 
    1534                      .dwattr $C$DW$103, DW_AT_TI_end_file("D:/GIANT/GAINT_TI_instaspin/motorware/motorware_1_01_00_18/sw/d
    1535                      .dwattr $C$DW$103, DW_AT_TI_end_line(0x26b)
    1536                      .dwattr $C$DW$103, DW_AT_TI_end_column(0x01)
    1537                      .dwendentry
    1538                      .dwendtag $C$DW$103
    1539              
    1540 000000a3               .sect   ".text"
    1541                      .clink
    1542                      .global _CLK_enableEqep2Clock
    1543              
    1544              $C$DW$106       .dwtag  DW_TAG_subprogram
    1545                      .dwattr $C$DW$106, DW_AT_name("CLK_enableEqep2Clock")
    1546                      .dwattr $C$DW$106, DW_AT_low_pc(_CLK_enableEqep2Clock)
    1547                      .dwattr $C$DW$106, DW_AT_high_pc(0x00)
    1548                      .dwattr $C$DW$106, DW_AT_TI_symbol_name("_CLK_enableEqep2Clock")
    1549                      .dwattr $C$DW$106, DW_AT_external
    1550                      .dwattr $C$DW$106, DW_AT_TI_begin_file("D:/GIANT/GAINT_TI_instaspin/motorware/motorware_1_01_00_18/sw
    1551                      .dwattr $C$DW$106, DW_AT_TI_begin_line(0x22f)
    1552                      .dwattr $C$DW$106, DW_AT_TI_begin_column(0x06)
    1553                      .dwattr $C$DW$106, DW_AT_TI_max_frame_size(-2)
    1554                      .dwpsn  file "D:/GIANT/GAINT_TI_instaspin/motorware/motorware_1_01_00_18/sw/drivers/clk/src/32b/f28x/
    1555              
    1556                      .dwfde $C$DW$CIE, _CLK_enableEqep2Clock
    1557              $C$DW$107       .dwtag  DW_TAG_formal_parameter
    1558                      .dwattr $C$DW$107, DW_AT_name("clkHandle")
    1559                      .dwattr $C$DW$107, DW_AT_TI_symbol_name("_clkHandle")
    1560                      .dwattr $C$DW$107, DW_AT_type(*$C$DW$T$60)
    1561                      .dwattr $C$DW$107, DW_AT_location[DW_OP_reg12]
    1562              
    1563              
    1564              ;***************************************************************
    1565              ;* FNAME: _CLK_enableEqep2Clock         FR SIZE:   0           *
    1566              ;*                                                             *
    1567              ;* FUNCTION ENVIRONMENT                                        *
    1568              ;*                                                             *
    1569              ;* FUNCTION PROPERTIES                                         *
    1570              ;*                            0 Parameter,  0 Auto,  0 SOE     *
    1571              ;***************************************************************
    1572              
    1573 000000a3       _CLK_enableEqep2Clock:
    1574                      .dwcfi  cfa_offset, -2
TMS320C2000 Assembler PC v18.12.4 Fri Feb 17 15:09:28 2023

Copyright (c) 1996-2018 Texas Instruments Incorporated
C:\Users\User\AppData\Local\Temp\{ACBAF943-9FA4-4A12-94B4-A2BF97C77D4E} PAGE   30

    1575                      .dwcfi  save_reg_to_mem, 26, 0
    1576 000000a3 7622   EALLOW
    1577                      .dwpsn  file "D:/GIANT/GAINT_TI_instaspin/motorware/motorware_1_01_00_18/sw/drivers/clk/src/32b/f28x/
    1578 000000a4 DC0D          ADDB      XAR4,#13              ; [CPU_ALU] |567| 
    1579 000000a5 1AC4          OR        *+XAR4[0],#0x8000     ; [CPU_ALU] |567| 
         000000a6 8000 
    1580 000000a7 761A   EDIS
    1581 000000a8 FF69          SPM       #0                    ; [CPU_ALU] 
    1582              $C$DW$108       .dwtag  DW_TAG_TI_branch
    1583                      .dwattr $C$DW$108, DW_AT_low_pc(0x00)
    1584                      .dwattr $C$DW$108, DW_AT_TI_return
    1585              
    1586 000000a9 0006          LRETR     ; [CPU_ALU] 
    1587                      ; return occurs ; [] 
    1588                      .dwattr $C$DW$106, DW_AT_TI_end_file("D:/GIANT/GAINT_TI_instaspin/motorware/motorware_1_01_00_18/sw/d
    1589                      .dwattr $C$DW$106, DW_AT_TI_end_line(0x23c)
    1590                      .dwattr $C$DW$106, DW_AT_TI_end_column(0x01)
    1591                      .dwendentry
    1592                      .dwendtag $C$DW$106
    1593              
    1594 000000aa               .sect   ".text"
    1595                      .clink
    1596                      .global _CLK_enableEqep1Clock
    1597              
    1598              $C$DW$109       .dwtag  DW_TAG_subprogram
    1599                      .dwattr $C$DW$109, DW_AT_name("CLK_enableEqep1Clock")
    1600                      .dwattr $C$DW$109, DW_AT_low_pc(_CLK_enableEqep1Clock)
    1601                      .dwattr $C$DW$109, DW_AT_high_pc(0x00)
    1602                      .dwattr $C$DW$109, DW_AT_TI_symbol_name("_CLK_enableEqep1Clock")
    1603                      .dwattr $C$DW$109, DW_AT_external
    1604                      .dwattr $C$DW$109, DW_AT_TI_begin_file("D:/GIANT/GAINT_TI_instaspin/motorware/motorware_1_01_00_18/sw
    1605                      .dwattr $C$DW$109, DW_AT_TI_begin_line(0x220)
    1606                      .dwattr $C$DW$109, DW_AT_TI_begin_column(0x06)
    1607                      .dwattr $C$DW$109, DW_AT_TI_max_frame_size(-2)
    1608                      .dwpsn  file "D:/GIANT/GAINT_TI_instaspin/motorware/motorware_1_01_00_18/sw/drivers/clk/src/32b/f28x/
    1609              
    1610                      .dwfde $C$DW$CIE, _CLK_enableEqep1Clock
    1611              $C$DW$110       .dwtag  DW_TAG_formal_parameter
    1612                      .dwattr $C$DW$110, DW_AT_name("clkHandle")
    1613                      .dwattr $C$DW$110, DW_AT_TI_symbol_name("_clkHandle")
    1614                      .dwattr $C$DW$110, DW_AT_type(*$C$DW$T$60)
    1615                      .dwattr $C$DW$110, DW_AT_location[DW_OP_reg12]
    1616              
    1617              
    1618              ;***************************************************************
    1619              ;* FNAME: _CLK_enableEqep1Clock         FR SIZE:   0           *
    1620              ;*                                                             *
    1621              ;* FUNCTION ENVIRONMENT                                        *
    1622              ;*                                                             *
    1623              ;* FUNCTION PROPERTIES                                         *
    1624              ;*                            0 Parameter,  0 Auto,  0 SOE     *
    1625              ;***************************************************************
    1626              
    1627 000000aa       _CLK_enableEqep1Clock:
    1628                      .dwcfi  cfa_offset, -2
TMS320C2000 Assembler PC v18.12.4 Fri Feb 17 15:09:28 2023

Copyright (c) 1996-2018 Texas Instruments Incorporated
C:\Users\User\AppData\Local\Temp\{ACBAF943-9FA4-4A12-94B4-A2BF97C77D4E} PAGE   31

    1629                      .dwcfi  save_reg_to_mem, 26, 0
    1630 000000aa 7622   EALLOW
    1631                      .dwpsn  file "D:/GIANT/GAINT_TI_instaspin/motorware/motorware_1_01_00_18/sw/drivers/clk/src/32b/f28x/
    1632 000000ab DC0D          ADDB      XAR4,#13              ; [CPU_ALU] |552| 
    1633 000000ac 1AC4          OR        *+XAR4[0],#0x4000     ; [CPU_ALU] |552| 
         000000ad 4000 
    1634 000000ae 761A   EDIS
    1635 000000af FF69          SPM       #0                    ; [CPU_ALU] 
    1636              $C$DW$111       .dwtag  DW_TAG_TI_branch
    1637                      .dwattr $C$DW$111, DW_AT_low_pc(0x00)
    1638                      .dwattr $C$DW$111, DW_AT_TI_return
    1639              
    1640 000000b0 0006          LRETR     ; [CPU_ALU] 
    1641                      ; return occurs ; [] 
    1642                      .dwattr $C$DW$109, DW_AT_TI_end_file("D:/GIANT/GAINT_TI_instaspin/motorware/motorware_1_01_00_18/sw/d
    1643                      .dwattr $C$DW$109, DW_AT_TI_end_line(0x22d)
    1644                      .dwattr $C$DW$109, DW_AT_TI_end_column(0x01)
    1645                      .dwendentry
    1646                      .dwendtag $C$DW$109
    1647              
    1648 000000b1               .sect   ".text"
    1649                      .clink
    1650                      .global _CLK_enableEcap1Clock
    1651              
    1652              $C$DW$112       .dwtag  DW_TAG_subprogram
    1653                      .dwattr $C$DW$112, DW_AT_name("CLK_enableEcap1Clock")
    1654                      .dwattr $C$DW$112, DW_AT_low_pc(_CLK_enableEcap1Clock)
    1655                      .dwattr $C$DW$112, DW_AT_high_pc(0x00)
    1656                      .dwattr $C$DW$112, DW_AT_TI_symbol_name("_CLK_enableEcap1Clock")
    1657                      .dwattr $C$DW$112, DW_AT_external
    1658                      .dwattr $C$DW$112, DW_AT_TI_begin_file("D:/GIANT/GAINT_TI_instaspin/motorware/motorware_1_01_00_18/sw
    1659                      .dwattr $C$DW$112, DW_AT_TI_begin_line(0x23e)
    1660                      .dwattr $C$DW$112, DW_AT_TI_begin_column(0x06)
    1661                      .dwattr $C$DW$112, DW_AT_TI_max_frame_size(-2)
    1662                      .dwpsn  file "D:/GIANT/GAINT_TI_instaspin/motorware/motorware_1_01_00_18/sw/drivers/clk/src/32b/f28x/
    1663              
    1664                      .dwfde $C$DW$CIE, _CLK_enableEcap1Clock
    1665              $C$DW$113       .dwtag  DW_TAG_formal_parameter
    1666                      .dwattr $C$DW$113, DW_AT_name("clkHandle")
    1667                      .dwattr $C$DW$113, DW_AT_TI_symbol_name("_clkHandle")
    1668                      .dwattr $C$DW$113, DW_AT_type(*$C$DW$T$60)
    1669                      .dwattr $C$DW$113, DW_AT_location[DW_OP_reg12]
    1670              
    1671              
    1672              ;***************************************************************
    1673              ;* FNAME: _CLK_enableEcap1Clock         FR SIZE:   0           *
    1674              ;*                                                             *
    1675              ;* FUNCTION ENVIRONMENT                                        *
    1676              ;*                                                             *
    1677              ;* FUNCTION PROPERTIES                                         *
    1678              ;*                            0 Parameter,  0 Auto,  0 SOE     *
    1679              ;***************************************************************
    1680              
    1681 000000b1       _CLK_enableEcap1Clock:
    1682                      .dwcfi  cfa_offset, -2
TMS320C2000 Assembler PC v18.12.4 Fri Feb 17 15:09:28 2023

Copyright (c) 1996-2018 Texas Instruments Incorporated
C:\Users\User\AppData\Local\Temp\{ACBAF943-9FA4-4A12-94B4-A2BF97C77D4E} PAGE   32

    1683                      .dwcfi  save_reg_to_mem, 26, 0
    1684 000000b1 7622   EALLOW
    1685                      .dwpsn  file "D:/GIANT/GAINT_TI_instaspin/motorware/motorware_1_01_00_18/sw/drivers/clk/src/32b/f28x/
    1686 000000b2 DC0D          ADDB      XAR4,#13              ; [CPU_ALU] |582| 
    1687 000000b3 1AC4          OR        *+XAR4[0],#0x0100     ; [CPU_ALU] |582| 
         000000b4 0100 
    1688 000000b5 761A   EDIS
    1689 000000b6 FF69          SPM       #0                    ; [CPU_ALU] 
    1690              $C$DW$114       .dwtag  DW_TAG_TI_branch
    1691                      .dwattr $C$DW$114, DW_AT_low_pc(0x00)
    1692                      .dwattr $C$DW$114, DW_AT_TI_return
    1693              
    1694 000000b7 0006          LRETR     ; [CPU_ALU] 
    1695                      ; return occurs ; [] 
    1696                      .dwattr $C$DW$112, DW_AT_TI_end_file("D:/GIANT/GAINT_TI_instaspin/motorware/motorware_1_01_00_18/sw/d
    1697                      .dwattr $C$DW$112, DW_AT_TI_end_line(0x24b)
    1698                      .dwattr $C$DW$112, DW_AT_TI_end_column(0x01)
    1699                      .dwendentry
    1700                      .dwendtag $C$DW$112
    1701              
    1702 000000b8               .sect   ".text"
    1703                      .clink
    1704                      .global _CLK_enableEcanaClock
    1705              
    1706              $C$DW$115       .dwtag  DW_TAG_subprogram
    1707                      .dwattr $C$DW$115, DW_AT_name("CLK_enableEcanaClock")
    1708                      .dwattr $C$DW$115, DW_AT_low_pc(_CLK_enableEcanaClock)
    1709                      .dwattr $C$DW$115, DW_AT_high_pc(0x00)
    1710                      .dwattr $C$DW$115, DW_AT_TI_symbol_name("_CLK_enableEcanaClock")
    1711                      .dwattr $C$DW$115, DW_AT_external
    1712                      .dwattr $C$DW$115, DW_AT_TI_begin_file("D:/GIANT/GAINT_TI_instaspin/motorware/motorware_1_01_00_18/sw
    1713                      .dwattr $C$DW$115, DW_AT_TI_begin_line(0x210)
    1714                      .dwattr $C$DW$115, DW_AT_TI_begin_column(0x06)
    1715                      .dwattr $C$DW$115, DW_AT_TI_max_frame_size(-2)
    1716                      .dwpsn  file "D:/GIANT/GAINT_TI_instaspin/motorware/motorware_1_01_00_18/sw/drivers/clk/src/32b/f28x/
    1717              
    1718                      .dwfde $C$DW$CIE, _CLK_enableEcanaClock
    1719              $C$DW$116       .dwtag  DW_TAG_formal_parameter
    1720                      .dwattr $C$DW$116, DW_AT_name("clkHandle")
    1721                      .dwattr $C$DW$116, DW_AT_TI_symbol_name("_clkHandle")
    1722                      .dwattr $C$DW$116, DW_AT_type(*$C$DW$T$60)
    1723                      .dwattr $C$DW$116, DW_AT_location[DW_OP_reg12]
    1724              
    1725              
    1726              ;***************************************************************
    1727              ;* FNAME: _CLK_enableEcanaClock         FR SIZE:   0           *
    1728              ;*                                                             *
    1729              ;* FUNCTION ENVIRONMENT                                        *
    1730              ;*                                                             *
    1731              ;* FUNCTION PROPERTIES                                         *
    1732              ;*                            0 Parameter,  0 Auto,  0 SOE     *
    1733              ;***************************************************************
    1734              
    1735 000000b8       _CLK_enableEcanaClock:
    1736                      .dwcfi  cfa_offset, -2
TMS320C2000 Assembler PC v18.12.4 Fri Feb 17 15:09:28 2023

Copyright (c) 1996-2018 Texas Instruments Incorporated
C:\Users\User\AppData\Local\Temp\{ACBAF943-9FA4-4A12-94B4-A2BF97C77D4E} PAGE   33

    1737                      .dwcfi  save_reg_to_mem, 26, 0
    1738 000000b8 7622   EALLOW
    1739                      .dwpsn  file "D:/GIANT/GAINT_TI_instaspin/motorware/motorware_1_01_00_18/sw/drivers/clk/src/32b/f28x/
    1740 000000b9 DC0C          ADDB      XAR4,#12              ; [CPU_ALU] |536| 
    1741 000000ba 1AC4          OR        *+XAR4[0],#0x4000     ; [CPU_ALU] |536| 
         000000bb 4000 
    1742 000000bc 761A   EDIS
    1743 000000bd FF69          SPM       #0                    ; [CPU_ALU] 
    1744              $C$DW$117       .dwtag  DW_TAG_TI_branch
    1745                      .dwattr $C$DW$117, DW_AT_low_pc(0x00)
    1746                      .dwattr $C$DW$117, DW_AT_TI_return
    1747              
    1748 000000be 0006          LRETR     ; [CPU_ALU] 
    1749                      ; return occurs ; [] 
    1750                      .dwattr $C$DW$115, DW_AT_TI_end_file("D:/GIANT/GAINT_TI_instaspin/motorware/motorware_1_01_00_18/sw/d
    1751                      .dwattr $C$DW$115, DW_AT_TI_end_line(0x21d)
    1752                      .dwattr $C$DW$115, DW_AT_TI_end_column(0x01)
    1753                      .dwendentry
    1754                      .dwendtag $C$DW$115
    1755              
    1756 000000bf               .sect   ".text"
    1757                      .clink
    1758                      .global _CLK_enableCrystalOsc
    1759              
    1760              $C$DW$118       .dwtag  DW_TAG_subprogram
    1761                      .dwattr $C$DW$118, DW_AT_name("CLK_enableCrystalOsc")
    1762                      .dwattr $C$DW$118, DW_AT_low_pc(_CLK_enableCrystalOsc)
    1763                      .dwattr $C$DW$118, DW_AT_high_pc(0x00)
    1764                      .dwattr $C$DW$118, DW_AT_TI_symbol_name("_CLK_enableCrystalOsc")
    1765                      .dwattr $C$DW$118, DW_AT_external
    1766                      .dwattr $C$DW$118, DW_AT_TI_begin_file("D:/GIANT/GAINT_TI_instaspin/motorware/motorware_1_01_00_18/sw
    1767                      .dwattr $C$DW$118, DW_AT_TI_begin_line(0x200)
    1768                      .dwattr $C$DW$118, DW_AT_TI_begin_column(0x06)
    1769                      .dwattr $C$DW$118, DW_AT_TI_max_frame_size(-2)
    1770                      .dwpsn  file "D:/GIANT/GAINT_TI_instaspin/motorware/motorware_1_01_00_18/sw/drivers/clk/src/32b/f28x/
    1771              
    1772                      .dwfde $C$DW$CIE, _CLK_enableCrystalOsc
    1773              $C$DW$119       .dwtag  DW_TAG_formal_parameter
    1774                      .dwattr $C$DW$119, DW_AT_name("clkHandle")
    1775                      .dwattr $C$DW$119, DW_AT_TI_symbol_name("_clkHandle")
    1776                      .dwattr $C$DW$119, DW_AT_type(*$C$DW$T$60)
    1777                      .dwattr $C$DW$119, DW_AT_location[DW_OP_reg12]
    1778              
    1779              
    1780              ;***************************************************************
    1781              ;* FNAME: _CLK_enableCrystalOsc         FR SIZE:   0           *
    1782              ;*                                                             *
    1783              ;* FUNCTION ENVIRONMENT                                        *
    1784              ;*                                                             *
    1785              ;* FUNCTION PROPERTIES                                         *
    1786              ;*                            0 Parameter,  0 Auto,  0 SOE     *
    1787              ;***************************************************************
    1788              
    1789              _CLK_enableCrystalOsc:
    1790              ;* AR4   assigned to _clkHandle
TMS320C2000 Assembler PC v18.12.4 Fri Feb 17 15:09:28 2023

Copyright (c) 1996-2018 Texas Instruments Incorporated
C:\Users\User\AppData\Local\Temp\{ACBAF943-9FA4-4A12-94B4-A2BF97C77D4E} PAGE   34

    1791              $C$DW$120       .dwtag  DW_TAG_variable
    1792                      .dwattr $C$DW$120, DW_AT_name("clkHandle")
    1793                      .dwattr $C$DW$120, DW_AT_TI_symbol_name("_clkHandle")
    1794                      .dwattr $C$DW$120, DW_AT_type(*$C$DW$T$61)
    1795                      .dwattr $C$DW$120, DW_AT_location[DW_OP_reg12]
    1796              
    1797                      .dwcfi  cfa_offset, -2
    1798                      .dwcfi  save_reg_to_mem, 26, 0
    1799 000000bf 7622   EALLOW
    1800                      .dwpsn  file "D:/GIANT/GAINT_TI_instaspin/motorware/motorware_1_01_00_18/sw/drivers/clk/src/32b/f28x/
    1801 000000c0 18D4          AND       *+XAR4[2],#0xbfff     ; [CPU_ALU] |520| 
         000000c1 BFFF 
    1802 000000c2 761A   EDIS
    1803 000000c3 FF69          SPM       #0                    ; [CPU_ALU] 
    1804              $C$DW$121       .dwtag  DW_TAG_TI_branch
    1805                      .dwattr $C$DW$121, DW_AT_low_pc(0x00)
    1806                      .dwattr $C$DW$121, DW_AT_TI_return
    1807              
    1808 000000c4 0006          LRETR     ; [CPU_ALU] 
    1809                      ; return occurs ; [] 
    1810                      .dwattr $C$DW$118, DW_AT_TI_end_file("D:/GIANT/GAINT_TI_instaspin/motorware/motorware_1_01_00_18/sw/d
    1811                      .dwattr $C$DW$118, DW_AT_TI_end_line(0x20d)
    1812                      .dwattr $C$DW$118, DW_AT_TI_end_column(0x01)
    1813                      .dwendentry
    1814                      .dwendtag $C$DW$118
    1815              
    1816 000000c5               .sect   ".text"
    1817                      .clink
    1818                      .global _CLK_enableCpuTimerClock
    1819              
    1820              $C$DW$122       .dwtag  DW_TAG_subprogram
    1821                      .dwattr $C$DW$122, DW_AT_name("CLK_enableCpuTimerClock")
    1822                      .dwattr $C$DW$122, DW_AT_low_pc(_CLK_enableCpuTimerClock)
    1823                      .dwattr $C$DW$122, DW_AT_high_pc(0x00)
    1824                      .dwattr $C$DW$122, DW_AT_TI_symbol_name("_CLK_enableCpuTimerClock")
    1825                      .dwattr $C$DW$122, DW_AT_external
    1826                      .dwattr $C$DW$122, DW_AT_TI_begin_file("D:/GIANT/GAINT_TI_instaspin/motorware/motorware_1_01_00_18/sw
    1827                      .dwattr $C$DW$122, DW_AT_TI_begin_line(0x1f0)
    1828                      .dwattr $C$DW$122, DW_AT_TI_begin_column(0x06)
    1829                      .dwattr $C$DW$122, DW_AT_TI_max_frame_size(-2)
    1830                      .dwpsn  file "D:/GIANT/GAINT_TI_instaspin/motorware/motorware_1_01_00_18/sw/drivers/clk/src/32b/f28x/
    1831              
    1832                      .dwfde $C$DW$CIE, _CLK_enableCpuTimerClock
    1833              $C$DW$123       .dwtag  DW_TAG_formal_parameter
    1834                      .dwattr $C$DW$123, DW_AT_name("clkHandle")
    1835                      .dwattr $C$DW$123, DW_AT_TI_symbol_name("_clkHandle")
    1836                      .dwattr $C$DW$123, DW_AT_type(*$C$DW$T$60)
    1837                      .dwattr $C$DW$123, DW_AT_location[DW_OP_reg12]
    1838              
    1839              $C$DW$124       .dwtag  DW_TAG_formal_parameter
    1840                      .dwattr $C$DW$124, DW_AT_name("cpuTimerNumber")
    1841                      .dwattr $C$DW$124, DW_AT_TI_symbol_name("_cpuTimerNumber")
    1842                      .dwattr $C$DW$124, DW_AT_type(*$C$DW$T$29)
    1843                      .dwattr $C$DW$124, DW_AT_location[DW_OP_reg0]
    1844              
TMS320C2000 Assembler PC v18.12.4 Fri Feb 17 15:09:28 2023

Copyright (c) 1996-2018 Texas Instruments Incorporated
C:\Users\User\AppData\Local\Temp\{ACBAF943-9FA4-4A12-94B4-A2BF97C77D4E} PAGE   35

    1845              
    1846              ;***************************************************************
    1847              ;* FNAME: _CLK_enableCpuTimerClock      FR SIZE:   0           *
    1848              ;*                                                             *
    1849              ;* FUNCTION ENVIRONMENT                                        *
    1850              ;*                                                             *
    1851              ;* FUNCTION PROPERTIES                                         *
    1852              ;*                            0 Parameter,  0 Auto,  0 SOE     *
    1853              ;***************************************************************
    1854              
    1855              _CLK_enableCpuTimerClock:
    1856              ;* AL    assigned to _cpuTimerNumber
    1857              $C$DW$125       .dwtag  DW_TAG_variable
    1858                      .dwattr $C$DW$125, DW_AT_name("cpuTimerNumber")
    1859                      .dwattr $C$DW$125, DW_AT_TI_symbol_name("_cpuTimerNumber")
    1860                      .dwattr $C$DW$125, DW_AT_type(*$C$DW$T$30)
    1861                      .dwattr $C$DW$125, DW_AT_location[DW_OP_reg0]
    1862              
    1863                      .dwcfi  cfa_offset, -2
    1864                      .dwcfi  save_reg_to_mem, 26, 0
    1865 000000c5 7622   EALLOW
    1866                      .dwpsn  file "D:/GIANT/GAINT_TI_instaspin/motorware/motorware_1_01_00_18/sw/drivers/clk/src/32b/f28x/
    1867 000000c6 DC10          ADDB      XAR4,#16              ; [CPU_ALU] |504| 
    1868 000000c7 98C4          OR        *+XAR4[0],AL          ; [CPU_ALU] |504| 
    1869 000000c8 761A   EDIS
    1870 000000c9 FF69          SPM       #0                    ; [CPU_ALU] 
    1871              $C$DW$126       .dwtag  DW_TAG_TI_branch
    1872                      .dwattr $C$DW$126, DW_AT_low_pc(0x00)
    1873                      .dwattr $C$DW$126, DW_AT_TI_return
    1874              
    1875 000000ca 0006          LRETR     ; [CPU_ALU] 
    1876                      ; return occurs ; [] 
    1877                      .dwattr $C$DW$122, DW_AT_TI_end_file("D:/GIANT/GAINT_TI_instaspin/motorware/motorware_1_01_00_18/sw/d
    1878                      .dwattr $C$DW$122, DW_AT_TI_end_line(0x1fd)
    1879                      .dwattr $C$DW$122, DW_AT_TI_end_column(0x01)
    1880                      .dwendentry
    1881                      .dwendtag $C$DW$122
    1882              
    1883 000000cb               .sect   ".text"
    1884                      .clink
    1885                      .global _CLK_enableCompClock
    1886              
    1887              $C$DW$127       .dwtag  DW_TAG_subprogram
    1888                      .dwattr $C$DW$127, DW_AT_name("CLK_enableCompClock")
    1889                      .dwattr $C$DW$127, DW_AT_low_pc(_CLK_enableCompClock)
    1890                      .dwattr $C$DW$127, DW_AT_high_pc(0x00)
    1891                      .dwattr $C$DW$127, DW_AT_TI_symbol_name("_CLK_enableCompClock")
    1892                      .dwattr $C$DW$127, DW_AT_external
    1893                      .dwattr $C$DW$127, DW_AT_TI_begin_file("D:/GIANT/GAINT_TI_instaspin/motorware/motorware_1_01_00_18/sw
    1894                      .dwattr $C$DW$127, DW_AT_TI_begin_line(0x1e0)
    1895                      .dwattr $C$DW$127, DW_AT_TI_begin_column(0x06)
    1896                      .dwattr $C$DW$127, DW_AT_TI_max_frame_size(-2)
    1897                      .dwpsn  file "D:/GIANT/GAINT_TI_instaspin/motorware/motorware_1_01_00_18/sw/drivers/clk/src/32b/f28x/
    1898              
    1899                      .dwfde $C$DW$CIE, _CLK_enableCompClock
TMS320C2000 Assembler PC v18.12.4 Fri Feb 17 15:09:28 2023

Copyright (c) 1996-2018 Texas Instruments Incorporated
C:\Users\User\AppData\Local\Temp\{ACBAF943-9FA4-4A12-94B4-A2BF97C77D4E} PAGE   36

    1900              $C$DW$128       .dwtag  DW_TAG_formal_parameter
    1901                      .dwattr $C$DW$128, DW_AT_name("clkHandle")
    1902                      .dwattr $C$DW$128, DW_AT_TI_symbol_name("_clkHandle")
    1903                      .dwattr $C$DW$128, DW_AT_type(*$C$DW$T$60)
    1904                      .dwattr $C$DW$128, DW_AT_location[DW_OP_reg12]
    1905              
    1906              $C$DW$129       .dwtag  DW_TAG_formal_parameter
    1907                      .dwattr $C$DW$129, DW_AT_name("compNumber")
    1908                      .dwattr $C$DW$129, DW_AT_TI_symbol_name("_compNumber")
    1909                      .dwattr $C$DW$129, DW_AT_type(*$C$DW$T$26)
    1910                      .dwattr $C$DW$129, DW_AT_location[DW_OP_reg0]
    1911              
    1912              
    1913              ;***************************************************************
    1914              ;* FNAME: _CLK_enableCompClock          FR SIZE:   0           *
    1915              ;*                                                             *
    1916              ;* FUNCTION ENVIRONMENT                                        *
    1917              ;*                                                             *
    1918              ;* FUNCTION PROPERTIES                                         *
    1919              ;*                            0 Parameter,  0 Auto,  0 SOE     *
    1920              ;***************************************************************
    1921              
    1922              _CLK_enableCompClock:
    1923              ;* AL    assigned to _compNumber
    1924              $C$DW$130       .dwtag  DW_TAG_variable
    1925                      .dwattr $C$DW$130, DW_AT_name("compNumber")
    1926                      .dwattr $C$DW$130, DW_AT_TI_symbol_name("_compNumber")
    1927                      .dwattr $C$DW$130, DW_AT_type(*$C$DW$T$27)
    1928                      .dwattr $C$DW$130, DW_AT_location[DW_OP_reg0]
    1929              
    1930                      .dwcfi  cfa_offset, -2
    1931                      .dwcfi  save_reg_to_mem, 26, 0
    1932 000000cb 7622   EALLOW
    1933                      .dwpsn  file "D:/GIANT/GAINT_TI_instaspin/motorware/motorware_1_01_00_18/sw/drivers/clk/src/32b/f28x/
    1934 000000cc DC10          ADDB      XAR4,#16              ; [CPU_ALU] |488| 
    1935 000000cd 98C4          OR        *+XAR4[0],AL          ; [CPU_ALU] |488| 
    1936 000000ce 761A   EDIS
    1937 000000cf FF69          SPM       #0                    ; [CPU_ALU] 
    1938              $C$DW$131       .dwtag  DW_TAG_TI_branch
    1939                      .dwattr $C$DW$131, DW_AT_low_pc(0x00)
    1940                      .dwattr $C$DW$131, DW_AT_TI_return
    1941              
    1942 000000d0 0006          LRETR     ; [CPU_ALU] 
    1943                      ; return occurs ; [] 
    1944                      .dwattr $C$DW$127, DW_AT_TI_end_file("D:/GIANT/GAINT_TI_instaspin/motorware/motorware_1_01_00_18/sw/d
    1945                      .dwattr $C$DW$127, DW_AT_TI_end_line(0x1ed)
    1946                      .dwattr $C$DW$127, DW_AT_TI_end_column(0x01)
    1947                      .dwendentry
    1948                      .dwendtag $C$DW$127
    1949              
    1950 000000d1               .sect   ".text"
    1951                      .clink
    1952                      .global _CLK_enableClkIn
    1953              
    1954              $C$DW$132       .dwtag  DW_TAG_subprogram
TMS320C2000 Assembler PC v18.12.4 Fri Feb 17 15:09:28 2023

Copyright (c) 1996-2018 Texas Instruments Incorporated
C:\Users\User\AppData\Local\Temp\{ACBAF943-9FA4-4A12-94B4-A2BF97C77D4E} PAGE   37

    1955                      .dwattr $C$DW$132, DW_AT_name("CLK_enableClkIn")
    1956                      .dwattr $C$DW$132, DW_AT_low_pc(_CLK_enableClkIn)
    1957                      .dwattr $C$DW$132, DW_AT_high_pc(0x00)
    1958                      .dwattr $C$DW$132, DW_AT_TI_symbol_name("_CLK_enableClkIn")
    1959                      .dwattr $C$DW$132, DW_AT_external
    1960                      .dwattr $C$DW$132, DW_AT_TI_begin_file("D:/GIANT/GAINT_TI_instaspin/motorware/motorware_1_01_00_18/sw
    1961                      .dwattr $C$DW$132, DW_AT_TI_begin_line(0x24e)
    1962                      .dwattr $C$DW$132, DW_AT_TI_begin_column(0x06)
    1963                      .dwattr $C$DW$132, DW_AT_TI_max_frame_size(-2)
    1964                      .dwpsn  file "D:/GIANT/GAINT_TI_instaspin/motorware/motorware_1_01_00_18/sw/drivers/clk/src/32b/f28x/
    1965              
    1966                      .dwfde $C$DW$CIE, _CLK_enableClkIn
    1967              $C$DW$133       .dwtag  DW_TAG_formal_parameter
    1968                      .dwattr $C$DW$133, DW_AT_name("clkHandle")
    1969                      .dwattr $C$DW$133, DW_AT_TI_symbol_name("_clkHandle")
    1970                      .dwattr $C$DW$133, DW_AT_type(*$C$DW$T$60)
    1971                      .dwattr $C$DW$133, DW_AT_location[DW_OP_reg12]
    1972              
    1973              
    1974              ;***************************************************************
    1975              ;* FNAME: _CLK_enableClkIn              FR SIZE:   0           *
    1976              ;*                                                             *
    1977              ;* FUNCTION ENVIRONMENT                                        *
    1978              ;*                                                             *
    1979              ;* FUNCTION PROPERTIES                                         *
    1980              ;*                            0 Parameter,  0 Auto,  0 SOE     *
    1981              ;***************************************************************
    1982              
    1983              _CLK_enableClkIn:
    1984              ;* AR4   assigned to _clkHandle
    1985              $C$DW$134       .dwtag  DW_TAG_variable
    1986                      .dwattr $C$DW$134, DW_AT_name("clkHandle")
    1987                      .dwattr $C$DW$134, DW_AT_TI_symbol_name("_clkHandle")
    1988                      .dwattr $C$DW$134, DW_AT_type(*$C$DW$T$61)
    1989                      .dwattr $C$DW$134, DW_AT_location[DW_OP_reg12]
    1990              
    1991                      .dwcfi  cfa_offset, -2
    1992                      .dwcfi  save_reg_to_mem, 26, 0
    1993 000000d1 7622   EALLOW
    1994                      .dwpsn  file "D:/GIANT/GAINT_TI_instaspin/motorware/motorware_1_01_00_18/sw/drivers/clk/src/32b/f28x/
    1995 000000d2 18D4          AND       *+XAR4[2],#0xdfff     ; [CPU_ALU] |598| 
         000000d3 DFFF 
    1996 000000d4 761A   EDIS
    1997 000000d5 FF69          SPM       #0                    ; [CPU_ALU] 
    1998              $C$DW$135       .dwtag  DW_TAG_TI_branch
    1999                      .dwattr $C$DW$135, DW_AT_low_pc(0x00)
    2000                      .dwattr $C$DW$135, DW_AT_TI_return
    2001              
    2002 000000d6 0006          LRETR     ; [CPU_ALU] 
    2003                      ; return occurs ; [] 
    2004                      .dwattr $C$DW$132, DW_AT_TI_end_file("D:/GIANT/GAINT_TI_instaspin/motorware/motorware_1_01_00_18/sw/d
    2005                      .dwattr $C$DW$132, DW_AT_TI_end_line(0x25b)
    2006                      .dwattr $C$DW$132, DW_AT_TI_end_column(0x01)
    2007                      .dwendentry
    2008                      .dwendtag $C$DW$132
TMS320C2000 Assembler PC v18.12.4 Fri Feb 17 15:09:28 2023

Copyright (c) 1996-2018 Texas Instruments Incorporated
C:\Users\User\AppData\Local\Temp\{ACBAF943-9FA4-4A12-94B4-A2BF97C77D4E} PAGE   38

    2009              
    2010 000000d7               .sect   ".text"
    2011                      .clink
    2012                      .global _CLK_enableClaClock
    2013              
    2014              $C$DW$136       .dwtag  DW_TAG_subprogram
    2015                      .dwattr $C$DW$136, DW_AT_name("CLK_enableClaClock")
    2016                      .dwattr $C$DW$136, DW_AT_low_pc(_CLK_enableClaClock)
    2017                      .dwattr $C$DW$136, DW_AT_high_pc(0x00)
    2018                      .dwattr $C$DW$136, DW_AT_TI_symbol_name("_CLK_enableClaClock")
    2019                      .dwattr $C$DW$136, DW_AT_external
    2020                      .dwattr $C$DW$136, DW_AT_TI_begin_file("D:/GIANT/GAINT_TI_instaspin/motorware/motorware_1_01_00_18/sw
    2021                      .dwattr $C$DW$136, DW_AT_TI_begin_line(0x1d0)
    2022                      .dwattr $C$DW$136, DW_AT_TI_begin_column(0x06)
    2023                      .dwattr $C$DW$136, DW_AT_TI_max_frame_size(-2)
    2024                      .dwpsn  file "D:/GIANT/GAINT_TI_instaspin/motorware/motorware_1_01_00_18/sw/drivers/clk/src/32b/f28x/
    2025              
    2026                      .dwfde $C$DW$CIE, _CLK_enableClaClock
    2027              $C$DW$137       .dwtag  DW_TAG_formal_parameter
    2028                      .dwattr $C$DW$137, DW_AT_name("clkHandle")
    2029                      .dwattr $C$DW$137, DW_AT_TI_symbol_name("_clkHandle")
    2030                      .dwattr $C$DW$137, DW_AT_type(*$C$DW$T$60)
    2031                      .dwattr $C$DW$137, DW_AT_location[DW_OP_reg12]
    2032              
    2033              
    2034              ;***************************************************************
    2035              ;* FNAME: _CLK_enableClaClock           FR SIZE:   0           *
    2036              ;*                                                             *
    2037              ;* FUNCTION ENVIRONMENT                                        *
    2038              ;*                                                             *
    2039              ;* FUNCTION PROPERTIES                                         *
    2040              ;*                            0 Parameter,  0 Auto,  0 SOE     *
    2041              ;***************************************************************
    2042              
    2043 000000d7       _CLK_enableClaClock:
    2044                      .dwcfi  cfa_offset, -2
    2045                      .dwcfi  save_reg_to_mem, 26, 0
    2046 000000d7 7622   EALLOW
    2047                      .dwpsn  file "D:/GIANT/GAINT_TI_instaspin/motorware/motorware_1_01_00_18/sw/drivers/clk/src/32b/f28x/
    2048 000000d8 DC10          ADDB      XAR4,#16              ; [CPU_ALU] |472| 
    2049 000000d9 1AC4          OR        *+XAR4[0],#0x4000     ; [CPU_ALU] |472| 
         000000da 4000 
    2050 000000db 761A   EDIS
    2051 000000dc FF69          SPM       #0                    ; [CPU_ALU] 
    2052              $C$DW$138       .dwtag  DW_TAG_TI_branch
    2053                      .dwattr $C$DW$138, DW_AT_low_pc(0x00)
    2054                      .dwattr $C$DW$138, DW_AT_TI_return
    2055              
    2056 000000dd 0006          LRETR     ; [CPU_ALU] 
    2057                      ; return occurs ; [] 
    2058                      .dwattr $C$DW$136, DW_AT_TI_end_file("D:/GIANT/GAINT_TI_instaspin/motorware/motorware_1_01_00_18/sw/d
    2059                      .dwattr $C$DW$136, DW_AT_TI_end_line(0x1dd)
    2060                      .dwattr $C$DW$136, DW_AT_TI_end_column(0x01)
    2061                      .dwendentry
    2062                      .dwendtag $C$DW$136
TMS320C2000 Assembler PC v18.12.4 Fri Feb 17 15:09:28 2023

Copyright (c) 1996-2018 Texas Instruments Incorporated
C:\Users\User\AppData\Local\Temp\{ACBAF943-9FA4-4A12-94B4-A2BF97C77D4E} PAGE   39

    2063              
    2064 000000de               .sect   ".text"
    2065                      .clink
    2066                      .global _CLK_enableAdcClock
    2067              
    2068              $C$DW$139       .dwtag  DW_TAG_subprogram
    2069                      .dwattr $C$DW$139, DW_AT_name("CLK_enableAdcClock")
    2070                      .dwattr $C$DW$139, DW_AT_low_pc(_CLK_enableAdcClock)
    2071                      .dwattr $C$DW$139, DW_AT_high_pc(0x00)
    2072                      .dwattr $C$DW$139, DW_AT_TI_symbol_name("_CLK_enableAdcClock")
    2073                      .dwattr $C$DW$139, DW_AT_external
    2074                      .dwattr $C$DW$139, DW_AT_TI_begin_file("D:/GIANT/GAINT_TI_instaspin/motorware/motorware_1_01_00_18/sw
    2075                      .dwattr $C$DW$139, DW_AT_TI_begin_line(0x1c0)
    2076                      .dwattr $C$DW$139, DW_AT_TI_begin_column(0x06)
    2077                      .dwattr $C$DW$139, DW_AT_TI_max_frame_size(-2)
    2078                      .dwpsn  file "D:/GIANT/GAINT_TI_instaspin/motorware/motorware_1_01_00_18/sw/drivers/clk/src/32b/f28x/
    2079              
    2080                      .dwfde $C$DW$CIE, _CLK_enableAdcClock
    2081              $C$DW$140       .dwtag  DW_TAG_formal_parameter
    2082                      .dwattr $C$DW$140, DW_AT_name("clkHandle")
    2083                      .dwattr $C$DW$140, DW_AT_TI_symbol_name("_clkHandle")
    2084                      .dwattr $C$DW$140, DW_AT_type(*$C$DW$T$60)
    2085                      .dwattr $C$DW$140, DW_AT_location[DW_OP_reg12]
    2086              
    2087              
    2088              ;***************************************************************
    2089              ;* FNAME: _CLK_enableAdcClock           FR SIZE:   0           *
    2090              ;*                                                             *
    2091              ;* FUNCTION ENVIRONMENT                                        *
    2092              ;*                                                             *
    2093              ;* FUNCTION PROPERTIES                                         *
    2094              ;*                            0 Parameter,  0 Auto,  0 SOE     *
    2095              ;***************************************************************
    2096              
    2097 000000de       _CLK_enableAdcClock:
    2098                      .dwcfi  cfa_offset, -2
    2099                      .dwcfi  save_reg_to_mem, 26, 0
    2100 000000de 7622   EALLOW
    2101                      .dwpsn  file "D:/GIANT/GAINT_TI_instaspin/motorware/motorware_1_01_00_18/sw/drivers/clk/src/32b/f28x/
    2102 000000df DC0C          ADDB      XAR4,#12              ; [CPU_ALU] |456| 
    2103 000000e0 1AC4          OR        *+XAR4[0],#0x0008     ; [CPU_ALU] |456| 
         000000e1 0008 
    2104 000000e2 761A   EDIS
    2105 000000e3 FF69          SPM       #0                    ; [CPU_ALU] 
    2106              $C$DW$141       .dwtag  DW_TAG_TI_branch
    2107                      .dwattr $C$DW$141, DW_AT_low_pc(0x00)
    2108                      .dwattr $C$DW$141, DW_AT_TI_return
    2109              
    2110 000000e4 0006          LRETR     ; [CPU_ALU] 
    2111                      ; return occurs ; [] 
    2112                      .dwattr $C$DW$139, DW_AT_TI_end_file("D:/GIANT/GAINT_TI_instaspin/motorware/motorware_1_01_00_18/sw/d
    2113                      .dwattr $C$DW$139, DW_AT_TI_end_line(0x1cd)
    2114                      .dwattr $C$DW$139, DW_AT_TI_end_column(0x01)
    2115                      .dwendentry
    2116                      .dwendtag $C$DW$139
TMS320C2000 Assembler PC v18.12.4 Fri Feb 17 15:09:28 2023

Copyright (c) 1996-2018 Texas Instruments Incorporated
C:\Users\User\AppData\Local\Temp\{ACBAF943-9FA4-4A12-94B4-A2BF97C77D4E} PAGE   40

    2117              
    2118 000000e5               .sect   ".text"
    2119                      .clink
    2120                      .global _CLK_disableWatchDogHaltMode
    2121              
    2122              $C$DW$142       .dwtag  DW_TAG_subprogram
    2123                      .dwattr $C$DW$142, DW_AT_name("CLK_disableWatchDogHaltMode")
    2124                      .dwattr $C$DW$142, DW_AT_low_pc(_CLK_disableWatchDogHaltMode)
    2125                      .dwattr $C$DW$142, DW_AT_high_pc(0x00)
    2126                      .dwattr $C$DW$142, DW_AT_TI_symbol_name("_CLK_disableWatchDogHaltMode")
    2127                      .dwattr $C$DW$142, DW_AT_external
    2128                      .dwattr $C$DW$142, DW_AT_TI_begin_file("D:/GIANT/GAINT_TI_instaspin/motorware/motorware_1_01_00_18/sw
    2129                      .dwattr $C$DW$142, DW_AT_TI_begin_line(0x1b0)
    2130                      .dwattr $C$DW$142, DW_AT_TI_begin_column(0x06)
    2131                      .dwattr $C$DW$142, DW_AT_TI_max_frame_size(-2)
    2132                      .dwpsn  file "D:/GIANT/GAINT_TI_instaspin/motorware/motorware_1_01_00_18/sw/drivers/clk/src/32b/f28x/
    2133              
    2134                      .dwfde $C$DW$CIE, _CLK_disableWatchDogHaltMode
    2135              $C$DW$143       .dwtag  DW_TAG_formal_parameter
    2136                      .dwattr $C$DW$143, DW_AT_name("clkHandle")
    2137                      .dwattr $C$DW$143, DW_AT_TI_symbol_name("_clkHandle")
    2138                      .dwattr $C$DW$143, DW_AT_type(*$C$DW$T$60)
    2139                      .dwattr $C$DW$143, DW_AT_location[DW_OP_reg12]
    2140              
    2141              
    2142              ;***************************************************************
    2143              ;* FNAME: _CLK_disableWatchDogHaltMode  FR SIZE:   0           *
    2144              ;*                                                             *
    2145              ;* FUNCTION ENVIRONMENT                                        *
    2146              ;*                                                             *
    2147              ;* FUNCTION PROPERTIES                                         *
    2148              ;*                            0 Parameter,  0 Auto,  0 SOE     *
    2149              ;***************************************************************
    2150              
    2151              _CLK_disableWatchDogHaltMode:
    2152              ;* AR4   assigned to _clkHandle
    2153              $C$DW$144       .dwtag  DW_TAG_variable
    2154                      .dwattr $C$DW$144, DW_AT_name("clkHandle")
    2155                      .dwattr $C$DW$144, DW_AT_TI_symbol_name("_clkHandle")
    2156                      .dwattr $C$DW$144, DW_AT_type(*$C$DW$T$61)
    2157                      .dwattr $C$DW$144, DW_AT_location[DW_OP_reg12]
    2158              
    2159                      .dwcfi  cfa_offset, -2
    2160                      .dwcfi  save_reg_to_mem, 26, 0
    2161 000000e5 7622   EALLOW
    2162                      .dwpsn  file "D:/GIANT/GAINT_TI_instaspin/motorware/motorware_1_01_00_18/sw/drivers/clk/src/32b/f28x/
    2163 000000e6 1AD4          OR        *+XAR4[2],#0x1000     ; [CPU_ALU] |440| 
         000000e7 1000 
    2164 000000e8 761A   EDIS
    2165 000000e9 FF69          SPM       #0                    ; [CPU_ALU] 
    2166              $C$DW$145       .dwtag  DW_TAG_TI_branch
    2167                      .dwattr $C$DW$145, DW_AT_low_pc(0x00)
    2168                      .dwattr $C$DW$145, DW_AT_TI_return
    2169              
    2170 000000ea 0006          LRETR     ; [CPU_ALU] 
TMS320C2000 Assembler PC v18.12.4 Fri Feb 17 15:09:28 2023

Copyright (c) 1996-2018 Texas Instruments Incorporated
C:\Users\User\AppData\Local\Temp\{ACBAF943-9FA4-4A12-94B4-A2BF97C77D4E} PAGE   41

    2171                      ; return occurs ; [] 
    2172                      .dwattr $C$DW$142, DW_AT_TI_end_file("D:/GIANT/GAINT_TI_instaspin/motorware/motorware_1_01_00_18/sw/d
    2173                      .dwattr $C$DW$142, DW_AT_TI_end_line(0x1bd)
    2174                      .dwattr $C$DW$142, DW_AT_TI_end_column(0x01)
    2175                      .dwendentry
    2176                      .dwendtag $C$DW$142
    2177              
    2178 000000eb               .sect   ".text"
    2179                      .clink
    2180                      .global _CLK_disableTbClockSync
    2181              
    2182              $C$DW$146       .dwtag  DW_TAG_subprogram
    2183                      .dwattr $C$DW$146, DW_AT_name("CLK_disableTbClockSync")
    2184                      .dwattr $C$DW$146, DW_AT_low_pc(_CLK_disableTbClockSync)
    2185                      .dwattr $C$DW$146, DW_AT_high_pc(0x00)
    2186                      .dwattr $C$DW$146, DW_AT_TI_symbol_name("_CLK_disableTbClockSync")
    2187                      .dwattr $C$DW$146, DW_AT_external
    2188                      .dwattr $C$DW$146, DW_AT_TI_begin_file("D:/GIANT/GAINT_TI_instaspin/motorware/motorware_1_01_00_18/sw
    2189                      .dwattr $C$DW$146, DW_AT_TI_begin_line(0x1a0)
    2190                      .dwattr $C$DW$146, DW_AT_TI_begin_column(0x06)
    2191                      .dwattr $C$DW$146, DW_AT_TI_max_frame_size(-2)
    2192                      .dwpsn  file "D:/GIANT/GAINT_TI_instaspin/motorware/motorware_1_01_00_18/sw/drivers/clk/src/32b/f28x/
    2193              
    2194                      .dwfde $C$DW$CIE, _CLK_disableTbClockSync
    2195              $C$DW$147       .dwtag  DW_TAG_formal_parameter
    2196                      .dwattr $C$DW$147, DW_AT_name("clkHandle")
    2197                      .dwattr $C$DW$147, DW_AT_TI_symbol_name("_clkHandle")
    2198                      .dwattr $C$DW$147, DW_AT_type(*$C$DW$T$60)
    2199                      .dwattr $C$DW$147, DW_AT_location[DW_OP_reg12]
    2200              
    2201              
    2202              ;***************************************************************
    2203              ;* FNAME: _CLK_disableTbClockSync       FR SIZE:   0           *
    2204              ;*                                                             *
    2205              ;* FUNCTION ENVIRONMENT                                        *
    2206              ;*                                                             *
    2207              ;* FUNCTION PROPERTIES                                         *
    2208              ;*                            0 Parameter,  0 Auto,  0 SOE     *
    2209              ;***************************************************************
    2210              
    2211 000000eb       _CLK_disableTbClockSync:
    2212                      .dwcfi  cfa_offset, -2
    2213                      .dwcfi  save_reg_to_mem, 26, 0
    2214 000000eb 7622   EALLOW
    2215                      .dwpsn  file "D:/GIANT/GAINT_TI_instaspin/motorware/motorware_1_01_00_18/sw/drivers/clk/src/32b/f28x/
    2216 000000ec DC0C          ADDB      XAR4,#12              ; [CPU_ALU] |424| 
    2217 000000ed 18C4          AND       *+XAR4[0],#0xfffb     ; [CPU_ALU] |424| 
         000000ee FFFB 
    2218 000000ef 761A   EDIS
    2219 000000f0 FF69          SPM       #0                    ; [CPU_ALU] 
    2220              $C$DW$148       .dwtag  DW_TAG_TI_branch
    2221                      .dwattr $C$DW$148, DW_AT_low_pc(0x00)
    2222                      .dwattr $C$DW$148, DW_AT_TI_return
    2223              
    2224 000000f1 0006          LRETR     ; [CPU_ALU] 
TMS320C2000 Assembler PC v18.12.4 Fri Feb 17 15:09:28 2023

Copyright (c) 1996-2018 Texas Instruments Incorporated
C:\Users\User\AppData\Local\Temp\{ACBAF943-9FA4-4A12-94B4-A2BF97C77D4E} PAGE   42

    2225                      ; return occurs ; [] 
    2226                      .dwattr $C$DW$146, DW_AT_TI_end_file("D:/GIANT/GAINT_TI_instaspin/motorware/motorware_1_01_00_18/sw/d
    2227                      .dwattr $C$DW$146, DW_AT_TI_end_line(0x1ad)
    2228                      .dwattr $C$DW$146, DW_AT_TI_end_column(0x01)
    2229                      .dwendentry
    2230                      .dwendtag $C$DW$146
    2231              
    2232 000000f2               .sect   ".text"
    2233                      .clink
    2234                      .global _CLK_disableSpibClock
    2235              
    2236              $C$DW$149       .dwtag  DW_TAG_subprogram
    2237                      .dwattr $C$DW$149, DW_AT_name("CLK_disableSpibClock")
    2238                      .dwattr $C$DW$149, DW_AT_low_pc(_CLK_disableSpibClock)
    2239                      .dwattr $C$DW$149, DW_AT_high_pc(0x00)
    2240                      .dwattr $C$DW$149, DW_AT_TI_symbol_name("_CLK_disableSpibClock")
    2241                      .dwattr $C$DW$149, DW_AT_external
    2242                      .dwattr $C$DW$149, DW_AT_TI_begin_file("D:/GIANT/GAINT_TI_instaspin/motorware/motorware_1_01_00_18/sw
    2243                      .dwattr $C$DW$149, DW_AT_TI_begin_line(0x194)
    2244                      .dwattr $C$DW$149, DW_AT_TI_begin_column(0x06)
    2245                      .dwattr $C$DW$149, DW_AT_TI_max_frame_size(-2)
    2246                      .dwpsn  file "D:/GIANT/GAINT_TI_instaspin/motorware/motorware_1_01_00_18/sw/drivers/clk/src/32b/f28x/
    2247              
    2248                      .dwfde $C$DW$CIE, _CLK_disableSpibClock
    2249              $C$DW$150       .dwtag  DW_TAG_formal_parameter
    2250                      .dwattr $C$DW$150, DW_AT_name("clkHandle")
    2251                      .dwattr $C$DW$150, DW_AT_TI_symbol_name("_clkHandle")
    2252                      .dwattr $C$DW$150, DW_AT_type(*$C$DW$T$60)
    2253                      .dwattr $C$DW$150, DW_AT_location[DW_OP_reg12]
    2254              
    2255              
    2256              ;***************************************************************
    2257              ;* FNAME: _CLK_disableSpibClock         FR SIZE:   0           *
    2258              ;*                                                             *
    2259              ;* FUNCTION ENVIRONMENT                                        *
    2260              ;*                                                             *
    2261              ;* FUNCTION PROPERTIES                                         *
    2262              ;*                            0 Parameter,  0 Auto,  0 SOE     *
    2263              ;***************************************************************
    2264              
    2265 000000f2       _CLK_disableSpibClock:
    2266                      .dwcfi  cfa_offset, -2
    2267                      .dwcfi  save_reg_to_mem, 26, 0
    2268                      .dwpsn  file "D:/GIANT/GAINT_TI_instaspin/motorware/motorware_1_01_00_18/sw/drivers/clk/src/32b/f28x/
    2269 000000f2 DC0C          ADDB      XAR4,#12              ; [CPU_ALU] |410| 
    2270 000000f3 18C4          AND       *+XAR4[0],#0xfdff     ; [CPU_ALU] |410| 
         000000f4 FDFF 
    2271              $C$DW$151       .dwtag  DW_TAG_TI_branch
    2272                      .dwattr $C$DW$151, DW_AT_low_pc(0x00)
    2273                      .dwattr $C$DW$151, DW_AT_TI_return
    2274              
    2275 000000f5 0006          LRETR     ; [CPU_ALU] 
    2276                      ; return occurs ; [] 
    2277                      .dwattr $C$DW$149, DW_AT_TI_end_file("D:/GIANT/GAINT_TI_instaspin/motorware/motorware_1_01_00_18/sw/d
    2278                      .dwattr $C$DW$149, DW_AT_TI_end_line(0x19d)
TMS320C2000 Assembler PC v18.12.4 Fri Feb 17 15:09:28 2023

Copyright (c) 1996-2018 Texas Instruments Incorporated
C:\Users\User\AppData\Local\Temp\{ACBAF943-9FA4-4A12-94B4-A2BF97C77D4E} PAGE   43

    2279                      .dwattr $C$DW$149, DW_AT_TI_end_column(0x01)
    2280                      .dwendentry
    2281                      .dwendtag $C$DW$149
    2282              
    2283 000000f6               .sect   ".text"
    2284                      .clink
    2285                      .global _CLK_disableSpiaClock
    2286              
    2287              $C$DW$152       .dwtag  DW_TAG_subprogram
    2288                      .dwattr $C$DW$152, DW_AT_name("CLK_disableSpiaClock")
    2289                      .dwattr $C$DW$152, DW_AT_low_pc(_CLK_disableSpiaClock)
    2290                      .dwattr $C$DW$152, DW_AT_high_pc(0x00)
    2291                      .dwattr $C$DW$152, DW_AT_TI_symbol_name("_CLK_disableSpiaClock")
    2292                      .dwattr $C$DW$152, DW_AT_external
    2293                      .dwattr $C$DW$152, DW_AT_TI_begin_file("D:/GIANT/GAINT_TI_instaspin/motorware/motorware_1_01_00_18/sw
    2294                      .dwattr $C$DW$152, DW_AT_TI_begin_line(0x184)
    2295                      .dwattr $C$DW$152, DW_AT_TI_begin_column(0x06)
    2296                      .dwattr $C$DW$152, DW_AT_TI_max_frame_size(-2)
    2297                      .dwpsn  file "D:/GIANT/GAINT_TI_instaspin/motorware/motorware_1_01_00_18/sw/drivers/clk/src/32b/f28x/
    2298              
    2299                      .dwfde $C$DW$CIE, _CLK_disableSpiaClock
    2300              $C$DW$153       .dwtag  DW_TAG_formal_parameter
    2301                      .dwattr $C$DW$153, DW_AT_name("clkHandle")
    2302                      .dwattr $C$DW$153, DW_AT_TI_symbol_name("_clkHandle")
    2303                      .dwattr $C$DW$153, DW_AT_type(*$C$DW$T$60)
    2304                      .dwattr $C$DW$153, DW_AT_location[DW_OP_reg12]
    2305              
    2306              
    2307              ;***************************************************************
    2308              ;* FNAME: _CLK_disableSpiaClock         FR SIZE:   0           *
    2309              ;*                                                             *
    2310              ;* FUNCTION ENVIRONMENT                                        *
    2311              ;*                                                             *
    2312              ;* FUNCTION PROPERTIES                                         *
    2313              ;*                            0 Parameter,  0 Auto,  0 SOE     *
    2314              ;***************************************************************
    2315              
    2316 000000f6       _CLK_disableSpiaClock:
    2317                      .dwcfi  cfa_offset, -2
    2318                      .dwcfi  save_reg_to_mem, 26, 0
    2319 000000f6 7622   EALLOW
    2320                      .dwpsn  file "D:/GIANT/GAINT_TI_instaspin/motorware/motorware_1_01_00_18/sw/drivers/clk/src/32b/f28x/
    2321 000000f7 DC0C          ADDB      XAR4,#12              ; [CPU_ALU] |396| 
    2322 000000f8 18C4          AND       *+XAR4[0],#0xfeff     ; [CPU_ALU] |396| 
         000000f9 FEFF 
    2323 000000fa 761A   EDIS
    2324 000000fb FF69          SPM       #0                    ; [CPU_ALU] 
    2325              $C$DW$154       .dwtag  DW_TAG_TI_branch
    2326                      .dwattr $C$DW$154, DW_AT_low_pc(0x00)
    2327                      .dwattr $C$DW$154, DW_AT_TI_return
    2328              
    2329 000000fc 0006          LRETR     ; [CPU_ALU] 
    2330                      ; return occurs ; [] 
    2331                      .dwattr $C$DW$152, DW_AT_TI_end_file("D:/GIANT/GAINT_TI_instaspin/motorware/motorware_1_01_00_18/sw/d
    2332                      .dwattr $C$DW$152, DW_AT_TI_end_line(0x191)
TMS320C2000 Assembler PC v18.12.4 Fri Feb 17 15:09:28 2023

Copyright (c) 1996-2018 Texas Instruments Incorporated
C:\Users\User\AppData\Local\Temp\{ACBAF943-9FA4-4A12-94B4-A2BF97C77D4E} PAGE   44

    2333                      .dwattr $C$DW$152, DW_AT_TI_end_column(0x01)
    2334                      .dwendentry
    2335                      .dwendtag $C$DW$152
    2336              
    2337 000000fd               .sect   ".text"
    2338                      .clink
    2339                      .global _CLK_disableScibClock
    2340              
    2341              $C$DW$155       .dwtag  DW_TAG_subprogram
    2342                      .dwattr $C$DW$155, DW_AT_name("CLK_disableScibClock")
    2343                      .dwattr $C$DW$155, DW_AT_low_pc(_CLK_disableScibClock)
    2344                      .dwattr $C$DW$155, DW_AT_high_pc(0x00)
    2345                      .dwattr $C$DW$155, DW_AT_TI_symbol_name("_CLK_disableScibClock")
    2346                      .dwattr $C$DW$155, DW_AT_external
    2347                      .dwattr $C$DW$155, DW_AT_TI_begin_file("D:/GIANT/GAINT_TI_instaspin/motorware/motorware_1_01_00_18/sw
    2348                      .dwattr $C$DW$155, DW_AT_TI_begin_line(0x174)
    2349                      .dwattr $C$DW$155, DW_AT_TI_begin_column(0x06)
    2350                      .dwattr $C$DW$155, DW_AT_TI_max_frame_size(-2)
    2351                      .dwpsn  file "D:/GIANT/GAINT_TI_instaspin/motorware/motorware_1_01_00_18/sw/drivers/clk/src/32b/f28x/
    2352              
    2353                      .dwfde $C$DW$CIE, _CLK_disableScibClock
    2354              $C$DW$156       .dwtag  DW_TAG_formal_parameter
    2355                      .dwattr $C$DW$156, DW_AT_name("clkHandle")
    2356                      .dwattr $C$DW$156, DW_AT_TI_symbol_name("_clkHandle")
    2357                      .dwattr $C$DW$156, DW_AT_type(*$C$DW$T$60)
    2358                      .dwattr $C$DW$156, DW_AT_location[DW_OP_reg12]
    2359              
    2360              
    2361              ;***************************************************************
    2362              ;* FNAME: _CLK_disableScibClock         FR SIZE:   0           *
    2363              ;*                                                             *
    2364              ;* FUNCTION ENVIRONMENT                                        *
    2365              ;*                                                             *
    2366              ;* FUNCTION PROPERTIES                                         *
    2367              ;*                            0 Parameter,  0 Auto,  0 SOE     *
    2368              ;***************************************************************
    2369              
    2370 000000fd       _CLK_disableScibClock:
    2371                      .dwcfi  cfa_offset, -2
    2372                      .dwcfi  save_reg_to_mem, 26, 0
    2373 000000fd 7622   EALLOW
    2374                      .dwpsn  file "D:/GIANT/GAINT_TI_instaspin/motorware/motorware_1_01_00_18/sw/drivers/clk/src/32b/f28x/
    2375 000000fe DC0C          ADDB      XAR4,#12              ; [CPU_ALU] |380| 
    2376 000000ff 18C4          AND       *+XAR4[0],#0xf7ff     ; [CPU_ALU] |380| 
         00000100 F7FF 
    2377 00000101 761A   EDIS
    2378 00000102 FF69          SPM       #0                    ; [CPU_ALU] 
    2379              $C$DW$157       .dwtag  DW_TAG_TI_branch
    2380                      .dwattr $C$DW$157, DW_AT_low_pc(0x00)
    2381                      .dwattr $C$DW$157, DW_AT_TI_return
    2382              
    2383 00000103 0006          LRETR     ; [CPU_ALU] 
    2384                      ; return occurs ; [] 
    2385                      .dwattr $C$DW$155, DW_AT_TI_end_file("D:/GIANT/GAINT_TI_instaspin/motorware/motorware_1_01_00_18/sw/d
    2386                      .dwattr $C$DW$155, DW_AT_TI_end_line(0x181)
TMS320C2000 Assembler PC v18.12.4 Fri Feb 17 15:09:28 2023

Copyright (c) 1996-2018 Texas Instruments Incorporated
C:\Users\User\AppData\Local\Temp\{ACBAF943-9FA4-4A12-94B4-A2BF97C77D4E} PAGE   45

    2387                      .dwattr $C$DW$155, DW_AT_TI_end_column(0x01)
    2388                      .dwendentry
    2389                      .dwendtag $C$DW$155
    2390              
    2391 00000104               .sect   ".text"
    2392                      .clink
    2393                      .global _CLK_disableSciaClock
    2394              
    2395              $C$DW$158       .dwtag  DW_TAG_subprogram
    2396                      .dwattr $C$DW$158, DW_AT_name("CLK_disableSciaClock")
    2397                      .dwattr $C$DW$158, DW_AT_low_pc(_CLK_disableSciaClock)
    2398                      .dwattr $C$DW$158, DW_AT_high_pc(0x00)
    2399                      .dwattr $C$DW$158, DW_AT_TI_symbol_name("_CLK_disableSciaClock")
    2400                      .dwattr $C$DW$158, DW_AT_external
    2401                      .dwattr $C$DW$158, DW_AT_TI_begin_file("D:/GIANT/GAINT_TI_instaspin/motorware/motorware_1_01_00_18/sw
    2402                      .dwattr $C$DW$158, DW_AT_TI_begin_line(0x164)
    2403                      .dwattr $C$DW$158, DW_AT_TI_begin_column(0x06)
    2404                      .dwattr $C$DW$158, DW_AT_TI_max_frame_size(-2)
    2405                      .dwpsn  file "D:/GIANT/GAINT_TI_instaspin/motorware/motorware_1_01_00_18/sw/drivers/clk/src/32b/f28x/
    2406              
    2407                      .dwfde $C$DW$CIE, _CLK_disableSciaClock
    2408              $C$DW$159       .dwtag  DW_TAG_formal_parameter
    2409                      .dwattr $C$DW$159, DW_AT_name("clkHandle")
    2410                      .dwattr $C$DW$159, DW_AT_TI_symbol_name("_clkHandle")
    2411                      .dwattr $C$DW$159, DW_AT_type(*$C$DW$T$60)
    2412                      .dwattr $C$DW$159, DW_AT_location[DW_OP_reg12]
    2413              
    2414              
    2415              ;***************************************************************
    2416              ;* FNAME: _CLK_disableSciaClock         FR SIZE:   0           *
    2417              ;*                                                             *
    2418              ;* FUNCTION ENVIRONMENT                                        *
    2419              ;*                                                             *
    2420              ;* FUNCTION PROPERTIES                                         *
    2421              ;*                            0 Parameter,  0 Auto,  0 SOE     *
    2422              ;***************************************************************
    2423              
    2424 00000104       _CLK_disableSciaClock:
    2425                      .dwcfi  cfa_offset, -2
    2426                      .dwcfi  save_reg_to_mem, 26, 0
    2427 00000104 7622   EALLOW
    2428                      .dwpsn  file "D:/GIANT/GAINT_TI_instaspin/motorware/motorware_1_01_00_18/sw/drivers/clk/src/32b/f28x/
    2429 00000105 DC0C          ADDB      XAR4,#12              ; [CPU_ALU] |364| 
    2430 00000106 18C4          AND       *+XAR4[0],#0xfbff     ; [CPU_ALU] |364| 
         00000107 FBFF 
    2431 00000108 761A   EDIS
    2432 00000109 FF69          SPM       #0                    ; [CPU_ALU] 
    2433              $C$DW$160       .dwtag  DW_TAG_TI_branch
    2434                      .dwattr $C$DW$160, DW_AT_low_pc(0x00)
    2435                      .dwattr $C$DW$160, DW_AT_TI_return
    2436              
    2437 0000010a 0006          LRETR     ; [CPU_ALU] 
    2438                      ; return occurs ; [] 
    2439                      .dwattr $C$DW$158, DW_AT_TI_end_file("D:/GIANT/GAINT_TI_instaspin/motorware/motorware_1_01_00_18/sw/d
    2440                      .dwattr $C$DW$158, DW_AT_TI_end_line(0x171)
TMS320C2000 Assembler PC v18.12.4 Fri Feb 17 15:09:28 2023

Copyright (c) 1996-2018 Texas Instruments Incorporated
C:\Users\User\AppData\Local\Temp\{ACBAF943-9FA4-4A12-94B4-A2BF97C77D4E} PAGE   46

    2441                      .dwattr $C$DW$158, DW_AT_TI_end_column(0x01)
    2442                      .dwendentry
    2443                      .dwendtag $C$DW$158
    2444              
    2445 0000010b               .sect   ".text"
    2446                      .clink
    2447                      .global _CLK_disablePwmClock
    2448              
    2449              $C$DW$161       .dwtag  DW_TAG_subprogram
    2450                      .dwattr $C$DW$161, DW_AT_name("CLK_disablePwmClock")
    2451                      .dwattr $C$DW$161, DW_AT_low_pc(_CLK_disablePwmClock)
    2452                      .dwattr $C$DW$161, DW_AT_high_pc(0x00)
    2453                      .dwattr $C$DW$161, DW_AT_TI_symbol_name("_CLK_disablePwmClock")
    2454                      .dwattr $C$DW$161, DW_AT_external
    2455                      .dwattr $C$DW$161, DW_AT_TI_begin_file("D:/GIANT/GAINT_TI_instaspin/motorware/motorware_1_01_00_18/sw
    2456                      .dwattr $C$DW$161, DW_AT_TI_begin_line(0x154)
    2457                      .dwattr $C$DW$161, DW_AT_TI_begin_column(0x06)
    2458                      .dwattr $C$DW$161, DW_AT_TI_max_frame_size(-2)
    2459                      .dwpsn  file "D:/GIANT/GAINT_TI_instaspin/motorware/motorware_1_01_00_18/sw/drivers/clk/src/32b/f28x/
    2460              
    2461                      .dwfde $C$DW$CIE, _CLK_disablePwmClock
    2462              $C$DW$162       .dwtag  DW_TAG_formal_parameter
    2463                      .dwattr $C$DW$162, DW_AT_name("clkHandle")
    2464                      .dwattr $C$DW$162, DW_AT_TI_symbol_name("_clkHandle")
    2465                      .dwattr $C$DW$162, DW_AT_type(*$C$DW$T$60)
    2466                      .dwattr $C$DW$162, DW_AT_location[DW_OP_reg12]
    2467              
    2468              $C$DW$163       .dwtag  DW_TAG_formal_parameter
    2469                      .dwattr $C$DW$163, DW_AT_name("pwmNumber")
    2470                      .dwattr $C$DW$163, DW_AT_TI_symbol_name("_pwmNumber")
    2471                      .dwattr $C$DW$163, DW_AT_type(*$C$DW$T$32)
    2472                      .dwattr $C$DW$163, DW_AT_location[DW_OP_reg0]
    2473              
    2474              
    2475              ;***************************************************************
    2476              ;* FNAME: _CLK_disablePwmClock          FR SIZE:   0           *
    2477              ;*                                                             *
    2478              ;* FUNCTION ENVIRONMENT                                        *
    2479              ;*                                                             *
    2480              ;* FUNCTION PROPERTIES                                         *
    2481              ;*                            0 Parameter,  0 Auto,  0 SOE     *
    2482              ;***************************************************************
    2483              
    2484              _CLK_disablePwmClock:
    2485              ;* T     assigned to _pwmNumber
    2486              $C$DW$164       .dwtag  DW_TAG_variable
    2487                      .dwattr $C$DW$164, DW_AT_name("pwmNumber")
    2488                      .dwattr $C$DW$164, DW_AT_TI_symbol_name("_pwmNumber")
    2489                      .dwattr $C$DW$164, DW_AT_type(*$C$DW$T$33)
    2490                      .dwattr $C$DW$164, DW_AT_location[DW_OP_reg22]
    2491              
    2492                      .dwcfi  cfa_offset, -2
    2493                      .dwcfi  save_reg_to_mem, 26, 0
    2494 0000010b 2DA9          MOV       T,AL                  ; [CPU_ALU] |341| 
    2495 0000010c 7622   EALLOW
TMS320C2000 Assembler PC v18.12.4 Fri Feb 17 15:09:28 2023

Copyright (c) 1996-2018 Texas Instruments Incorporated
C:\Users\User\AppData\Local\Temp\{ACBAF943-9FA4-4A12-94B4-A2BF97C77D4E} PAGE   47

    2496                      .dwpsn  file "D:/GIANT/GAINT_TI_instaspin/motorware/motorware_1_01_00_18/sw/drivers/clk/src/32b/f28x/
    2497 0000010d 9A01          MOVB      AL,#1                 ; [CPU_ALU] |348| 
    2498 0000010e DC0D          ADDB      XAR4,#13              ; [CPU_ALU] |348| 
    2499 0000010f FF66          LSL       AL,T                  ; [CPU_ALU] |348| 
    2500 00000110 FF5E          NOT       AL                    ; [CPU_ALU] |348| 
    2501 00000111 C0C4          AND       *+XAR4[0],AL          ; [CPU_ALU] |348| 
    2502 00000112 761A   EDIS
    2503 00000113 FF69          SPM       #0                    ; [CPU_ALU] 
    2504              $C$DW$165       .dwtag  DW_TAG_TI_branch
    2505                      .dwattr $C$DW$165, DW_AT_low_pc(0x00)
    2506                      .dwattr $C$DW$165, DW_AT_TI_return
    2507              
    2508 00000114 0006          LRETR     ; [CPU_ALU] 
    2509                      ; return occurs ; [] 
    2510                      .dwattr $C$DW$161, DW_AT_TI_end_file("D:/GIANT/GAINT_TI_instaspin/motorware/motorware_1_01_00_18/sw/d
    2511                      .dwattr $C$DW$161, DW_AT_TI_end_line(0x161)
    2512                      .dwattr $C$DW$161, DW_AT_TI_end_column(0x01)
    2513                      .dwendentry
    2514                      .dwendtag $C$DW$161
    2515              
    2516 00000115               .sect   ".text"
    2517                      .clink
    2518                      .global _CLK_disableOsc2HaltMode
    2519              
    2520              $C$DW$166       .dwtag  DW_TAG_subprogram
    2521                      .dwattr $C$DW$166, DW_AT_name("CLK_disableOsc2HaltMode")
    2522                      .dwattr $C$DW$166, DW_AT_low_pc(_CLK_disableOsc2HaltMode)
    2523                      .dwattr $C$DW$166, DW_AT_high_pc(0x00)
    2524                      .dwattr $C$DW$166, DW_AT_TI_symbol_name("_CLK_disableOsc2HaltMode")
    2525                      .dwattr $C$DW$166, DW_AT_external
    2526                      .dwattr $C$DW$166, DW_AT_TI_begin_file("D:/GIANT/GAINT_TI_instaspin/motorware/motorware_1_01_00_18/sw
    2527                      .dwattr $C$DW$166, DW_AT_TI_begin_line(0x144)
    2528                      .dwattr $C$DW$166, DW_AT_TI_begin_column(0x06)
    2529                      .dwattr $C$DW$166, DW_AT_TI_max_frame_size(-2)
    2530                      .dwpsn  file "D:/GIANT/GAINT_TI_instaspin/motorware/motorware_1_01_00_18/sw/drivers/clk/src/32b/f28x/
    2531              
    2532                      .dwfde $C$DW$CIE, _CLK_disableOsc2HaltMode
    2533              $C$DW$167       .dwtag  DW_TAG_formal_parameter
    2534                      .dwattr $C$DW$167, DW_AT_name("clkHandle")
    2535                      .dwattr $C$DW$167, DW_AT_TI_symbol_name("_clkHandle")
    2536                      .dwattr $C$DW$167, DW_AT_type(*$C$DW$T$60)
    2537                      .dwattr $C$DW$167, DW_AT_location[DW_OP_reg12]
    2538              
    2539              
    2540              ;***************************************************************
    2541              ;* FNAME: _CLK_disableOsc2HaltMode      FR SIZE:   0           *
    2542              ;*                                                             *
    2543              ;* FUNCTION ENVIRONMENT                                        *
    2544              ;*                                                             *
    2545              ;* FUNCTION PROPERTIES                                         *
    2546              ;*                            0 Parameter,  0 Auto,  0 SOE     *
    2547              ;***************************************************************
    2548              
    2549              _CLK_disableOsc2HaltMode:
    2550              ;* AR4   assigned to _clkHandle
TMS320C2000 Assembler PC v18.12.4 Fri Feb 17 15:09:28 2023

Copyright (c) 1996-2018 Texas Instruments Incorporated
C:\Users\User\AppData\Local\Temp\{ACBAF943-9FA4-4A12-94B4-A2BF97C77D4E} PAGE   48

    2551              $C$DW$168       .dwtag  DW_TAG_variable
    2552                      .dwattr $C$DW$168, DW_AT_name("clkHandle")
    2553                      .dwattr $C$DW$168, DW_AT_TI_symbol_name("_clkHandle")
    2554                      .dwattr $C$DW$168, DW_AT_type(*$C$DW$T$61)
    2555                      .dwattr $C$DW$168, DW_AT_location[DW_OP_reg12]
    2556              
    2557                      .dwcfi  cfa_offset, -2
    2558                      .dwcfi  save_reg_to_mem, 26, 0
    2559 00000115 7622   EALLOW
    2560                      .dwpsn  file "D:/GIANT/GAINT_TI_instaspin/motorware/motorware_1_01_00_18/sw/drivers/clk/src/32b/f28x/
    2561 00000116 1AD4          OR        *+XAR4[2],#0x0800     ; [CPU_ALU] |332| 
         00000117 0800 
    2562 00000118 761A   EDIS
    2563 00000119 FF69          SPM       #0                    ; [CPU_ALU] 
    2564              $C$DW$169       .dwtag  DW_TAG_TI_branch
    2565                      .dwattr $C$DW$169, DW_AT_low_pc(0x00)
    2566                      .dwattr $C$DW$169, DW_AT_TI_return
    2567              
    2568 0000011a 0006          LRETR     ; [CPU_ALU] 
    2569                      ; return occurs ; [] 
    2570                      .dwattr $C$DW$166, DW_AT_TI_end_file("D:/GIANT/GAINT_TI_instaspin/motorware/motorware_1_01_00_18/sw/d
    2571                      .dwattr $C$DW$166, DW_AT_TI_end_line(0x151)
    2572                      .dwattr $C$DW$166, DW_AT_TI_end_column(0x01)
    2573                      .dwendentry
    2574                      .dwendtag $C$DW$166
    2575              
    2576 0000011b               .sect   ".text"
    2577                      .clink
    2578                      .global _CLK_disableOsc2
    2579              
    2580              $C$DW$170       .dwtag  DW_TAG_subprogram
    2581                      .dwattr $C$DW$170, DW_AT_name("CLK_disableOsc2")
    2582                      .dwattr $C$DW$170, DW_AT_low_pc(_CLK_disableOsc2)
    2583                      .dwattr $C$DW$170, DW_AT_high_pc(0x00)
    2584                      .dwattr $C$DW$170, DW_AT_TI_symbol_name("_CLK_disableOsc2")
    2585                      .dwattr $C$DW$170, DW_AT_external
    2586                      .dwattr $C$DW$170, DW_AT_TI_begin_file("D:/GIANT/GAINT_TI_instaspin/motorware/motorware_1_01_00_18/sw
    2587                      .dwattr $C$DW$170, DW_AT_TI_begin_line(0x134)
    2588                      .dwattr $C$DW$170, DW_AT_TI_begin_column(0x06)
    2589                      .dwattr $C$DW$170, DW_AT_TI_max_frame_size(-2)
    2590                      .dwpsn  file "D:/GIANT/GAINT_TI_instaspin/motorware/motorware_1_01_00_18/sw/drivers/clk/src/32b/f28x/
    2591              
    2592                      .dwfde $C$DW$CIE, _CLK_disableOsc2
    2593              $C$DW$171       .dwtag  DW_TAG_formal_parameter
    2594                      .dwattr $C$DW$171, DW_AT_name("clkHandle")
    2595                      .dwattr $C$DW$171, DW_AT_TI_symbol_name("_clkHandle")
    2596                      .dwattr $C$DW$171, DW_AT_type(*$C$DW$T$60)
    2597                      .dwattr $C$DW$171, DW_AT_location[DW_OP_reg12]
    2598              
    2599              
    2600              ;***************************************************************
    2601              ;* FNAME: _CLK_disableOsc2              FR SIZE:   0           *
    2602              ;*                                                             *
    2603              ;* FUNCTION ENVIRONMENT                                        *
    2604              ;*                                                             *
TMS320C2000 Assembler PC v18.12.4 Fri Feb 17 15:09:28 2023

Copyright (c) 1996-2018 Texas Instruments Incorporated
C:\Users\User\AppData\Local\Temp\{ACBAF943-9FA4-4A12-94B4-A2BF97C77D4E} PAGE   49

    2605              ;* FUNCTION PROPERTIES                                         *
    2606              ;*                            0 Parameter,  0 Auto,  0 SOE     *
    2607              ;***************************************************************
    2608              
    2609              _CLK_disableOsc2:
    2610              ;* AR4   assigned to _clkHandle
    2611              $C$DW$172       .dwtag  DW_TAG_variable
    2612                      .dwattr $C$DW$172, DW_AT_name("clkHandle")
    2613                      .dwattr $C$DW$172, DW_AT_TI_symbol_name("_clkHandle")
    2614                      .dwattr $C$DW$172, DW_AT_type(*$C$DW$T$61)
    2615                      .dwattr $C$DW$172, DW_AT_location[DW_OP_reg12]
    2616              
    2617                      .dwcfi  cfa_offset, -2
    2618                      .dwcfi  save_reg_to_mem, 26, 0
    2619 0000011b 7622   EALLOW
    2620                      .dwpsn  file "D:/GIANT/GAINT_TI_instaspin/motorware/motorware_1_01_00_18/sw/drivers/clk/src/32b/f28x/
    2621 0000011c 1AD4          OR        *+XAR4[2],#0x0400     ; [CPU_ALU] |316| 
         0000011d 0400 
    2622 0000011e 761A   EDIS
    2623 0000011f FF69          SPM       #0                    ; [CPU_ALU] 
    2624              $C$DW$173       .dwtag  DW_TAG_TI_branch
    2625                      .dwattr $C$DW$173, DW_AT_low_pc(0x00)
    2626                      .dwattr $C$DW$173, DW_AT_TI_return
    2627              
    2628 00000120 0006          LRETR     ; [CPU_ALU] 
    2629                      ; return occurs ; [] 
    2630                      .dwattr $C$DW$170, DW_AT_TI_end_file("D:/GIANT/GAINT_TI_instaspin/motorware/motorware_1_01_00_18/sw/d
    2631                      .dwattr $C$DW$170, DW_AT_TI_end_line(0x141)
    2632                      .dwattr $C$DW$170, DW_AT_TI_end_column(0x01)
    2633                      .dwendentry
    2634                      .dwendtag $C$DW$170
    2635              
    2636 00000121               .sect   ".text"
    2637                      .clink
    2638                      .global _CLK_disableOsc1HaltMode
    2639              
    2640              $C$DW$174       .dwtag  DW_TAG_subprogram
    2641                      .dwattr $C$DW$174, DW_AT_name("CLK_disableOsc1HaltMode")
    2642                      .dwattr $C$DW$174, DW_AT_low_pc(_CLK_disableOsc1HaltMode)
    2643                      .dwattr $C$DW$174, DW_AT_high_pc(0x00)
    2644                      .dwattr $C$DW$174, DW_AT_TI_symbol_name("_CLK_disableOsc1HaltMode")
    2645                      .dwattr $C$DW$174, DW_AT_external
    2646                      .dwattr $C$DW$174, DW_AT_TI_begin_file("D:/GIANT/GAINT_TI_instaspin/motorware/motorware_1_01_00_18/sw
    2647                      .dwattr $C$DW$174, DW_AT_TI_begin_line(0x124)
    2648                      .dwattr $C$DW$174, DW_AT_TI_begin_column(0x06)
    2649                      .dwattr $C$DW$174, DW_AT_TI_max_frame_size(-2)
    2650                      .dwpsn  file "D:/GIANT/GAINT_TI_instaspin/motorware/motorware_1_01_00_18/sw/drivers/clk/src/32b/f28x/
    2651              
    2652                      .dwfde $C$DW$CIE, _CLK_disableOsc1HaltMode
    2653              $C$DW$175       .dwtag  DW_TAG_formal_parameter
    2654                      .dwattr $C$DW$175, DW_AT_name("clkHandle")
    2655                      .dwattr $C$DW$175, DW_AT_TI_symbol_name("_clkHandle")
    2656                      .dwattr $C$DW$175, DW_AT_type(*$C$DW$T$60)
    2657                      .dwattr $C$DW$175, DW_AT_location[DW_OP_reg12]
    2658              
TMS320C2000 Assembler PC v18.12.4 Fri Feb 17 15:09:28 2023

Copyright (c) 1996-2018 Texas Instruments Incorporated
C:\Users\User\AppData\Local\Temp\{ACBAF943-9FA4-4A12-94B4-A2BF97C77D4E} PAGE   50

    2659              
    2660              ;***************************************************************
    2661              ;* FNAME: _CLK_disableOsc1HaltMode      FR SIZE:   0           *
    2662              ;*                                                             *
    2663              ;* FUNCTION ENVIRONMENT                                        *
    2664              ;*                                                             *
    2665              ;* FUNCTION PROPERTIES                                         *
    2666              ;*                            0 Parameter,  0 Auto,  0 SOE     *
    2667              ;***************************************************************
    2668              
    2669              _CLK_disableOsc1HaltMode:
    2670              ;* AR4   assigned to _clkHandle
    2671              $C$DW$176       .dwtag  DW_TAG_variable
    2672                      .dwattr $C$DW$176, DW_AT_name("clkHandle")
    2673                      .dwattr $C$DW$176, DW_AT_TI_symbol_name("_clkHandle")
    2674                      .dwattr $C$DW$176, DW_AT_type(*$C$DW$T$61)
    2675                      .dwattr $C$DW$176, DW_AT_location[DW_OP_reg12]
    2676              
    2677                      .dwcfi  cfa_offset, -2
    2678                      .dwcfi  save_reg_to_mem, 26, 0
    2679 00000121 7622   EALLOW
    2680                      .dwpsn  file "D:/GIANT/GAINT_TI_instaspin/motorware/motorware_1_01_00_18/sw/drivers/clk/src/32b/f28x/
    2681 00000122 1AD4          OR        *+XAR4[2],#0x0200     ; [CPU_ALU] |300| 
         00000123 0200 
    2682 00000124 761A   EDIS
    2683 00000125 FF69          SPM       #0                    ; [CPU_ALU] 
    2684              $C$DW$177       .dwtag  DW_TAG_TI_branch
    2685                      .dwattr $C$DW$177, DW_AT_low_pc(0x00)
    2686                      .dwattr $C$DW$177, DW_AT_TI_return
    2687              
    2688 00000126 0006          LRETR     ; [CPU_ALU] 
    2689                      ; return occurs ; [] 
    2690                      .dwattr $C$DW$174, DW_AT_TI_end_file("D:/GIANT/GAINT_TI_instaspin/motorware/motorware_1_01_00_18/sw/d
    2691                      .dwattr $C$DW$174, DW_AT_TI_end_line(0x131)
    2692                      .dwattr $C$DW$174, DW_AT_TI_end_column(0x01)
    2693                      .dwendentry
    2694                      .dwendtag $C$DW$174
    2695              
    2696 00000127               .sect   ".text"
    2697                      .clink
    2698                      .global _CLK_disableOsc1
    2699              
    2700              $C$DW$178       .dwtag  DW_TAG_subprogram
    2701                      .dwattr $C$DW$178, DW_AT_name("CLK_disableOsc1")
    2702                      .dwattr $C$DW$178, DW_AT_low_pc(_CLK_disableOsc1)
    2703                      .dwattr $C$DW$178, DW_AT_high_pc(0x00)
    2704                      .dwattr $C$DW$178, DW_AT_TI_symbol_name("_CLK_disableOsc1")
    2705                      .dwattr $C$DW$178, DW_AT_external
    2706                      .dwattr $C$DW$178, DW_AT_TI_begin_file("D:/GIANT/GAINT_TI_instaspin/motorware/motorware_1_01_00_18/sw
    2707                      .dwattr $C$DW$178, DW_AT_TI_begin_line(0x114)
    2708                      .dwattr $C$DW$178, DW_AT_TI_begin_column(0x06)
    2709                      .dwattr $C$DW$178, DW_AT_TI_max_frame_size(-2)
    2710                      .dwpsn  file "D:/GIANT/GAINT_TI_instaspin/motorware/motorware_1_01_00_18/sw/drivers/clk/src/32b/f28x/
    2711              
    2712                      .dwfde $C$DW$CIE, _CLK_disableOsc1
TMS320C2000 Assembler PC v18.12.4 Fri Feb 17 15:09:28 2023

Copyright (c) 1996-2018 Texas Instruments Incorporated
C:\Users\User\AppData\Local\Temp\{ACBAF943-9FA4-4A12-94B4-A2BF97C77D4E} PAGE   51

    2713              $C$DW$179       .dwtag  DW_TAG_formal_parameter
    2714                      .dwattr $C$DW$179, DW_AT_name("clkHandle")
    2715                      .dwattr $C$DW$179, DW_AT_TI_symbol_name("_clkHandle")
    2716                      .dwattr $C$DW$179, DW_AT_type(*$C$DW$T$60)
    2717                      .dwattr $C$DW$179, DW_AT_location[DW_OP_reg12]
    2718              
    2719              
    2720              ;***************************************************************
    2721              ;* FNAME: _CLK_disableOsc1              FR SIZE:   0           *
    2722              ;*                                                             *
    2723              ;* FUNCTION ENVIRONMENT                                        *
    2724              ;*                                                             *
    2725              ;* FUNCTION PROPERTIES                                         *
    2726              ;*                            0 Parameter,  0 Auto,  0 SOE     *
    2727              ;***************************************************************
    2728              
    2729              _CLK_disableOsc1:
    2730              ;* AR4   assigned to _clkHandle
    2731              $C$DW$180       .dwtag  DW_TAG_variable
    2732                      .dwattr $C$DW$180, DW_AT_name("clkHandle")
    2733                      .dwattr $C$DW$180, DW_AT_TI_symbol_name("_clkHandle")
    2734                      .dwattr $C$DW$180, DW_AT_type(*$C$DW$T$61)
    2735                      .dwattr $C$DW$180, DW_AT_location[DW_OP_reg12]
    2736              
    2737                      .dwcfi  cfa_offset, -2
    2738                      .dwcfi  save_reg_to_mem, 26, 0
    2739 00000127 7622   EALLOW
    2740                      .dwpsn  file "D:/GIANT/GAINT_TI_instaspin/motorware/motorware_1_01_00_18/sw/drivers/clk/src/32b/f28x/
    2741 00000128 1AD4          OR        *+XAR4[2],#0x0100     ; [CPU_ALU] |284| 
         00000129 0100 
    2742 0000012a 761A   EDIS
    2743 0000012b FF69          SPM       #0                    ; [CPU_ALU] 
    2744              $C$DW$181       .dwtag  DW_TAG_TI_branch
    2745                      .dwattr $C$DW$181, DW_AT_low_pc(0x00)
    2746                      .dwattr $C$DW$181, DW_AT_TI_return
    2747              
    2748 0000012c 0006          LRETR     ; [CPU_ALU] 
    2749                      ; return occurs ; [] 
    2750                      .dwattr $C$DW$178, DW_AT_TI_end_file("D:/GIANT/GAINT_TI_instaspin/motorware/motorware_1_01_00_18/sw/d
    2751                      .dwattr $C$DW$178, DW_AT_TI_end_line(0x121)
    2752                      .dwattr $C$DW$178, DW_AT_TI_end_column(0x01)
    2753                      .dwendentry
    2754                      .dwendtag $C$DW$178
    2755              
    2756 0000012d               .sect   ".text"
    2757                      .clink
    2758                      .global _CLK_disableLinAClock
    2759              
    2760              $C$DW$182       .dwtag  DW_TAG_subprogram
    2761                      .dwattr $C$DW$182, DW_AT_name("CLK_disableLinAClock")
    2762                      .dwattr $C$DW$182, DW_AT_low_pc(_CLK_disableLinAClock)
    2763                      .dwattr $C$DW$182, DW_AT_high_pc(0x00)
    2764                      .dwattr $C$DW$182, DW_AT_TI_symbol_name("_CLK_disableLinAClock")
    2765                      .dwattr $C$DW$182, DW_AT_external
    2766                      .dwattr $C$DW$182, DW_AT_TI_begin_file("D:/GIANT/GAINT_TI_instaspin/motorware/motorware_1_01_00_18/sw
TMS320C2000 Assembler PC v18.12.4 Fri Feb 17 15:09:28 2023

Copyright (c) 1996-2018 Texas Instruments Incorporated
C:\Users\User\AppData\Local\Temp\{ACBAF943-9FA4-4A12-94B4-A2BF97C77D4E} PAGE   52

    2767                      .dwattr $C$DW$182, DW_AT_TI_begin_line(0x104)
    2768                      .dwattr $C$DW$182, DW_AT_TI_begin_column(0x06)
    2769                      .dwattr $C$DW$182, DW_AT_TI_max_frame_size(-2)
    2770                      .dwpsn  file "D:/GIANT/GAINT_TI_instaspin/motorware/motorware_1_01_00_18/sw/drivers/clk/src/32b/f28x/
    2771              
    2772                      .dwfde $C$DW$CIE, _CLK_disableLinAClock
    2773              $C$DW$183       .dwtag  DW_TAG_formal_parameter
    2774                      .dwattr $C$DW$183, DW_AT_name("clkHandle")
    2775                      .dwattr $C$DW$183, DW_AT_TI_symbol_name("_clkHandle")
    2776                      .dwattr $C$DW$183, DW_AT_type(*$C$DW$T$60)
    2777                      .dwattr $C$DW$183, DW_AT_location[DW_OP_reg12]
    2778              
    2779              
    2780              ;***************************************************************
    2781              ;* FNAME: _CLK_disableLinAClock         FR SIZE:   0           *
    2782              ;*                                                             *
    2783              ;* FUNCTION ENVIRONMENT                                        *
    2784              ;*                                                             *
    2785              ;* FUNCTION PROPERTIES                                         *
    2786              ;*                            0 Parameter,  0 Auto,  0 SOE     *
    2787              ;***************************************************************
    2788              
    2789 0000012d       _CLK_disableLinAClock:
    2790                      .dwcfi  cfa_offset, -2
    2791                      .dwcfi  save_reg_to_mem, 26, 0
    2792 0000012d 7622   EALLOW
    2793                      .dwpsn  file "D:/GIANT/GAINT_TI_instaspin/motorware/motorware_1_01_00_18/sw/drivers/clk/src/32b/f28x/
    2794 0000012e DC0C          ADDB      XAR4,#12              ; [CPU_ALU] |268| 
    2795 0000012f 18C4          AND       *+XAR4[0],#0xfffd     ; [CPU_ALU] |268| 
         00000130 FFFD 
    2796 00000131 761A   EDIS
    2797 00000132 FF69          SPM       #0                    ; [CPU_ALU] 
    2798              $C$DW$184       .dwtag  DW_TAG_TI_branch
    2799                      .dwattr $C$DW$184, DW_AT_low_pc(0x00)
    2800                      .dwattr $C$DW$184, DW_AT_TI_return
    2801              
    2802 00000133 0006          LRETR     ; [CPU_ALU] 
    2803                      ; return occurs ; [] 
    2804                      .dwattr $C$DW$182, DW_AT_TI_end_file("D:/GIANT/GAINT_TI_instaspin/motorware/motorware_1_01_00_18/sw/d
    2805                      .dwattr $C$DW$182, DW_AT_TI_end_line(0x111)
    2806                      .dwattr $C$DW$182, DW_AT_TI_end_column(0x01)
    2807                      .dwendentry
    2808                      .dwendtag $C$DW$182
    2809              
    2810 00000134               .sect   ".text"
    2811                      .clink
    2812                      .global _CLK_disableI2cClock
    2813              
    2814              $C$DW$185       .dwtag  DW_TAG_subprogram
    2815                      .dwattr $C$DW$185, DW_AT_name("CLK_disableI2cClock")
    2816                      .dwattr $C$DW$185, DW_AT_low_pc(_CLK_disableI2cClock)
    2817                      .dwattr $C$DW$185, DW_AT_high_pc(0x00)
    2818                      .dwattr $C$DW$185, DW_AT_TI_symbol_name("_CLK_disableI2cClock")
    2819                      .dwattr $C$DW$185, DW_AT_external
    2820                      .dwattr $C$DW$185, DW_AT_TI_begin_file("D:/GIANT/GAINT_TI_instaspin/motorware/motorware_1_01_00_18/sw
TMS320C2000 Assembler PC v18.12.4 Fri Feb 17 15:09:28 2023

Copyright (c) 1996-2018 Texas Instruments Incorporated
C:\Users\User\AppData\Local\Temp\{ACBAF943-9FA4-4A12-94B4-A2BF97C77D4E} PAGE   53

    2821                      .dwattr $C$DW$185, DW_AT_TI_begin_line(0xf4)
    2822                      .dwattr $C$DW$185, DW_AT_TI_begin_column(0x06)
    2823                      .dwattr $C$DW$185, DW_AT_TI_max_frame_size(-2)
    2824                      .dwpsn  file "D:/GIANT/GAINT_TI_instaspin/motorware/motorware_1_01_00_18/sw/drivers/clk/src/32b/f28x/
    2825              
    2826                      .dwfde $C$DW$CIE, _CLK_disableI2cClock
    2827              $C$DW$186       .dwtag  DW_TAG_formal_parameter
    2828                      .dwattr $C$DW$186, DW_AT_name("clkHandle")
    2829                      .dwattr $C$DW$186, DW_AT_TI_symbol_name("_clkHandle")
    2830                      .dwattr $C$DW$186, DW_AT_type(*$C$DW$T$60)
    2831                      .dwattr $C$DW$186, DW_AT_location[DW_OP_reg12]
    2832              
    2833              
    2834              ;***************************************************************
    2835              ;* FNAME: _CLK_disableI2cClock          FR SIZE:   0           *
    2836              ;*                                                             *
    2837              ;* FUNCTION ENVIRONMENT                                        *
    2838              ;*                                                             *
    2839              ;* FUNCTION PROPERTIES                                         *
    2840              ;*                            0 Parameter,  0 Auto,  0 SOE     *
    2841              ;***************************************************************
    2842              
    2843 00000134       _CLK_disableI2cClock:
    2844                      .dwcfi  cfa_offset, -2
    2845                      .dwcfi  save_reg_to_mem, 26, 0
    2846 00000134 7622   EALLOW
    2847                      .dwpsn  file "D:/GIANT/GAINT_TI_instaspin/motorware/motorware_1_01_00_18/sw/drivers/clk/src/32b/f28x/
    2848 00000135 DC0C          ADDB      XAR4,#12              ; [CPU_ALU] |252| 
    2849 00000136 18C4          AND       *+XAR4[0],#0xffef     ; [CPU_ALU] |252| 
         00000137 FFEF 
    2850 00000138 761A   EDIS
    2851 00000139 FF69          SPM       #0                    ; [CPU_ALU] 
    2852              $C$DW$187       .dwtag  DW_TAG_TI_branch
    2853                      .dwattr $C$DW$187, DW_AT_low_pc(0x00)
    2854                      .dwattr $C$DW$187, DW_AT_TI_return
    2855              
    2856 0000013a 0006          LRETR     ; [CPU_ALU] 
    2857                      ; return occurs ; [] 
    2858                      .dwattr $C$DW$185, DW_AT_TI_end_file("D:/GIANT/GAINT_TI_instaspin/motorware/motorware_1_01_00_18/sw/d
    2859                      .dwattr $C$DW$185, DW_AT_TI_end_line(0x101)
    2860                      .dwattr $C$DW$185, DW_AT_TI_end_column(0x01)
    2861                      .dwendentry
    2862                      .dwendtag $C$DW$185
    2863              
    2864 0000013b               .sect   ".text"
    2865                      .clink
    2866                      .global _CLK_disableHrPwmClock
    2867              
    2868              $C$DW$188       .dwtag  DW_TAG_subprogram
    2869                      .dwattr $C$DW$188, DW_AT_name("CLK_disableHrPwmClock")
    2870                      .dwattr $C$DW$188, DW_AT_low_pc(_CLK_disableHrPwmClock)
    2871                      .dwattr $C$DW$188, DW_AT_high_pc(0x00)
    2872                      .dwattr $C$DW$188, DW_AT_TI_symbol_name("_CLK_disableHrPwmClock")
    2873                      .dwattr $C$DW$188, DW_AT_external
    2874                      .dwattr $C$DW$188, DW_AT_TI_begin_file("D:/GIANT/GAINT_TI_instaspin/motorware/motorware_1_01_00_18/sw
TMS320C2000 Assembler PC v18.12.4 Fri Feb 17 15:09:28 2023

Copyright (c) 1996-2018 Texas Instruments Incorporated
C:\Users\User\AppData\Local\Temp\{ACBAF943-9FA4-4A12-94B4-A2BF97C77D4E} PAGE   54

    2875                      .dwattr $C$DW$188, DW_AT_TI_begin_line(0xe4)
    2876                      .dwattr $C$DW$188, DW_AT_TI_begin_column(0x06)
    2877                      .dwattr $C$DW$188, DW_AT_TI_max_frame_size(-2)
    2878                      .dwpsn  file "D:/GIANT/GAINT_TI_instaspin/motorware/motorware_1_01_00_18/sw/drivers/clk/src/32b/f28x/
    2879              
    2880                      .dwfde $C$DW$CIE, _CLK_disableHrPwmClock
    2881              $C$DW$189       .dwtag  DW_TAG_formal_parameter
    2882                      .dwattr $C$DW$189, DW_AT_name("clkHandle")
    2883                      .dwattr $C$DW$189, DW_AT_TI_symbol_name("_clkHandle")
    2884                      .dwattr $C$DW$189, DW_AT_type(*$C$DW$T$60)
    2885                      .dwattr $C$DW$189, DW_AT_location[DW_OP_reg12]
    2886              
    2887              
    2888              ;***************************************************************
    2889              ;* FNAME: _CLK_disableHrPwmClock        FR SIZE:   0           *
    2890              ;*                                                             *
    2891              ;* FUNCTION ENVIRONMENT                                        *
    2892              ;*                                                             *
    2893              ;* FUNCTION PROPERTIES                                         *
    2894              ;*                            0 Parameter,  0 Auto,  0 SOE     *
    2895              ;***************************************************************
    2896              
    2897 0000013b       _CLK_disableHrPwmClock:
    2898                      .dwcfi  cfa_offset, -2
    2899                      .dwcfi  save_reg_to_mem, 26, 0
    2900 0000013b 7622   EALLOW
    2901                      .dwpsn  file "D:/GIANT/GAINT_TI_instaspin/motorware/motorware_1_01_00_18/sw/drivers/clk/src/32b/f28x/
    2902 0000013c DC0C          ADDB      XAR4,#12              ; [CPU_ALU] |236| 
    2903 0000013d 18C4          AND       *+XAR4[0],#0xfffe     ; [CPU_ALU] |236| 
         0000013e FFFE 
    2904 0000013f 761A   EDIS
    2905 00000140 FF69          SPM       #0                    ; [CPU_ALU] 
    2906              $C$DW$190       .dwtag  DW_TAG_TI_branch
    2907                      .dwattr $C$DW$190, DW_AT_low_pc(0x00)
    2908                      .dwattr $C$DW$190, DW_AT_TI_return
    2909              
    2910 00000141 0006          LRETR     ; [CPU_ALU] 
    2911                      ; return occurs ; [] 
    2912                      .dwattr $C$DW$188, DW_AT_TI_end_file("D:/GIANT/GAINT_TI_instaspin/motorware/motorware_1_01_00_18/sw/d
    2913                      .dwattr $C$DW$188, DW_AT_TI_end_line(0xf1)
    2914                      .dwattr $C$DW$188, DW_AT_TI_end_column(0x01)
    2915                      .dwendentry
    2916                      .dwendtag $C$DW$188
    2917              
    2918 00000142               .sect   ".text"
    2919                      .clink
    2920                      .global _CLK_disableGpioInputClock
    2921              
    2922              $C$DW$191       .dwtag  DW_TAG_subprogram
    2923                      .dwattr $C$DW$191, DW_AT_name("CLK_disableGpioInputClock")
    2924                      .dwattr $C$DW$191, DW_AT_low_pc(_CLK_disableGpioInputClock)
    2925                      .dwattr $C$DW$191, DW_AT_high_pc(0x00)
    2926                      .dwattr $C$DW$191, DW_AT_TI_symbol_name("_CLK_disableGpioInputClock")
    2927                      .dwattr $C$DW$191, DW_AT_external
    2928                      .dwattr $C$DW$191, DW_AT_TI_begin_file("D:/GIANT/GAINT_TI_instaspin/motorware/motorware_1_01_00_18/sw
TMS320C2000 Assembler PC v18.12.4 Fri Feb 17 15:09:28 2023

Copyright (c) 1996-2018 Texas Instruments Incorporated
C:\Users\User\AppData\Local\Temp\{ACBAF943-9FA4-4A12-94B4-A2BF97C77D4E} PAGE   55

    2929                      .dwattr $C$DW$191, DW_AT_TI_begin_line(0xd4)
    2930                      .dwattr $C$DW$191, DW_AT_TI_begin_column(0x06)
    2931                      .dwattr $C$DW$191, DW_AT_TI_max_frame_size(-2)
    2932                      .dwpsn  file "D:/GIANT/GAINT_TI_instaspin/motorware/motorware_1_01_00_18/sw/drivers/clk/src/32b/f28x/
    2933              
    2934                      .dwfde $C$DW$CIE, _CLK_disableGpioInputClock
    2935              $C$DW$192       .dwtag  DW_TAG_formal_parameter
    2936                      .dwattr $C$DW$192, DW_AT_name("clkHandle")
    2937                      .dwattr $C$DW$192, DW_AT_TI_symbol_name("_clkHandle")
    2938                      .dwattr $C$DW$192, DW_AT_type(*$C$DW$T$60)
    2939                      .dwattr $C$DW$192, DW_AT_location[DW_OP_reg12]
    2940              
    2941              
    2942              ;***************************************************************
    2943              ;* FNAME: _CLK_disableGpioInputClock    FR SIZE:   0           *
    2944              ;*                                                             *
    2945              ;* FUNCTION ENVIRONMENT                                        *
    2946              ;*                                                             *
    2947              ;* FUNCTION PROPERTIES                                         *
    2948              ;*                            0 Parameter,  0 Auto,  0 SOE     *
    2949              ;***************************************************************
    2950              
    2951 00000142       _CLK_disableGpioInputClock:
    2952                      .dwcfi  cfa_offset, -2
    2953                      .dwcfi  save_reg_to_mem, 26, 0
    2954 00000142 7622   EALLOW
    2955                      .dwpsn  file "D:/GIANT/GAINT_TI_instaspin/motorware/motorware_1_01_00_18/sw/drivers/clk/src/32b/f28x/
    2956 00000143 DC10          ADDB      XAR4,#16              ; [CPU_ALU] |220| 
    2957 00000144 18C4          AND       *+XAR4[0],#0xdfff     ; [CPU_ALU] |220| 
         00000145 DFFF 
    2958 00000146 761A   EDIS
    2959 00000147 FF69          SPM       #0                    ; [CPU_ALU] 
    2960              $C$DW$193       .dwtag  DW_TAG_TI_branch
    2961                      .dwattr $C$DW$193, DW_AT_low_pc(0x00)
    2962                      .dwattr $C$DW$193, DW_AT_TI_return
    2963              
    2964 00000148 0006          LRETR     ; [CPU_ALU] 
    2965                      ; return occurs ; [] 
    2966                      .dwattr $C$DW$191, DW_AT_TI_end_file("D:/GIANT/GAINT_TI_instaspin/motorware/motorware_1_01_00_18/sw/d
    2967                      .dwattr $C$DW$191, DW_AT_TI_end_line(0xe1)
    2968                      .dwattr $C$DW$191, DW_AT_TI_end_column(0x01)
    2969                      .dwendentry
    2970                      .dwendtag $C$DW$191
    2971              
    2972 00000149               .sect   ".text"
    2973                      .clink
    2974                      .global _CLK_disableEqep2Clock
    2975              
    2976              $C$DW$194       .dwtag  DW_TAG_subprogram
    2977                      .dwattr $C$DW$194, DW_AT_name("CLK_disableEqep2Clock")
    2978                      .dwattr $C$DW$194, DW_AT_low_pc(_CLK_disableEqep2Clock)
    2979                      .dwattr $C$DW$194, DW_AT_high_pc(0x00)
    2980                      .dwattr $C$DW$194, DW_AT_TI_symbol_name("_CLK_disableEqep2Clock")
    2981                      .dwattr $C$DW$194, DW_AT_external
    2982                      .dwattr $C$DW$194, DW_AT_TI_begin_file("D:/GIANT/GAINT_TI_instaspin/motorware/motorware_1_01_00_18/sw
TMS320C2000 Assembler PC v18.12.4 Fri Feb 17 15:09:28 2023

Copyright (c) 1996-2018 Texas Instruments Incorporated
C:\Users\User\AppData\Local\Temp\{ACBAF943-9FA4-4A12-94B4-A2BF97C77D4E} PAGE   56

    2983                      .dwattr $C$DW$194, DW_AT_TI_begin_line(0xc4)
    2984                      .dwattr $C$DW$194, DW_AT_TI_begin_column(0x06)
    2985                      .dwattr $C$DW$194, DW_AT_TI_max_frame_size(-2)
    2986                      .dwpsn  file "D:/GIANT/GAINT_TI_instaspin/motorware/motorware_1_01_00_18/sw/drivers/clk/src/32b/f28x/
    2987              
    2988                      .dwfde $C$DW$CIE, _CLK_disableEqep2Clock
    2989              $C$DW$195       .dwtag  DW_TAG_formal_parameter
    2990                      .dwattr $C$DW$195, DW_AT_name("clkHandle")
    2991                      .dwattr $C$DW$195, DW_AT_TI_symbol_name("_clkHandle")
    2992                      .dwattr $C$DW$195, DW_AT_type(*$C$DW$T$60)
    2993                      .dwattr $C$DW$195, DW_AT_location[DW_OP_reg12]
    2994              
    2995              
    2996              ;***************************************************************
    2997              ;* FNAME: _CLK_disableEqep2Clock        FR SIZE:   0           *
    2998              ;*                                                             *
    2999              ;* FUNCTION ENVIRONMENT                                        *
    3000              ;*                                                             *
    3001              ;* FUNCTION PROPERTIES                                         *
    3002              ;*                            0 Parameter,  0 Auto,  0 SOE     *
    3003              ;***************************************************************
    3004              
    3005 00000149       _CLK_disableEqep2Clock:
    3006                      .dwcfi  cfa_offset, -2
    3007                      .dwcfi  save_reg_to_mem, 26, 0
    3008 00000149 7622   EALLOW
    3009                      .dwpsn  file "D:/GIANT/GAINT_TI_instaspin/motorware/motorware_1_01_00_18/sw/drivers/clk/src/32b/f28x/
    3010 0000014a DC0D          ADDB      XAR4,#13              ; [CPU_ALU] |204| 
    3011 0000014b 18C4          AND       *+XAR4[0],#0x7fff     ; [CPU_ALU] |204| 
         0000014c 7FFF 
    3012 0000014d 761A   EDIS
    3013 0000014e FF69          SPM       #0                    ; [CPU_ALU] 
    3014              $C$DW$196       .dwtag  DW_TAG_TI_branch
    3015                      .dwattr $C$DW$196, DW_AT_low_pc(0x00)
    3016                      .dwattr $C$DW$196, DW_AT_TI_return
    3017              
    3018 0000014f 0006          LRETR     ; [CPU_ALU] 
    3019                      ; return occurs ; [] 
    3020                      .dwattr $C$DW$194, DW_AT_TI_end_file("D:/GIANT/GAINT_TI_instaspin/motorware/motorware_1_01_00_18/sw/d
    3021                      .dwattr $C$DW$194, DW_AT_TI_end_line(0xd1)
    3022                      .dwattr $C$DW$194, DW_AT_TI_end_column(0x01)
    3023                      .dwendentry
    3024                      .dwendtag $C$DW$194
    3025              
    3026 00000150               .sect   ".text"
    3027                      .clink
    3028                      .global _CLK_disableEqep1Clock
    3029              
    3030              $C$DW$197       .dwtag  DW_TAG_subprogram
    3031                      .dwattr $C$DW$197, DW_AT_name("CLK_disableEqep1Clock")
    3032                      .dwattr $C$DW$197, DW_AT_low_pc(_CLK_disableEqep1Clock)
    3033                      .dwattr $C$DW$197, DW_AT_high_pc(0x00)
    3034                      .dwattr $C$DW$197, DW_AT_TI_symbol_name("_CLK_disableEqep1Clock")
    3035                      .dwattr $C$DW$197, DW_AT_external
    3036                      .dwattr $C$DW$197, DW_AT_TI_begin_file("D:/GIANT/GAINT_TI_instaspin/motorware/motorware_1_01_00_18/sw
TMS320C2000 Assembler PC v18.12.4 Fri Feb 17 15:09:28 2023

Copyright (c) 1996-2018 Texas Instruments Incorporated
C:\Users\User\AppData\Local\Temp\{ACBAF943-9FA4-4A12-94B4-A2BF97C77D4E} PAGE   57

    3037                      .dwattr $C$DW$197, DW_AT_TI_begin_line(0xb5)
    3038                      .dwattr $C$DW$197, DW_AT_TI_begin_column(0x06)
    3039                      .dwattr $C$DW$197, DW_AT_TI_max_frame_size(-2)
    3040                      .dwpsn  file "D:/GIANT/GAINT_TI_instaspin/motorware/motorware_1_01_00_18/sw/drivers/clk/src/32b/f28x/
    3041              
    3042                      .dwfde $C$DW$CIE, _CLK_disableEqep1Clock
    3043              $C$DW$198       .dwtag  DW_TAG_formal_parameter
    3044                      .dwattr $C$DW$198, DW_AT_name("clkHandle")
    3045                      .dwattr $C$DW$198, DW_AT_TI_symbol_name("_clkHandle")
    3046                      .dwattr $C$DW$198, DW_AT_type(*$C$DW$T$60)
    3047                      .dwattr $C$DW$198, DW_AT_location[DW_OP_reg12]
    3048              
    3049              
    3050              ;***************************************************************
    3051              ;* FNAME: _CLK_disableEqep1Clock        FR SIZE:   0           *
    3052              ;*                                                             *
    3053              ;* FUNCTION ENVIRONMENT                                        *
    3054              ;*                                                             *
    3055              ;* FUNCTION PROPERTIES                                         *
    3056              ;*                            0 Parameter,  0 Auto,  0 SOE     *
    3057              ;***************************************************************
    3058              
    3059 00000150       _CLK_disableEqep1Clock:
    3060                      .dwcfi  cfa_offset, -2
    3061                      .dwcfi  save_reg_to_mem, 26, 0
    3062 00000150 7622   EALLOW
    3063                      .dwpsn  file "D:/GIANT/GAINT_TI_instaspin/motorware/motorware_1_01_00_18/sw/drivers/clk/src/32b/f28x/
    3064 00000151 DC0D          ADDB      XAR4,#13              ; [CPU_ALU] |189| 
    3065 00000152 18C4          AND       *+XAR4[0],#0xbfff     ; [CPU_ALU] |189| 
         00000153 BFFF 
    3066 00000154 761A   EDIS
    3067 00000155 FF69          SPM       #0                    ; [CPU_ALU] 
    3068              $C$DW$199       .dwtag  DW_TAG_TI_branch
    3069                      .dwattr $C$DW$199, DW_AT_low_pc(0x00)
    3070                      .dwattr $C$DW$199, DW_AT_TI_return
    3071              
    3072 00000156 0006          LRETR     ; [CPU_ALU] 
    3073                      ; return occurs ; [] 
    3074                      .dwattr $C$DW$197, DW_AT_TI_end_file("D:/GIANT/GAINT_TI_instaspin/motorware/motorware_1_01_00_18/sw/d
    3075                      .dwattr $C$DW$197, DW_AT_TI_end_line(0xc2)
    3076                      .dwattr $C$DW$197, DW_AT_TI_end_column(0x01)
    3077                      .dwendentry
    3078                      .dwendtag $C$DW$197
    3079              
    3080 00000157               .sect   ".text"
    3081                      .clink
    3082                      .global _CLK_disableEcap1Clock
    3083              
    3084              $C$DW$200       .dwtag  DW_TAG_subprogram
    3085                      .dwattr $C$DW$200, DW_AT_name("CLK_disableEcap1Clock")
    3086                      .dwattr $C$DW$200, DW_AT_low_pc(_CLK_disableEcap1Clock)
    3087                      .dwattr $C$DW$200, DW_AT_high_pc(0x00)
    3088                      .dwattr $C$DW$200, DW_AT_TI_symbol_name("_CLK_disableEcap1Clock")
    3089                      .dwattr $C$DW$200, DW_AT_external
    3090                      .dwattr $C$DW$200, DW_AT_TI_begin_file("D:/GIANT/GAINT_TI_instaspin/motorware/motorware_1_01_00_18/sw
TMS320C2000 Assembler PC v18.12.4 Fri Feb 17 15:09:28 2023

Copyright (c) 1996-2018 Texas Instruments Incorporated
C:\Users\User\AppData\Local\Temp\{ACBAF943-9FA4-4A12-94B4-A2BF97C77D4E} PAGE   58

    3091                      .dwattr $C$DW$200, DW_AT_TI_begin_line(0xa5)
    3092                      .dwattr $C$DW$200, DW_AT_TI_begin_column(0x06)
    3093                      .dwattr $C$DW$200, DW_AT_TI_max_frame_size(-2)
    3094                      .dwpsn  file "D:/GIANT/GAINT_TI_instaspin/motorware/motorware_1_01_00_18/sw/drivers/clk/src/32b/f28x/
    3095              
    3096                      .dwfde $C$DW$CIE, _CLK_disableEcap1Clock
    3097              $C$DW$201       .dwtag  DW_TAG_formal_parameter
    3098                      .dwattr $C$DW$201, DW_AT_name("clkHandle")
    3099                      .dwattr $C$DW$201, DW_AT_TI_symbol_name("_clkHandle")
    3100                      .dwattr $C$DW$201, DW_AT_type(*$C$DW$T$60)
    3101                      .dwattr $C$DW$201, DW_AT_location[DW_OP_reg12]
    3102              
    3103              
    3104              ;***************************************************************
    3105              ;* FNAME: _CLK_disableEcap1Clock        FR SIZE:   0           *
    3106              ;*                                                             *
    3107              ;* FUNCTION ENVIRONMENT                                        *
    3108              ;*                                                             *
    3109              ;* FUNCTION PROPERTIES                                         *
    3110              ;*                            0 Parameter,  0 Auto,  0 SOE     *
    3111              ;***************************************************************
    3112              
    3113 00000157       _CLK_disableEcap1Clock:
    3114                      .dwcfi  cfa_offset, -2
    3115                      .dwcfi  save_reg_to_mem, 26, 0
    3116 00000157 7622   EALLOW
    3117                      .dwpsn  file "D:/GIANT/GAINT_TI_instaspin/motorware/motorware_1_01_00_18/sw/drivers/clk/src/32b/f28x/
    3118 00000158 DC0D          ADDB      XAR4,#13              ; [CPU_ALU] |173| 
    3119 00000159 18C4          AND       *+XAR4[0],#0xfeff     ; [CPU_ALU] |173| 
         0000015a FEFF 
    3120 0000015b 761A   EDIS
    3121 0000015c FF69          SPM       #0                    ; [CPU_ALU] 
    3122              $C$DW$202       .dwtag  DW_TAG_TI_branch
    3123                      .dwattr $C$DW$202, DW_AT_low_pc(0x00)
    3124                      .dwattr $C$DW$202, DW_AT_TI_return
    3125              
    3126 0000015d 0006          LRETR     ; [CPU_ALU] 
    3127                      ; return occurs ; [] 
    3128                      .dwattr $C$DW$200, DW_AT_TI_end_file("D:/GIANT/GAINT_TI_instaspin/motorware/motorware_1_01_00_18/sw/d
    3129                      .dwattr $C$DW$200, DW_AT_TI_end_line(0xb2)
    3130                      .dwattr $C$DW$200, DW_AT_TI_end_column(0x01)
    3131                      .dwendentry
    3132                      .dwendtag $C$DW$200
    3133              
    3134 0000015e               .sect   ".text"
    3135                      .clink
    3136                      .global _CLK_disableEcanaClock
    3137              
    3138              $C$DW$203       .dwtag  DW_TAG_subprogram
    3139                      .dwattr $C$DW$203, DW_AT_name("CLK_disableEcanaClock")
    3140                      .dwattr $C$DW$203, DW_AT_low_pc(_CLK_disableEcanaClock)
    3141                      .dwattr $C$DW$203, DW_AT_high_pc(0x00)
    3142                      .dwattr $C$DW$203, DW_AT_TI_symbol_name("_CLK_disableEcanaClock")
    3143                      .dwattr $C$DW$203, DW_AT_external
    3144                      .dwattr $C$DW$203, DW_AT_TI_begin_file("D:/GIANT/GAINT_TI_instaspin/motorware/motorware_1_01_00_18/sw
TMS320C2000 Assembler PC v18.12.4 Fri Feb 17 15:09:28 2023

Copyright (c) 1996-2018 Texas Instruments Incorporated
C:\Users\User\AppData\Local\Temp\{ACBAF943-9FA4-4A12-94B4-A2BF97C77D4E} PAGE   59

    3145                      .dwattr $C$DW$203, DW_AT_TI_begin_line(0x95)
    3146                      .dwattr $C$DW$203, DW_AT_TI_begin_column(0x06)
    3147                      .dwattr $C$DW$203, DW_AT_TI_max_frame_size(-2)
    3148                      .dwpsn  file "D:/GIANT/GAINT_TI_instaspin/motorware/motorware_1_01_00_18/sw/drivers/clk/src/32b/f28x/
    3149              
    3150                      .dwfde $C$DW$CIE, _CLK_disableEcanaClock
    3151              $C$DW$204       .dwtag  DW_TAG_formal_parameter
    3152                      .dwattr $C$DW$204, DW_AT_name("clkHandle")
    3153                      .dwattr $C$DW$204, DW_AT_TI_symbol_name("_clkHandle")
    3154                      .dwattr $C$DW$204, DW_AT_type(*$C$DW$T$60)
    3155                      .dwattr $C$DW$204, DW_AT_location[DW_OP_reg12]
    3156              
    3157              
    3158              ;***************************************************************
    3159              ;* FNAME: _CLK_disableEcanaClock        FR SIZE:   0           *
    3160              ;*                                                             *
    3161              ;* FUNCTION ENVIRONMENT                                        *
    3162              ;*                                                             *
    3163              ;* FUNCTION PROPERTIES                                         *
    3164              ;*                            0 Parameter,  0 Auto,  0 SOE     *
    3165              ;***************************************************************
    3166              
    3167 0000015e       _CLK_disableEcanaClock:
    3168                      .dwcfi  cfa_offset, -2
    3169                      .dwcfi  save_reg_to_mem, 26, 0
    3170 0000015e 7622   EALLOW
    3171                      .dwpsn  file "D:/GIANT/GAINT_TI_instaspin/motorware/motorware_1_01_00_18/sw/drivers/clk/src/32b/f28x/
    3172 0000015f DC0C          ADDB      XAR4,#12              ; [CPU_ALU] |157| 
    3173 00000160 18C4          AND       *+XAR4[0],#0xbfff     ; [CPU_ALU] |157| 
         00000161 BFFF 
    3174 00000162 761A   EDIS
    3175 00000163 FF69          SPM       #0                    ; [CPU_ALU] 
    3176              $C$DW$205       .dwtag  DW_TAG_TI_branch
    3177                      .dwattr $C$DW$205, DW_AT_low_pc(0x00)
    3178                      .dwattr $C$DW$205, DW_AT_TI_return
    3179              
    3180 00000164 0006          LRETR     ; [CPU_ALU] 
    3181                      ; return occurs ; [] 
    3182                      .dwattr $C$DW$203, DW_AT_TI_end_file("D:/GIANT/GAINT_TI_instaspin/motorware/motorware_1_01_00_18/sw/d
    3183                      .dwattr $C$DW$203, DW_AT_TI_end_line(0xa2)
    3184                      .dwattr $C$DW$203, DW_AT_TI_end_column(0x01)
    3185                      .dwendentry
    3186                      .dwendtag $C$DW$203
    3187              
    3188 00000165               .sect   ".text"
    3189                      .clink
    3190                      .global _CLK_disableCrystalOsc
    3191              
    3192              $C$DW$206       .dwtag  DW_TAG_subprogram
    3193                      .dwattr $C$DW$206, DW_AT_name("CLK_disableCrystalOsc")
    3194                      .dwattr $C$DW$206, DW_AT_low_pc(_CLK_disableCrystalOsc)
    3195                      .dwattr $C$DW$206, DW_AT_high_pc(0x00)
    3196                      .dwattr $C$DW$206, DW_AT_TI_symbol_name("_CLK_disableCrystalOsc")
    3197                      .dwattr $C$DW$206, DW_AT_external
    3198                      .dwattr $C$DW$206, DW_AT_TI_begin_file("D:/GIANT/GAINT_TI_instaspin/motorware/motorware_1_01_00_18/sw
TMS320C2000 Assembler PC v18.12.4 Fri Feb 17 15:09:28 2023

Copyright (c) 1996-2018 Texas Instruments Incorporated
C:\Users\User\AppData\Local\Temp\{ACBAF943-9FA4-4A12-94B4-A2BF97C77D4E} PAGE   60

    3199                      .dwattr $C$DW$206, DW_AT_TI_begin_line(0x85)
    3200                      .dwattr $C$DW$206, DW_AT_TI_begin_column(0x06)
    3201                      .dwattr $C$DW$206, DW_AT_TI_max_frame_size(-2)
    3202                      .dwpsn  file "D:/GIANT/GAINT_TI_instaspin/motorware/motorware_1_01_00_18/sw/drivers/clk/src/32b/f28x/
    3203              
    3204                      .dwfde $C$DW$CIE, _CLK_disableCrystalOsc
    3205              $C$DW$207       .dwtag  DW_TAG_formal_parameter
    3206                      .dwattr $C$DW$207, DW_AT_name("clkHandle")
    3207                      .dwattr $C$DW$207, DW_AT_TI_symbol_name("_clkHandle")
    3208                      .dwattr $C$DW$207, DW_AT_type(*$C$DW$T$60)
    3209                      .dwattr $C$DW$207, DW_AT_location[DW_OP_reg12]
    3210              
    3211              
    3212              ;***************************************************************
    3213              ;* FNAME: _CLK_disableCrystalOsc        FR SIZE:   0           *
    3214              ;*                                                             *
    3215              ;* FUNCTION ENVIRONMENT                                        *
    3216              ;*                                                             *
    3217              ;* FUNCTION PROPERTIES                                         *
    3218              ;*                            0 Parameter,  0 Auto,  0 SOE     *
    3219              ;***************************************************************
    3220              
    3221              _CLK_disableCrystalOsc:
    3222              ;* AR4   assigned to _clkHandle
    3223              $C$DW$208       .dwtag  DW_TAG_variable
    3224                      .dwattr $C$DW$208, DW_AT_name("clkHandle")
    3225                      .dwattr $C$DW$208, DW_AT_TI_symbol_name("_clkHandle")
    3226                      .dwattr $C$DW$208, DW_AT_type(*$C$DW$T$61)
    3227                      .dwattr $C$DW$208, DW_AT_location[DW_OP_reg12]
    3228              
    3229                      .dwcfi  cfa_offset, -2
    3230                      .dwcfi  save_reg_to_mem, 26, 0
    3231 00000165 7622   EALLOW
    3232                      .dwpsn  file "D:/GIANT/GAINT_TI_instaspin/motorware/motorware_1_01_00_18/sw/drivers/clk/src/32b/f28x/
    3233 00000166 1AD4          OR        *+XAR4[2],#0x4000     ; [CPU_ALU] |141| 
         00000167 4000 
    3234 00000168 761A   EDIS
    3235 00000169 FF69          SPM       #0                    ; [CPU_ALU] 
    3236              $C$DW$209       .dwtag  DW_TAG_TI_branch
    3237                      .dwattr $C$DW$209, DW_AT_low_pc(0x00)
    3238                      .dwattr $C$DW$209, DW_AT_TI_return
    3239              
    3240 0000016a 0006          LRETR     ; [CPU_ALU] 
    3241                      ; return occurs ; [] 
    3242                      .dwattr $C$DW$206, DW_AT_TI_end_file("D:/GIANT/GAINT_TI_instaspin/motorware/motorware_1_01_00_18/sw/d
    3243                      .dwattr $C$DW$206, DW_AT_TI_end_line(0x92)
    3244                      .dwattr $C$DW$206, DW_AT_TI_end_column(0x01)
    3245                      .dwendentry
    3246                      .dwendtag $C$DW$206
    3247              
    3248 0000016b               .sect   ".text"
    3249                      .clink
    3250                      .global _CLK_disableCpuTimerClock
    3251              
    3252              $C$DW$210       .dwtag  DW_TAG_subprogram
TMS320C2000 Assembler PC v18.12.4 Fri Feb 17 15:09:28 2023

Copyright (c) 1996-2018 Texas Instruments Incorporated
C:\Users\User\AppData\Local\Temp\{ACBAF943-9FA4-4A12-94B4-A2BF97C77D4E} PAGE   61

    3253                      .dwattr $C$DW$210, DW_AT_name("CLK_disableCpuTimerClock")
    3254                      .dwattr $C$DW$210, DW_AT_low_pc(_CLK_disableCpuTimerClock)
    3255                      .dwattr $C$DW$210, DW_AT_high_pc(0x00)
    3256                      .dwattr $C$DW$210, DW_AT_TI_symbol_name("_CLK_disableCpuTimerClock")
    3257                      .dwattr $C$DW$210, DW_AT_external
    3258                      .dwattr $C$DW$210, DW_AT_TI_begin_file("D:/GIANT/GAINT_TI_instaspin/motorware/motorware_1_01_00_18/sw
    3259                      .dwattr $C$DW$210, DW_AT_TI_begin_line(0x75)
    3260                      .dwattr $C$DW$210, DW_AT_TI_begin_column(0x06)
    3261                      .dwattr $C$DW$210, DW_AT_TI_max_frame_size(-2)
    3262                      .dwpsn  file "D:/GIANT/GAINT_TI_instaspin/motorware/motorware_1_01_00_18/sw/drivers/clk/src/32b/f28x/
    3263              
    3264                      .dwfde $C$DW$CIE, _CLK_disableCpuTimerClock
    3265              $C$DW$211       .dwtag  DW_TAG_formal_parameter
    3266                      .dwattr $C$DW$211, DW_AT_name("clkHandle")
    3267                      .dwattr $C$DW$211, DW_AT_TI_symbol_name("_clkHandle")
    3268                      .dwattr $C$DW$211, DW_AT_type(*$C$DW$T$60)
    3269                      .dwattr $C$DW$211, DW_AT_location[DW_OP_reg12]
    3270              
    3271              $C$DW$212       .dwtag  DW_TAG_formal_parameter
    3272                      .dwattr $C$DW$212, DW_AT_name("cpuTimerNumber")
    3273                      .dwattr $C$DW$212, DW_AT_TI_symbol_name("_cpuTimerNumber")
    3274                      .dwattr $C$DW$212, DW_AT_type(*$C$DW$T$29)
    3275                      .dwattr $C$DW$212, DW_AT_location[DW_OP_reg0]
    3276              
    3277              
    3278              ;***************************************************************
    3279              ;* FNAME: _CLK_disableCpuTimerClock     FR SIZE:   0           *
    3280              ;*                                                             *
    3281              ;* FUNCTION ENVIRONMENT                                        *
    3282              ;*                                                             *
    3283              ;* FUNCTION PROPERTIES                                         *
    3284              ;*                            0 Parameter,  0 Auto,  0 SOE     *
    3285              ;***************************************************************
    3286              
    3287 0000016b       _CLK_disableCpuTimerClock:
    3288                      .dwcfi  cfa_offset, -2
    3289                      .dwcfi  save_reg_to_mem, 26, 0
    3290 0000016b 7622   EALLOW
    3291                      .dwpsn  file "D:/GIANT/GAINT_TI_instaspin/motorware/motorware_1_01_00_18/sw/drivers/clk/src/32b/f28x/
    3292 0000016c DC10          ADDB      XAR4,#16              ; [CPU_ALU] |125| 
    3293 0000016d FF5E          NOT       AL                    ; [CPU_ALU] |125| 
    3294 0000016e C0C4          AND       *+XAR4[0],AL          ; [CPU_ALU] |125| 
    3295 0000016f 761A   EDIS
    3296 00000170 FF69          SPM       #0                    ; [CPU_ALU] 
    3297              $C$DW$213       .dwtag  DW_TAG_TI_branch
    3298                      .dwattr $C$DW$213, DW_AT_low_pc(0x00)
    3299                      .dwattr $C$DW$213, DW_AT_TI_return
    3300              
    3301 00000171 0006          LRETR     ; [CPU_ALU] 
    3302                      ; return occurs ; [] 
    3303                      .dwattr $C$DW$210, DW_AT_TI_end_file("D:/GIANT/GAINT_TI_instaspin/motorware/motorware_1_01_00_18/sw/d
    3304                      .dwattr $C$DW$210, DW_AT_TI_end_line(0x82)
    3305                      .dwattr $C$DW$210, DW_AT_TI_end_column(0x01)
    3306                      .dwendentry
    3307                      .dwendtag $C$DW$210
TMS320C2000 Assembler PC v18.12.4 Fri Feb 17 15:09:28 2023

Copyright (c) 1996-2018 Texas Instruments Incorporated
C:\Users\User\AppData\Local\Temp\{ACBAF943-9FA4-4A12-94B4-A2BF97C77D4E} PAGE   62

    3308              
    3309 00000172               .sect   ".text"
    3310                      .clink
    3311                      .global _CLK_disableCompClock
    3312              
    3313              $C$DW$214       .dwtag  DW_TAG_subprogram
    3314                      .dwattr $C$DW$214, DW_AT_name("CLK_disableCompClock")
    3315                      .dwattr $C$DW$214, DW_AT_low_pc(_CLK_disableCompClock)
    3316                      .dwattr $C$DW$214, DW_AT_high_pc(0x00)
    3317                      .dwattr $C$DW$214, DW_AT_TI_symbol_name("_CLK_disableCompClock")
    3318                      .dwattr $C$DW$214, DW_AT_external
    3319                      .dwattr $C$DW$214, DW_AT_TI_begin_file("D:/GIANT/GAINT_TI_instaspin/motorware/motorware_1_01_00_18/sw
    3320                      .dwattr $C$DW$214, DW_AT_TI_begin_line(0x69)
    3321                      .dwattr $C$DW$214, DW_AT_TI_begin_column(0x06)
    3322                      .dwattr $C$DW$214, DW_AT_TI_max_frame_size(-2)
    3323                      .dwpsn  file "D:/GIANT/GAINT_TI_instaspin/motorware/motorware_1_01_00_18/sw/drivers/clk/src/32b/f28x/
    3324              
    3325                      .dwfde $C$DW$CIE, _CLK_disableCompClock
    3326              $C$DW$215       .dwtag  DW_TAG_formal_parameter
    3327                      .dwattr $C$DW$215, DW_AT_name("clkHandle")
    3328                      .dwattr $C$DW$215, DW_AT_TI_symbol_name("_clkHandle")
    3329                      .dwattr $C$DW$215, DW_AT_type(*$C$DW$T$60)
    3330                      .dwattr $C$DW$215, DW_AT_location[DW_OP_reg12]
    3331              
    3332              $C$DW$216       .dwtag  DW_TAG_formal_parameter
    3333                      .dwattr $C$DW$216, DW_AT_name("compNumber")
    3334                      .dwattr $C$DW$216, DW_AT_TI_symbol_name("_compNumber")
    3335                      .dwattr $C$DW$216, DW_AT_type(*$C$DW$T$26)
    3336                      .dwattr $C$DW$216, DW_AT_location[DW_OP_reg0]
    3337              
    3338              
    3339              ;***************************************************************
    3340              ;* FNAME: _CLK_disableCompClock         FR SIZE:   0           *
    3341              ;*                                                             *
    3342              ;* FUNCTION ENVIRONMENT                                        *
    3343              ;*                                                             *
    3344              ;* FUNCTION PROPERTIES                                         *
    3345              ;*                            0 Parameter,  0 Auto,  0 SOE     *
    3346              ;***************************************************************
    3347              
    3348 00000172       _CLK_disableCompClock:
    3349                      .dwcfi  cfa_offset, -2
    3350                      .dwcfi  save_reg_to_mem, 26, 0
    3351                      .dwpsn  file "D:/GIANT/GAINT_TI_instaspin/motorware/motorware_1_01_00_18/sw/drivers/clk/src/32b/f28x/
    3352 00000172 FF5E          NOT       AL                    ; [CPU_ALU] |111| 
    3353 00000173 DC10          ADDB      XAR4,#16              ; [CPU_ALU] |111| 
    3354 00000174 C0C4          AND       *+XAR4[0],AL          ; [CPU_ALU] |111| 
    3355              $C$DW$217       .dwtag  DW_TAG_TI_branch
    3356                      .dwattr $C$DW$217, DW_AT_low_pc(0x00)
    3357                      .dwattr $C$DW$217, DW_AT_TI_return
    3358              
    3359 00000175 0006          LRETR     ; [CPU_ALU] 
    3360                      ; return occurs ; [] 
    3361                      .dwattr $C$DW$214, DW_AT_TI_end_file("D:/GIANT/GAINT_TI_instaspin/motorware/motorware_1_01_00_18/sw/d
    3362                      .dwattr $C$DW$214, DW_AT_TI_end_line(0x72)
TMS320C2000 Assembler PC v18.12.4 Fri Feb 17 15:09:28 2023

Copyright (c) 1996-2018 Texas Instruments Incorporated
C:\Users\User\AppData\Local\Temp\{ACBAF943-9FA4-4A12-94B4-A2BF97C77D4E} PAGE   63

    3363                      .dwattr $C$DW$214, DW_AT_TI_end_column(0x01)
    3364                      .dwendentry
    3365                      .dwendtag $C$DW$214
    3366              
    3367 00000176               .sect   ".text"
    3368                      .clink
    3369                      .global _CLK_disableClkIn
    3370              
    3371              $C$DW$218       .dwtag  DW_TAG_subprogram
    3372                      .dwattr $C$DW$218, DW_AT_name("CLK_disableClkIn")
    3373                      .dwattr $C$DW$218, DW_AT_low_pc(_CLK_disableClkIn)
    3374                      .dwattr $C$DW$218, DW_AT_high_pc(0x00)
    3375                      .dwattr $C$DW$218, DW_AT_TI_symbol_name("_CLK_disableClkIn")
    3376                      .dwattr $C$DW$218, DW_AT_external
    3377                      .dwattr $C$DW$218, DW_AT_TI_begin_file("D:/GIANT/GAINT_TI_instaspin/motorware/motorware_1_01_00_18/sw
    3378                      .dwattr $C$DW$218, DW_AT_TI_begin_line(0x59)
    3379                      .dwattr $C$DW$218, DW_AT_TI_begin_column(0x06)
    3380                      .dwattr $C$DW$218, DW_AT_TI_max_frame_size(-2)
    3381                      .dwpsn  file "D:/GIANT/GAINT_TI_instaspin/motorware/motorware_1_01_00_18/sw/drivers/clk/src/32b/f28x/
    3382              
    3383                      .dwfde $C$DW$CIE, _CLK_disableClkIn
    3384              $C$DW$219       .dwtag  DW_TAG_formal_parameter
    3385                      .dwattr $C$DW$219, DW_AT_name("clkHandle")
    3386                      .dwattr $C$DW$219, DW_AT_TI_symbol_name("_clkHandle")
    3387                      .dwattr $C$DW$219, DW_AT_type(*$C$DW$T$60)
    3388                      .dwattr $C$DW$219, DW_AT_location[DW_OP_reg12]
    3389              
    3390              
    3391              ;***************************************************************
    3392              ;* FNAME: _CLK_disableClkIn             FR SIZE:   0           *
    3393              ;*                                                             *
    3394              ;* FUNCTION ENVIRONMENT                                        *
    3395              ;*                                                             *
    3396              ;* FUNCTION PROPERTIES                                         *
    3397              ;*                            0 Parameter,  0 Auto,  0 SOE     *
    3398              ;***************************************************************
    3399              
    3400              _CLK_disableClkIn:
    3401              ;* AR4   assigned to _clkHandle
    3402              $C$DW$220       .dwtag  DW_TAG_variable
    3403                      .dwattr $C$DW$220, DW_AT_name("clkHandle")
    3404                      .dwattr $C$DW$220, DW_AT_TI_symbol_name("_clkHandle")
    3405                      .dwattr $C$DW$220, DW_AT_type(*$C$DW$T$61)
    3406                      .dwattr $C$DW$220, DW_AT_location[DW_OP_reg12]
    3407              
    3408                      .dwcfi  cfa_offset, -2
    3409                      .dwcfi  save_reg_to_mem, 26, 0
    3410 00000176 7622   EALLOW
    3411                      .dwpsn  file "D:/GIANT/GAINT_TI_instaspin/motorware/motorware_1_01_00_18/sw/drivers/clk/src/32b/f28x/
    3412 00000177 1AD4          OR        *+XAR4[2],#0x2000     ; [CPU_ALU] |97| 
         00000178 2000 
    3413 00000179 761A   EDIS
    3414 0000017a FF69          SPM       #0                    ; [CPU_ALU] 
    3415              $C$DW$221       .dwtag  DW_TAG_TI_branch
    3416                      .dwattr $C$DW$221, DW_AT_low_pc(0x00)
TMS320C2000 Assembler PC v18.12.4 Fri Feb 17 15:09:28 2023

Copyright (c) 1996-2018 Texas Instruments Incorporated
C:\Users\User\AppData\Local\Temp\{ACBAF943-9FA4-4A12-94B4-A2BF97C77D4E} PAGE   64

    3417                      .dwattr $C$DW$221, DW_AT_TI_return
    3418              
    3419 0000017b 0006          LRETR     ; [CPU_ALU] 
    3420                      ; return occurs ; [] 
    3421                      .dwattr $C$DW$218, DW_AT_TI_end_file("D:/GIANT/GAINT_TI_instaspin/motorware/motorware_1_01_00_18/sw/d
    3422                      .dwattr $C$DW$218, DW_AT_TI_end_line(0x66)
    3423                      .dwattr $C$DW$218, DW_AT_TI_end_column(0x01)
    3424                      .dwendentry
    3425                      .dwendtag $C$DW$218
    3426              
    3427 0000017c               .sect   ".text"
    3428                      .clink
    3429                      .global _CLK_disableClaClock
    3430              
    3431              $C$DW$222       .dwtag  DW_TAG_subprogram
    3432                      .dwattr $C$DW$222, DW_AT_name("CLK_disableClaClock")
    3433                      .dwattr $C$DW$222, DW_AT_low_pc(_CLK_disableClaClock)
    3434                      .dwattr $C$DW$222, DW_AT_high_pc(0x00)
    3435                      .dwattr $C$DW$222, DW_AT_TI_symbol_name("_CLK_disableClaClock")
    3436                      .dwattr $C$DW$222, DW_AT_external
    3437                      .dwattr $C$DW$222, DW_AT_TI_begin_file("D:/GIANT/GAINT_TI_instaspin/motorware/motorware_1_01_00_18/sw
    3438                      .dwattr $C$DW$222, DW_AT_TI_begin_line(0x49)
    3439                      .dwattr $C$DW$222, DW_AT_TI_begin_column(0x06)
    3440                      .dwattr $C$DW$222, DW_AT_TI_max_frame_size(-2)
    3441                      .dwpsn  file "D:/GIANT/GAINT_TI_instaspin/motorware/motorware_1_01_00_18/sw/drivers/clk/src/32b/f28x/
    3442              
    3443                      .dwfde $C$DW$CIE, _CLK_disableClaClock
    3444              $C$DW$223       .dwtag  DW_TAG_formal_parameter
    3445                      .dwattr $C$DW$223, DW_AT_name("clkHandle")
    3446                      .dwattr $C$DW$223, DW_AT_TI_symbol_name("_clkHandle")
    3447                      .dwattr $C$DW$223, DW_AT_type(*$C$DW$T$60)
    3448                      .dwattr $C$DW$223, DW_AT_location[DW_OP_reg12]
    3449              
    3450              
    3451              ;***************************************************************
    3452              ;* FNAME: _CLK_disableClaClock          FR SIZE:   0           *
    3453              ;*                                                             *
    3454              ;* FUNCTION ENVIRONMENT                                        *
    3455              ;*                                                             *
    3456              ;* FUNCTION PROPERTIES                                         *
    3457              ;*                            0 Parameter,  0 Auto,  0 SOE     *
    3458              ;***************************************************************
    3459              
    3460 0000017c       _CLK_disableClaClock:
    3461                      .dwcfi  cfa_offset, -2
    3462                      .dwcfi  save_reg_to_mem, 26, 0
    3463 0000017c 7622   EALLOW
    3464                      .dwpsn  file "D:/GIANT/GAINT_TI_instaspin/motorware/motorware_1_01_00_18/sw/drivers/clk/src/32b/f28x/
    3465 0000017d DC10          ADDB      XAR4,#16              ; [CPU_ALU] |81| 
    3466 0000017e 18C4          AND       *+XAR4[0],#0xbfff     ; [CPU_ALU] |81| 
         0000017f BFFF 
    3467 00000180 761A   EDIS
    3468 00000181 FF69          SPM       #0                    ; [CPU_ALU] 
    3469              $C$DW$224       .dwtag  DW_TAG_TI_branch
    3470                      .dwattr $C$DW$224, DW_AT_low_pc(0x00)
TMS320C2000 Assembler PC v18.12.4 Fri Feb 17 15:09:28 2023

Copyright (c) 1996-2018 Texas Instruments Incorporated
C:\Users\User\AppData\Local\Temp\{ACBAF943-9FA4-4A12-94B4-A2BF97C77D4E} PAGE   65

    3471                      .dwattr $C$DW$224, DW_AT_TI_return
    3472              
    3473 00000182 0006          LRETR     ; [CPU_ALU] 
    3474                      ; return occurs ; [] 
    3475                      .dwattr $C$DW$222, DW_AT_TI_end_file("D:/GIANT/GAINT_TI_instaspin/motorware/motorware_1_01_00_18/sw/d
    3476                      .dwattr $C$DW$222, DW_AT_TI_end_line(0x56)
    3477                      .dwattr $C$DW$222, DW_AT_TI_end_column(0x01)
    3478                      .dwendentry
    3479                      .dwendtag $C$DW$222
    3480              
    3481 00000183               .sect   ".text"
    3482                      .clink
