TMS320C2000 Assembler PC v22.6.0 Tue Apr 18 11:09:46 2023

Copyright (c) 1996-2018 Texas Instruments Incorporated
C:\Users\User\AppData\Local\Temp\{F169EDD6-E2A2-400A-8386-A823CBD75D49} PAGE    1

       1              ;***************************************************************
       2              ;* TMS320C2000 G3 C/C++ Codegen                               PC v22.6.0.LTS *
       3              ;* Date/Time created: Tue Apr 18 11:09:45 2023                 *
       4              ;***************************************************************
       5                      .compiler_opts --abi=coffabi --float_support=softlib --hll_source=on --mem_model:code=flat --mem_mode
       6                      .asg    XAR2, FP
       7              
       8              $C$DW$CU        .dwtag  DW_TAG_compile_unit
       9                      .dwattr $C$DW$CU, DW_AT_name("D:/GIANT/GIANT_TI_instaspin/TI_instaspin_indoor_smart_trainer/motorware
      10                      .dwattr $C$DW$CU, DW_AT_producer("TI TMS320C2000 G3 C/C++ Codegen PC v22.6.0.LTS Copyright (c) 1996-2
      11                      .dwattr $C$DW$CU, DW_AT_TI_version(0x01)
      12                      .dwattr $C$DW$CU, DW_AT_comp_dir("D:\GIANT\GIANT_TI_instaspin\TI_instaspin_indoor_smart_trainer\motor
      13              
      14              ;**************************************************************
      15              ;* FUNCTION SYNONYMS                                          *
      16              ;**************************************************************
      17                      .global _CTRL_setMagCurrent_pu
      18        098B' _CTRL_setMagCurrent_pu  .set _CTRL_setIdRated_pu
      19                      .global _CTRL_setMaximumSpeed_pu
      20        0988' _CTRL_setMaximumSpeed_pu        .set _CTRL_setSpd_max_pu
      21                      .global _CTRL_getMagCurrent_pu
      22        0991' _CTRL_getMagCurrent_pu  .set _CTRL_getIdRated_pu
      23                      .global _CTRL_getMaximumSpeed_pu
      24        098E' _CTRL_getMaximumSpeed_pu        .set _CTRL_getSpd_max_pu
      25              
      26              $C$DW$1 .dwtag  DW_TAG_subprogram
      27                      .dwattr $C$DW$1, DW_AT_name("EST_run")
      28                      .dwattr $C$DW$1, DW_AT_TI_symbol_name("_EST_run")
      29                      .dwattr $C$DW$1, DW_AT_declaration
      30                      .dwattr $C$DW$1, DW_AT_external
      31              $C$DW$2 .dwtag  DW_TAG_formal_parameter
      32                      .dwattr $C$DW$2, DW_AT_type(*$C$DW$T$48)
      33              
      34              $C$DW$3 .dwtag  DW_TAG_formal_parameter
      35                      .dwattr $C$DW$3, DW_AT_type(*$C$DW$T$207)
      36              
      37              $C$DW$4 .dwtag  DW_TAG_formal_parameter
      38                      .dwattr $C$DW$4, DW_AT_type(*$C$DW$T$207)
      39              
      40              $C$DW$5 .dwtag  DW_TAG_formal_parameter
      41                      .dwattr $C$DW$5, DW_AT_type(*$C$DW$T$235)
      42              
      43              $C$DW$6 .dwtag  DW_TAG_formal_parameter
      44                      .dwattr $C$DW$6, DW_AT_type(*$C$DW$T$235)
      45              
      46                      .dwendtag $C$DW$1
      47              
      48              
      49              $C$DW$7 .dwtag  DW_TAG_subprogram
      50                      .dwattr $C$DW$7, DW_AT_name("EST_updateId_ref_pu")
      51                      .dwattr $C$DW$7, DW_AT_TI_symbol_name("_EST_updateId_ref_pu")
      52                      .dwattr $C$DW$7, DW_AT_declaration
      53                      .dwattr $C$DW$7, DW_AT_external
      54              $C$DW$8 .dwtag  DW_TAG_formal_parameter
      55                      .dwattr $C$DW$8, DW_AT_type(*$C$DW$T$48)
TMS320C2000 Assembler PC v22.6.0 Tue Apr 18 11:09:46 2023

Copyright (c) 1996-2018 Texas Instruments Incorporated
C:\Users\User\AppData\Local\Temp\{F169EDD6-E2A2-400A-8386-A823CBD75D49} PAGE    2

      56              
      57              $C$DW$9 .dwtag  DW_TAG_formal_parameter
      58                      .dwattr $C$DW$9, DW_AT_type(*$C$DW$T$242)
      59              
      60                      .dwendtag $C$DW$7
      61              
      62              
      63              $C$DW$10        .dwtag  DW_TAG_subprogram
      64                      .dwattr $C$DW$10, DW_AT_name("EST_setId_ref_pu")
      65                      .dwattr $C$DW$10, DW_AT_TI_symbol_name("_EST_setId_ref_pu")
      66                      .dwattr $C$DW$10, DW_AT_declaration
      67                      .dwattr $C$DW$10, DW_AT_external
      68              $C$DW$11        .dwtag  DW_TAG_formal_parameter
      69                      .dwattr $C$DW$11, DW_AT_type(*$C$DW$T$48)
      70              
      71              $C$DW$12        .dwtag  DW_TAG_formal_parameter
      72                      .dwattr $C$DW$12, DW_AT_type(*$C$DW$T$235)
      73              
      74                      .dwendtag $C$DW$10
      75              
      76              
      77              $C$DW$13        .dwtag  DW_TAG_subprogram
      78                      .dwattr $C$DW$13, DW_AT_name("EST_setIq_ref_pu")
      79                      .dwattr $C$DW$13, DW_AT_TI_symbol_name("_EST_setIq_ref_pu")
      80                      .dwattr $C$DW$13, DW_AT_declaration
      81                      .dwattr $C$DW$13, DW_AT_external
      82              $C$DW$14        .dwtag  DW_TAG_formal_parameter
      83                      .dwattr $C$DW$14, DW_AT_type(*$C$DW$T$48)
      84              
      85              $C$DW$15        .dwtag  DW_TAG_formal_parameter
      86                      .dwattr $C$DW$15, DW_AT_type(*$C$DW$T$235)
      87              
      88                      .dwendtag $C$DW$13
      89              
      90              
      91              $C$DW$16        .dwtag  DW_TAG_subprogram
      92                      .dwattr $C$DW$16, DW_AT_name("CTRL_setEstParams")
      93                      .dwattr $C$DW$16, DW_AT_TI_symbol_name("_CTRL_setEstParams")
      94                      .dwattr $C$DW$16, DW_AT_declaration
      95                      .dwattr $C$DW$16, DW_AT_external
      96              $C$DW$17        .dwtag  DW_TAG_formal_parameter
      97                      .dwattr $C$DW$17, DW_AT_type(*$C$DW$T$48)
      98              
      99              $C$DW$18        .dwtag  DW_TAG_formal_parameter
     100                      .dwattr $C$DW$18, DW_AT_type(*$C$DW$T$228)
     101              
     102                      .dwendtag $C$DW$16
     103              
     104              
     105              $C$DW$19        .dwtag  DW_TAG_subprogram
     106                      .dwattr $C$DW$19, DW_AT_name("CTRL_runTraj")
     107                      .dwattr $C$DW$19, DW_AT_TI_symbol_name("_CTRL_runTraj")
     108                      .dwattr $C$DW$19, DW_AT_declaration
     109                      .dwattr $C$DW$19, DW_AT_external
     110              $C$DW$20        .dwtag  DW_TAG_formal_parameter
TMS320C2000 Assembler PC v22.6.0 Tue Apr 18 11:09:46 2023

Copyright (c) 1996-2018 Texas Instruments Incorporated
C:\Users\User\AppData\Local\Temp\{F169EDD6-E2A2-400A-8386-A823CBD75D49} PAGE    3

     111                      .dwattr $C$DW$20, DW_AT_type(*$C$DW$T$172)
     112              
     113                      .dwendtag $C$DW$19
     114              
     115              
     116              $C$DW$21        .dwtag  DW_TAG_subprogram
     117                      .dwattr $C$DW$21, DW_AT_name("CTRL_setupCtrl")
     118                      .dwattr $C$DW$21, DW_AT_TI_symbol_name("_CTRL_setupCtrl")
     119                      .dwattr $C$DW$21, DW_AT_declaration
     120                      .dwattr $C$DW$21, DW_AT_external
     121              $C$DW$22        .dwtag  DW_TAG_formal_parameter
     122                      .dwattr $C$DW$22, DW_AT_type(*$C$DW$T$172)
     123              
     124                      .dwendtag $C$DW$21
     125              
     126              
     127              $C$DW$23        .dwtag  DW_TAG_subprogram
     128                      .dwattr $C$DW$23, DW_AT_name("CTRL_setupTraj")
     129                      .dwattr $C$DW$23, DW_AT_TI_symbol_name("_CTRL_setupTraj")
     130                      .dwattr $C$DW$23, DW_AT_declaration
     131                      .dwattr $C$DW$23, DW_AT_external
     132              $C$DW$24        .dwtag  DW_TAG_formal_parameter
     133                      .dwattr $C$DW$24, DW_AT_type(*$C$DW$T$172)
     134              
     135                      .dwendtag $C$DW$23
     136              
     137              
     138              $C$DW$25        .dwtag  DW_TAG_subprogram
     139                      .dwattr $C$DW$25, DW_AT_name("CTRL_setupEstOnLineState")
     140                      .dwattr $C$DW$25, DW_AT_TI_symbol_name("_CTRL_setupEstOnLineState")
     141                      .dwattr $C$DW$25, DW_AT_declaration
     142                      .dwattr $C$DW$25, DW_AT_external
     143              $C$DW$26        .dwtag  DW_TAG_formal_parameter
     144                      .dwattr $C$DW$26, DW_AT_type(*$C$DW$T$172)
     145              
     146                      .dwendtag $C$DW$25
     147              
     148              
     149              $C$DW$27        .dwtag  DW_TAG_subprogram
     150                      .dwattr $C$DW$27, DW_AT_name("CTRL_setUserMotorParams")
     151                      .dwattr $C$DW$27, DW_AT_TI_symbol_name("_CTRL_setUserMotorParams")
     152                      .dwattr $C$DW$27, DW_AT_declaration
     153                      .dwattr $C$DW$27, DW_AT_external
     154              $C$DW$28        .dwtag  DW_TAG_formal_parameter
     155                      .dwattr $C$DW$28, DW_AT_type(*$C$DW$T$172)
     156              
     157                      .dwendtag $C$DW$27
     158              
     159              
     160              $C$DW$29        .dwtag  DW_TAG_subprogram
     161                      .dwattr $C$DW$29, DW_AT_name("CTRL_setupEstIdleState")
     162                      .dwattr $C$DW$29, DW_AT_TI_symbol_name("_CTRL_setupEstIdleState")
     163                      .dwattr $C$DW$29, DW_AT_declaration
     164                      .dwattr $C$DW$29, DW_AT_external
     165              $C$DW$30        .dwtag  DW_TAG_formal_parameter
TMS320C2000 Assembler PC v22.6.0 Tue Apr 18 11:09:46 2023

Copyright (c) 1996-2018 Texas Instruments Incorporated
C:\Users\User\AppData\Local\Temp\{F169EDD6-E2A2-400A-8386-A823CBD75D49} PAGE    4

     166                      .dwattr $C$DW$30, DW_AT_type(*$C$DW$T$172)
     167              
     168                      .dwendtag $C$DW$29
     169              
     170              
     171              $C$DW$31        .dwtag  DW_TAG_subprogram
     172                      .dwattr $C$DW$31, DW_AT_name("EST_setIdle")
     173                      .dwattr $C$DW$31, DW_AT_TI_symbol_name("_EST_setIdle")
     174                      .dwattr $C$DW$31, DW_AT_declaration
     175                      .dwattr $C$DW$31, DW_AT_external
     176              $C$DW$32        .dwtag  DW_TAG_formal_parameter
     177                      .dwattr $C$DW$32, DW_AT_type(*$C$DW$T$48)
     178              
     179                      .dwendtag $C$DW$31
     180              
     181              
     182              $C$DW$33        .dwtag  DW_TAG_subprogram
     183                      .dwattr $C$DW$33, DW_AT_name("EST_setIdle_all")
     184                      .dwattr $C$DW$33, DW_AT_TI_symbol_name("_EST_setIdle_all")
     185                      .dwattr $C$DW$33, DW_AT_declaration
     186                      .dwattr $C$DW$33, DW_AT_external
     187              $C$DW$34        .dwtag  DW_TAG_formal_parameter
     188                      .dwattr $C$DW$34, DW_AT_type(*$C$DW$T$48)
     189              
     190                      .dwendtag $C$DW$33
     191              
     192              
     193              $C$DW$35        .dwtag  DW_TAG_subprogram
     194                      .dwattr $C$DW$35, DW_AT_name("EST_setRs_pu")
     195                      .dwattr $C$DW$35, DW_AT_TI_symbol_name("_EST_setRs_pu")
     196                      .dwattr $C$DW$35, DW_AT_declaration
     197                      .dwattr $C$DW$35, DW_AT_external
     198              $C$DW$36        .dwtag  DW_TAG_formal_parameter
     199                      .dwattr $C$DW$36, DW_AT_type(*$C$DW$T$48)
     200              
     201              $C$DW$37        .dwtag  DW_TAG_formal_parameter
     202                      .dwattr $C$DW$37, DW_AT_type(*$C$DW$T$235)
     203              
     204                      .dwendtag $C$DW$35
     205              
     206              
     207              $C$DW$38        .dwtag  DW_TAG_subprogram
     208                      .dwattr $C$DW$38, DW_AT_name("EST_useZeroIq_ref")
     209                      .dwattr $C$DW$38, DW_AT_TI_symbol_name("_EST_useZeroIq_ref")
     210                      .dwattr $C$DW$38, DW_AT_type(*$C$DW$T$73)
     211                      .dwattr $C$DW$38, DW_AT_declaration
     212                      .dwattr $C$DW$38, DW_AT_external
     213              $C$DW$39        .dwtag  DW_TAG_formal_parameter
     214                      .dwattr $C$DW$39, DW_AT_type(*$C$DW$T$48)
     215              
     216                      .dwendtag $C$DW$38
     217              
     218              
     219              $C$DW$40        .dwtag  DW_TAG_subprogram
     220                      .dwattr $C$DW$40, DW_AT_name("EST_isError")
TMS320C2000 Assembler PC v22.6.0 Tue Apr 18 11:09:46 2023

Copyright (c) 1996-2018 Texas Instruments Incorporated
C:\Users\User\AppData\Local\Temp\{F169EDD6-E2A2-400A-8386-A823CBD75D49} PAGE    5

     221                      .dwattr $C$DW$40, DW_AT_TI_symbol_name("_EST_isError")
     222                      .dwattr $C$DW$40, DW_AT_type(*$C$DW$T$73)
     223                      .dwattr $C$DW$40, DW_AT_declaration
     224                      .dwattr $C$DW$40, DW_AT_external
     225              $C$DW$41        .dwtag  DW_TAG_formal_parameter
     226                      .dwattr $C$DW$41, DW_AT_type(*$C$DW$T$48)
     227              
     228                      .dwendtag $C$DW$40
     229              
     230              
     231              $C$DW$42        .dwtag  DW_TAG_subprogram
     232                      .dwattr $C$DW$42, DW_AT_name("EST_doSpeedCtrl")
     233                      .dwattr $C$DW$42, DW_AT_TI_symbol_name("_EST_doSpeedCtrl")
     234                      .dwattr $C$DW$42, DW_AT_type(*$C$DW$T$73)
     235                      .dwattr $C$DW$42, DW_AT_declaration
     236                      .dwattr $C$DW$42, DW_AT_external
     237              $C$DW$43        .dwtag  DW_TAG_formal_parameter
     238                      .dwattr $C$DW$43, DW_AT_type(*$C$DW$T$48)
     239              
     240                      .dwendtag $C$DW$42
     241              
     242              
     243              $C$DW$44        .dwtag  DW_TAG_subprogram
     244                      .dwattr $C$DW$44, DW_AT_name("EST_doCurrentCtrl")
     245                      .dwattr $C$DW$44, DW_AT_TI_symbol_name("_EST_doCurrentCtrl")
     246                      .dwattr $C$DW$44, DW_AT_type(*$C$DW$T$73)
     247                      .dwattr $C$DW$44, DW_AT_declaration
     248                      .dwattr $C$DW$44, DW_AT_external
     249              $C$DW$45        .dwtag  DW_TAG_formal_parameter
     250                      .dwattr $C$DW$45, DW_AT_type(*$C$DW$T$48)
     251              
     252                      .dwendtag $C$DW$44
     253              
     254              
     255              $C$DW$46        .dwtag  DW_TAG_subprogram
     256                      .dwattr $C$DW$46, DW_AT_name("EST_getState")
     257                      .dwattr $C$DW$46, DW_AT_TI_symbol_name("_EST_getState")
     258                      .dwattr $C$DW$46, DW_AT_type(*$C$DW$T$177)
     259                      .dwattr $C$DW$46, DW_AT_declaration
     260                      .dwattr $C$DW$46, DW_AT_external
     261              $C$DW$47        .dwtag  DW_TAG_formal_parameter
     262                      .dwattr $C$DW$47, DW_AT_type(*$C$DW$T$48)
     263              
     264                      .dwendtag $C$DW$46
     265              
     266              
     267              $C$DW$48        .dwtag  DW_TAG_subprogram
     268                      .dwattr $C$DW$48, DW_AT_name("EST_updateState")
     269                      .dwattr $C$DW$48, DW_AT_TI_symbol_name("_EST_updateState")
     270                      .dwattr $C$DW$48, DW_AT_type(*$C$DW$T$73)
     271                      .dwattr $C$DW$48, DW_AT_declaration
     272                      .dwattr $C$DW$48, DW_AT_external
     273              $C$DW$49        .dwtag  DW_TAG_formal_parameter
     274                      .dwattr $C$DW$49, DW_AT_type(*$C$DW$T$48)
     275              
TMS320C2000 Assembler PC v22.6.0 Tue Apr 18 11:09:46 2023

Copyright (c) 1996-2018 Texas Instruments Incorporated
C:\Users\User\AppData\Local\Temp\{F169EDD6-E2A2-400A-8386-A823CBD75D49} PAGE    6

     276              $C$DW$50        .dwtag  DW_TAG_formal_parameter
     277                      .dwattr $C$DW$50, DW_AT_type(*$C$DW$T$235)
     278              
     279                      .dwendtag $C$DW$48
     280              
     281              
     282              $C$DW$51        .dwtag  DW_TAG_subprogram
     283                      .dwattr $C$DW$51, DW_AT_name("EST_isOnLine")
     284                      .dwattr $C$DW$51, DW_AT_TI_symbol_name("_EST_isOnLine")
     285                      .dwattr $C$DW$51, DW_AT_type(*$C$DW$T$73)
     286                      .dwattr $C$DW$51, DW_AT_declaration
     287                      .dwattr $C$DW$51, DW_AT_external
     288              $C$DW$52        .dwtag  DW_TAG_formal_parameter
     289                      .dwattr $C$DW$52, DW_AT_type(*$C$DW$T$48)
     290              
     291                      .dwendtag $C$DW$51
     292              
     293              
     294              $C$DW$53        .dwtag  DW_TAG_subprogram
     295                      .dwattr $C$DW$53, DW_AT_name("EST_isLockRotor")
     296                      .dwattr $C$DW$53, DW_AT_TI_symbol_name("_EST_isLockRotor")
     297                      .dwattr $C$DW$53, DW_AT_type(*$C$DW$T$73)
     298                      .dwattr $C$DW$53, DW_AT_declaration
     299                      .dwattr $C$DW$53, DW_AT_external
     300              $C$DW$54        .dwtag  DW_TAG_formal_parameter
     301                      .dwattr $C$DW$54, DW_AT_type(*$C$DW$T$48)
     302              
     303                      .dwendtag $C$DW$53
     304              
     305              
     306              $C$DW$55        .dwtag  DW_TAG_subprogram
     307                      .dwattr $C$DW$55, DW_AT_name("EST_isIdle")
     308                      .dwattr $C$DW$55, DW_AT_TI_symbol_name("_EST_isIdle")
     309                      .dwattr $C$DW$55, DW_AT_type(*$C$DW$T$73)
     310                      .dwattr $C$DW$55, DW_AT_declaration
     311                      .dwattr $C$DW$55, DW_AT_external
     312              $C$DW$56        .dwtag  DW_TAG_formal_parameter
     313                      .dwattr $C$DW$56, DW_AT_type(*$C$DW$T$48)
     314              
     315                      .dwendtag $C$DW$55
     316              
     317              
     318              $C$DW$57        .dwtag  DW_TAG_subprogram
     319                      .dwattr $C$DW$57, DW_AT_name("EST_isMotorIdentified")
     320                      .dwattr $C$DW$57, DW_AT_TI_symbol_name("_EST_isMotorIdentified")
     321                      .dwattr $C$DW$57, DW_AT_type(*$C$DW$T$73)
     322                      .dwattr $C$DW$57, DW_AT_declaration
     323                      .dwattr $C$DW$57, DW_AT_external
     324              $C$DW$58        .dwtag  DW_TAG_formal_parameter
     325                      .dwattr $C$DW$58, DW_AT_type(*$C$DW$T$48)
     326              
     327                      .dwendtag $C$DW$57
     328              
     329              
     330              $C$DW$59        .dwtag  DW_TAG_subprogram
TMS320C2000 Assembler PC v22.6.0 Tue Apr 18 11:09:46 2023

Copyright (c) 1996-2018 Texas Instruments Incorporated
C:\Users\User\AppData\Local\Temp\{F169EDD6-E2A2-400A-8386-A823CBD75D49} PAGE    7

     331                      .dwattr $C$DW$59, DW_AT_name("_IQ24cosPU")
     332                      .dwattr $C$DW$59, DW_AT_TI_symbol_name("__IQ24cosPU")
     333                      .dwattr $C$DW$59, DW_AT_type(*$C$DW$T$12)
     334                      .dwattr $C$DW$59, DW_AT_declaration
     335                      .dwattr $C$DW$59, DW_AT_external
     336              $C$DW$60        .dwtag  DW_TAG_formal_parameter
     337                      .dwattr $C$DW$60, DW_AT_type(*$C$DW$T$12)
     338              
     339                      .dwendtag $C$DW$59
     340              
     341              
     342              $C$DW$61        .dwtag  DW_TAG_subprogram
     343                      .dwattr $C$DW$61, DW_AT_name("_IQ24sinPU")
     344                      .dwattr $C$DW$61, DW_AT_TI_symbol_name("__IQ24sinPU")
     345                      .dwattr $C$DW$61, DW_AT_type(*$C$DW$T$12)
     346                      .dwattr $C$DW$61, DW_AT_declaration
     347                      .dwattr $C$DW$61, DW_AT_external
     348              $C$DW$62        .dwtag  DW_TAG_formal_parameter
     349                      .dwattr $C$DW$62, DW_AT_type(*$C$DW$T$12)
     350              
     351                      .dwendtag $C$DW$61
     352              
     353              
     354              $C$DW$63        .dwtag  DW_TAG_subprogram
     355                      .dwattr $C$DW$63, DW_AT_name("EST_getFm_pu")
     356                      .dwattr $C$DW$63, DW_AT_TI_symbol_name("_EST_getFm_pu")
     357                      .dwattr $C$DW$63, DW_AT_type(*$C$DW$T$32)
     358                      .dwattr $C$DW$63, DW_AT_declaration
     359                      .dwattr $C$DW$63, DW_AT_external
     360              $C$DW$64        .dwtag  DW_TAG_formal_parameter
     361                      .dwattr $C$DW$64, DW_AT_type(*$C$DW$T$48)
     362              
     363                      .dwendtag $C$DW$63
     364              
     365              
     366              $C$DW$65        .dwtag  DW_TAG_subprogram
     367                      .dwattr $C$DW$65, DW_AT_name("EST_getAngle_pu")
     368                      .dwattr $C$DW$65, DW_AT_TI_symbol_name("_EST_getAngle_pu")
     369                      .dwattr $C$DW$65, DW_AT_type(*$C$DW$T$32)
     370                      .dwattr $C$DW$65, DW_AT_declaration
     371                      .dwattr $C$DW$65, DW_AT_external
     372              $C$DW$66        .dwtag  DW_TAG_formal_parameter
     373                      .dwattr $C$DW$66, DW_AT_type(*$C$DW$T$48)
     374              
     375                      .dwendtag $C$DW$65
     376              
     377              
     378              $C$DW$67        .dwtag  DW_TAG_subprogram
     379                      .dwattr $C$DW$67, DW_AT_name("EST_getOneOverDcBus_pu")
     380                      .dwattr $C$DW$67, DW_AT_TI_symbol_name("_EST_getOneOverDcBus_pu")
     381                      .dwattr $C$DW$67, DW_AT_type(*$C$DW$T$32)
     382                      .dwattr $C$DW$67, DW_AT_declaration
     383                      .dwattr $C$DW$67, DW_AT_external
     384              $C$DW$68        .dwtag  DW_TAG_formal_parameter
     385                      .dwattr $C$DW$68, DW_AT_type(*$C$DW$T$48)
TMS320C2000 Assembler PC v22.6.0 Tue Apr 18 11:09:46 2023

Copyright (c) 1996-2018 Texas Instruments Incorporated
C:\Users\User\AppData\Local\Temp\{F169EDD6-E2A2-400A-8386-A823CBD75D49} PAGE    8

     386              
     387                      .dwendtag $C$DW$67
     388              
     389              
     390              $C$DW$69        .dwtag  DW_TAG_subprogram
     391                      .dwattr $C$DW$69, DW_AT_name("_IQ24sqrt")
     392                      .dwattr $C$DW$69, DW_AT_TI_symbol_name("__IQ24sqrt")
     393                      .dwattr $C$DW$69, DW_AT_type(*$C$DW$T$12)
     394                      .dwattr $C$DW$69, DW_AT_declaration
     395                      .dwattr $C$DW$69, DW_AT_external
     396              $C$DW$70        .dwtag  DW_TAG_formal_parameter
     397                      .dwattr $C$DW$70, DW_AT_type(*$C$DW$T$12)
     398              
     399                      .dwendtag $C$DW$69
     400              
     401              
     402              $C$DW$71        .dwtag  DW_TAG_subprogram
     403                      .dwattr $C$DW$71, DW_AT_name("EST_get_krpm_to_pu_sf")
     404                      .dwattr $C$DW$71, DW_AT_TI_symbol_name("_EST_get_krpm_to_pu_sf")
     405                      .dwattr $C$DW$71, DW_AT_type(*$C$DW$T$32)
     406                      .dwattr $C$DW$71, DW_AT_declaration
     407                      .dwattr $C$DW$71, DW_AT_external
     408              $C$DW$72        .dwtag  DW_TAG_formal_parameter
     409                      .dwattr $C$DW$72, DW_AT_type(*$C$DW$T$48)
     410              
     411                      .dwendtag $C$DW$71
     412              
     413 00000000               .sect   ".econst:_$P$T0$1"
     414                      .clink
     415                      .align  2
     416                      .elfsym _$P$T0$1,SYM_SIZE(4)
     417 00000000       _$P$T0$1:
     418 00000000 0000          .bits           0,32
         00000001 0000 
     419                                      ; _$P$T0$1._value[0] @ 0
     420 00000002 0000          .bits           0,32
         00000003 0000 
     421                                      ; _$P$T0$1._value[1] @ 32
     422              
     423              $C$DW$73        .dwtag  DW_TAG_variable
     424                      .dwattr $C$DW$73, DW_AT_name("$P$T0$1")
     425                      .dwattr $C$DW$73, DW_AT_TI_symbol_name("_$P$T0$1")
     426                      .dwattr $C$DW$73, DW_AT_type(*$C$DW$T$206)
     427                      .dwattr $C$DW$73, DW_AT_location[DW_OP_addr _$P$T0$1]
     428              
     429 00000000               .sect   ".econst:_$P$T1$2"
     430                      .clink
     431                      .align  2
     432                      .elfsym _$P$T1$2,SYM_SIZE(4)
     433 00000000       _$P$T1$2:
     434 00000000 0000          .bits           0,32
         00000001 0000 
     435                                      ; _$P$T1$2._value[0] @ 0
     436 00000002 0000          .bits           0,32
         00000003 0000 
TMS320C2000 Assembler PC v22.6.0 Tue Apr 18 11:09:46 2023

Copyright (c) 1996-2018 Texas Instruments Incorporated
C:\Users\User\AppData\Local\Temp\{F169EDD6-E2A2-400A-8386-A823CBD75D49} PAGE    9

     437                                      ; _$P$T1$2._value[1] @ 32
     438              
     439              $C$DW$74        .dwtag  DW_TAG_variable
     440                      .dwattr $C$DW$74, DW_AT_name("$P$T1$2")
     441                      .dwattr $C$DW$74, DW_AT_TI_symbol_name("_$P$T1$2")
     442                      .dwattr $C$DW$74, DW_AT_type(*$C$DW$T$206)
     443                      .dwattr $C$DW$74, DW_AT_location[DW_OP_addr _$P$T1$2]
     444              
     445 00000000               .sect   ".econst:_$P$T2$3"
     446                      .clink
     447                      .align  2
     448                      .elfsym _$P$T2$3,SYM_SIZE(4)
     449 00000000       _$P$T2$3:
     450 00000000 0000          .bits           0,32
         00000001 0000 
     451                                      ; _$P$T2$3._value[0] @ 0
     452 00000002 0000          .bits           0,32
         00000003 0000 
     453                                      ; _$P$T2$3._value[1] @ 32
     454              
     455              $C$DW$75        .dwtag  DW_TAG_variable
     456                      .dwattr $C$DW$75, DW_AT_name("$P$T2$3")
     457                      .dwattr $C$DW$75, DW_AT_TI_symbol_name("_$P$T2$3")
     458                      .dwattr $C$DW$75, DW_AT_type(*$C$DW$T$206)
     459                      .dwattr $C$DW$75, DW_AT_location[DW_OP_addr _$P$T2$3]
     460              
     461 00000000               .sect   ".econst:_$P$T3$4"
     462                      .clink
     463                      .align  2
     464                      .elfsym _$P$T3$4,SYM_SIZE(4)
     465 00000000       _$P$T3$4:
     466 00000000 0000          .bits           0,32
         00000001 0000 
     467                                      ; _$P$T3$4._value[0] @ 0
     468 00000002 0000          .bits           0,32
         00000003 0000 
     469                                      ; _$P$T3$4._value[1] @ 32
     470              
     471              $C$DW$76        .dwtag  DW_TAG_variable
     472                      .dwattr $C$DW$76, DW_AT_name("$P$T3$4")
     473                      .dwattr $C$DW$76, DW_AT_TI_symbol_name("_$P$T3$4")
     474                      .dwattr $C$DW$76, DW_AT_type(*$C$DW$T$206)
     475                      .dwattr $C$DW$76, DW_AT_location[DW_OP_addr _$P$T3$4]
     476              
     477 00000000               .sect   ".econst:_$P$T4$5"
     478                      .clink
     479                      .align  2
     480                      .elfsym _$P$T4$5,SYM_SIZE(4)
     481 00000000       _$P$T4$5:
     482 00000000 0000          .bits           0,32
         00000001 0000 
     483                                      ; _$P$T4$5._value[0] @ 0
     484 00000002 0000          .bits           0,32
         00000003 0000 
     485                                      ; _$P$T4$5._value[1] @ 32
TMS320C2000 Assembler PC v22.6.0 Tue Apr 18 11:09:46 2023

Copyright (c) 1996-2018 Texas Instruments Incorporated
C:\Users\User\AppData\Local\Temp\{F169EDD6-E2A2-400A-8386-A823CBD75D49} PAGE   10

     486              
     487              $C$DW$77        .dwtag  DW_TAG_variable
     488                      .dwattr $C$DW$77, DW_AT_name("$P$T4$5")
     489                      .dwattr $C$DW$77, DW_AT_TI_symbol_name("_$P$T4$5")
     490                      .dwattr $C$DW$77, DW_AT_type(*$C$DW$T$206)
     491                      .dwattr $C$DW$77, DW_AT_location[DW_OP_addr _$P$T4$5]
     492              
     493 00000000               .sect   ".econst:_$P$T5$6"
     494                      .clink
     495                      .align  2
     496                      .elfsym _$P$T5$6,SYM_SIZE(4)
     497 00000000       _$P$T5$6:
     498 00000000 0000          .bits           0,32
         00000001 0000 
     499                                      ; _$P$T5$6._value[0] @ 0
     500 00000002 0000          .bits           0,32
         00000003 0000 
     501                                      ; _$P$T5$6._value[1] @ 32
     502              
     503              $C$DW$78        .dwtag  DW_TAG_variable
     504                      .dwattr $C$DW$78, DW_AT_name("$P$T5$6")
     505                      .dwattr $C$DW$78, DW_AT_TI_symbol_name("_$P$T5$6")
     506                      .dwattr $C$DW$78, DW_AT_type(*$C$DW$T$206)
     507                      .dwattr $C$DW$78, DW_AT_location[DW_OP_addr _$P$T5$6]
     508              
     509              ;       C:\ti\ccs1220\ccs\tools\compiler\ti-cgt-c2000_22.6.0.LTS\bin\opt2000.exe C:\\Users\\User\\AppData\\Lo
     510              ;       C:\ti\ccs1220\ccs\tools\compiler\ti-cgt-c2000_22.6.0.LTS\bin\ac2000.exe -@C:\\Users\\User\\AppData\\L
     511 00000000               .sect   ".text"
     512                      .clink
     513                      .global _CTRL_updateState
     514              
     515              $C$DW$79        .dwtag  DW_TAG_subprogram
     516                      .dwattr $C$DW$79, DW_AT_name("CTRL_updateState")
     517                      .dwattr $C$DW$79, DW_AT_low_pc(_CTRL_updateState)
     518                      .dwattr $C$DW$79, DW_AT_high_pc(0x00)
     519                      .dwattr $C$DW$79, DW_AT_TI_symbol_name("_CTRL_updateState")
     520                      .dwattr $C$DW$79, DW_AT_external
     521                      .dwattr $C$DW$79, DW_AT_type(*$C$DW$T$73)
     522                      .dwattr $C$DW$79, DW_AT_TI_begin_file("D:/GIANT/GIANT_TI_instaspin/TI_instaspin_indoor_smart_trainer/
     523                      .dwattr $C$DW$79, DW_AT_TI_begin_line(0x251)
     524                      .dwattr $C$DW$79, DW_AT_TI_begin_column(0x06)
     525                      .dwattr $C$DW$79, DW_AT_TI_max_frame_size(-12)
     526                      .dwpsn  file "D:/GIANT/GIANT_TI_instaspin/TI_instaspin_indoor_smart_trainer/motorware/motorware_1_01_
     527              
     528                      .dwfde $C$DW$CIE, _CTRL_updateState
     529              $C$DW$80        .dwtag  DW_TAG_formal_parameter
     530                      .dwattr $C$DW$80, DW_AT_name("handle")
     531                      .dwattr $C$DW$80, DW_AT_TI_symbol_name("_handle")
     532                      .dwattr $C$DW$80, DW_AT_type(*$C$DW$T$172)
     533                      .dwattr $C$DW$80, DW_AT_location[DW_OP_reg12]
     534              
     535              
     536              ;***************************************************************
     537              ;* FNAME: _CTRL_updateState             FR SIZE:  10           *
     538              ;*                                                             *
TMS320C2000 Assembler PC v22.6.0 Tue Apr 18 11:09:46 2023

Copyright (c) 1996-2018 Texas Instruments Incorporated
C:\Users\User\AppData\Local\Temp\{F169EDD6-E2A2-400A-8386-A823CBD75D49} PAGE   11

     539              ;* FUNCTION ENVIRONMENT                                        *
     540              ;*                                                             *
     541              ;* FUNCTION PROPERTIES                                         *
     542              ;*                            0 Parameter,  4 Auto,  6 SOE     *
     543              ;***************************************************************
     544              
     545              _CTRL_updateState:
     546              ;* AR2   assigned to _handle
     547              $C$DW$81        .dwtag  DW_TAG_variable
     548                      .dwattr $C$DW$81, DW_AT_name("handle")
     549                      .dwattr $C$DW$81, DW_AT_TI_symbol_name("_handle")
     550                      .dwattr $C$DW$81, DW_AT_type(*$C$DW$T$185)
     551                      .dwattr $C$DW$81, DW_AT_location[DW_OP_reg8]
     552              
     553              $C$DW$82        .dwtag  DW_TAG_variable
     554                      .dwattr $C$DW$82, DW_AT_name("ctrlState")
     555                      .dwattr $C$DW$82, DW_AT_TI_symbol_name("_ctrlState")
     556                      .dwattr $C$DW$82, DW_AT_type(*$C$DW$T$41)
     557                      .dwattr $C$DW$82, DW_AT_location[DW_OP_breg20 -1]
     558              
     559              ;* AR1   assigned to _stateChanged
     560              $C$DW$83        .dwtag  DW_TAG_variable
     561                      .dwattr $C$DW$83, DW_AT_name("stateChanged")
     562                      .dwattr $C$DW$83, DW_AT_TI_symbol_name("_stateChanged")
     563                      .dwattr $C$DW$83, DW_AT_type(*$C$DW$T$73)
     564                      .dwattr $C$DW$83, DW_AT_location[DW_OP_reg6]
     565              
     566              $C$DW$84        .dwtag  DW_TAG_variable
     567                      .dwattr $C$DW$84, DW_AT_name("waitTime")
     568                      .dwattr $C$DW$84, DW_AT_TI_symbol_name("_waitTime")
     569                      .dwattr $C$DW$84, DW_AT_type(*$C$DW$T$67)
     570                      .dwattr $C$DW$84, DW_AT_location[DW_OP_breg20 -4]
     571              
     572              ;* AR3   assigned to _counter_ctrlState
     573              $C$DW$85        .dwtag  DW_TAG_variable
     574                      .dwattr $C$DW$85, DW_AT_name("counter_ctrlState")
     575                      .dwattr $C$DW$85, DW_AT_TI_symbol_name("_counter_ctrlState")
     576                      .dwattr $C$DW$85, DW_AT_type(*$C$DW$T$67)
     577                      .dwattr $C$DW$85, DW_AT_location[DW_OP_reg10]
     578              
     579                      .dwcfi  cfa_offset, -2
     580                      .dwcfi  save_reg_to_mem, 26, 0
     581 00000000 B2BD          MOVL      *SP++,XAR1            ; [CPU_ALU] 
     582                      .dwcfi  save_reg_to_mem, 7, 2
     583                      .dwcfi  cfa_offset, -4
     584 00000001 AABD          MOVL      *SP++,XAR2            ; [CPU_ALU] 
     585                      .dwcfi  save_reg_to_mem, 9, 4
     586                      .dwcfi  cfa_offset, -6
     587 00000002 A2BD          MOVL      *SP++,XAR3            ; [CPU_ALU] 
     588                      .dwcfi  save_reg_to_mem, 11, 6
     589                      .dwcfi  cfa_offset, -8
     590 00000003 FE04          ADDB      SP,#4                 ; [CPU_ARAU] 
     591                      .dwcfi  cfa_offset, -12
     592 00000004 86A4          MOVL      XAR2,XAR4             ; [CPU_ALU] |594| 
     593                      .dwpsn  file "D:/GIANT/GIANT_TI_instaspin/TI_instaspin_indoor_smart_trainer/motorware/motorware_1_01_
TMS320C2000 Assembler PC v22.6.0 Tue Apr 18 11:09:46 2023

Copyright (c) 1996-2018 Texas Instruments Incorporated
C:\Users\User\AppData\Local\Temp\{F169EDD6-E2A2-400A-8386-A823CBD75D49} PAGE   12

     594 00000005 D0F0          MOVB      XAR0,#240             ; [CPU_ALU] |599| 
     595                      .dwpsn  file "D:/GIANT/GIANT_TI_instaspin/TI_instaspin_indoor_smart_trainer/motorware/motorware_1_01_
     596 00000006 D100          MOVB      XAR1,#0               ; [CPU_ALU] |597| 
     597                      .dwpsn  file "D:/GIANT/GIANT_TI_instaspin/TI_instaspin_indoor_smart_trainer/motorware/motorware_1_01_
     598 00000007 92E2          MOV       AL,*+XAR2[4]          ; [CPU_ALU] |772| 
     599 00000008 9641          MOV       *-SP[1],AL            ; [CPU_ALU] |772| 
     600                      .dwpsn  file "D:/GIANT/GIANT_TI_instaspin/TI_instaspin_indoor_smart_trainer/motorware/motorware_1_01_
     601 00000009 9292          MOV       AL,*+XAR2[AR0]        ; [CPU_ALU] |599| 
     602 0000000a 6022          B         $C$L2,NEQ             ; [CPU_ALU] |599| 
     603                      ; branchcc occurs ; [] |599| 
     604 0000000b 9241          MOV       AL,*-SP[1]            ; [CPU_ALU] 
     605                      .dwpsn  file "D:/GIANT/GIANT_TI_instaspin/TI_instaspin_indoor_smart_trainer/motorware/motorware_1_01_
     606 0000000c D018          MOVB      XAR0,#24              ; [CPU_ALU] |704| 
     607                      .dwpsn  file "D:/GIANT/GIANT_TI_instaspin/TI_instaspin_indoor_smart_trainer/motorware/motorware_1_01_
     608 0000000d 96EA          MOV       *+XAR2[5],AL          ; [CPU_ALU] |1779| 
     609                      .dwpsn  file "D:/GIANT/GIANT_TI_instaspin/TI_instaspin_indoor_smart_trainer/motorware/motorware_1_01_
     610 0000000e 56BF          MOVB      *+XAR2[4],#1,UNC      ; [CPU_ALU] |1780| 
         0000000f 01E2 
     611                      .dwpsn  file "D:/GIANT/GIANT_TI_instaspin/TI_instaspin_indoor_smart_trainer/motorware/motorware_1_01_
     612 00000010 8A92          MOVL      XAR4,*+XAR2[AR0]      ; [CPU_ALU] |704| 
     613              $C$DW$86        .dwtag  DW_TAG_TI_branch
     614                      .dwattr $C$DW$86, DW_AT_low_pc(0x00)
     615                      .dwattr $C$DW$86, DW_AT_name("_EST_isLockRotor")
     616                      .dwattr $C$DW$86, DW_AT_TI_call
     617              
     618 00000011 7640!         LCR       #_EST_isLockRotor     ; [CPU_ALU] |704| 
         00000012 0000 
     619                      ; call occurs [#_EST_isLockRotor] ; [] |704| 
     620 00000013 5200          CMPB      AL,#0                 ; [CPU_ALU] |704| 
     621 00000014 FFE0          B         $C$L12,NEQ            ; [CPU_ALU] |704| 
         00000015 0094 
     622                      ; branchcc occurs ; [] |704| 
     623                      .dwpsn  file "D:/GIANT/GIANT_TI_instaspin/TI_instaspin_indoor_smart_trainer/motorware/motorware_1_01_
     624 00000016 D018          MOVB      XAR0,#24              ; [CPU_ALU] |706| 
     625 00000017 8A92          MOVL      XAR4,*+XAR2[AR0]      ; [CPU_ALU] |706| 
     626              $C$DW$87        .dwtag  DW_TAG_TI_branch
     627                      .dwattr $C$DW$87, DW_AT_low_pc(0x00)
     628                      .dwattr $C$DW$87, DW_AT_name("_EST_isMotorIdentified")
     629                      .dwattr $C$DW$87, DW_AT_TI_call
     630              
     631 00000018 7640!         LCR       #_EST_isMotorIdentified ; [CPU_ALU] |706| 
         00000019 0000 
     632                      ; call occurs [#_EST_isMotorIdentified] ; [] |706| 
     633 0000001a 5200          CMPB      AL,#0                 ; [CPU_ALU] |706| 
     634 0000001b 600C          B         $C$L1,NEQ             ; [CPU_ALU] |706| 
     635                      ; branchcc occurs ; [] |706| 
     636                      .dwpsn  file "D:/GIANT/GIANT_TI_instaspin/TI_instaspin_indoor_smart_trainer/motorware/motorware_1_01_
     637 0000001c D018          MOVB      XAR0,#24              ; [CPU_ALU] |712| 
     638 0000001d 8A92          MOVL      XAR4,*+XAR2[AR0]      ; [CPU_ALU] |712| 
     639              $C$DW$88        .dwtag  DW_TAG_TI_branch
     640                      .dwattr $C$DW$88, DW_AT_low_pc(0x00)
     641                      .dwattr $C$DW$88, DW_AT_name("_EST_setIdle_all")
     642                      .dwattr $C$DW$88, DW_AT_TI_call
     643              
     644 0000001e 7640!         LCR       #_EST_setIdle_all     ; [CPU_ALU] |712| 
TMS320C2000 Assembler PC v22.6.0 Tue Apr 18 11:09:46 2023

Copyright (c) 1996-2018 Texas Instruments Incorporated
C:\Users\User\AppData\Local\Temp\{F169EDD6-E2A2-400A-8386-A823CBD75D49} PAGE   13

         0000001f 0000 
     645                      ; call occurs [#_EST_setIdle_all] ; [] |712| 
     646                      .dwpsn  file "D:/GIANT/GIANT_TI_instaspin/TI_instaspin_indoor_smart_trainer/motorware/motorware_1_01_
     647 00000020 D018          MOVB      XAR0,#24              ; [CPU_ALU] |714| 
     648 00000021 0200          MOVB      ACC,#0                ; [CPU_ALU] |714| 
     649 00000022 8A92          MOVL      XAR4,*+XAR2[AR0]      ; [CPU_ALU] |714| 
     650              $C$DW$89        .dwtag  DW_TAG_TI_branch
     651                      .dwattr $C$DW$89, DW_AT_low_pc(0x00)
     652                      .dwattr $C$DW$89, DW_AT_name("_EST_setRs_pu")
     653                      .dwattr $C$DW$89, DW_AT_TI_call
     654              
     655 00000023 7640!         LCR       #_EST_setRs_pu        ; [CPU_ALU] |714| 
         00000024 0000 
     656                      ; call occurs [#_EST_setRs_pu] ; [] |714| 
     657 00000025 FFEF          B         $C$L12,UNC            ; [CPU_ALU] |714| 
         00000026 0083 
     658                      ; branch occurs ; [] |714| 
     659 00000027       $C$L1:    
     660                      .dwpsn  file "D:/GIANT/GIANT_TI_instaspin/TI_instaspin_indoor_smart_trainer/motorware/motorware_1_01_
     661 00000027 D018          MOVB      XAR0,#24              ; [CPU_ALU] |708| 
     662 00000028 8A92          MOVL      XAR4,*+XAR2[AR0]      ; [CPU_ALU] |708| 
     663              $C$DW$90        .dwtag  DW_TAG_TI_branch
     664                      .dwattr $C$DW$90, DW_AT_low_pc(0x00)
     665                      .dwattr $C$DW$90, DW_AT_name("_EST_setIdle")
     666                      .dwattr $C$DW$90, DW_AT_TI_call
     667              
     668 00000029 7640!         LCR       #_EST_setIdle         ; [CPU_ALU] |708| 
         0000002a 0000 
     669                      ; call occurs [#_EST_setIdle] ; [] |708| 
     670 0000002b 6F7D          B         $C$L12,UNC            ; [CPU_ALU] 
     671                      ; branch occurs ; [] 
     672 0000002c       $C$L2:    
     673 0000002c 9241          MOV       AL,*-SP[1]            ; [CPU_ALU] 
     674 0000002d 2901          CLRC      SXM                   ; [CPU_ALU] 
     675                      .dwpsn  file "D:/GIANT/GIANT_TI_instaspin/TI_instaspin_indoor_smart_trainer/motorware/motorware_1_01_
     676 0000002e 5603          MOV       ACC,AL << 1           ; [CPU_ALU] |938| 
         0000002f 01A9 
     677 00000030 07A2          ADDL      ACC,XAR2              ; [CPU_ALU] |938| 
     678 00000031 8AA9          MOVL      XAR4,ACC              ; [CPU_ALU] |938| 
     679 00000032 D092          MOVB      XAR0,#146             ; [CPU_ALU] |938| 
     680 00000033 0694          MOVL      ACC,*+XAR4[AR0]       ; [CPU_ALU] |938| 
     681                      .dwpsn  file "D:/GIANT/GIANT_TI_instaspin/TI_instaspin_indoor_smart_trainer/motorware/motorware_1_01_
     682 00000034 D09A          MOVB      XAR0,#154             ; [CPU_ALU] |133| 
     683                      .dwpsn  file "D:/GIANT/GIANT_TI_instaspin/TI_instaspin_indoor_smart_trainer/motorware/motorware_1_01_
     684 00000035 1E44          MOVL      *-SP[4],ACC           ; [CPU_ALU] |938| 
     685                      .dwpsn  file "D:/GIANT/GIANT_TI_instaspin/TI_instaspin_indoor_smart_trainer/motorware/motorware_1_01_
     686 00000036 8292          MOVL      XAR3,*+XAR2[AR0]      ; [CPU_ALU] |133| 
     687                      .dwpsn  file "D:/GIANT/GIANT_TI_instaspin/TI_instaspin_indoor_smart_trainer/motorware/motorware_1_01_
     688 00000037 D018          MOVB      XAR0,#24              ; [CPU_ALU] |1988| 
     689 00000038 8A92          MOVL      XAR4,*+XAR2[AR0]      ; [CPU_ALU] |1988| 
     690              $C$DW$91        .dwtag  DW_TAG_TI_branch
     691                      .dwattr $C$DW$91, DW_AT_low_pc(0x00)
     692                      .dwattr $C$DW$91, DW_AT_name("_EST_isError")
     693                      .dwattr $C$DW$91, DW_AT_TI_call
     694              
TMS320C2000 Assembler PC v22.6.0 Tue Apr 18 11:09:46 2023

Copyright (c) 1996-2018 Texas Instruments Incorporated
C:\Users\User\AppData\Local\Temp\{F169EDD6-E2A2-400A-8386-A823CBD75D49} PAGE   14

     695 00000039 7640!         LCR       #_EST_isError         ; [CPU_ALU] |1988| 
         0000003a 0000 
     696                      ; call occurs [#_EST_isError] ; [] |1988| 
     697 0000003b 5200          CMPB      AL,#0                 ; [CPU_ALU] |1988| 
     698 0000003c 6106          B         $C$L3,EQ              ; [CPU_ALU] |1988| 
     699                      ; branchcc occurs ; [] |1988| 
     700                      .dwpsn  file "D:/GIANT/GIANT_TI_instaspin/TI_instaspin_indoor_smart_trainer/motorware/motorware_1_01_
     701 0000003d 92E2          MOV       AL,*+XAR2[4]          ; [CPU_ALU] |1779| 
     702 0000003e 96EA          MOV       *+XAR2[5],AL          ; [CPU_ALU] |1779| 
     703                      .dwpsn  file "D:/GIANT/GIANT_TI_instaspin/TI_instaspin_indoor_smart_trainer/motorware/motorware_1_01_
     704 0000003f 2BE2          MOV       *+XAR2[4],#0          ; [CPU_ALU] |1780| 
     705                      .dwpsn  file "D:/GIANT/GIANT_TI_instaspin/TI_instaspin_indoor_smart_trainer/motorware/motorware_1_01_
     706 00000040 56BF          MOVB      *+XAR2[6],#2,UNC      ; [CPU_ALU] |1194| 
         00000041 02F2 
     707 00000042       $C$L3:    
     708 00000042 0644          MOVL      ACC,*-SP[4]           ; [CPU_ALU] 
     709                      .dwpsn  file "D:/GIANT/GIANT_TI_instaspin/TI_instaspin_indoor_smart_trainer/motorware/motorware_1_01_
     710 00000043 0FA3          CMPL      ACC,XAR3              ; [CPU_ALU] |607| 
     711 00000044 6664          B         $C$L12,HI             ; [CPU_ALU] |607| 
     712                      ; branchcc occurs ; [] |607| 
     713                      .dwpsn  file "D:/GIANT/GIANT_TI_instaspin/TI_instaspin_indoor_smart_trainer/motorware/motorware_1_01_
     714 00000045 D09A          MOVB      XAR0,#154             ; [CPU_ALU] |1112| 
     715 00000046 0200          MOVB      ACC,#0                ; [CPU_ALU] |1112| 
     716 00000047 1E92          MOVL      *+XAR2[AR0],ACC       ; [CPU_ALU] |1112| 
     717 00000048 9241          MOV       AL,*-SP[1]            ; [CPU_ALU] |1112| 
     718                      .dwpsn  file "D:/GIANT/GIANT_TI_instaspin/TI_instaspin_indoor_smart_trainer/motorware/motorware_1_01_
     719 00000049 5203          CMPB      AL,#3                 ; [CPU_ALU] |612| 
     720 0000004a 612E          B         $C$L8,EQ              ; [CPU_ALU] |612| 
     721                      ; branchcc occurs ; [] |612| 
     722                      .dwpsn  file "D:/GIANT/GIANT_TI_instaspin/TI_instaspin_indoor_smart_trainer/motorware/motorware_1_01_
     723 0000004b 5202          CMPB      AL,#2                 ; [CPU_ALU] |647| 
     724 0000004c 6127          B         $C$L7,EQ              ; [CPU_ALU] |647| 
     725                      ; branchcc occurs ; [] |647| 
     726                      .dwpsn  file "D:/GIANT/GIANT_TI_instaspin/TI_instaspin_indoor_smart_trainer/motorware/motorware_1_01_
     727 0000004d 5201          CMPB      AL,#1                 ; [CPU_ALU] |652| 
     728 0000004e 605A          B         $C$L12,NEQ            ; [CPU_ALU] |652| 
     729                      ; branchcc occurs ; [] |652| 
     730                      .dwpsn  file "D:/GIANT/GIANT_TI_instaspin/TI_instaspin_indoor_smart_trainer/motorware/motorware_1_01_
     731 0000004f D0F5          MOVB      XAR0,#245             ; [CPU_ALU] |658| 
     732 00000050 9292          MOV       AL,*+XAR2[AR0]        ; [CPU_ALU] |658| 
     733 00000051 6104          B         $C$L4,EQ              ; [CPU_ALU] |658| 
     734                      ; branchcc occurs ; [] |658| 
     735                      .dwpsn  file "D:/GIANT/GIANT_TI_instaspin/TI_instaspin_indoor_smart_trainer/motorware/motorware_1_01_
     736 00000052 8AA2          MOVL      XAR4,XAR2             ; [CPU_ALU] |661| 
     737              $C$DW$92        .dwtag  DW_TAG_TI_branch
     738                      .dwattr $C$DW$92, DW_AT_low_pc(0x00)
     739                      .dwattr $C$DW$92, DW_AT_name("_CTRL_setUserMotorParams")
     740                      .dwattr $C$DW$92, DW_AT_TI_call
     741              
     742 00000053 7640!         LCR       #_CTRL_setUserMotorParams ; [CPU_ALU] |661| 
         00000054 0000 
     743                      ; call occurs [#_CTRL_setUserMotorParams] ; [] |661| 
     744 00000055       $C$L4:    
     745                      .dwpsn  file "D:/GIANT/GIANT_TI_instaspin/TI_instaspin_indoor_smart_trainer/motorware/motorware_1_01_
     746 00000055 D018          MOVB      XAR0,#24              ; [CPU_ALU] |664| 
TMS320C2000 Assembler PC v22.6.0 Tue Apr 18 11:09:46 2023

Copyright (c) 1996-2018 Texas Instruments Incorporated
C:\Users\User\AppData\Local\Temp\{F169EDD6-E2A2-400A-8386-A823CBD75D49} PAGE   15

     747 00000056 8A92          MOVL      XAR4,*+XAR2[AR0]      ; [CPU_ALU] |664| 
     748              $C$DW$93        .dwtag  DW_TAG_TI_branch
     749                      .dwattr $C$DW$93, DW_AT_low_pc(0x00)
     750                      .dwattr $C$DW$93, DW_AT_name("_EST_isIdle")
     751                      .dwattr $C$DW$93, DW_AT_TI_call
     752              
     753 00000057 7640!         LCR       #_EST_isIdle          ; [CPU_ALU] |664| 
         00000058 0000 
     754                      ; call occurs [#_EST_isIdle] ; [] |664| 
     755 00000059 5200          CMPB      AL,#0                 ; [CPU_ALU] |664| 
     756 0000005a 6008          B         $C$L5,NEQ             ; [CPU_ALU] |664| 
     757                      ; branchcc occurs ; [] |664| 
     758                      .dwpsn  file "D:/GIANT/GIANT_TI_instaspin/TI_instaspin_indoor_smart_trainer/motorware/motorware_1_01_
     759 0000005b D018          MOVB      XAR0,#24              ; [CPU_ALU] |688| 
     760 0000005c 8A92          MOVL      XAR4,*+XAR2[AR0]      ; [CPU_ALU] |688| 
     761              $C$DW$94        .dwtag  DW_TAG_TI_branch
     762                      .dwattr $C$DW$94, DW_AT_low_pc(0x00)
     763                      .dwattr $C$DW$94, DW_AT_name("_EST_isLockRotor")
     764                      .dwattr $C$DW$94, DW_AT_TI_call
     765              
     766 0000005d 7640!         LCR       #_EST_isLockRotor     ; [CPU_ALU] |688| 
         0000005e 0000 
     767                      ; call occurs [#_EST_isLockRotor] ; [] |688| 
     768 0000005f 5200          CMPB      AL,#0                 ; [CPU_ALU] |688| 
     769 00000060 6013          B         $C$L7,NEQ             ; [CPU_ALU] |688| 
     770                      ; branchcc occurs ; [] |688| 
     771 00000061 6F47          B         $C$L12,UNC            ; [CPU_ALU] |688| 
     772                      ; branch occurs ; [] |688| 
     773 00000062       $C$L5:    
     774                      .dwpsn  file "D:/GIANT/GIANT_TI_instaspin/TI_instaspin_indoor_smart_trainer/motorware/motorware_1_01_
     775 00000062 8AA2          MOVL      XAR4,XAR2             ; [CPU_ALU] |667| 
     776              $C$DW$95        .dwtag  DW_TAG_TI_branch
     777                      .dwattr $C$DW$95, DW_AT_low_pc(0x00)
     778                      .dwattr $C$DW$95, DW_AT_name("_CTRL_setupEstIdleState")
     779                      .dwattr $C$DW$95, DW_AT_TI_call
     780              
     781 00000063 7640!         LCR       #_CTRL_setupEstIdleState ; [CPU_ALU] |667| 
         00000064 0000 
     782                      ; call occurs [#_CTRL_setupEstIdleState] ; [] |667| 
     783                      .dwpsn  file "D:/GIANT/GIANT_TI_instaspin/TI_instaspin_indoor_smart_trainer/motorware/motorware_1_01_
     784 00000065 D018          MOVB      XAR0,#24              ; [CPU_ALU] |669| 
     785 00000066 8A92          MOVL      XAR4,*+XAR2[AR0]      ; [CPU_ALU] |669| 
     786              $C$DW$96        .dwtag  DW_TAG_TI_branch
     787                      .dwattr $C$DW$96, DW_AT_low_pc(0x00)
     788                      .dwattr $C$DW$96, DW_AT_name("_EST_isMotorIdentified")
     789                      .dwattr $C$DW$96, DW_AT_TI_call
     790              
     791 00000067 7640!         LCR       #_EST_isMotorIdentified ; [CPU_ALU] |669| 
         00000068 0000 
     792                      ; call occurs [#_EST_isMotorIdentified] ; [] |669| 
     793 00000069 5200          CMPB      AL,#0                 ; [CPU_ALU] |669| 
     794 0000006a 6104          B         $C$L6,EQ              ; [CPU_ALU] |669| 
     795                      ; branchcc occurs ; [] |669| 
     796 0000006b D0F3          MOVB      XAR0,#243             ; [CPU_ALU] |669| 
     797 0000006c 9292          MOV       AL,*+XAR2[AR0]        ; [CPU_ALU] |669| 
TMS320C2000 Assembler PC v22.6.0 Tue Apr 18 11:09:46 2023

Copyright (c) 1996-2018 Texas Instruments Incorporated
C:\Users\User\AppData\Local\Temp\{F169EDD6-E2A2-400A-8386-A823CBD75D49} PAGE   16

     798 0000006d 6106          B         $C$L7,EQ              ; [CPU_ALU] |669| 
     799                      ; branchcc occurs ; [] |669| 
     800 0000006e       $C$L6:    
     801                      .dwpsn  file "D:/GIANT/GIANT_TI_instaspin/TI_instaspin_indoor_smart_trainer/motorware/motorware_1_01_
     802 0000006e 92E2          MOV       AL,*+XAR2[4]          ; [CPU_ALU] |1779| 
     803 0000006f 96EA          MOV       *+XAR2[5],AL          ; [CPU_ALU] |1779| 
     804                      .dwpsn  file "D:/GIANT/GIANT_TI_instaspin/TI_instaspin_indoor_smart_trainer/motorware/motorware_1_01_
     805 00000070 56BF          MOVB      *+XAR2[4],#2,UNC      ; [CPU_ALU] |1780| 
         00000071 02E2 
     806                      .dwpsn  file "D:/GIANT/GIANT_TI_instaspin/TI_instaspin_indoor_smart_trainer/motorware/motorware_1_01_
     807 00000072 6F36          B         $C$L12,UNC            ; [CPU_ALU] |685| 
     808                      ; branch occurs ; [] |685| 
     809 00000073       $C$L7:    
     810                      .dwpsn  file "D:/GIANT/GIANT_TI_instaspin/TI_instaspin_indoor_smart_trainer/motorware/motorware_1_01_
     811 00000073 92E2          MOV       AL,*+XAR2[4]          ; [CPU_ALU] |1779| 
     812 00000074 96EA          MOV       *+XAR2[5],AL          ; [CPU_ALU] |1779| 
     813                      .dwpsn  file "D:/GIANT/GIANT_TI_instaspin/TI_instaspin_indoor_smart_trainer/motorware/motorware_1_01_
     814 00000075 56BF          MOVB      *+XAR2[4],#3,UNC      ; [CPU_ALU] |1780| 
         00000076 03E2 
     815 00000077 6F31          B         $C$L12,UNC            ; [CPU_ALU] 
     816                      ; branch occurs ; [] 
     817 00000078       $C$L8:    
     818                      .dwpsn  file "D:/GIANT/GIANT_TI_instaspin/TI_instaspin_indoor_smart_trainer/motorware/motorware_1_01_
     819 00000078 D018          MOVB      XAR0,#24              ; [CPU_ALU] |618| 
     820 00000079 8A92          MOVL      XAR4,*+XAR2[AR0]      ; [CPU_ALU] |618| 
     821 0000007a D060          MOVB      XAR0,#96              ; [CPU_ALU] |618| 
     822 0000007b 8392          MOVL      XAR5,*+XAR2[AR0]      ; [CPU_ALU] |618| 
     823 0000007c 06C5          MOVL      ACC,*+XAR5[0]         ; [CPU_ALU] |618| 
     824              $C$DW$97        .dwtag  DW_TAG_TI_branch
     825                      .dwattr $C$DW$97, DW_AT_low_pc(0x00)
     826                      .dwattr $C$DW$97, DW_AT_name("_EST_updateState")
     827                      .dwattr $C$DW$97, DW_AT_TI_call
     828              
     829 0000007d 7640!         LCR       #_EST_updateState     ; [CPU_ALU] |618| 
         0000007e 0000 
     830                      ; call occurs [#_EST_updateState] ; [] |618| 
     831 0000007f 5200          CMPB      AL,#0                 ; [CPU_ALU] |618| 
     832 00000080 6107          B         $C$L9,EQ              ; [CPU_ALU] |618| 
     833                      ; branchcc occurs ; [] |618| 
     834                      .dwpsn  file "D:/GIANT/GIANT_TI_instaspin/TI_instaspin_indoor_smart_trainer/motorware/motorware_1_01_
     835 00000081 8AA2          MOVL      XAR4,XAR2             ; [CPU_ALU] |624| 
     836              $C$DW$98        .dwtag  DW_TAG_TI_branch
     837                      .dwattr $C$DW$98, DW_AT_low_pc(0x00)
     838                      .dwattr $C$DW$98, DW_AT_name("_CTRL_setupCtrl")
     839                      .dwattr $C$DW$98, DW_AT_TI_call
     840              
     841 00000082 7640!         LCR       #_CTRL_setupCtrl      ; [CPU_ALU] |624| 
         00000083 0000 
     842                      ; call occurs [#_CTRL_setupCtrl] ; [] |624| 
     843                      .dwpsn  file "D:/GIANT/GIANT_TI_instaspin/TI_instaspin_indoor_smart_trainer/motorware/motorware_1_01_
     844 00000084 8AA2          MOVL      XAR4,XAR2             ; [CPU_ALU] |627| 
     845              $C$DW$99        .dwtag  DW_TAG_TI_branch
     846                      .dwattr $C$DW$99, DW_AT_low_pc(0x00)
     847                      .dwattr $C$DW$99, DW_AT_name("_CTRL_setupTraj")
     848                      .dwattr $C$DW$99, DW_AT_TI_call
TMS320C2000 Assembler PC v22.6.0 Tue Apr 18 11:09:46 2023

Copyright (c) 1996-2018 Texas Instruments Incorporated
C:\Users\User\AppData\Local\Temp\{F169EDD6-E2A2-400A-8386-A823CBD75D49} PAGE   17

     849              
     850 00000085 7640!         LCR       #_CTRL_setupTraj      ; [CPU_ALU] |627| 
         00000086 0000 
     851                      ; call occurs [#_CTRL_setupTraj] ; [] |627| 
     852 00000087       $C$L9:    
     853                      .dwpsn  file "D:/GIANT/GIANT_TI_instaspin/TI_instaspin_indoor_smart_trainer/motorware/motorware_1_01_
     854 00000087 D018          MOVB      XAR0,#24              ; [CPU_ALU] |630| 
     855 00000088 8A92          MOVL      XAR4,*+XAR2[AR0]      ; [CPU_ALU] |630| 
     856              $C$DW$100       .dwtag  DW_TAG_TI_branch
     857                      .dwattr $C$DW$100, DW_AT_low_pc(0x00)
     858                      .dwattr $C$DW$100, DW_AT_name("_EST_isOnLine")
     859                      .dwattr $C$DW$100, DW_AT_TI_call
     860              
     861 00000089 7640!         LCR       #_EST_isOnLine        ; [CPU_ALU] |630| 
         0000008a 0000 
     862                      ; call occurs [#_EST_isOnLine] ; [] |630| 
     863 0000008b 5200          CMPB      AL,#0                 ; [CPU_ALU] |630| 
     864 0000008c 6104          B         $C$L10,EQ             ; [CPU_ALU] |630| 
     865                      ; branchcc occurs ; [] |630| 
     866                      .dwpsn  file "D:/GIANT/GIANT_TI_instaspin/TI_instaspin_indoor_smart_trainer/motorware/motorware_1_01_
     867 0000008d 8AA2          MOVL      XAR4,XAR2             ; [CPU_ALU] |633| 
     868              $C$DW$101       .dwtag  DW_TAG_TI_branch
     869                      .dwattr $C$DW$101, DW_AT_low_pc(0x00)
     870                      .dwattr $C$DW$101, DW_AT_name("_CTRL_setupEstOnLineState")
     871                      .dwattr $C$DW$101, DW_AT_TI_call
     872              
     873 0000008e 7640!         LCR       #_CTRL_setupEstOnLineState ; [CPU_ALU] |633| 
         0000008f 0000 
     874                      ; call occurs [#_CTRL_setupEstOnLineState] ; [] |633| 
     875 00000090       $C$L10:    
     876                      .dwpsn  file "D:/GIANT/GIANT_TI_instaspin/TI_instaspin_indoor_smart_trainer/motorware/motorware_1_01_
     877 00000090 D018          MOVB      XAR0,#24              ; [CPU_ALU] |636| 
     878 00000091 8A92          MOVL      XAR4,*+XAR2[AR0]      ; [CPU_ALU] |636| 
     879              $C$DW$102       .dwtag  DW_TAG_TI_branch
     880                      .dwattr $C$DW$102, DW_AT_low_pc(0x00)
     881                      .dwattr $C$DW$102, DW_AT_name("_EST_isLockRotor")
     882                      .dwattr $C$DW$102, DW_AT_TI_call
     883              
     884 00000092 7640!         LCR       #_EST_isLockRotor     ; [CPU_ALU] |636| 
         00000093 0000 
     885                      ; call occurs [#_EST_isLockRotor] ; [] |636| 
     886 00000094 5200          CMPB      AL,#0                 ; [CPU_ALU] |636| 
     887 00000095 600D          B         $C$L11,NEQ            ; [CPU_ALU] |636| 
     888                      ; branchcc occurs ; [] |636| 
     889 00000096 D018          MOVB      XAR0,#24              ; [CPU_ALU] |636| 
     890 00000097 8A92          MOVL      XAR4,*+XAR2[AR0]      ; [CPU_ALU] |636| 
     891              $C$DW$103       .dwtag  DW_TAG_TI_branch
     892                      .dwattr $C$DW$103, DW_AT_low_pc(0x00)
     893                      .dwattr $C$DW$103, DW_AT_name("_EST_isIdle")
     894                      .dwattr $C$DW$103, DW_AT_TI_call
     895              
     896 00000098 7640!         LCR       #_EST_isIdle          ; [CPU_ALU] |636| 
         00000099 0000 
     897                      ; call occurs [#_EST_isIdle] ; [] |636| 
     898 0000009a 5200          CMPB      AL,#0                 ; [CPU_ALU] |636| 
TMS320C2000 Assembler PC v22.6.0 Tue Apr 18 11:09:46 2023

Copyright (c) 1996-2018 Texas Instruments Incorporated
C:\Users\User\AppData\Local\Temp\{F169EDD6-E2A2-400A-8386-A823CBD75D49} PAGE   18

     899 0000009b 610D          B         $C$L12,EQ             ; [CPU_ALU] |636| 
     900                      ; branchcc occurs ; [] |636| 
     901 0000009c D018          MOVB      XAR0,#24              ; [CPU_ALU] |636| 
     902 0000009d 8A92          MOVL      XAR4,*+XAR2[AR0]      ; [CPU_ALU] |636| 
     903              $C$DW$104       .dwtag  DW_TAG_TI_branch
     904                      .dwattr $C$DW$104, DW_AT_low_pc(0x00)
     905                      .dwattr $C$DW$104, DW_AT_name("_EST_isMotorIdentified")
     906                      .dwattr $C$DW$104, DW_AT_TI_call
     907              
     908 0000009e 7640!         LCR       #_EST_isMotorIdentified ; [CPU_ALU] |636| 
         0000009f 0000 
     909                      ; call occurs [#_EST_isMotorIdentified] ; [] |636| 
     910 000000a0 5200          CMPB      AL,#0                 ; [CPU_ALU] |636| 
     911 000000a1 6107          B         $C$L12,EQ             ; [CPU_ALU] |636| 
     912                      ; branchcc occurs ; [] |636| 
     913 000000a2       $C$L11:    
     914                      .dwpsn  file "D:/GIANT/GIANT_TI_instaspin/TI_instaspin_indoor_smart_trainer/motorware/motorware_1_01_
     915 000000a2 D0F0          MOVB      XAR0,#240             ; [CPU_ALU] |1219| 
     916 000000a3 2B92          MOV       *+XAR2[AR0],#0        ; [CPU_ALU] |1219| 
     917                      .dwpsn  file "D:/GIANT/GIANT_TI_instaspin/TI_instaspin_indoor_smart_trainer/motorware/motorware_1_01_
     918 000000a4 92E2          MOV       AL,*+XAR2[4]          ; [CPU_ALU] |1779| 
     919 000000a5 96EA          MOV       *+XAR2[5],AL          ; [CPU_ALU] |1779| 
     920                      .dwpsn  file "D:/GIANT/GIANT_TI_instaspin/TI_instaspin_indoor_smart_trainer/motorware/motorware_1_01_
     921 000000a6 56BF          MOVB      *+XAR2[4],#1,UNC      ; [CPU_ALU] |1780| 
         000000a7 01E2 
     922 000000a8       $C$L12:    
     923                      .dwpsn  file "D:/GIANT/GIANT_TI_instaspin/TI_instaspin_indoor_smart_trainer/motorware/motorware_1_01_
     924 000000a8 8841          MOVZ      AR6,*-SP[1]           ; [CPU_ALU] |720| 
     925 000000a9 0EE2          MOVU      ACC,*+XAR2[4]         ; [CPU_ALU] |720| 
     926 000000aa 0FA6          CMPL      ACC,XAR6              ; [CPU_ALU] |720| 
     927                      .dwpsn  file "D:/GIANT/GIANT_TI_instaspin/TI_instaspin_indoor_smart_trainer/motorware/motorware_1_01_
     928 000000ab 56B0          MOVB      XAR1,#1,NEQ           ; [CPU_ALU] |722| 
         000000ac 01A1 
     929 000000ad FE84          SUBB      SP,#4                 ; [CPU_ARAU] 
     930                      .dwcfi  cfa_offset, -8
     931                      .dwpsn  file "D:/GIANT/GIANT_TI_instaspin/TI_instaspin_indoor_smart_trainer/motorware/motorware_1_01_
     932 000000ae 92A1          MOV       AL,AR1                ; [CPU_ALU] |725| 
     933 000000af 82BE          MOVL      XAR3,*--SP            ; [CPU_ALU] 
     934                      .dwcfi  cfa_offset, -6
     935                      .dwcfi  restore_reg, 11
     936 000000b0 86BE          MOVL      XAR2,*--SP            ; [CPU_ALU] 
     937                      .dwcfi  cfa_offset, -4
     938                      .dwcfi  restore_reg, 9
     939 000000b1 8BBE          MOVL      XAR1,*--SP            ; [CPU_ALU] 
     940                      .dwcfi  cfa_offset, -2
     941                      .dwcfi  restore_reg, 7
     942              $C$DW$105       .dwtag  DW_TAG_TI_branch
     943                      .dwattr $C$DW$105, DW_AT_low_pc(0x00)
     944                      .dwattr $C$DW$105, DW_AT_TI_return
     945              
     946 000000b2 0006          LRETR     ; [CPU_ALU] 
     947                      ; return occurs ; [] 
     948                      .dwattr $C$DW$79, DW_AT_TI_end_file("D:/GIANT/GIANT_TI_instaspin/TI_instaspin_indoor_smart_trainer/mo
     949                      .dwattr $C$DW$79, DW_AT_TI_end_line(0x2d6)
     950                      .dwattr $C$DW$79, DW_AT_TI_end_column(0x01)
TMS320C2000 Assembler PC v22.6.0 Tue Apr 18 11:09:46 2023

Copyright (c) 1996-2018 Texas Instruments Incorporated
C:\Users\User\AppData\Local\Temp\{F169EDD6-E2A2-400A-8386-A823CBD75D49} PAGE   19

     951                      .dwendentry
     952                      .dwendtag $C$DW$79
     953              
     954 000000b3               .sect   ".text"
     955                      .clink
     956                      .global _CTRL_setup_user
     957              
     958              $C$DW$106       .dwtag  DW_TAG_subprogram
     959                      .dwattr $C$DW$106, DW_AT_name("CTRL_setup_user")
     960                      .dwattr $C$DW$106, DW_AT_low_pc(_CTRL_setup_user)
     961                      .dwattr $C$DW$106, DW_AT_high_pc(0x00)
     962                      .dwattr $C$DW$106, DW_AT_TI_symbol_name("_CTRL_setup_user")
     963                      .dwattr $C$DW$106, DW_AT_external
     964                      .dwattr $C$DW$106, DW_AT_TI_begin_file("D:/GIANT/GIANT_TI_instaspin/TI_instaspin_indoor_smart_trainer
     965                      .dwattr $C$DW$106, DW_AT_TI_begin_line(0x210)
     966                      .dwattr $C$DW$106, DW_AT_TI_begin_column(0x06)
     967                      .dwattr $C$DW$106, DW_AT_TI_max_frame_size(-18)
     968                      .dwpsn  file "D:/GIANT/GIANT_TI_instaspin/TI_instaspin_indoor_smart_trainer/motorware/motorware_1_01_
     969              
     970                      .dwfde $C$DW$CIE, _CTRL_setup_user
     971              $C$DW$107       .dwtag  DW_TAG_formal_parameter
     972                      .dwattr $C$DW$107, DW_AT_name("handle")
     973                      .dwattr $C$DW$107, DW_AT_TI_symbol_name("_handle")
     974                      .dwattr $C$DW$107, DW_AT_type(*$C$DW$T$172)
     975                      .dwattr $C$DW$107, DW_AT_location[DW_OP_reg12]
     976              
     977              $C$DW$108       .dwtag  DW_TAG_formal_parameter
     978                      .dwattr $C$DW$108, DW_AT_name("angle_pu")
     979                      .dwattr $C$DW$108, DW_AT_TI_symbol_name("_angle_pu")
     980                      .dwattr $C$DW$108, DW_AT_type(*$C$DW$T$32)
     981                      .dwattr $C$DW$108, DW_AT_location[DW_OP_reg0]
     982              
     983              $C$DW$109       .dwtag  DW_TAG_formal_parameter
     984                      .dwattr $C$DW$109, DW_AT_name("speed_ref_pu")
     985                      .dwattr $C$DW$109, DW_AT_TI_symbol_name("_speed_ref_pu")
     986                      .dwattr $C$DW$109, DW_AT_type(*$C$DW$T$32)
     987                      .dwattr $C$DW$109, DW_AT_location[DW_OP_breg20 -20]
     988              
     989              $C$DW$110       .dwtag  DW_TAG_formal_parameter
     990                      .dwattr $C$DW$110, DW_AT_name("speed_fb_pu")
     991                      .dwattr $C$DW$110, DW_AT_TI_symbol_name("_speed_fb_pu")
     992                      .dwattr $C$DW$110, DW_AT_type(*$C$DW$T$32)
     993                      .dwattr $C$DW$110, DW_AT_location[DW_OP_breg20 -22]
     994              
     995              $C$DW$111       .dwtag  DW_TAG_formal_parameter
     996                      .dwattr $C$DW$111, DW_AT_name("speed_outMax_pu")
     997                      .dwattr $C$DW$111, DW_AT_TI_symbol_name("_speed_outMax_pu")
     998                      .dwattr $C$DW$111, DW_AT_type(*$C$DW$T$32)
     999                      .dwattr $C$DW$111, DW_AT_location[DW_OP_breg20 -24]
    1000              
    1001              $C$DW$112       .dwtag  DW_TAG_formal_parameter
    1002                      .dwattr $C$DW$112, DW_AT_name("pIdq_offset_pu")
    1003                      .dwattr $C$DW$112, DW_AT_TI_symbol_name("_pIdq_offset_pu")
    1004                      .dwattr $C$DW$112, DW_AT_type(*$C$DW$T$207)
    1005                      .dwattr $C$DW$112, DW_AT_location[DW_OP_reg14]
TMS320C2000 Assembler PC v22.6.0 Tue Apr 18 11:09:46 2023

Copyright (c) 1996-2018 Texas Instruments Incorporated
C:\Users\User\AppData\Local\Temp\{F169EDD6-E2A2-400A-8386-A823CBD75D49} PAGE   20

    1006              
    1007              $C$DW$113       .dwtag  DW_TAG_formal_parameter
    1008                      .dwattr $C$DW$113, DW_AT_name("pVdq_offset_pu")
    1009                      .dwattr $C$DW$113, DW_AT_TI_symbol_name("_pVdq_offset_pu")
    1010                      .dwattr $C$DW$113, DW_AT_type(*$C$DW$T$207)
    1011                      .dwattr $C$DW$113, DW_AT_location[DW_OP_breg20 -26]
    1012              
    1013              $C$DW$114       .dwtag  DW_TAG_formal_parameter
    1014                      .dwattr $C$DW$114, DW_AT_name("flag_enableSpeedCtrl")
    1015                      .dwattr $C$DW$114, DW_AT_TI_symbol_name("_flag_enableSpeedCtrl")
    1016                      .dwattr $C$DW$114, DW_AT_type(*$C$DW$T$73)
    1017                      .dwattr $C$DW$114, DW_AT_location[DW_OP_breg20 -27]
    1018              
    1019              $C$DW$115       .dwtag  DW_TAG_formal_parameter
    1020                      .dwattr $C$DW$115, DW_AT_name("flag_enableCurrentCtrl")
    1021                      .dwattr $C$DW$115, DW_AT_TI_symbol_name("_flag_enableCurrentCtrl")
    1022                      .dwattr $C$DW$115, DW_AT_type(*$C$DW$T$73)
    1023                      .dwattr $C$DW$115, DW_AT_location[DW_OP_breg20 -28]
    1024              
    1025              
    1026              ;***************************************************************
    1027              ;* FNAME: _CTRL_setup_user              FR SIZE:  16           *
    1028              ;*                                                             *
    1029              ;* FUNCTION ENVIRONMENT                                        *
    1030              ;*                                                             *
    1031              ;* FUNCTION PROPERTIES                                         *
    1032              ;*                            0 Parameter, 10 Auto,  6 SOE     *
    1033              ;***************************************************************
    1034              
    1035              _CTRL_setup_user:
    1036              ;* AR1   assigned to _handle
    1037              $C$DW$116       .dwtag  DW_TAG_variable
    1038                      .dwattr $C$DW$116, DW_AT_name("handle")
    1039                      .dwattr $C$DW$116, DW_AT_TI_symbol_name("_handle")
    1040                      .dwattr $C$DW$116, DW_AT_type(*$C$DW$T$185)
    1041                      .dwattr $C$DW$116, DW_AT_location[DW_OP_reg6]
    1042              
    1043              $C$DW$117       .dwtag  DW_TAG_variable
    1044                      .dwattr $C$DW$117, DW_AT_name("angle_pu")
    1045                      .dwattr $C$DW$117, DW_AT_TI_symbol_name("_angle_pu")
    1046                      .dwattr $C$DW$117, DW_AT_type(*$C$DW$T$235)
    1047                      .dwattr $C$DW$117, DW_AT_location[DW_OP_breg20 -4]
    1048              
    1049              ;* AR2   assigned to _speed_ref_pu
    1050              $C$DW$118       .dwtag  DW_TAG_variable
    1051                      .dwattr $C$DW$118, DW_AT_name("speed_ref_pu")
    1052                      .dwattr $C$DW$118, DW_AT_TI_symbol_name("_speed_ref_pu")
    1053                      .dwattr $C$DW$118, DW_AT_type(*$C$DW$T$235)
    1054                      .dwattr $C$DW$118, DW_AT_location[DW_OP_reg8]
    1055              
    1056              $C$DW$119       .dwtag  DW_TAG_variable
    1057                      .dwattr $C$DW$119, DW_AT_name("speed_fb_pu")
    1058                      .dwattr $C$DW$119, DW_AT_TI_symbol_name("_speed_fb_pu")
    1059                      .dwattr $C$DW$119, DW_AT_type(*$C$DW$T$235)
    1060                      .dwattr $C$DW$119, DW_AT_location[DW_OP_breg20 -6]
TMS320C2000 Assembler PC v22.6.0 Tue Apr 18 11:09:46 2023

Copyright (c) 1996-2018 Texas Instruments Incorporated
C:\Users\User\AppData\Local\Temp\{F169EDD6-E2A2-400A-8386-A823CBD75D49} PAGE   21

    1061              
    1062              $C$DW$120       .dwtag  DW_TAG_variable
    1063                      .dwattr $C$DW$120, DW_AT_name("speed_outMax_pu")
    1064                      .dwattr $C$DW$120, DW_AT_TI_symbol_name("_speed_outMax_pu")
    1065                      .dwattr $C$DW$120, DW_AT_type(*$C$DW$T$235)
    1066                      .dwattr $C$DW$120, DW_AT_location[DW_OP_breg20 -8]
    1067              
    1068              $C$DW$121       .dwtag  DW_TAG_variable
    1069                      .dwattr $C$DW$121, DW_AT_name("pIdq_offset_pu")
    1070                      .dwattr $C$DW$121, DW_AT_TI_symbol_name("_pIdq_offset_pu")
    1071                      .dwattr $C$DW$121, DW_AT_type(*$C$DW$T$208)
    1072                      .dwattr $C$DW$121, DW_AT_location[DW_OP_breg20 -10]
    1073              
    1074              ;* AR3   assigned to _pVdq_offset_pu
    1075              $C$DW$122       .dwtag  DW_TAG_variable
    1076                      .dwattr $C$DW$122, DW_AT_name("pVdq_offset_pu")
    1077                      .dwattr $C$DW$122, DW_AT_TI_symbol_name("_pVdq_offset_pu")
    1078                      .dwattr $C$DW$122, DW_AT_type(*$C$DW$T$208)
    1079                      .dwattr $C$DW$122, DW_AT_location[DW_OP_reg10]
    1080              
    1081              $C$DW$123       .dwtag  DW_TAG_variable
    1082                      .dwattr $C$DW$123, DW_AT_name("flag_enableSpeedCtrl")
    1083                      .dwattr $C$DW$123, DW_AT_TI_symbol_name("_flag_enableSpeedCtrl")
    1084                      .dwattr $C$DW$123, DW_AT_type(*$C$DW$T$270)
    1085                      .dwattr $C$DW$123, DW_AT_location[DW_OP_breg20 -1]
    1086              
    1087              $C$DW$124       .dwtag  DW_TAG_variable
    1088                      .dwattr $C$DW$124, DW_AT_name("flag_enableCurrentCtrl")
    1089                      .dwattr $C$DW$124, DW_AT_TI_symbol_name("_flag_enableCurrentCtrl")
    1090                      .dwattr $C$DW$124, DW_AT_type(*$C$DW$T$270)
    1091                      .dwattr $C$DW$124, DW_AT_location[DW_OP_breg20 -2]
    1092              
    1093              ;* AR6   assigned to _ctrlState
    1094              $C$DW$125       .dwtag  DW_TAG_variable
    1095                      .dwattr $C$DW$125, DW_AT_name("ctrlState")
    1096                      .dwattr $C$DW$125, DW_AT_TI_symbol_name("_ctrlState")
    1097                      .dwattr $C$DW$125, DW_AT_type(*$C$DW$T$41)
    1098                      .dwattr $C$DW$125, DW_AT_location[DW_OP_reg16]
    1099              
    1100              ;* PL    assigned to _count_traj
    1101              $C$DW$126       .dwtag  DW_TAG_variable
    1102                      .dwattr $C$DW$126, DW_AT_name("count_traj")
    1103                      .dwattr $C$DW$126, DW_AT_TI_symbol_name("_count_traj")
    1104                      .dwattr $C$DW$126, DW_AT_type(*$C$DW$T$70)
    1105                      .dwattr $C$DW$126, DW_AT_location[DW_OP_reg2]
    1106              
    1107              ;* AR7   assigned to _numCtrlTicksPerTrajTick
    1108              $C$DW$127       .dwtag  DW_TAG_variable
    1109                      .dwattr $C$DW$127, DW_AT_name("numCtrlTicksPerTrajTick")
    1110                      .dwattr $C$DW$127, DW_AT_TI_symbol_name("_numCtrlTicksPerTrajTick")
    1111                      .dwattr $C$DW$127, DW_AT_type(*$C$DW$T$70)
    1112                      .dwattr $C$DW$127, DW_AT_location[DW_OP_reg18]
    1113              
    1114                      .dwcfi  cfa_offset, -2
    1115                      .dwcfi  save_reg_to_mem, 26, 0
TMS320C2000 Assembler PC v22.6.0 Tue Apr 18 11:09:46 2023

Copyright (c) 1996-2018 Texas Instruments Incorporated
C:\Users\User\AppData\Local\Temp\{F169EDD6-E2A2-400A-8386-A823CBD75D49} PAGE   22

    1116 000000b3 B2BD          MOVL      *SP++,XAR1            ; [CPU_ALU] 
    1117                      .dwcfi  save_reg_to_mem, 7, 2
    1118                      .dwcfi  cfa_offset, -4
    1119 000000b4 AABD          MOVL      *SP++,XAR2            ; [CPU_ALU] 
    1120                      .dwcfi  save_reg_to_mem, 9, 4
    1121                      .dwcfi  cfa_offset, -6
    1122 000000b5 A2BD          MOVL      *SP++,XAR3            ; [CPU_ALU] 
    1123                      .dwcfi  save_reg_to_mem, 11, 6
    1124                      .dwcfi  cfa_offset, -8
    1125 000000b6 FE0A          ADDB      SP,#10                ; [CPU_ARAU] 
    1126                      .dwcfi  cfa_offset, -18
    1127 000000b7 1E44          MOVL      *-SP[4],ACC           ; [CPU_ALU] |534| 
    1128                      .dwpsn  file "D:/GIANT/GIANT_TI_instaspin/TI_instaspin_indoor_smart_trainer/motorware/motorware_1_01_
    1129 000000b8 D0EF          MOVB      XAR0,#239             ; [CPU_ALU] |144| 
    1130                      .dwpsn  file "D:/GIANT/GIANT_TI_instaspin/TI_instaspin_indoor_smart_trainer/motorware/motorware_1_01_
    1131 000000b9 8BA4          MOVL      XAR1,XAR4             ; [CPU_ALU] |534| 
    1132 000000ba A04A          MOVL      *-SP[10],XAR5         ; [CPU_ALU] |534| 
    1133 000000bb 925C          MOV       AL,*-SP[28]           ; [CPU_ALU] |534| 
    1134 000000bc 825A          MOVL      XAR3,*-SP[26]         ; [CPU_ALU] |534| 
    1135 000000bd 8654          MOVL      XAR2,*-SP[20]         ; [CPU_ALU] |534| 
    1136 000000be 9642          MOV       *-SP[2],AL            ; [CPU_ALU] |534| 
    1137 000000bf 925B          MOV       AL,*-SP[27]           ; [CPU_ALU] |534| 
    1138 000000c0 9641          MOV       *-SP[1],AL            ; [CPU_ALU] |534| 
    1139 000000c1 0658          MOVL      ACC,*-SP[24]          ; [CPU_ALU] |534| 
    1140 000000c2 1E48          MOVL      *-SP[8],ACC           ; [CPU_ALU] |534| 
    1141 000000c3 0656          MOVL      ACC,*-SP[22]          ; [CPU_ALU] |534| 
    1142 000000c4 1E46          MOVL      *-SP[6],ACC           ; [CPU_ALU] |534| 
    1143 000000c5 A8A9          MOVL      ACC,XAR4              ; [CPU_ALU] |534| 
    1144                      .dwpsn  file "D:/GIANT/GIANT_TI_instaspin/TI_instaspin_indoor_smart_trainer/motorware/motorware_1_01_
    1145 000000c6 099A          ADDB      ACC,#154              ; [CPU_ALU] |1014| 
    1146 000000c7 8AA9          MOVL      XAR4,ACC              ; [CPU_ALU] |1014| 
    1147                      .dwpsn  file "D:/GIANT/GIANT_TI_instaspin/TI_instaspin_indoor_smart_trainer/motorware/motorware_1_01_
    1148 000000c8 2791          MOV       PL,*+XAR1[AR0]        ; [CPU_ALU] |144| 
    1149                      .dwpsn  file "D:/GIANT/GIANT_TI_instaspin/TI_instaspin_indoor_smart_trainer/motorware/motorware_1_01_
    1150 000000c9 88E1          MOVZ      AR6,*+XAR1[4]         ; [CPU_ALU] |772| 
    1151                      .dwpsn  file "D:/GIANT/GIANT_TI_instaspin/TI_instaspin_indoor_smart_trainer/motorware/motorware_1_01_
    1152 000000ca D09F          MOVB      XAR0,#159             ; [CPU_ALU] |607| 
    1153                      .dwpsn  file "D:/GIANT/GIANT_TI_instaspin/TI_instaspin_indoor_smart_trainer/motorware/motorware_1_01_
    1154 000000cb 0201          MOVB      ACC,#1                ; [CPU_ALU] |1014| 
    1155                      .dwpsn  file "D:/GIANT/GIANT_TI_instaspin/TI_instaspin_indoor_smart_trainer/motorware/motorware_1_01_
    1156 000000cc 8091          MOVZ      AR7,*+XAR1[AR0]       ; [CPU_ALU] |607| 
    1157                      .dwpsn  file "D:/GIANT/GIANT_TI_instaspin/TI_instaspin_indoor_smart_trainer/motorware/motorware_1_01_
    1158 000000cd 5601          ADDL      *+XAR4[0],ACC         ; [CPU_ALU] |1014| 
         000000ce 00C4 
    1159                      .dwpsn  file "D:/GIANT/GIANT_TI_instaspin/TI_instaspin_indoor_smart_trainer/motorware/motorware_1_01_
    1160 000000cf B2A9          MOVL      ACC,XAR1              ; [CPU_ALU] |1032| 
    1161 000000d0 09EF          ADDB      ACC,#239              ; [CPU_ALU] |1032| 
    1162 000000d1 8AA9          MOVL      XAR4,ACC              ; [CPU_ALU] |1032| 
    1163 000000d2 92A6          MOV       AL,AR6                ; [CPU_ALU] |1032| 
    1164 000000d3 0AC4          INC       *+XAR4[0]             ; [CPU_ALU] |1032| 
    1165                      .dwpsn  file "D:/GIANT/GIANT_TI_instaspin/TI_instaspin_indoor_smart_trainer/motorware/motorware_1_01_
    1166 000000d4 5203          CMPB      AL,#3                 ; [CPU_ALU] |547| 
    1167 000000d5 6009          B         $C$L13,NEQ            ; [CPU_ALU] |547| 
    1168                      ; branchcc occurs ; [] |547| 
    1169                      .dwpsn  file "D:/GIANT/GIANT_TI_instaspin/TI_instaspin_indoor_smart_trainer/motorware/motorware_1_01_
TMS320C2000 Assembler PC v22.6.0 Tue Apr 18 11:09:46 2023

Copyright (c) 1996-2018 Texas Instruments Incorporated
C:\Users\User\AppData\Local\Temp\{F169EDD6-E2A2-400A-8386-A823CBD75D49} PAGE   23

    1170 000000d6 B2A9          MOVL      ACC,XAR1              ; [CPU_ALU] |960| 
    1171 000000d7 09EC          ADDB      ACC,#236              ; [CPU_ALU] |960| 
    1172 000000d8 8AA9          MOVL      XAR4,ACC              ; [CPU_ALU] |960| 
    1173                      .dwpsn  file "D:/GIANT/GIANT_TI_instaspin/TI_instaspin_indoor_smart_trainer/motorware/motorware_1_01_
    1174 000000d9 B2A9          MOVL      ACC,XAR1              ; [CPU_ALU] |996| 
    1175                      .dwpsn  file "D:/GIANT/GIANT_TI_instaspin/TI_instaspin_indoor_smart_trainer/motorware/motorware_1_01_
    1176 000000da 0AC4          INC       *+XAR4[0]             ; [CPU_ALU] |960| 
    1177                      .dwpsn  file "D:/GIANT/GIANT_TI_instaspin/TI_instaspin_indoor_smart_trainer/motorware/motorware_1_01_
    1178 000000db 09EE          ADDB      ACC,#238              ; [CPU_ALU] |996| 
    1179 000000dc 8AA9          MOVL      XAR4,ACC              ; [CPU_ALU] |996| 
    1180 000000dd 0AC4          INC       *+XAR4[0]             ; [CPU_ALU] |996| 
    1181 000000de       $C$L13:    
    1182 000000de 92A7          MOV       AL,AR7                ; [CPU_ALU] 
    1183                      .dwpsn  file "D:/GIANT/GIANT_TI_instaspin/TI_instaspin_indoor_smart_trainer/motorware/motorware_1_01_
    1184 000000df 54AB          CMP       AL,PL                 ; [CPU_ALU] |557| 
    1185 000000e0 6606          B         $C$L14,HI             ; [CPU_ALU] |557| 
    1186                      ; branchcc occurs ; [] |557| 
    1187                      .dwpsn  file "D:/GIANT/GIANT_TI_instaspin/TI_instaspin_indoor_smart_trainer/motorware/motorware_1_01_
    1188 000000e1 D0EF          MOVB      XAR0,#239             ; [CPU_ALU] |1124| 
    1189                      .dwpsn  file "D:/GIANT/GIANT_TI_instaspin/TI_instaspin_indoor_smart_trainer/motorware/motorware_1_01_
    1190 000000e2 8AA1          MOVL      XAR4,XAR1             ; [CPU_ALU] |563| 
    1191                      .dwpsn  file "D:/GIANT/GIANT_TI_instaspin/TI_instaspin_indoor_smart_trainer/motorware/motorware_1_01_
    1192 000000e3 2B91          MOV       *+XAR1[AR0],#0        ; [CPU_ALU] |1124| 
    1193                      .dwpsn  file "D:/GIANT/GIANT_TI_instaspin/TI_instaspin_indoor_smart_trainer/motorware/motorware_1_01_
    1194              $C$DW$128       .dwtag  DW_TAG_TI_branch
    1195                      .dwattr $C$DW$128, DW_AT_low_pc(0x00)
    1196                      .dwattr $C$DW$128, DW_AT_name("_CTRL_runTraj")
    1197                      .dwattr $C$DW$128, DW_AT_TI_call
    1198              
    1199 000000e4 7640!         LCR       #_CTRL_runTraj        ; [CPU_ALU] |563| 
         000000e5 0000 
    1200                      ; call occurs [#_CTRL_runTraj] ; [] |563| 
    1201 000000e6       $C$L14:    
    1202                      .dwpsn  file "D:/GIANT/GIANT_TI_instaspin/TI_instaspin_indoor_smart_trainer/motorware/motorware_1_01_
    1203 000000e6 D0FE          MOVB      XAR0,#254             ; [CPU_ALU] |1155| 
    1204 000000e7 0644          MOVL      ACC,*-SP[4]           ; [CPU_ALU] |1155| 
    1205 000000e8 1E91          MOVL      *+XAR1[AR0],ACC       ; [CPU_ALU] |1155| 
    1206                      .dwpsn  file "D:/GIANT/GIANT_TI_instaspin/TI_instaspin_indoor_smart_trainer/motorware/motorware_1_01_
    1207 000000e9 8D00          MOVL      XAR0,#256             ; [CPU_ALU] |1754| 
         000000ea 0100 
    1208 000000eb AA91          MOVL      *+XAR1[AR0],XAR2      ; [CPU_ALU] |1754| 
    1209                      .dwpsn  file "D:/GIANT/GIANT_TI_instaspin/TI_instaspin_indoor_smart_trainer/motorware/motorware_1_01_
    1210 000000ec 8D00          MOVL      XAR0,#258             ; [CPU_ALU] |1702| 
         000000ed 0102 
    1211 000000ee 0646          MOVL      ACC,*-SP[6]           ; [CPU_ALU] |1702| 
    1212 000000ef 1E91          MOVL      *+XAR1[AR0],ACC       ; [CPU_ALU] |1702| 
    1213                      .dwpsn  file "D:/GIANT/GIANT_TI_instaspin/TI_instaspin_indoor_smart_trainer/motorware/motorware_1_01_
    1214 000000f0 8D00          MOVL      XAR0,#260             ; [CPU_ALU] |1741| 
         000000f1 0104 
    1215 000000f2 0648          MOVL      ACC,*-SP[8]           ; [CPU_ALU] |1741| 
    1216 000000f3 1E91          MOVL      *+XAR1[AR0],ACC       ; [CPU_ALU] |1741| 
    1217                      .dwpsn  file "D:/GIANT/GIANT_TI_instaspin/TI_instaspin_indoor_smart_trainer/motorware/motorware_1_01_
    1218 000000f4 8A4A          MOVL      XAR4,*-SP[10]         ; [CPU_ALU] |1375| 
    1219 000000f5 D0F6          MOVB      XAR0,#246             ; [CPU_ALU] |1375| 
    1220 000000f6 06C4          MOVL      ACC,*+XAR4[0]         ; [CPU_ALU] |1375| 
TMS320C2000 Assembler PC v22.6.0 Tue Apr 18 11:09:46 2023

Copyright (c) 1996-2018 Texas Instruments Incorporated
C:\Users\User\AppData\Local\Temp\{F169EDD6-E2A2-400A-8386-A823CBD75D49} PAGE   24

    1221 000000f7 1E91          MOVL      *+XAR1[AR0],ACC       ; [CPU_ALU] |1375| 
    1222                      .dwpsn  file "D:/GIANT/GIANT_TI_instaspin/TI_instaspin_indoor_smart_trainer/motorware/motorware_1_01_
    1223 000000f8 D0F8          MOVB      XAR0,#248             ; [CPU_ALU] |1376| 
    1224 000000f9 06D4          MOVL      ACC,*+XAR4[2]         ; [CPU_ALU] |1376| 
    1225 000000fa 1E91          MOVL      *+XAR1[AR0],ACC       ; [CPU_ALU] |1376| 
    1226                      .dwpsn  file "D:/GIANT/GIANT_TI_instaspin/TI_instaspin_indoor_smart_trainer/motorware/motorware_1_01_
    1227 000000fb D0FA          MOVB      XAR0,#250             ; [CPU_ALU] |1915| 
    1228 000000fc 06C3          MOVL      ACC,*+XAR3[0]         ; [CPU_ALU] |1915| 
    1229 000000fd 1E91          MOVL      *+XAR1[AR0],ACC       ; [CPU_ALU] |1915| 
    1230                      .dwpsn  file "D:/GIANT/GIANT_TI_instaspin/TI_instaspin_indoor_smart_trainer/motorware/motorware_1_01_
    1231 000000fe D0FC          MOVB      XAR0,#252             ; [CPU_ALU] |1916| 
    1232 000000ff 06D3          MOVL      ACC,*+XAR3[2]         ; [CPU_ALU] |1916| 
    1233 00000100 1E91          MOVL      *+XAR1[AR0],ACC       ; [CPU_ALU] |1916| 
    1234                      .dwpsn  file "D:/GIANT/GIANT_TI_instaspin/TI_instaspin_indoor_smart_trainer/motorware/motorware_1_01_
    1235 00000101 D0F4          MOVB      XAR0,#244             ; [CPU_ALU] |1289| 
    1236 00000102 9241          MOV       AL,*-SP[1]            ; [CPU_ALU] |1289| 
    1237 00000103 9691          MOV       *+XAR1[AR0],AL        ; [CPU_ALU] |1289| 
    1238                      .dwpsn  file "D:/GIANT/GIANT_TI_instaspin/TI_instaspin_indoor_smart_trainer/motorware/motorware_1_01_
    1239 00000104 9242          MOV       AL,*-SP[2]            ; [CPU_ALU] |1232| 
    1240 00000105 8D00          MOVL      XAR0,#262             ; [CPU_ALU] |1232| 
         00000106 0106 
    1241 00000107 9691          MOV       *+XAR1[AR0],AL        ; [CPU_ALU] |1232| 
    1242 00000108 FE8A          SUBB      SP,#10                ; [CPU_ARAU] 
    1243                      .dwcfi  cfa_offset, -8
    1244 00000109 82BE          MOVL      XAR3,*--SP            ; [CPU_ALU] 
    1245                      .dwcfi  cfa_offset, -6
    1246                      .dwcfi  restore_reg, 11
    1247 0000010a 86BE          MOVL      XAR2,*--SP            ; [CPU_ALU] 
    1248                      .dwcfi  cfa_offset, -4
    1249                      .dwcfi  restore_reg, 9
    1250 0000010b 8BBE          MOVL      XAR1,*--SP            ; [CPU_ALU] 
    1251                      .dwcfi  cfa_offset, -2
    1252                      .dwcfi  restore_reg, 7
    1253              $C$DW$129       .dwtag  DW_TAG_TI_branch
    1254                      .dwattr $C$DW$129, DW_AT_low_pc(0x00)
    1255                      .dwattr $C$DW$129, DW_AT_TI_return
    1256              
    1257 0000010c 0006          LRETR     ; [CPU_ALU] 
    1258                      ; return occurs ; [] 
    1259                      .dwattr $C$DW$106, DW_AT_TI_end_file("D:/GIANT/GIANT_TI_instaspin/TI_instaspin_indoor_smart_trainer/m
    1260                      .dwattr $C$DW$106, DW_AT_TI_end_line(0x242)
    1261                      .dwattr $C$DW$106, DW_AT_TI_end_column(0x01)
    1262                      .dwendentry
    1263                      .dwendtag $C$DW$106
    1264              
    1265 0000010d               .sect   ".text"
    1266                      .clink
    1267                      .global _CTRL_setupClarke_V
    1268              
    1269              $C$DW$130       .dwtag  DW_TAG_subprogram
    1270                      .dwattr $C$DW$130, DW_AT_name("CTRL_setupClarke_V")
    1271                      .dwattr $C$DW$130, DW_AT_low_pc(_CTRL_setupClarke_V)
    1272                      .dwattr $C$DW$130, DW_AT_high_pc(0x00)
    1273                      .dwattr $C$DW$130, DW_AT_TI_symbol_name("_CTRL_setupClarke_V")
    1274                      .dwattr $C$DW$130, DW_AT_external
TMS320C2000 Assembler PC v22.6.0 Tue Apr 18 11:09:46 2023

Copyright (c) 1996-2018 Texas Instruments Incorporated
C:\Users\User\AppData\Local\Temp\{F169EDD6-E2A2-400A-8386-A823CBD75D49} PAGE   25

    1275                      .dwattr $C$DW$130, DW_AT_TI_begin_file("D:/GIANT/GIANT_TI_instaspin/TI_instaspin_indoor_smart_trainer
    1276                      .dwattr $C$DW$130, DW_AT_TI_begin_line(0x1f8)
    1277                      .dwattr $C$DW$130, DW_AT_TI_begin_column(0x06)
    1278                      .dwattr $C$DW$130, DW_AT_TI_max_frame_size(-2)
    1279                      .dwpsn  file "D:/GIANT/GIANT_TI_instaspin/TI_instaspin_indoor_smart_trainer/motorware/motorware_1_01_
    1280              
    1281                      .dwfde $C$DW$CIE, _CTRL_setupClarke_V
    1282              $C$DW$131       .dwtag  DW_TAG_formal_parameter
    1283                      .dwattr $C$DW$131, DW_AT_name("handle")
    1284                      .dwattr $C$DW$131, DW_AT_TI_symbol_name("_handle")
    1285                      .dwattr $C$DW$131, DW_AT_type(*$C$DW$T$172)
    1286                      .dwattr $C$DW$131, DW_AT_location[DW_OP_reg12]
    1287              
    1288              $C$DW$132       .dwtag  DW_TAG_formal_parameter
    1289                      .dwattr $C$DW$132, DW_AT_name("numVoltageSensors")
    1290                      .dwattr $C$DW$132, DW_AT_TI_symbol_name("_numVoltageSensors")
    1291                      .dwattr $C$DW$132, DW_AT_type(*$C$DW$T$34)
    1292                      .dwattr $C$DW$132, DW_AT_location[DW_OP_reg0]
    1293              
    1294              
    1295              ;***************************************************************
    1296              ;* FNAME: _CTRL_setupClarke_V           FR SIZE:   0           *
    1297              ;*                                                             *
    1298              ;* FUNCTION ENVIRONMENT                                        *
    1299              ;*                                                             *
    1300              ;* FUNCTION PROPERTIES                                         *
    1301              ;*                            0 Parameter,  0 Auto,  0 SOE     *
    1302              ;***************************************************************
    1303              
    1304              _CTRL_setupClarke_V:
    1305              ;* AR4   assigned to _handle
    1306              $C$DW$133       .dwtag  DW_TAG_variable
    1307                      .dwattr $C$DW$133, DW_AT_name("handle")
    1308                      .dwattr $C$DW$133, DW_AT_TI_symbol_name("_handle")
    1309                      .dwattr $C$DW$133, DW_AT_type(*$C$DW$T$185)
    1310                      .dwattr $C$DW$133, DW_AT_location[DW_OP_reg12]
    1311              
    1312              ;* AL    assigned to _numVoltageSensors
    1313              $C$DW$134       .dwtag  DW_TAG_variable
    1314                      .dwattr $C$DW$134, DW_AT_name("numVoltageSensors")
    1315                      .dwattr $C$DW$134, DW_AT_TI_symbol_name("_numVoltageSensors")
    1316                      .dwattr $C$DW$134, DW_AT_type(*$C$DW$T$233)
    1317                      .dwattr $C$DW$134, DW_AT_location[DW_OP_reg0]
    1318              
    1319              ;* AR6   assigned to _alpha_sf
    1320              $C$DW$135       .dwtag  DW_TAG_variable
    1321                      .dwattr $C$DW$135, DW_AT_name("alpha_sf")
    1322                      .dwattr $C$DW$135, DW_AT_TI_symbol_name("_alpha_sf")
    1323                      .dwattr $C$DW$135, DW_AT_type(*$C$DW$T$32)
    1324                      .dwattr $C$DW$135, DW_AT_location[DW_OP_reg16]
    1325              
    1326              ;* PL    assigned to _beta_sf
    1327              $C$DW$136       .dwtag  DW_TAG_variable
    1328                      .dwattr $C$DW$136, DW_AT_name("beta_sf")
    1329                      .dwattr $C$DW$136, DW_AT_TI_symbol_name("_beta_sf")
TMS320C2000 Assembler PC v22.6.0 Tue Apr 18 11:09:46 2023

Copyright (c) 1996-2018 Texas Instruments Incorporated
C:\Users\User\AppData\Local\Temp\{F169EDD6-E2A2-400A-8386-A823CBD75D49} PAGE   26

    1330                      .dwattr $C$DW$136, DW_AT_type(*$C$DW$T$32)
    1331                      .dwattr $C$DW$136, DW_AT_location[DW_OP_reg2]
    1332              
    1333              ;* AR5   assigned to _handle
    1334              $C$DW$137       .dwtag  DW_TAG_variable
    1335                      .dwattr $C$DW$137, DW_AT_name("handle")
    1336                      .dwattr $C$DW$137, DW_AT_TI_symbol_name("_handle")
    1337                      .dwattr $C$DW$137, DW_AT_type(*$C$DW$T$45)
    1338                      .dwattr $C$DW$137, DW_AT_location[DW_OP_reg14]
    1339              
    1340                      .dwcfi  cfa_offset, -2
    1341                      .dwcfi  save_reg_to_mem, 26, 0
    1342                      .dwpsn  file "D:/GIANT/GIANT_TI_instaspin/TI_instaspin_indoor_smart_trainer/motorware/motorware_1_01_
    1343 0000010d 5203          CMPB      AL,#3                 ; [CPU_ALU] |510| 
    1344 0000010e 6104          B         $C$L15,EQ             ; [CPU_ALU] |510| 
    1345                      ; branchcc occurs ; [] |510| 
    1346                      .dwpsn  file "D:/GIANT/GIANT_TI_instaspin/TI_instaspin_indoor_smart_trainer/motorware/motorware_1_01_
    1347 0000010f BE00          MOVB      XAR6,#0               ; [CPU_ALU] |517| 
    1348                      .dwpsn  file "D:/GIANT/GIANT_TI_instaspin/TI_instaspin_indoor_smart_trainer/motorware/motorware_1_01_
    1349 00000110 3100          MOV       P,#0                  ; [CPU_ALU] |518| 
    1350 00000111 6F0A          B         $C$L16,UNC            ; [CPU_ALU] |518| 
    1351                      ; branch occurs ; [] |518| 
    1352 00000112       $C$L15:    
    1353                      .dwpsn  file "D:/GIANT/GIANT_TI_instaspin/TI_instaspin_indoor_smart_trainer/motorware/motorware_1_01_
    1354 00000112 28AB          MOV       PL,#21845             ; [CPU_ALU] |512| 
         00000113 5555 
    1355 00000114 28AA          MOV       PH,#85                ; [CPU_ALU] |512| 
         00000115 0055 
    1356 00000116 A9A6          MOVL      XAR6,P                ; [CPU_ALU] |512| 
    1357                      .dwpsn  file "D:/GIANT/GIANT_TI_instaspin/TI_instaspin_indoor_smart_trainer/motorware/motorware_1_01_
    1358 00000117 28AB          MOV       PL,#52538             ; [CPU_ALU] |513| 
         00000118 CD3A 
    1359 00000119 28AA          MOV       PH,#147               ; [CPU_ALU] |513| 
         0000011a 0093 
    1360 0000011b       $C$L16:    
    1361                      .dwpsn  file "D:/GIANT/GIANT_TI_instaspin/TI_instaspin_indoor_smart_trainer/motorware/motorware_1_01_
    1362 0000011b D010          MOVB      XAR0,#16              ; [CPU_ALU] |181| 
    1363 0000011c 8394          MOVL      XAR5,*+XAR4[AR0]      ; [CPU_ALU] |181| 
    1364                      .dwpsn  file "D:/GIANT/GIANT_TI_instaspin/TI_instaspin_indoor_smart_trainer/motorware/motorware_1_01_
    1365 0000011d D010          MOVB      XAR0,#16              ; [CPU_ALU] |170| 
    1366                      .dwpsn  file "D:/GIANT/GIANT_TI_instaspin/TI_instaspin_indoor_smart_trainer/motorware/motorware_1_01_
    1367 0000011e C2C5          MOVL      *+XAR5[0],XAR6        ; [CPU_ALU] |185| 
    1368                      .dwpsn  file "D:/GIANT/GIANT_TI_instaspin/TI_instaspin_indoor_smart_trainer/motorware/motorware_1_01_
    1369 0000011f A9D5          MOVL      *+XAR5[2],P           ; [CPU_ALU] |186| 
    1370                      .dwpsn  file "D:/GIANT/GIANT_TI_instaspin/TI_instaspin_indoor_smart_trainer/motorware/motorware_1_01_
    1371 00000120 8A94          MOVL      XAR4,*+XAR4[AR0]      ; [CPU_ALU] |170| 
    1372 00000121 96E4          MOV       *+XAR4[4],AL          ; [CPU_ALU] |170| 
    1373              $C$DW$138       .dwtag  DW_TAG_TI_branch
    1374                      .dwattr $C$DW$138, DW_AT_low_pc(0x00)
    1375                      .dwattr $C$DW$138, DW_AT_TI_return
    1376              
    1377 00000122 0006          LRETR     ; [CPU_ALU] 
    1378                      ; return occurs ; [] 
    1379                      .dwattr $C$DW$130, DW_AT_TI_end_file("D:/GIANT/GIANT_TI_instaspin/TI_instaspin_indoor_smart_trainer/m
    1380                      .dwattr $C$DW$130, DW_AT_TI_end_line(0x20e)
TMS320C2000 Assembler PC v22.6.0 Tue Apr 18 11:09:46 2023

Copyright (c) 1996-2018 Texas Instruments Incorporated
C:\Users\User\AppData\Local\Temp\{F169EDD6-E2A2-400A-8386-A823CBD75D49} PAGE   27

    1381                      .dwattr $C$DW$130, DW_AT_TI_end_column(0x01)
    1382                      .dwendentry
    1383                      .dwendtag $C$DW$130
    1384              
    1385 00000123               .sect   ".text"
    1386                      .clink
    1387                      .global _CTRL_setupClarke_I
    1388              
    1389              $C$DW$139       .dwtag  DW_TAG_subprogram
    1390                      .dwattr $C$DW$139, DW_AT_name("CTRL_setupClarke_I")
    1391                      .dwattr $C$DW$139, DW_AT_low_pc(_CTRL_setupClarke_I)
    1392                      .dwattr $C$DW$139, DW_AT_high_pc(0x00)
    1393                      .dwattr $C$DW$139, DW_AT_TI_symbol_name("_CTRL_setupClarke_I")
    1394                      .dwattr $C$DW$139, DW_AT_external
    1395                      .dwattr $C$DW$139, DW_AT_TI_begin_file("D:/GIANT/GIANT_TI_instaspin/TI_instaspin_indoor_smart_trainer
    1396                      .dwattr $C$DW$139, DW_AT_TI_begin_line(0x1db)
    1397                      .dwattr $C$DW$139, DW_AT_TI_begin_column(0x06)
    1398                      .dwattr $C$DW$139, DW_AT_TI_max_frame_size(-2)
    1399                      .dwpsn  file "D:/GIANT/GIANT_TI_instaspin/TI_instaspin_indoor_smart_trainer/motorware/motorware_1_01_
    1400              
    1401                      .dwfde $C$DW$CIE, _CTRL_setupClarke_I
    1402              $C$DW$140       .dwtag  DW_TAG_formal_parameter
    1403                      .dwattr $C$DW$140, DW_AT_name("handle")
    1404                      .dwattr $C$DW$140, DW_AT_TI_symbol_name("_handle")
    1405                      .dwattr $C$DW$140, DW_AT_type(*$C$DW$T$172)
    1406                      .dwattr $C$DW$140, DW_AT_location[DW_OP_reg12]
    1407              
    1408              $C$DW$141       .dwtag  DW_TAG_formal_parameter
    1409                      .dwattr $C$DW$141, DW_AT_name("numCurrentSensors")
    1410                      .dwattr $C$DW$141, DW_AT_TI_symbol_name("_numCurrentSensors")
    1411                      .dwattr $C$DW$141, DW_AT_type(*$C$DW$T$34)
    1412                      .dwattr $C$DW$141, DW_AT_location[DW_OP_reg0]
    1413              
    1414              
    1415              ;***************************************************************
    1416              ;* FNAME: _CTRL_setupClarke_I           FR SIZE:   0           *
    1417              ;*                                                             *
    1418              ;* FUNCTION ENVIRONMENT                                        *
    1419              ;*                                                             *
    1420              ;* FUNCTION PROPERTIES                                         *
    1421              ;*                            0 Parameter,  0 Auto,  0 SOE     *
    1422              ;***************************************************************
    1423              
    1424              _CTRL_setupClarke_I:
    1425              ;* AR4   assigned to _handle
    1426              $C$DW$142       .dwtag  DW_TAG_variable
    1427                      .dwattr $C$DW$142, DW_AT_name("handle")
    1428                      .dwattr $C$DW$142, DW_AT_TI_symbol_name("_handle")
    1429                      .dwattr $C$DW$142, DW_AT_type(*$C$DW$T$185)
    1430                      .dwattr $C$DW$142, DW_AT_location[DW_OP_reg12]
    1431              
    1432              ;* AL    assigned to _numCurrentSensors
    1433              $C$DW$143       .dwtag  DW_TAG_variable
    1434                      .dwattr $C$DW$143, DW_AT_name("numCurrentSensors")
    1435                      .dwattr $C$DW$143, DW_AT_TI_symbol_name("_numCurrentSensors")
TMS320C2000 Assembler PC v22.6.0 Tue Apr 18 11:09:46 2023

Copyright (c) 1996-2018 Texas Instruments Incorporated
C:\Users\User\AppData\Local\Temp\{F169EDD6-E2A2-400A-8386-A823CBD75D49} PAGE   28

    1436                      .dwattr $C$DW$143, DW_AT_type(*$C$DW$T$233)
    1437                      .dwattr $C$DW$143, DW_AT_location[DW_OP_reg0]
    1438              
    1439              ;* AR6   assigned to _alpha_sf
    1440              $C$DW$144       .dwtag  DW_TAG_variable
    1441                      .dwattr $C$DW$144, DW_AT_name("alpha_sf")
    1442                      .dwattr $C$DW$144, DW_AT_TI_symbol_name("_alpha_sf")
    1443                      .dwattr $C$DW$144, DW_AT_type(*$C$DW$T$32)
    1444                      .dwattr $C$DW$144, DW_AT_location[DW_OP_reg16]
    1445              
    1446              ;* PL    assigned to _beta_sf
    1447              $C$DW$145       .dwtag  DW_TAG_variable
    1448                      .dwattr $C$DW$145, DW_AT_name("beta_sf")
    1449                      .dwattr $C$DW$145, DW_AT_TI_symbol_name("_beta_sf")
    1450                      .dwattr $C$DW$145, DW_AT_type(*$C$DW$T$32)
    1451                      .dwattr $C$DW$145, DW_AT_location[DW_OP_reg2]
    1452              
    1453              ;* AR5   assigned to _handle
    1454              $C$DW$146       .dwtag  DW_TAG_variable
    1455                      .dwattr $C$DW$146, DW_AT_name("handle")
    1456                      .dwattr $C$DW$146, DW_AT_TI_symbol_name("_handle")
    1457                      .dwattr $C$DW$146, DW_AT_type(*$C$DW$T$45)
    1458                      .dwattr $C$DW$146, DW_AT_location[DW_OP_reg14]
    1459              
    1460                      .dwcfi  cfa_offset, -2
    1461                      .dwcfi  save_reg_to_mem, 26, 0
    1462                      .dwpsn  file "D:/GIANT/GIANT_TI_instaspin/TI_instaspin_indoor_smart_trainer/motorware/motorware_1_01_
    1463 00000123 5203          CMPB      AL,#3                 ; [CPU_ALU] |481| 
    1464 00000124 610A          B         $C$L18,EQ             ; [CPU_ALU] |481| 
    1465                      ; branchcc occurs ; [] |481| 
    1466                      .dwpsn  file "D:/GIANT/GIANT_TI_instaspin/TI_instaspin_indoor_smart_trainer/motorware/motorware_1_01_
    1467 00000125 5202          CMPB      AL,#2                 ; [CPU_ALU] |486| 
    1468 00000126 6104          B         $C$L17,EQ             ; [CPU_ALU] |486| 
    1469                      ; branchcc occurs ; [] |486| 
    1470                      .dwpsn  file "D:/GIANT/GIANT_TI_instaspin/TI_instaspin_indoor_smart_trainer/motorware/motorware_1_01_
    1471 00000127 BE00          MOVB      XAR6,#0               ; [CPU_ALU] |493| 
    1472                      .dwpsn  file "D:/GIANT/GIANT_TI_instaspin/TI_instaspin_indoor_smart_trainer/motorware/motorware_1_01_
    1473 00000128 3100          MOV       P,#0                  ; [CPU_ALU] |494| 
    1474 00000129 6F0E          B         $C$L20,UNC            ; [CPU_ALU] |494| 
    1475                      ; branch occurs ; [] |494| 
    1476 0000012a       $C$L17:    
    1477                      .dwpsn  file "D:/GIANT/GIANT_TI_instaspin/TI_instaspin_indoor_smart_trainer/motorware/motorware_1_01_
    1478 0000012a 2BAB          MOV       PL,#0                 ; [CPU_ALU] |488| 
    1479 0000012b 28AA          MOV       PH,#256               ; [CPU_ALU] |488| 
         0000012c 0100 
    1480 0000012d 6F05          B         $C$L19,UNC            ; [CPU_ALU] 
    1481                      ; branch occurs ; [] 
    1482 0000012e       $C$L18:    
    1483                      .dwpsn  file "D:/GIANT/GIANT_TI_instaspin/TI_instaspin_indoor_smart_trainer/motorware/motorware_1_01_
    1484 0000012e 28AB          MOV       PL,#21845             ; [CPU_ALU] |483| 
         0000012f 5555 
    1485 00000130 28AA          MOV       PH,#85                ; [CPU_ALU] |483| 
         00000131 0055 
    1486 00000132       $C$L19:    
    1487 00000132 A9A6          MOVL      XAR6,P                ; [CPU_ALU] |483| 
TMS320C2000 Assembler PC v22.6.0 Tue Apr 18 11:09:46 2023

Copyright (c) 1996-2018 Texas Instruments Incorporated
C:\Users\User\AppData\Local\Temp\{F169EDD6-E2A2-400A-8386-A823CBD75D49} PAGE   29

    1488                      .dwpsn  file "D:/GIANT/GIANT_TI_instaspin/TI_instaspin_indoor_smart_trainer/motorware/motorware_1_01_
    1489 00000133 28AB          MOV       PL,#52538             ; [CPU_ALU] |484| 
         00000134 CD3A 
    1490 00000135 28AA          MOV       PH,#147               ; [CPU_ALU] |484| 
         00000136 0093 
    1491 00000137       $C$L20:    
    1492                      .dwpsn  file "D:/GIANT/GIANT_TI_instaspin/TI_instaspin_indoor_smart_trainer/motorware/motorware_1_01_
    1493 00000137 D008          MOVB      XAR0,#8               ; [CPU_ALU] |181| 
    1494 00000138 8394          MOVL      XAR5,*+XAR4[AR0]      ; [CPU_ALU] |181| 
    1495                      .dwpsn  file "D:/GIANT/GIANT_TI_instaspin/TI_instaspin_indoor_smart_trainer/motorware/motorware_1_01_
    1496 00000139 D008          MOVB      XAR0,#8               ; [CPU_ALU] |170| 
    1497                      .dwpsn  file "D:/GIANT/GIANT_TI_instaspin/TI_instaspin_indoor_smart_trainer/motorware/motorware_1_01_
    1498 0000013a C2C5          MOVL      *+XAR5[0],XAR6        ; [CPU_ALU] |185| 
    1499                      .dwpsn  file "D:/GIANT/GIANT_TI_instaspin/TI_instaspin_indoor_smart_trainer/motorware/motorware_1_01_
    1500 0000013b A9D5          MOVL      *+XAR5[2],P           ; [CPU_ALU] |186| 
    1501                      .dwpsn  file "D:/GIANT/GIANT_TI_instaspin/TI_instaspin_indoor_smart_trainer/motorware/motorware_1_01_
    1502 0000013c 8A94          MOVL      XAR4,*+XAR4[AR0]      ; [CPU_ALU] |170| 
    1503 0000013d 96E4          MOV       *+XAR4[4],AL          ; [CPU_ALU] |170| 
    1504              $C$DW$147       .dwtag  DW_TAG_TI_branch
    1505                      .dwattr $C$DW$147, DW_AT_low_pc(0x00)
    1506                      .dwattr $C$DW$147, DW_AT_TI_return
    1507              
    1508 0000013e 0006          LRETR     ; [CPU_ALU] 
    1509                      ; return occurs ; [] 
    1510                      .dwattr $C$DW$139, DW_AT_TI_end_file("D:/GIANT/GIANT_TI_instaspin/TI_instaspin_indoor_smart_trainer/m
    1511                      .dwattr $C$DW$139, DW_AT_TI_end_line(0x1f6)
    1512                      .dwattr $C$DW$139, DW_AT_TI_end_column(0x01)
    1513                      .dwendentry
    1514                      .dwendtag $C$DW$139
    1515              
    1516 0000013f               .sect   ".text"
    1517                      .clink
    1518                      .global _CTRL_setup
    1519              
    1520              $C$DW$148       .dwtag  DW_TAG_subprogram
    1521                      .dwattr $C$DW$148, DW_AT_name("CTRL_setup")
    1522                      .dwattr $C$DW$148, DW_AT_low_pc(_CTRL_setup)
    1523                      .dwattr $C$DW$148, DW_AT_high_pc(0x00)
    1524                      .dwattr $C$DW$148, DW_AT_TI_symbol_name("_CTRL_setup")
    1525                      .dwattr $C$DW$148, DW_AT_external
    1526                      .dwattr $C$DW$148, DW_AT_TI_begin_file("D:/GIANT/GIANT_TI_instaspin/TI_instaspin_indoor_smart_trainer
    1527                      .dwattr $C$DW$148, DW_AT_TI_begin_line(0x1c4)
    1528                      .dwattr $C$DW$148, DW_AT_TI_begin_column(0x06)
    1529                      .dwattr $C$DW$148, DW_AT_TI_max_frame_size(-2)
    1530                      .dwpsn  file "D:/GIANT/GIANT_TI_instaspin/TI_instaspin_indoor_smart_trainer/motorware/motorware_1_01_
    1531              
    1532                      .dwfde $C$DW$CIE, _CTRL_setup
    1533              $C$DW$149       .dwtag  DW_TAG_formal_parameter
    1534                      .dwattr $C$DW$149, DW_AT_name("handle")
    1535                      .dwattr $C$DW$149, DW_AT_TI_symbol_name("_handle")
    1536                      .dwattr $C$DW$149, DW_AT_type(*$C$DW$T$172)
    1537                      .dwattr $C$DW$149, DW_AT_location[DW_OP_reg12]
    1538              
    1539              
    1540              ;***************************************************************
TMS320C2000 Assembler PC v22.6.0 Tue Apr 18 11:09:46 2023

Copyright (c) 1996-2018 Texas Instruments Incorporated
C:\Users\User\AppData\Local\Temp\{F169EDD6-E2A2-400A-8386-A823CBD75D49} PAGE   30

    1541              ;* FNAME: _CTRL_setup                   FR SIZE:   0           *
    1542              ;*                                                             *
    1543              ;* FUNCTION ENVIRONMENT                                        *
    1544              ;*                                                             *
    1545              ;* FUNCTION PROPERTIES                                         *
    1546              ;*                            0 Parameter,  0 Auto,  0 SOE     *
    1547              ;***************************************************************
    1548              
    1549              _CTRL_setup:
    1550              ;* AR4   assigned to _handle
    1551              $C$DW$150       .dwtag  DW_TAG_variable
    1552                      .dwattr $C$DW$150, DW_AT_name("handle")
    1553                      .dwattr $C$DW$150, DW_AT_TI_symbol_name("_handle")
    1554                      .dwattr $C$DW$150, DW_AT_type(*$C$DW$T$185)
    1555                      .dwattr $C$DW$150, DW_AT_location[DW_OP_reg12]
    1556              
    1557                      .dwcfi  cfa_offset, -2
    1558                      .dwcfi  save_reg_to_mem, 26, 0
    1559                      .dwpsn  file "D:/GIANT/GIANT_TI_instaspin/TI_instaspin_indoor_smart_trainer/motorware/motorware_1_01_
    1560 0000013f D09F          MOVB      XAR0,#159             ; [CPU_ALU] |461| 
    1561 00000140 9294          MOV       AL,*+XAR4[AR0]        ; [CPU_ALU] |461| 
    1562 00000141 D0EF          MOVB      XAR0,#239             ; [CPU_ALU] |461| 
    1563 00000142 5494          CMP       AL,*+XAR4[AR0]        ; [CPU_ALU] |461| 
    1564 00000143 6605          B         $C$L21,HI             ; [CPU_ALU] |461| 
    1565                      ; branchcc occurs ; [] |461| 
    1566                      .dwpsn  file "D:/GIANT/GIANT_TI_instaspin/TI_instaspin_indoor_smart_trainer/motorware/motorware_1_01_
    1567 00000144 D0EF          MOVB      XAR0,#239             ; [CPU_ALU] |1124| 
    1568 00000145 2B94          MOV       *+XAR4[AR0],#0        ; [CPU_ALU] |1124| 
    1569                      .dwpsn  file "D:/GIANT/GIANT_TI_instaspin/TI_instaspin_indoor_smart_trainer/motorware/motorware_1_01_
    1570              $C$DW$151       .dwtag  DW_TAG_TI_branch
    1571                      .dwattr $C$DW$151, DW_AT_low_pc(0x00)
    1572                      .dwattr $C$DW$151, DW_AT_name("_CTRL_runTraj")
    1573                      .dwattr $C$DW$151, DW_AT_TI_call
    1574              
    1575 00000146 7640!         LCR       #_CTRL_runTraj        ; [CPU_ALU] |469| 
         00000147 0000 
    1576                      ; call occurs [#_CTRL_runTraj] ; [] |469| 
    1577              $C$L21:    
    1578              $C$DW$152       .dwtag  DW_TAG_TI_branch
    1579                      .dwattr $C$DW$152, DW_AT_low_pc(0x00)
    1580                      .dwattr $C$DW$152, DW_AT_TI_return
    1581              
    1582 00000148 0006          LRETR     ; [CPU_ALU] 
    1583                      ; return occurs ; [] 
    1584                      .dwattr $C$DW$148, DW_AT_TI_end_file("D:/GIANT/GIANT_TI_instaspin/TI_instaspin_indoor_smart_trainer/m
    1585                      .dwattr $C$DW$148, DW_AT_TI_end_line(0x1d9)
    1586                      .dwattr $C$DW$148, DW_AT_TI_end_column(0x01)
    1587                      .dwendentry
    1588                      .dwendtag $C$DW$148
    1589              
    1590 00000149               .sect   ".text"
    1591                      .clink
    1592                      .global _CTRL_setWaitTimes
    1593              
    1594              $C$DW$153       .dwtag  DW_TAG_subprogram
TMS320C2000 Assembler PC v22.6.0 Tue Apr 18 11:09:46 2023

Copyright (c) 1996-2018 Texas Instruments Incorporated
C:\Users\User\AppData\Local\Temp\{F169EDD6-E2A2-400A-8386-A823CBD75D49} PAGE   31

    1595                      .dwattr $C$DW$153, DW_AT_name("CTRL_setWaitTimes")
    1596                      .dwattr $C$DW$153, DW_AT_low_pc(_CTRL_setWaitTimes)
    1597                      .dwattr $C$DW$153, DW_AT_high_pc(0x00)
    1598                      .dwattr $C$DW$153, DW_AT_TI_symbol_name("_CTRL_setWaitTimes")
    1599                      .dwattr $C$DW$153, DW_AT_external
    1600                      .dwattr $C$DW$153, DW_AT_TI_begin_file("D:/GIANT/GIANT_TI_instaspin/TI_instaspin_indoor_smart_trainer
    1601                      .dwattr $C$DW$153, DW_AT_TI_begin_line(0x244)
    1602                      .dwattr $C$DW$153, DW_AT_TI_begin_column(0x06)
    1603                      .dwattr $C$DW$153, DW_AT_TI_max_frame_size(-2)
    1604                      .dwpsn  file "D:/GIANT/GIANT_TI_instaspin/TI_instaspin_indoor_smart_trainer/motorware/motorware_1_01_
    1605              
    1606                      .dwfde $C$DW$CIE, _CTRL_setWaitTimes
    1607              $C$DW$154       .dwtag  DW_TAG_formal_parameter
    1608                      .dwattr $C$DW$154, DW_AT_name("handle")
    1609                      .dwattr $C$DW$154, DW_AT_TI_symbol_name("_handle")
    1610                      .dwattr $C$DW$154, DW_AT_type(*$C$DW$T$172)
    1611                      .dwattr $C$DW$154, DW_AT_location[DW_OP_reg12]
    1612              
    1613              $C$DW$155       .dwtag  DW_TAG_formal_parameter
    1614                      .dwattr $C$DW$155, DW_AT_name("pWaitTimes")
    1615                      .dwattr $C$DW$155, DW_AT_TI_symbol_name("_pWaitTimes")
    1616                      .dwattr $C$DW$155, DW_AT_type(*$C$DW$T$291)
    1617                      .dwattr $C$DW$155, DW_AT_location[DW_OP_reg14]
    1618              
    1619              
    1620              ;***************************************************************
    1621              ;* FNAME: _CTRL_setWaitTimes            FR SIZE:   0           *
    1622              ;*                                                             *
    1623              ;* FUNCTION ENVIRONMENT                                        *
    1624              ;*                                                             *
    1625              ;* FUNCTION PROPERTIES                                         *
    1626              ;*                            0 Parameter,  0 Auto,  0 SOE     *
    1627              ;***************************************************************
    1628              
    1629              _CTRL_setWaitTimes:
    1630              ;* AR5   assigned to $O$U7
    1631              ;* AR4   assigned to $O$U11
    1632              ;* AR4   assigned to _handle
    1633              $C$DW$156       .dwtag  DW_TAG_variable
    1634                      .dwattr $C$DW$156, DW_AT_name("handle")
    1635                      .dwattr $C$DW$156, DW_AT_TI_symbol_name("_handle")
    1636                      .dwattr $C$DW$156, DW_AT_type(*$C$DW$T$185)
    1637                      .dwattr $C$DW$156, DW_AT_location[DW_OP_reg12]
    1638              
    1639                      .dwcfi  cfa_offset, -2
    1640                      .dwcfi  save_reg_to_mem, 26, 0
    1641 00000149 A8A9          MOVL      ACC,XAR4              ; [CPU_ALU] 
    1642 0000014a 0992          ADDB      ACC,#146              ; [CPU_ALU] 
    1643 0000014b 8AA9          MOVL      XAR4,ACC              ; [CPU_ALU] 
    1644 0000014c BE03          MOVB      XAR6,#3               ; [CPU_ALU] 
    1645 0000014d       $C$L22:    
    1646                      .dwpsn  file "D:/GIANT/GIANT_TI_instaspin/TI_instaspin_indoor_smart_trainer/motorware/motorware_1_01_
    1647 0000014d 0685          MOVL      ACC,*XAR5++           ; [CPU_ALU] |587| 
    1648 0000014e 1E84          MOVL      *XAR4++,ACC           ; [CPU_ALU] |587| 
    1649                      .dwpsn  file "D:/GIANT/GIANT_TI_instaspin/TI_instaspin_indoor_smart_trainer/motorware/motorware_1_01_
TMS320C2000 Assembler PC v22.6.0 Tue Apr 18 11:09:46 2023

Copyright (c) 1996-2018 Texas Instruments Incorporated
C:\Users\User\AppData\Local\Temp\{F169EDD6-E2A2-400A-8386-A823CBD75D49} PAGE   32

    1650 0000014f 000E          BANZ      $C$L22,AR6--          ; [CPU_ALU] |585| 
         00000150 FFFE 
    1651                      ; branchcc occurs ; [] |585| 
    1652              $C$DW$157       .dwtag  DW_TAG_TI_branch
    1653                      .dwattr $C$DW$157, DW_AT_low_pc(0x00)
    1654                      .dwattr $C$DW$157, DW_AT_TI_return
    1655              
    1656 00000151 0006          LRETR     ; [CPU_ALU] 
    1657                      ; return occurs ; [] 
    1658                      .dwattr $C$DW$153, DW_AT_TI_end_file("D:/GIANT/GIANT_TI_instaspin/TI_instaspin_indoor_smart_trainer/m
    1659                      .dwattr $C$DW$153, DW_AT_TI_end_line(0x24f)
    1660                      .dwattr $C$DW$153, DW_AT_TI_end_column(0x01)
    1661                      .dwendentry
    1662                      .dwendtag $C$DW$153
    1663              
    1664 00000152               .sect   ".text"
    1665                      .clink
    1666                      .global _CTRL_setSpd_ref_pu
    1667              
    1668              $C$DW$158       .dwtag  DW_TAG_subprogram
    1669                      .dwattr $C$DW$158, DW_AT_name("CTRL_setSpd_ref_pu")
    1670                      .dwattr $C$DW$158, DW_AT_low_pc(_CTRL_setSpd_ref_pu)
    1671                      .dwattr $C$DW$158, DW_AT_high_pc(0x00)
    1672                      .dwattr $C$DW$158, DW_AT_TI_symbol_name("_CTRL_setSpd_ref_pu")
    1673                      .dwattr $C$DW$158, DW_AT_external
    1674                      .dwattr $C$DW$158, DW_AT_TI_begin_file("D:/GIANT/GIANT_TI_instaspin/TI_instaspin_indoor_smart_trainer
    1675                      .dwattr $C$DW$158, DW_AT_TI_begin_line(0x1ae)
    1676                      .dwattr $C$DW$158, DW_AT_TI_begin_column(0x06)
    1677                      .dwattr $C$DW$158, DW_AT_TI_max_frame_size(-2)
    1678                      .dwpsn  file "D:/GIANT/GIANT_TI_instaspin/TI_instaspin_indoor_smart_trainer/motorware/motorware_1_01_
    1679              
    1680                      .dwfde $C$DW$CIE, _CTRL_setSpd_ref_pu
    1681              $C$DW$159       .dwtag  DW_TAG_formal_parameter
    1682                      .dwattr $C$DW$159, DW_AT_name("handle")
    1683                      .dwattr $C$DW$159, DW_AT_TI_symbol_name("_handle")
    1684                      .dwattr $C$DW$159, DW_AT_type(*$C$DW$T$172)
    1685                      .dwattr $C$DW$159, DW_AT_location[DW_OP_reg12]
    1686              
    1687              $C$DW$160       .dwtag  DW_TAG_formal_parameter
    1688                      .dwattr $C$DW$160, DW_AT_name("spd_ref_pu")
    1689                      .dwattr $C$DW$160, DW_AT_TI_symbol_name("_spd_ref_pu")
    1690                      .dwattr $C$DW$160, DW_AT_type(*$C$DW$T$32)
    1691                      .dwattr $C$DW$160, DW_AT_location[DW_OP_reg0]
    1692              
    1693              
    1694              ;***************************************************************
    1695              ;* FNAME: _CTRL_setSpd_ref_pu           FR SIZE:   0           *
    1696              ;*                                                             *
    1697              ;* FUNCTION ENVIRONMENT                                        *
    1698              ;*                                                             *
    1699              ;* FUNCTION PROPERTIES                                         *
    1700              ;*                            0 Parameter,  0 Auto,  0 SOE     *
    1701              ;***************************************************************
    1702              
    1703              _CTRL_setSpd_ref_pu:
TMS320C2000 Assembler PC v22.6.0 Tue Apr 18 11:09:46 2023

Copyright (c) 1996-2018 Texas Instruments Incorporated
C:\Users\User\AppData\Local\Temp\{F169EDD6-E2A2-400A-8386-A823CBD75D49} PAGE   33

    1704              ;* AR4   assigned to _handle
    1705              $C$DW$161       .dwtag  DW_TAG_variable
    1706                      .dwattr $C$DW$161, DW_AT_name("handle")
    1707                      .dwattr $C$DW$161, DW_AT_TI_symbol_name("_handle")
    1708                      .dwattr $C$DW$161, DW_AT_type(*$C$DW$T$185)
    1709                      .dwattr $C$DW$161, DW_AT_location[DW_OP_reg12]
    1710              
    1711              ;* AL    assigned to _spd_ref_pu
    1712              $C$DW$162       .dwtag  DW_TAG_variable
    1713                      .dwattr $C$DW$162, DW_AT_name("spd_ref_pu")
    1714                      .dwattr $C$DW$162, DW_AT_TI_symbol_name("_spd_ref_pu")
    1715                      .dwattr $C$DW$162, DW_AT_type(*$C$DW$T$235)
    1716                      .dwattr $C$DW$162, DW_AT_location[DW_OP_reg0]
    1717              
    1718                      .dwcfi  cfa_offset, -2
    1719                      .dwcfi  save_reg_to_mem, 26, 0
    1720                      .dwpsn  file "D:/GIANT/GIANT_TI_instaspin/TI_instaspin_indoor_smart_trainer/motorware/motorware_1_01_
    1721 00000152 D0E8          MOVB      XAR0,#232             ; [CPU_ALU] |434| 
    1722 00000153 1E94          MOVL      *+XAR4[AR0],ACC       ; [CPU_ALU] |434| 
    1723              $C$DW$163       .dwtag  DW_TAG_TI_branch
    1724                      .dwattr $C$DW$163, DW_AT_low_pc(0x00)
    1725                      .dwattr $C$DW$163, DW_AT_TI_return
    1726              
    1727 00000154 0006          LRETR     ; [CPU_ALU] 
    1728                      ; return occurs ; [] 
    1729                      .dwattr $C$DW$158, DW_AT_TI_end_file("D:/GIANT/GIANT_TI_instaspin/TI_instaspin_indoor_smart_trainer/m
    1730                      .dwattr $C$DW$158, DW_AT_TI_end_line(0x1b5)
    1731                      .dwattr $C$DW$158, DW_AT_TI_end_column(0x01)
    1732                      .dwendentry
    1733                      .dwendtag $C$DW$158
    1734              
    1735 00000155               .sect   ".text"
    1736                      .clink
    1737                      .global _CTRL_setSpd_ref_krpm
    1738              
    1739              $C$DW$164       .dwtag  DW_TAG_subprogram
    1740                      .dwattr $C$DW$164, DW_AT_name("CTRL_setSpd_ref_krpm")
    1741                      .dwattr $C$DW$164, DW_AT_low_pc(_CTRL_setSpd_ref_krpm)
    1742                      .dwattr $C$DW$164, DW_AT_high_pc(0x00)
    1743                      .dwattr $C$DW$164, DW_AT_TI_symbol_name("_CTRL_setSpd_ref_krpm")
    1744                      .dwattr $C$DW$164, DW_AT_external
    1745                      .dwattr $C$DW$164, DW_AT_TI_begin_file("D:/GIANT/GIANT_TI_instaspin/TI_instaspin_indoor_smart_trainer
    1746                      .dwattr $C$DW$164, DW_AT_TI_begin_line(0x1b7)
    1747                      .dwattr $C$DW$164, DW_AT_TI_begin_column(0x06)
    1748                      .dwattr $C$DW$164, DW_AT_TI_max_frame_size(-6)
    1749                      .dwpsn  file "D:/GIANT/GIANT_TI_instaspin/TI_instaspin_indoor_smart_trainer/motorware/motorware_1_01_
    1750              
    1751                      .dwfde $C$DW$CIE, _CTRL_setSpd_ref_krpm
    1752              $C$DW$165       .dwtag  DW_TAG_formal_parameter
    1753                      .dwattr $C$DW$165, DW_AT_name("handle")
    1754                      .dwattr $C$DW$165, DW_AT_TI_symbol_name("_handle")
    1755                      .dwattr $C$DW$165, DW_AT_type(*$C$DW$T$172)
    1756                      .dwattr $C$DW$165, DW_AT_location[DW_OP_reg12]
    1757              
    1758              $C$DW$166       .dwtag  DW_TAG_formal_parameter
TMS320C2000 Assembler PC v22.6.0 Tue Apr 18 11:09:46 2023

Copyright (c) 1996-2018 Texas Instruments Incorporated
C:\Users\User\AppData\Local\Temp\{F169EDD6-E2A2-400A-8386-A823CBD75D49} PAGE   34

    1759                      .dwattr $C$DW$166, DW_AT_name("spd_ref_krpm")
    1760                      .dwattr $C$DW$166, DW_AT_TI_symbol_name("_spd_ref_krpm")
    1761                      .dwattr $C$DW$166, DW_AT_type(*$C$DW$T$32)
    1762                      .dwattr $C$DW$166, DW_AT_location[DW_OP_reg0]
    1763              
    1764              
    1765              ;***************************************************************
    1766              ;* FNAME: _CTRL_setSpd_ref_krpm         FR SIZE:   4           *
    1767              ;*                                                             *
    1768              ;* FUNCTION ENVIRONMENT                                        *
    1769              ;*                                                             *
    1770              ;* FUNCTION PROPERTIES                                         *
    1771              ;*                            0 Parameter,  0 Auto,  4 SOE     *
    1772              ;***************************************************************
    1773              
    1774              _CTRL_setSpd_ref_krpm:
    1775              ;* AR2   assigned to _handle
    1776              $C$DW$167       .dwtag  DW_TAG_variable
    1777                      .dwattr $C$DW$167, DW_AT_name("handle")
    1778                      .dwattr $C$DW$167, DW_AT_TI_symbol_name("_handle")
    1779                      .dwattr $C$DW$167, DW_AT_type(*$C$DW$T$185)
    1780                      .dwattr $C$DW$167, DW_AT_location[DW_OP_reg8]
    1781              
    1782              ;* XT    assigned to _spd_ref_krpm
    1783              $C$DW$168       .dwtag  DW_TAG_variable
    1784                      .dwattr $C$DW$168, DW_AT_name("spd_ref_krpm")
    1785                      .dwattr $C$DW$168, DW_AT_TI_symbol_name("_spd_ref_krpm")
    1786                      .dwattr $C$DW$168, DW_AT_type(*$C$DW$T$235)
    1787                      .dwattr $C$DW$168, DW_AT_location[DW_OP_reg21]
    1788              
    1789              ;* AL    assigned to _krpm_to_pu_sf
    1790              $C$DW$169       .dwtag  DW_TAG_variable
    1791                      .dwattr $C$DW$169, DW_AT_name("krpm_to_pu_sf")
    1792                      .dwattr $C$DW$169, DW_AT_TI_symbol_name("_krpm_to_pu_sf")
    1793                      .dwattr $C$DW$169, DW_AT_type(*$C$DW$T$32)
    1794                      .dwattr $C$DW$169, DW_AT_location[DW_OP_reg0]
    1795              
    1796                      .dwcfi  cfa_offset, -2
    1797                      .dwcfi  save_reg_to_mem, 26, 0
    1798 00000155 B2BD          MOVL      *SP++,XAR1            ; [CPU_ALU] 
    1799                      .dwcfi  save_reg_to_mem, 7, 2
    1800                      .dwcfi  cfa_offset, -4
    1801 00000156 AABD          MOVL      *SP++,XAR2            ; [CPU_ALU] 
    1802                      .dwcfi  save_reg_to_mem, 9, 4
    1803                      .dwcfi  cfa_offset, -6
    1804 00000157 86A4          MOVL      XAR2,XAR4             ; [CPU_ALU] |440| 
    1805                      .dwpsn  file "D:/GIANT/GIANT_TI_instaspin/TI_instaspin_indoor_smart_trainer/motorware/motorware_1_01_
    1806 00000158 D018          MOVB      XAR0,#24              ; [CPU_ALU] |443| 
    1807                      .dwpsn  file "D:/GIANT/GIANT_TI_instaspin/TI_instaspin_indoor_smart_trainer/motorware/motorware_1_01_
    1808 00000159 8BA9          MOVL      XAR1,ACC              ; [CPU_ALU] |440| 
    1809                      .dwpsn  file "D:/GIANT/GIANT_TI_instaspin/TI_instaspin_indoor_smart_trainer/motorware/motorware_1_01_
    1810 0000015a 8A92          MOVL      XAR4,*+XAR2[AR0]      ; [CPU_ALU] |443| 
    1811              $C$DW$170       .dwtag  DW_TAG_TI_branch
    1812                      .dwattr $C$DW$170, DW_AT_low_pc(0x00)
    1813                      .dwattr $C$DW$170, DW_AT_name("_EST_get_krpm_to_pu_sf")
TMS320C2000 Assembler PC v22.6.0 Tue Apr 18 11:09:46 2023

Copyright (c) 1996-2018 Texas Instruments Incorporated
C:\Users\User\AppData\Local\Temp\{F169EDD6-E2A2-400A-8386-A823CBD75D49} PAGE   35

    1814                      .dwattr $C$DW$170, DW_AT_TI_call
    1815              
    1816 0000015b 7640!         LCR       #_EST_get_krpm_to_pu_sf ; [CPU_ALU] |443| 
         0000015c 0000 
    1817                      ; call occurs [#_EST_get_krpm_to_pu_sf] ; [] |443| 
    1818                      .dwpsn  file "D:/GIANT/GIANT_TI_instaspin/TI_instaspin_indoor_smart_trainer/motorware/motorware_1_01_
    1819 0000015d D0E8          MOVB      XAR0,#232             ; [CPU_ALU] |447| 
    1820                      .dwpsn  file "D:/GIANT/GIANT_TI_instaspin/TI_instaspin_indoor_smart_trainer/motorware/motorware_1_01_
    1821 0000015e B2AC          MOVL      XT,XAR1               ; [CPU_ALU] |443| 
    1822                      .dwpsn  file "D:/GIANT/GIANT_TI_instaspin/TI_instaspin_indoor_smart_trainer/motorware/motorware_1_01_
    1823 0000015f 5605          IMPYL     P,XT,ACC              ; [CPU_ALU] |447| 
         00000160 00A9 
    1824 00000161 5663          QMPYL     ACC,XT,ACC            ; [CPU_ALU] |447| 
         00000162 00A9 
    1825 00000163 56A7          LSL64     ACC:P,#8              ; [CPU_ALU] |447| 
    1826 00000164 1E92          MOVL      *+XAR2[AR0],ACC       ; [CPU_ALU] |447| 
    1827 00000165 86BE          MOVL      XAR2,*--SP            ; [CPU_ALU] 
    1828                      .dwcfi  cfa_offset, -4
    1829                      .dwcfi  restore_reg, 9
    1830 00000166 8BBE          MOVL      XAR1,*--SP            ; [CPU_ALU] 
    1831                      .dwcfi  cfa_offset, -2
    1832                      .dwcfi  restore_reg, 7
    1833              $C$DW$171       .dwtag  DW_TAG_TI_branch
    1834                      .dwattr $C$DW$171, DW_AT_low_pc(0x00)
    1835                      .dwattr $C$DW$171, DW_AT_TI_return
    1836              
    1837 00000167 0006          LRETR     ; [CPU_ALU] 
    1838                      ; return occurs ; [] 
    1839                      .dwattr $C$DW$164, DW_AT_TI_end_file("D:/GIANT/GIANT_TI_instaspin/TI_instaspin_indoor_smart_trainer/m
    1840                      .dwattr $C$DW$164, DW_AT_TI_end_line(0x1c2)
    1841                      .dwattr $C$DW$164, DW_AT_TI_end_column(0x01)
    1842                      .dwendentry
    1843                      .dwendtag $C$DW$164
    1844              
    1845 00000168               .sect   ".text"
    1846                      .clink
    1847                      .global _CTRL_setGains
    1848              
    1849              $C$DW$172       .dwtag  DW_TAG_subprogram
    1850                      .dwattr $C$DW$172, DW_AT_name("CTRL_setGains")
    1851                      .dwattr $C$DW$172, DW_AT_low_pc(_CTRL_setGains)
    1852                      .dwattr $C$DW$172, DW_AT_high_pc(0x00)
    1853                      .dwattr $C$DW$172, DW_AT_TI_symbol_name("_CTRL_setGains")
    1854                      .dwattr $C$DW$172, DW_AT_external
    1855                      .dwattr $C$DW$172, DW_AT_TI_begin_file("D:/GIANT/GIANT_TI_instaspin/TI_instaspin_indoor_smart_trainer
    1856                      .dwattr $C$DW$172, DW_AT_TI_begin_line(0xee)
    1857                      .dwattr $C$DW$172, DW_AT_TI_begin_column(0x06)
    1858                      .dwattr $C$DW$172, DW_AT_TI_max_frame_size(-2)
    1859                      .dwpsn  file "D:/GIANT/GIANT_TI_instaspin/TI_instaspin_indoor_smart_trainer/motorware/motorware_1_01_
    1860              
    1861                      .dwfde $C$DW$CIE, _CTRL_setGains
    1862              $C$DW$173       .dwtag  DW_TAG_formal_parameter
    1863                      .dwattr $C$DW$173, DW_AT_name("handle")
    1864                      .dwattr $C$DW$173, DW_AT_TI_symbol_name("_handle")
    1865                      .dwattr $C$DW$173, DW_AT_type(*$C$DW$T$172)
TMS320C2000 Assembler PC v22.6.0 Tue Apr 18 11:09:46 2023

Copyright (c) 1996-2018 Texas Instruments Incorporated
C:\Users\User\AppData\Local\Temp\{F169EDD6-E2A2-400A-8386-A823CBD75D49} PAGE   36

    1866                      .dwattr $C$DW$173, DW_AT_location[DW_OP_reg12]
    1867              
    1868              $C$DW$174       .dwtag  DW_TAG_formal_parameter
    1869                      .dwattr $C$DW$174, DW_AT_name("ctrlType")
    1870                      .dwattr $C$DW$174, DW_AT_TI_symbol_name("_ctrlType")
    1871                      .dwattr $C$DW$174, DW_AT_type(*$C$DW$T$182)
    1872                      .dwattr $C$DW$174, DW_AT_location[DW_OP_reg14]
    1873              
    1874              $C$DW$175       .dwtag  DW_TAG_formal_parameter
    1875                      .dwattr $C$DW$175, DW_AT_name("Kp")
    1876                      .dwattr $C$DW$175, DW_AT_TI_symbol_name("_Kp")
    1877                      .dwattr $C$DW$175, DW_AT_type(*$C$DW$T$32)
    1878                      .dwattr $C$DW$175, DW_AT_location[DW_OP_reg0]
    1879              
    1880              $C$DW$176       .dwtag  DW_TAG_formal_parameter
    1881                      .dwattr $C$DW$176, DW_AT_name("Ki")
    1882                      .dwattr $C$DW$176, DW_AT_TI_symbol_name("_Ki")
    1883                      .dwattr $C$DW$176, DW_AT_type(*$C$DW$T$32)
    1884                      .dwattr $C$DW$176, DW_AT_location[DW_OP_breg20 -4]
    1885              
    1886              $C$DW$177       .dwtag  DW_TAG_formal_parameter
    1887                      .dwattr $C$DW$177, DW_AT_name("Kd")
    1888                      .dwattr $C$DW$177, DW_AT_TI_symbol_name("_Kd")
    1889                      .dwattr $C$DW$177, DW_AT_type(*$C$DW$T$32)
    1890                      .dwattr $C$DW$177, DW_AT_location[DW_OP_breg20 -6]
    1891              
    1892              
    1893              ;***************************************************************
    1894              ;* FNAME: _CTRL_setGains                FR SIZE:   0           *
    1895              ;*                                                             *
    1896              ;* FUNCTION ENVIRONMENT                                        *
    1897              ;*                                                             *
    1898              ;* FUNCTION PROPERTIES                                         *
    1899              ;*                            0 Parameter,  0 Auto,  0 SOE     *
    1900              ;***************************************************************
    1901              
    1902              _CTRL_setGains:
    1903              ;* AR4   assigned to _handle
    1904              $C$DW$178       .dwtag  DW_TAG_variable
    1905                      .dwattr $C$DW$178, DW_AT_name("handle")
    1906                      .dwattr $C$DW$178, DW_AT_TI_symbol_name("_handle")
    1907                      .dwattr $C$DW$178, DW_AT_type(*$C$DW$T$185)
    1908                      .dwattr $C$DW$178, DW_AT_location[DW_OP_reg12]
    1909              
    1910              ;* AL    assigned to _ctrlType
    1911              $C$DW$179       .dwtag  DW_TAG_variable
    1912                      .dwattr $C$DW$179, DW_AT_name("ctrlType")
    1913                      .dwattr $C$DW$179, DW_AT_TI_symbol_name("_ctrlType")
    1914                      .dwattr $C$DW$179, DW_AT_type(*$C$DW$T$183)
    1915                      .dwattr $C$DW$179, DW_AT_location[DW_OP_reg0]
    1916              
    1917              ;* AR6   assigned to _Kp
    1918              $C$DW$180       .dwtag  DW_TAG_variable
    1919                      .dwattr $C$DW$180, DW_AT_name("Kp")
    1920                      .dwattr $C$DW$180, DW_AT_TI_symbol_name("_Kp")
TMS320C2000 Assembler PC v22.6.0 Tue Apr 18 11:09:46 2023

Copyright (c) 1996-2018 Texas Instruments Incorporated
C:\Users\User\AppData\Local\Temp\{F169EDD6-E2A2-400A-8386-A823CBD75D49} PAGE   37

    1921                      .dwattr $C$DW$180, DW_AT_type(*$C$DW$T$235)
    1922                      .dwattr $C$DW$180, DW_AT_location[DW_OP_reg16]
    1923              
    1924              ;* PL    assigned to _Ki
    1925              $C$DW$181       .dwtag  DW_TAG_variable
    1926                      .dwattr $C$DW$181, DW_AT_name("Ki")
    1927                      .dwattr $C$DW$181, DW_AT_TI_symbol_name("_Ki")
    1928                      .dwattr $C$DW$181, DW_AT_type(*$C$DW$T$235)
    1929                      .dwattr $C$DW$181, DW_AT_location[DW_OP_reg2]
    1930              
    1931              ;* AR7   assigned to _Kd
    1932              $C$DW$182       .dwtag  DW_TAG_variable
    1933                      .dwattr $C$DW$182, DW_AT_name("Kd")
    1934                      .dwattr $C$DW$182, DW_AT_TI_symbol_name("_Kd")
    1935                      .dwattr $C$DW$182, DW_AT_type(*$C$DW$T$235)
    1936                      .dwattr $C$DW$182, DW_AT_location[DW_OP_reg18]
    1937              
    1938                      .dwcfi  cfa_offset, -2
    1939                      .dwcfi  save_reg_to_mem, 26, 0
    1940 00000168 1EA6          MOVL      XAR6,ACC              ; [CPU_ALU] |240| 
    1941 00000169 92A5          MOV       AL,AR5                ; [CPU_ALU] |240| 
    1942 0000016a C546          MOVL      XAR7,*-SP[6]          ; [CPU_ALU] |240| 
    1943 0000016b A344          MOVL      P,*-SP[4]             ; [CPU_ALU] |240| 
    1944                      .dwpsn  file "D:/GIANT/GIANT_TI_instaspin/TI_instaspin_indoor_smart_trainer/motorware/motorware_1_01_
    1945 0000016c 6109          B         $C$L24,EQ             ; [CPU_ALU] |1504| 
    1946                      ; branchcc occurs ; [] |1504| 
    1947                      .dwpsn  file "D:/GIANT/GIANT_TI_instaspin/TI_instaspin_indoor_smart_trainer/motorware/motorware_1_01_
    1948 0000016d 5201          CMPB      AL,#1                 ; [CPU_ALU] |1508| 
    1949 0000016e 6105          B         $C$L23,EQ             ; [CPU_ALU] |1508| 
    1950                      ; branchcc occurs ; [] |1508| 
    1951                      .dwpsn  file "D:/GIANT/GIANT_TI_instaspin/TI_instaspin_indoor_smart_trainer/motorware/motorware_1_01_
    1952 0000016f 5202          CMPB      AL,#2                 ; [CPU_ALU] |1512| 
    1953 00000170 6007          B         $C$L26,NEQ            ; [CPU_ALU] |1512| 
    1954                      ; branchcc occurs ; [] |1512| 
    1955                      .dwpsn  file "D:/GIANT/GIANT_TI_instaspin/TI_instaspin_indoor_smart_trainer/motorware/motorware_1_01_
    1956 00000171 D0CC          MOVB      XAR0,#204             ; [CPU_ALU] |1514| 
    1957 00000172 6F04          B         $C$L25,UNC            ; [CPU_ALU] |1514| 
    1958                      ; branch occurs ; [] |1514| 
    1959 00000173       $C$L23:    
    1960                      .dwpsn  file "D:/GIANT/GIANT_TI_instaspin/TI_instaspin_indoor_smart_trainer/motorware/motorware_1_01_
    1961 00000173 D0CA          MOVB      XAR0,#202             ; [CPU_ALU] |1510| 
    1962 00000174 6F02          B         $C$L25,UNC            ; [CPU_ALU] 
    1963                      ; branch occurs ; [] 
    1964 00000175       $C$L24:    
    1965                      .dwpsn  file "D:/GIANT/GIANT_TI_instaspin/TI_instaspin_indoor_smart_trainer/motorware/motorware_1_01_
    1966 00000175 D0CE          MOVB      XAR0,#206             ; [CPU_ALU] |1506| 
    1967 00000176       $C$L25:    
    1968 00000176 C294          MOVL      *+XAR4[AR0],XAR6      ; [CPU_ALU] |1506| 
    1969 00000177       $C$L26:    
    1970                      .dwpsn  file "D:/GIANT/GIANT_TI_instaspin/TI_instaspin_indoor_smart_trainer/motorware/motorware_1_01_
    1971 00000177 5200          CMPB      AL,#0                 ; [CPU_ALU] |1479| 
    1972 00000178 6109          B         $C$L28,EQ             ; [CPU_ALU] |1479| 
    1973                      ; branchcc occurs ; [] |1479| 
    1974                      .dwpsn  file "D:/GIANT/GIANT_TI_instaspin/TI_instaspin_indoor_smart_trainer/motorware/motorware_1_01_
    1975 00000179 5201          CMPB      AL,#1                 ; [CPU_ALU] |1483| 
TMS320C2000 Assembler PC v22.6.0 Tue Apr 18 11:09:46 2023

Copyright (c) 1996-2018 Texas Instruments Incorporated
C:\Users\User\AppData\Local\Temp\{F169EDD6-E2A2-400A-8386-A823CBD75D49} PAGE   38

    1976 0000017a 6105          B         $C$L27,EQ             ; [CPU_ALU] |1483| 
    1977                      ; branchcc occurs ; [] |1483| 
    1978                      .dwpsn  file "D:/GIANT/GIANT_TI_instaspin/TI_instaspin_indoor_smart_trainer/motorware/motorware_1_01_
    1979 0000017b 5202          CMPB      AL,#2                 ; [CPU_ALU] |1487| 
    1980 0000017c 6007          B         $C$L30,NEQ            ; [CPU_ALU] |1487| 
    1981                      ; branchcc occurs ; [] |1487| 
    1982                      .dwpsn  file "D:/GIANT/GIANT_TI_instaspin/TI_instaspin_indoor_smart_trainer/motorware/motorware_1_01_
    1983 0000017d D0D2          MOVB      XAR0,#210             ; [CPU_ALU] |1489| 
    1984 0000017e 6F04          B         $C$L29,UNC            ; [CPU_ALU] |1489| 
    1985                      ; branch occurs ; [] |1489| 
    1986 0000017f       $C$L27:    
    1987                      .dwpsn  file "D:/GIANT/GIANT_TI_instaspin/TI_instaspin_indoor_smart_trainer/motorware/motorware_1_01_
    1988 0000017f D0D0          MOVB      XAR0,#208             ; [CPU_ALU] |1485| 
    1989 00000180 6F02          B         $C$L29,UNC            ; [CPU_ALU] 
    1990                      ; branch occurs ; [] 
    1991 00000181       $C$L28:    
    1992                      .dwpsn  file "D:/GIANT/GIANT_TI_instaspin/TI_instaspin_indoor_smart_trainer/motorware/motorware_1_01_
    1993 00000181 D0D4          MOVB      XAR0,#212             ; [CPU_ALU] |1481| 
    1994 00000182       $C$L29:    
    1995 00000182 A994          MOVL      *+XAR4[AR0],P         ; [CPU_ALU] |1481| 
    1996 00000183       $C$L30:    
    1997                      .dwpsn  file "D:/GIANT/GIANT_TI_instaspin/TI_instaspin_indoor_smart_trainer/motorware/motorware_1_01_
    1998 00000183 5200          CMPB      AL,#0                 ; [CPU_ALU] |1454| 
    1999 00000184 6109          B         $C$L32,EQ             ; [CPU_ALU] |1454| 
    2000                      ; branchcc occurs ; [] |1454| 
    2001                      .dwpsn  file "D:/GIANT/GIANT_TI_instaspin/TI_instaspin_indoor_smart_trainer/motorware/motorware_1_01_
    2002 00000185 5201          CMPB      AL,#1                 ; [CPU_ALU] |1458| 
    2003 00000186 6105          B         $C$L31,EQ             ; [CPU_ALU] |1458| 
    2004                      ; branchcc occurs ; [] |1458| 
    2005                      .dwpsn  file "D:/GIANT/GIANT_TI_instaspin/TI_instaspin_indoor_smart_trainer/motorware/motorware_1_01_
    2006 00000187 5202          CMPB      AL,#2                 ; [CPU_ALU] |1462| 
    2007 00000188 6007          B         $C$L34,NEQ            ; [CPU_ALU] |1462| 
    2008                      ; branchcc occurs ; [] |1462| 
    2009                      .dwpsn  file "D:/GIANT/GIANT_TI_instaspin/TI_instaspin_indoor_smart_trainer/motorware/motorware_1_01_
    2010 00000189 D0D8          MOVB      XAR0,#216             ; [CPU_ALU] |1464| 
    2011 0000018a 6F04          B         $C$L33,UNC            ; [CPU_ALU] |1464| 
    2012                      ; branch occurs ; [] |1464| 
    2013 0000018b       $C$L31:    
    2014                      .dwpsn  file "D:/GIANT/GIANT_TI_instaspin/TI_instaspin_indoor_smart_trainer/motorware/motorware_1_01_
    2015 0000018b D0D6          MOVB      XAR0,#214             ; [CPU_ALU] |1460| 
    2016 0000018c 6F02          B         $C$L33,UNC            ; [CPU_ALU] 
    2017                      ; branch occurs ; [] 
    2018 0000018d       $C$L32:    
    2019                      .dwpsn  file "D:/GIANT/GIANT_TI_instaspin/TI_instaspin_indoor_smart_trainer/motorware/motorware_1_01_
    2020 0000018d D0DA          MOVB      XAR0,#218             ; [CPU_ALU] |1456| 
    2021 0000018e       $C$L33:    
    2022 0000018e C394          MOVL      *+XAR4[AR0],XAR7      ; [CPU_ALU] |1456| 
    2023              $C$L34:    
    2024              $C$DW$183       .dwtag  DW_TAG_TI_branch
    2025                      .dwattr $C$DW$183, DW_AT_low_pc(0x00)
    2026                      .dwattr $C$DW$183, DW_AT_TI_return
    2027              
    2028 0000018f 0006          LRETR     ; [CPU_ALU] 
    2029                      ; return occurs ; [] 
    2030                      .dwattr $C$DW$172, DW_AT_TI_end_file("D:/GIANT/GIANT_TI_instaspin/TI_instaspin_indoor_smart_trainer/m
TMS320C2000 Assembler PC v22.6.0 Tue Apr 18 11:09:46 2023

Copyright (c) 1996-2018 Texas Instruments Incorporated
C:\Users\User\AppData\Local\Temp\{F169EDD6-E2A2-400A-8386-A823CBD75D49} PAGE   39

    2031                      .dwattr $C$DW$172, DW_AT_TI_end_line(0xf7)
    2032                      .dwattr $C$DW$172, DW_AT_TI_end_column(0x01)
    2033                      .dwendentry
    2034                      .dwendtag $C$DW$172
    2035              
    2036 00000190               .sect   ".text"
    2037                      .clink
    2038                      .global _CTRL_setParams
    2039              
    2040              $C$DW$184       .dwtag  DW_TAG_subprogram
    2041                      .dwattr $C$DW$184, DW_AT_name("CTRL_setParams")
    2042                      .dwattr $C$DW$184, DW_AT_low_pc(_CTRL_setParams)
    2043                      .dwattr $C$DW$184, DW_AT_high_pc(0x00)
    2044                      .dwattr $C$DW$184, DW_AT_TI_symbol_name("_CTRL_setParams")
    2045                      .dwattr $C$DW$184, DW_AT_external
    2046                      .dwattr $C$DW$184, DW_AT_TI_begin_file("D:/GIANT/GIANT_TI_instaspin/TI_instaspin_indoor_smart_trainer
    2047                      .dwattr $C$DW$184, DW_AT_TI_begin_line(0x109)
    2048                      .dwattr $C$DW$184, DW_AT_TI_begin_column(0x06)
    2049                      .dwattr $C$DW$184, DW_AT_TI_max_frame_size(-50)
    2050                      .dwpsn  file "D:/GIANT/GIANT_TI_instaspin/TI_instaspin_indoor_smart_trainer/motorware/motorware_1_01_
    2051              
    2052                      .dwfde $C$DW$CIE, _CTRL_setParams
    2053              $C$DW$185       .dwtag  DW_TAG_formal_parameter
    2054                      .dwattr $C$DW$185, DW_AT_name("handle")
    2055                      .dwattr $C$DW$185, DW_AT_TI_symbol_name("_handle")
    2056                      .dwattr $C$DW$185, DW_AT_type(*$C$DW$T$172)
    2057                      .dwattr $C$DW$185, DW_AT_location[DW_OP_reg12]
    2058              
    2059              $C$DW$186       .dwtag  DW_TAG_formal_parameter
    2060                      .dwattr $C$DW$186, DW_AT_name("pUserParams")
    2061                      .dwattr $C$DW$186, DW_AT_TI_symbol_name("_pUserParams")
    2062                      .dwattr $C$DW$186, DW_AT_type(*$C$DW$T$228)
    2063                      .dwattr $C$DW$186, DW_AT_location[DW_OP_reg14]
    2064              
    2065              
    2066              ;***************************************************************
    2067              ;* FNAME: _CTRL_setParams               FR SIZE:  48           *
    2068              ;*                                                             *
    2069              ;* FUNCTION ENVIRONMENT                                        *
    2070              ;*                                                             *
    2071              ;* FUNCTION PROPERTIES                                         *
    2072              ;*                            4 Parameter, 38 Auto,  6 SOE     *
    2073              ;***************************************************************
    2074              
    2075              _CTRL_setParams:
    2076              $C$DW$187       .dwtag  DW_TAG_variable
    2077                      .dwattr $C$DW$187, DW_AT_name("Iab_out_pu")
    2078                      .dwattr $C$DW$187, DW_AT_TI_symbol_name("_Iab_out_pu")
    2079                      .dwattr $C$DW$187, DW_AT_type(*$C$DW$T$72)
    2080                      .dwattr $C$DW$187, DW_AT_location[DW_OP_breg20 -8]
    2081              
    2082              $C$DW$188       .dwtag  DW_TAG_variable
    2083                      .dwattr $C$DW$188, DW_AT_name("Idq_out_pu")
    2084                      .dwattr $C$DW$188, DW_AT_TI_symbol_name("_Idq_out_pu")
    2085                      .dwattr $C$DW$188, DW_AT_type(*$C$DW$T$72)
TMS320C2000 Assembler PC v22.6.0 Tue Apr 18 11:09:46 2023

Copyright (c) 1996-2018 Texas Instruments Incorporated
C:\Users\User\AppData\Local\Temp\{F169EDD6-E2A2-400A-8386-A823CBD75D49} PAGE   40

    2086                      .dwattr $C$DW$188, DW_AT_location[DW_OP_breg20 -12]
    2087              
    2088              $C$DW$189       .dwtag  DW_TAG_variable
    2089                      .dwattr $C$DW$189, DW_AT_name("Idq_ref_pu")
    2090                      .dwattr $C$DW$189, DW_AT_TI_symbol_name("_Idq_ref_pu")
    2091                      .dwattr $C$DW$189, DW_AT_type(*$C$DW$T$72)
    2092                      .dwattr $C$DW$189, DW_AT_location[DW_OP_breg20 -16]
    2093              
    2094              $C$DW$190       .dwtag  DW_TAG_variable
    2095                      .dwattr $C$DW$190, DW_AT_name("Vab_in_pu")
    2096                      .dwattr $C$DW$190, DW_AT_TI_symbol_name("_Vab_in_pu")
    2097                      .dwattr $C$DW$190, DW_AT_type(*$C$DW$T$72)
    2098                      .dwattr $C$DW$190, DW_AT_location[DW_OP_breg20 -20]
    2099              
    2100              $C$DW$191       .dwtag  DW_TAG_variable
    2101                      .dwattr $C$DW$191, DW_AT_name("Vab_out_pu")
    2102                      .dwattr $C$DW$191, DW_AT_TI_symbol_name("_Vab_out_pu")
    2103                      .dwattr $C$DW$191, DW_AT_type(*$C$DW$T$72)
    2104                      .dwattr $C$DW$191, DW_AT_location[DW_OP_breg20 -24]
    2105              
    2106              $C$DW$192       .dwtag  DW_TAG_variable
    2107                      .dwattr $C$DW$192, DW_AT_name("Vdq_out_pu")
    2108                      .dwattr $C$DW$192, DW_AT_TI_symbol_name("_Vdq_out_pu")
    2109                      .dwattr $C$DW$192, DW_AT_type(*$C$DW$T$72)
    2110                      .dwattr $C$DW$192, DW_AT_location[DW_OP_breg20 -28]
    2111              
    2112              ;* AR3   assigned to $O$C1
    2113              ;* AR2   assigned to $O$C2
    2114              ;* AR1   assigned to _handle
    2115              $C$DW$193       .dwtag  DW_TAG_variable
    2116                      .dwattr $C$DW$193, DW_AT_name("handle")
    2117                      .dwattr $C$DW$193, DW_AT_TI_symbol_name("_handle")
    2118                      .dwattr $C$DW$193, DW_AT_type(*$C$DW$T$185)
    2119                      .dwattr $C$DW$193, DW_AT_location[DW_OP_reg6]
    2120              
    2121              $C$DW$194       .dwtag  DW_TAG_variable
    2122                      .dwattr $C$DW$194, DW_AT_name("pUserParams")
    2123                      .dwattr $C$DW$194, DW_AT_TI_symbol_name("_pUserParams")
    2124                      .dwattr $C$DW$194, DW_AT_type(*$C$DW$T$229)
    2125                      .dwattr $C$DW$194, DW_AT_location[DW_OP_breg20 -40]
    2126              
    2127              $C$DW$195       .dwtag  DW_TAG_variable
    2128                      .dwattr $C$DW$195, DW_AT_name("Kp")
    2129                      .dwattr $C$DW$195, DW_AT_TI_symbol_name("_Kp")
    2130                      .dwattr $C$DW$195, DW_AT_type(*$C$DW$T$32)
    2131                      .dwattr $C$DW$195, DW_AT_location[DW_OP_breg20 -42]
    2132              
    2133              ;* AL    assigned to _Ki
    2134              $C$DW$196       .dwtag  DW_TAG_variable
    2135                      .dwattr $C$DW$196, DW_AT_name("Ki")
    2136                      .dwattr $C$DW$196, DW_AT_TI_symbol_name("_Ki")
    2137                      .dwattr $C$DW$196, DW_AT_type(*$C$DW$T$32)
    2138                      .dwattr $C$DW$196, DW_AT_location[DW_OP_reg0]
    2139              
    2140              ;* AH    assigned to _numPolePairs
TMS320C2000 Assembler PC v22.6.0 Tue Apr 18 11:09:46 2023

Copyright (c) 1996-2018 Texas Instruments Incorporated
C:\Users\User\AppData\Local\Temp\{F169EDD6-E2A2-400A-8386-A823CBD75D49} PAGE   41

    2141              $C$DW$197       .dwtag  DW_TAG_variable
    2142                      .dwattr $C$DW$197, DW_AT_name("numPolePairs")
    2143                      .dwattr $C$DW$197, DW_AT_TI_symbol_name("_numPolePairs")
    2144                      .dwattr $C$DW$197, DW_AT_type(*$C$DW$T$70)
    2145                      .dwattr $C$DW$197, DW_AT_location[DW_OP_reg1]
    2146              
    2147              ;* XT    assigned to _ratedFlux
    2148              $C$DW$198       .dwtag  DW_TAG_variable
    2149                      .dwattr $C$DW$198, DW_AT_name("ratedFlux")
    2150                      .dwattr $C$DW$198, DW_AT_TI_symbol_name("_ratedFlux")
    2151                      .dwattr $C$DW$198, DW_AT_type(*$C$DW$T$71)
    2152                      .dwattr $C$DW$198, DW_AT_location[DW_OP_reg21]
    2153              
    2154              ;* AR5   assigned to _Ls_d
    2155              $C$DW$199       .dwtag  DW_TAG_variable
    2156                      .dwattr $C$DW$199, DW_AT_name("Ls_d")
    2157                      .dwattr $C$DW$199, DW_AT_TI_symbol_name("_Ls_d")
    2158                      .dwattr $C$DW$199, DW_AT_type(*$C$DW$T$71)
    2159                      .dwattr $C$DW$199, DW_AT_location[DW_OP_reg14]
    2160              
    2161              ;* PL    assigned to _Ls_q
    2162              $C$DW$200       .dwtag  DW_TAG_variable
    2163                      .dwattr $C$DW$200, DW_AT_name("Ls_q")
    2164                      .dwattr $C$DW$200, DW_AT_TI_symbol_name("_Ls_q")
    2165                      .dwattr $C$DW$200, DW_AT_type(*$C$DW$T$71)
    2166                      .dwattr $C$DW$200, DW_AT_location[DW_OP_reg2]
    2167              
    2168              ;* AR6   assigned to _Rr
    2169              $C$DW$201       .dwtag  DW_TAG_variable
    2170                      .dwattr $C$DW$201, DW_AT_name("Rr")
    2171                      .dwattr $C$DW$201, DW_AT_TI_symbol_name("_Rr")
    2172                      .dwattr $C$DW$201, DW_AT_type(*$C$DW$T$71)
    2173                      .dwattr $C$DW$201, DW_AT_location[DW_OP_reg16]
    2174              
    2175              ;* AR4   assigned to _Rs
    2176              $C$DW$202       .dwtag  DW_TAG_variable
    2177                      .dwattr $C$DW$202, DW_AT_name("Rs")
    2178                      .dwattr $C$DW$202, DW_AT_TI_symbol_name("_Rs")
    2179                      .dwattr $C$DW$202, DW_AT_type(*$C$DW$T$71)
    2180                      .dwattr $C$DW$202, DW_AT_location[DW_OP_reg12]
    2181              
    2182              ;* AR4   assigned to _handle
    2183              $C$DW$203       .dwtag  DW_TAG_variable
    2184                      .dwattr $C$DW$203, DW_AT_name("handle")
    2185                      .dwattr $C$DW$203, DW_AT_TI_symbol_name("_handle")
    2186                      .dwattr $C$DW$203, DW_AT_type(*$C$DW$T$53)
    2187                      .dwattr $C$DW$203, DW_AT_location[DW_OP_reg12]
    2188              
    2189              ;* AR6   assigned to _Ki
    2190              $C$DW$204       .dwtag  DW_TAG_variable
    2191                      .dwattr $C$DW$204, DW_AT_name("Ki")
    2192                      .dwattr $C$DW$204, DW_AT_TI_symbol_name("_Ki")
    2193                      .dwattr $C$DW$204, DW_AT_type(*$C$DW$T$32)
    2194                      .dwattr $C$DW$204, DW_AT_location[DW_OP_reg16]
    2195              
TMS320C2000 Assembler PC v22.6.0 Tue Apr 18 11:09:46 2023

Copyright (c) 1996-2018 Texas Instruments Incorporated
C:\Users\User\AppData\Local\Temp\{F169EDD6-E2A2-400A-8386-A823CBD75D49} PAGE   42

    2196              ;* AR4   assigned to _handle
    2197              $C$DW$205       .dwtag  DW_TAG_variable
    2198                      .dwattr $C$DW$205, DW_AT_name("handle")
    2199                      .dwattr $C$DW$205, DW_AT_TI_symbol_name("_handle")
    2200                      .dwattr $C$DW$205, DW_AT_type(*$C$DW$T$53)
    2201                      .dwattr $C$DW$205, DW_AT_location[DW_OP_reg12]
    2202              
    2203              ;* AR4   assigned to _handle
    2204              $C$DW$206       .dwtag  DW_TAG_variable
    2205                      .dwattr $C$DW$206, DW_AT_name("handle")
    2206                      .dwattr $C$DW$206, DW_AT_TI_symbol_name("_handle")
    2207                      .dwattr $C$DW$206, DW_AT_type(*$C$DW$T$53)
    2208                      .dwattr $C$DW$206, DW_AT_location[DW_OP_reg12]
    2209              
    2210              ;* AR6   assigned to _Ki
    2211              $C$DW$207       .dwtag  DW_TAG_variable
    2212                      .dwattr $C$DW$207, DW_AT_name("Ki")
    2213                      .dwattr $C$DW$207, DW_AT_TI_symbol_name("_Ki")
    2214                      .dwattr $C$DW$207, DW_AT_type(*$C$DW$T$32)
    2215                      .dwattr $C$DW$207, DW_AT_location[DW_OP_reg16]
    2216              
    2217              ;* AR4   assigned to _handle
    2218              $C$DW$208       .dwtag  DW_TAG_variable
    2219                      .dwattr $C$DW$208, DW_AT_name("handle")
    2220                      .dwattr $C$DW$208, DW_AT_TI_symbol_name("_handle")
    2221                      .dwattr $C$DW$208, DW_AT_type(*$C$DW$T$53)
    2222                      .dwattr $C$DW$208, DW_AT_location[DW_OP_reg12]
    2223              
    2224              ;* AR4   assigned to _handle
    2225              $C$DW$209       .dwtag  DW_TAG_variable
    2226                      .dwattr $C$DW$209, DW_AT_name("handle")
    2227                      .dwattr $C$DW$209, DW_AT_TI_symbol_name("_handle")
    2228                      .dwattr $C$DW$209, DW_AT_type(*$C$DW$T$53)
    2229                      .dwattr $C$DW$209, DW_AT_location[DW_OP_reg12]
    2230              
    2231              ;* AR6   assigned to _Ki
    2232              $C$DW$210       .dwtag  DW_TAG_variable
    2233                      .dwattr $C$DW$210, DW_AT_name("Ki")
    2234                      .dwattr $C$DW$210, DW_AT_TI_symbol_name("_Ki")
    2235                      .dwattr $C$DW$210, DW_AT_type(*$C$DW$T$32)
    2236                      .dwattr $C$DW$210, DW_AT_location[DW_OP_reg16]
    2237              
    2238              ;* AR5   assigned to _handle
    2239              $C$DW$211       .dwtag  DW_TAG_variable
    2240                      .dwattr $C$DW$211, DW_AT_name("handle")
    2241                      .dwattr $C$DW$211, DW_AT_TI_symbol_name("_handle")
    2242                      .dwattr $C$DW$211, DW_AT_type(*$C$DW$T$53)
    2243                      .dwattr $C$DW$211, DW_AT_location[DW_OP_reg14]
    2244              
    2245                      .dwcfi  cfa_offset, -2
    2246                      .dwcfi  save_reg_to_mem, 26, 0
    2247 00000190 B2BD          MOVL      *SP++,XAR1            ; [CPU_ALU] 
    2248                      .dwcfi  save_reg_to_mem, 7, 2
    2249                      .dwcfi  cfa_offset, -4
    2250 00000191 AABD          MOVL      *SP++,XAR2            ; [CPU_ALU] 
TMS320C2000 Assembler PC v22.6.0 Tue Apr 18 11:09:46 2023

Copyright (c) 1996-2018 Texas Instruments Incorporated
C:\Users\User\AppData\Local\Temp\{F169EDD6-E2A2-400A-8386-A823CBD75D49} PAGE   43

    2251                      .dwcfi  save_reg_to_mem, 9, 4
    2252                      .dwcfi  cfa_offset, -6
    2253 00000192 A2BD          MOVL      *SP++,XAR3            ; [CPU_ALU] 
    2254                      .dwcfi  save_reg_to_mem, 11, 6
    2255                      .dwcfi  cfa_offset, -8
    2256 00000193 FE2A          ADDB      SP,#42                ; [CPU_ARAU] 
    2257                      .dwcfi  cfa_offset, -50
    2258 00000194 8BA4          MOVL      XAR1,XAR4             ; [CPU_ALU] |266| 
    2259                      .dwpsn  file "D:/GIANT/GIANT_TI_instaspin/TI_instaspin_indoor_smart_trainer/motorware/motorware_1_01_
    2260 00000195 5CAD          MOVZ      AR4,SP                ; [CPU_ALU] |273| 
    2261                      .dwpsn  file "D:/GIANT/GIANT_TI_instaspin/TI_instaspin_indoor_smart_trainer/motorware/motorware_1_01_
    2262 00000196 A068          MOVL      *-SP[40],XAR5         ; [CPU_ALU] |266| 
    2263                      .dwpsn  file "D:/GIANT/GIANT_TI_instaspin/TI_instaspin_indoor_smart_trainer/motorware/motorware_1_01_
    2264 00000197 DC88          SUBB      XAR4,#8               ; [CPU_ARAU] |273| 
    2265 00000198 5CA4          MOVZ      AR4,AR4               ; [CPU_ALU] |273| 
    2266 00000199 76C0+         MOVL      XAR7,#_$P$T0$1        ; [CPU_ARAU] |273| 
         0000019a 0000 
    2267 0000019b F603          RPT       #3
    2268 0000019c 2484  ||     PREAD     *XAR4++,*XAR7         ; [CPU_ALU] |273| 
    2269                      .dwpsn  file "D:/GIANT/GIANT_TI_instaspin/TI_instaspin_indoor_smart_trainer/motorware/motorware_1_01_
    2270 0000019d 5CAD          MOVZ      AR4,SP                ; [CPU_ALU] |274| 
    2271 0000019e DC8C          SUBB      XAR4,#12              ; [CPU_ARAU] |274| 
    2272 0000019f 5CA4          MOVZ      AR4,AR4               ; [CPU_ALU] |274| 
    2273 000001a0 76C0+         MOVL      XAR7,#_$P$T1$2        ; [CPU_ARAU] |274| 
         000001a1 0000 
    2274 000001a2 F603          RPT       #3
    2275 000001a3 2484  ||     PREAD     *XAR4++,*XAR7         ; [CPU_ALU] |274| 
    2276                      .dwpsn  file "D:/GIANT/GIANT_TI_instaspin/TI_instaspin_indoor_smart_trainer/motorware/motorware_1_01_
    2277 000001a4 5CAD          MOVZ      AR4,SP                ; [CPU_ALU] |275| 
    2278 000001a5 DC90          SUBB      XAR4,#16              ; [CPU_ARAU] |275| 
    2279 000001a6 5CA4          MOVZ      AR4,AR4               ; [CPU_ALU] |275| 
    2280 000001a7 76C0+         MOVL      XAR7,#_$P$T2$3        ; [CPU_ARAU] |275| 
         000001a8 0000 
    2281 000001a9 F603          RPT       #3
    2282 000001aa 2484  ||     PREAD     *XAR4++,*XAR7         ; [CPU_ALU] |275| 
    2283                      .dwpsn  file "D:/GIANT/GIANT_TI_instaspin/TI_instaspin_indoor_smart_trainer/motorware/motorware_1_01_
    2284 000001ab 5CAD          MOVZ      AR4,SP                ; [CPU_ALU] |276| 
    2285 000001ac DC94          SUBB      XAR4,#20              ; [CPU_ARAU] |276| 
    2286 000001ad 5CA4          MOVZ      AR4,AR4               ; [CPU_ALU] |276| 
    2287 000001ae 76C0+         MOVL      XAR7,#_$P$T3$4        ; [CPU_ARAU] |276| 
         000001af 0000 
    2288 000001b0 F603          RPT       #3
    2289 000001b1 2484  ||     PREAD     *XAR4++,*XAR7         ; [CPU_ALU] |276| 
    2290                      .dwpsn  file "D:/GIANT/GIANT_TI_instaspin/TI_instaspin_indoor_smart_trainer/motorware/motorware_1_01_
    2291 000001b2 5CAD          MOVZ      AR4,SP                ; [CPU_ALU] |277| 
    2292 000001b3 DC98          SUBB      XAR4,#24              ; [CPU_ARAU] |277| 
    2293 000001b4 5CA4          MOVZ      AR4,AR4               ; [CPU_ALU] |277| 
    2294 000001b5 76C0+         MOVL      XAR7,#_$P$T4$5        ; [CPU_ARAU] |277| 
         000001b6 0000 
    2295 000001b7 F603          RPT       #3
    2296 000001b8 2484  ||     PREAD     *XAR4++,*XAR7         ; [CPU_ALU] |277| 
    2297                      .dwpsn  file "D:/GIANT/GIANT_TI_instaspin/TI_instaspin_indoor_smart_trainer/motorware/motorware_1_01_
    2298 000001b9 5CAD          MOVZ      AR4,SP                ; [CPU_ALU] |278| 
    2299 000001ba DC9C          SUBB      XAR4,#28              ; [CPU_ARAU] |278| 
    2300 000001bb 5CA4          MOVZ      AR4,AR4               ; [CPU_ALU] |278| 
TMS320C2000 Assembler PC v22.6.0 Tue Apr 18 11:09:46 2023

Copyright (c) 1996-2018 Texas Instruments Incorporated
C:\Users\User\AppData\Local\Temp\{F169EDD6-E2A2-400A-8386-A823CBD75D49} PAGE   44

    2301 000001bc 76C0+         MOVL      XAR7,#_$P$T5$6        ; [CPU_ARAU] |278| 
         000001bd 0000 
    2302 000001be F603          RPT       #3
    2303 000001bf 2484  ||     PREAD     *XAR4++,*XAR7         ; [CPU_ALU] |278| 
    2304                      .dwpsn  file "D:/GIANT/GIANT_TI_instaspin/TI_instaspin_indoor_smart_trainer/motorware/motorware_1_01_
    2305 000001c0 C568          MOVL      XAR7,*-SP[40]         ; [CPU_ALU] |1593| 
    2306                      .dwpsn  file "D:/GIANT/GIANT_TI_instaspin/TI_instaspin_indoor_smart_trainer/motorware/motorware_1_01_
    2307 000001c1 8A68          MOVL      XAR4,*-SP[40]         ; [CPU_ALU] |1590| 
    2308 000001c2 D035          MOVB      XAR0,#53              ; [CPU_ALU] |1590| 
    2309                      .dwpsn  file "D:/GIANT/GIANT_TI_instaspin/TI_instaspin_indoor_smart_trainer/motorware/motorware_1_01_
    2310 000001c3 DF34          ADDB      XAR7,#52              ; [CPU_ALU] |1593| 
    2311                      .dwpsn  file "D:/GIANT/GIANT_TI_instaspin/TI_instaspin_indoor_smart_trainer/motorware/motorware_1_01_
    2312 000001c4 9394          MOV       AH,*+XAR4[AR0]        ; [CPU_ALU] |1590| 
    2313 000001c5 D036          MOVB      XAR0,#54              ; [CPU_ALU] |1590| 
    2314                      .dwpsn  file "D:/GIANT/GIANT_TI_instaspin/TI_instaspin_indoor_smart_trainer/motorware/motorware_1_01_
    2315 000001c6 92C7          MOV       AL,*+XAR7[0]          ; [CPU_ALU] |1593| 
    2316                      .dwpsn  file "D:/GIANT/GIANT_TI_instaspin/TI_instaspin_indoor_smart_trainer/motorware/motorware_1_01_
    2317 000001c7 8794          MOVL      XT,*+XAR4[AR0]        ; [CPU_ALU] |1590| 
    2318 000001c8 D03C          MOVB      XAR0,#60              ; [CPU_ALU] |1590| 
    2319 000001c9 8394          MOVL      XAR5,*+XAR4[AR0]      ; [CPU_ALU] |1590| 
    2320 000001ca D03E          MOVB      XAR0,#62              ; [CPU_ALU] |1590| 
    2321 000001cb A394          MOVL      P,*+XAR4[AR0]         ; [CPU_ALU] |1590| 
    2322 000001cc D038          MOVB      XAR0,#56              ; [CPU_ALU] |1590| 
    2323 000001cd C494          MOVL      XAR6,*+XAR4[AR0]      ; [CPU_ALU] |1590| 
    2324 000001ce D03A          MOVB      XAR0,#58              ; [CPU_ALU] |1590| 
    2325 000001cf 8A94          MOVL      XAR4,*+XAR4[AR0]      ; [CPU_ALU] |1590| 
    2326                      .dwpsn  file "D:/GIANT/GIANT_TI_instaspin/TI_instaspin_indoor_smart_trainer/motorware/motorware_1_01_
    2327 000001d0 D084          MOVB      XAR0,#132             ; [CPU_ALU] |1593| 
    2328 000001d1 9691          MOV       *+XAR1[AR0],AL        ; [CPU_ALU] |1593| 
    2329                      .dwpsn  file "D:/GIANT/GIANT_TI_instaspin/TI_instaspin_indoor_smart_trainer/motorware/motorware_1_01_
    2330 000001d2 D085          MOVB      XAR0,#133             ; [CPU_ALU] |1594| 
    2331 000001d3 9791          MOV       *+XAR1[AR0],AH        ; [CPU_ALU] |1594| 
    2332                      .dwpsn  file "D:/GIANT/GIANT_TI_instaspin/TI_instaspin_indoor_smart_trainer/motorware/motorware_1_01_
    2333 000001d4 D090          MOVB      XAR0,#144             ; [CPU_ALU] |1595| 
    2334 000001d5 AB91          MOVL      *+XAR1[AR0],XT        ; [CPU_ALU] |1595| 
    2335                      .dwpsn  file "D:/GIANT/GIANT_TI_instaspin/TI_instaspin_indoor_smart_trainer/motorware/motorware_1_01_
    2336 000001d6 D088          MOVB      XAR0,#136             ; [CPU_ALU] |1596| 
    2337 000001d7 A091          MOVL      *+XAR1[AR0],XAR5      ; [CPU_ALU] |1596| 
    2338                      .dwpsn  file "D:/GIANT/GIANT_TI_instaspin/TI_instaspin_indoor_smart_trainer/motorware/motorware_1_01_
    2339 000001d8 D08A          MOVB      XAR0,#138             ; [CPU_ALU] |1597| 
    2340 000001d9 A991          MOVL      *+XAR1[AR0],P         ; [CPU_ALU] |1597| 
    2341                      .dwpsn  file "D:/GIANT/GIANT_TI_instaspin/TI_instaspin_indoor_smart_trainer/motorware/motorware_1_01_
    2342 000001da D08C          MOVB      XAR0,#140             ; [CPU_ALU] |1598| 
    2343 000001db C291          MOVL      *+XAR1[AR0],XAR6      ; [CPU_ALU] |1598| 
    2344                      .dwpsn  file "D:/GIANT/GIANT_TI_instaspin/TI_instaspin_indoor_smart_trainer/motorware/motorware_1_01_
    2345 000001dc D08E          MOVB      XAR0,#142             ; [CPU_ALU] |1599| 
    2346 000001dd A891          MOVL      *+XAR1[AR0],XAR4      ; [CPU_ALU] |1599| 
    2347                      .dwpsn  file "D:/GIANT/GIANT_TI_instaspin/TI_instaspin_indoor_smart_trainer/motorware/motorware_1_01_
    2348 000001de 8A68          MOVL      XAR4,*-SP[40]         ; [CPU_ALU] |1663| 
    2349 000001df D09C          MOVB      XAR0,#156             ; [CPU_ALU] |1663| 
    2350 000001e0 92F4          MOV       AL,*+XAR4[6]          ; [CPU_ALU] |1663| 
    2351 000001e1 9691          MOV       *+XAR1[AR0],AL        ; [CPU_ALU] |1663| 
    2352                      .dwpsn  file "D:/GIANT/GIANT_TI_instaspin/TI_instaspin_indoor_smart_trainer/motorware/motorware_1_01_
    2353 000001e2 D09D          MOVB      XAR0,#157             ; [CPU_ALU] |1621| 
    2354 000001e3 92FC          MOV       AL,*+XAR4[7]          ; [CPU_ALU] |1621| 
TMS320C2000 Assembler PC v22.6.0 Tue Apr 18 11:09:46 2023

Copyright (c) 1996-2018 Texas Instruments Incorporated
C:\Users\User\AppData\Local\Temp\{F169EDD6-E2A2-400A-8386-A823CBD75D49} PAGE   45

    2355 000001e4 9691          MOV       *+XAR1[AR0],AL        ; [CPU_ALU] |1621| 
    2356                      .dwpsn  file "D:/GIANT/GIANT_TI_instaspin/TI_instaspin_indoor_smart_trainer/motorware/motorware_1_01_
    2357 000001e5 C568          MOVL      XAR7,*-SP[40]         ; [CPU_ALU] |1635| 
    2358 000001e6 D09E          MOVB      XAR0,#158             ; [CPU_ALU] |1635| 
    2359 000001e7 DF09          ADDB      XAR7,#9               ; [CPU_ALU] |1635| 
    2360 000001e8 92C7          MOV       AL,*+XAR7[0]          ; [CPU_ALU] |1635| 
    2361 000001e9 9691          MOV       *+XAR1[AR0],AL        ; [CPU_ALU] |1635| 
    2362                      .dwpsn  file "D:/GIANT/GIANT_TI_instaspin/TI_instaspin_indoor_smart_trainer/motorware/motorware_1_01_
    2363 000001ea C568          MOVL      XAR7,*-SP[40]         ; [CPU_ALU] |1649| 
    2364 000001eb D09F          MOVB      XAR0,#159             ; [CPU_ALU] |1649| 
    2365 000001ec DF0A          ADDB      XAR7,#10              ; [CPU_ALU] |1649| 
    2366 000001ed 92C7          MOV       AL,*+XAR7[0]          ; [CPU_ALU] |1649| 
    2367 000001ee 9691          MOV       *+XAR1[AR0],AL        ; [CPU_ALU] |1649| 
    2368                      .dwpsn  file "D:/GIANT/GIANT_TI_instaspin/TI_instaspin_indoor_smart_trainer/motorware/motorware_1_01_
    2369 000001ef D09E          MOVB      XAR0,#158             ; [CPU_ALU] |1168| 
    2370 000001f0 0694          MOVL      ACC,*+XAR4[AR0]       ; [CPU_ALU] |1168| 
    2371 000001f1 D0A0          MOVB      XAR0,#160             ; [CPU_ALU] |1168| 
    2372 000001f2 1E91          MOVL      *+XAR1[AR0],ACC       ; [CPU_ALU] |1168| 
    2373                      .dwpsn  file "D:/GIANT/GIANT_TI_instaspin/TI_instaspin_indoor_smart_trainer/motorware/motorware_1_01_
    2374 000001f3 D0A4          MOVB      XAR0,#164             ; [CPU_ALU] |1793| 
    2375 000001f4 0694          MOVL      ACC,*+XAR4[AR0]       ; [CPU_ALU] |1793| 
    2376 000001f5 D0A2          MOVB      XAR0,#162             ; [CPU_ALU] |1793| 
    2377 000001f6 1E91          MOVL      *+XAR1[AR0],ACC       ; [CPU_ALU] |1793| 
    2378                      .dwpsn  file "D:/GIANT/GIANT_TI_instaspin/TI_instaspin_indoor_smart_trainer/motorware/motorware_1_01_
    2379 000001f7 D0A4          MOVB      XAR0,#164             ; [CPU_ALU] |1806| 
    2380 000001f8 0694          MOVL      ACC,*+XAR4[AR0]       ; [CPU_ALU] |1806| 
    2381              $C$DW$212       .dwtag  DW_TAG_TI_branch
    2382                      .dwattr $C$DW$212, DW_AT_low_pc(0x00)
    2383                      .dwattr $C$DW$212, DW_AT_name("UL$$TOFS")
    2384                      .dwattr $C$DW$212, DW_AT_TI_call
    2385              
    2386 000001f9 7640!         LCR       #UL$$TOFS             ; [CPU_ALU] |1806| 
         000001fa 0000 
    2387                      ; call occurs [#UL$$TOFS] ; [] |1806| 
    2388 000001fb 1E42          MOVL      *-SP[2],ACC           ; [CPU_ALU] |1806| 
    2389 000001fc FF2F          MOV       ACC,#32512 << 15      ; [CPU_ALU] |1806| 
         000001fd 7F00 
    2390              $C$DW$213       .dwtag  DW_TAG_TI_branch
    2391                      .dwattr $C$DW$213, DW_AT_low_pc(0x00)
    2392                      .dwattr $C$DW$213, DW_AT_name("FS$$DIV")
    2393                      .dwattr $C$DW$213, DW_AT_TI_call
    2394              
    2395 000001fe 7640!         LCR       #FS$$DIV              ; [CPU_ALU] |1806| 
         000001ff 0000 
    2396                      ; call occurs [#FS$$DIV] ; [] |1806| 
    2397 00000200 5CAD          MOVZ      AR4,SP                ; [CPU_ALU] |1806| 
    2398 00000201 DCA4          SUBB      XAR4,#36              ; [CPU_ARAU] |1806| 
    2399 00000202 88A4          MOVZ      AR6,AR4               ; [CPU_ALU] |1806| 
    2400              $C$DW$214       .dwtag  DW_TAG_TI_branch
    2401                      .dwattr $C$DW$214, DW_AT_low_pc(0x00)
    2402                      .dwattr $C$DW$214, DW_AT_name("FS$$TOFD")
    2403                      .dwattr $C$DW$214, DW_AT_TI_call
    2404              
    2405 00000203 7640!         LCR       #FS$$TOFD             ; [CPU_ALU] |1806| 
         00000204 0000 
TMS320C2000 Assembler PC v22.6.0 Tue Apr 18 11:09:46 2023

Copyright (c) 1996-2018 Texas Instruments Incorporated
C:\Users\User\AppData\Local\Temp\{F169EDD6-E2A2-400A-8386-A823CBD75D49} PAGE   46

    2406                      ; call occurs [#FS$$TOFD] ; [] |1806| 
    2407 00000205 5DAD          MOVZ      AR5,SP                ; [CPU_ALU] |1806| 
    2408 00000206 5CAD          MOVZ      AR4,SP                ; [CPU_ALU] |1806| 
    2409 00000207 DDA0          SUBB      XAR5,#32              ; [CPU_ARAU] |1806| 
    2410 00000208 DCA4          SUBB      XAR4,#36              ; [CPU_ARAU] |1806| 
    2411 00000209 88A5          MOVZ      AR6,AR5               ; [CPU_ALU] |1806| 
    2412 0000020a 5CA4          MOVZ      AR4,AR4               ; [CPU_ALU] |1806| 
    2413 0000020b 8F40+         MOVL      XAR5,#$C$FL1          ; [CPU_ARAU] |1806| 
         0000020c 0000 
    2414              $C$DW$215       .dwtag  DW_TAG_TI_branch
    2415                      .dwattr $C$DW$215, DW_AT_low_pc(0x00)
    2416                      .dwattr $C$DW$215, DW_AT_name("FD$$MPY")
    2417                      .dwattr $C$DW$215, DW_AT_TI_call
    2418              
    2419 0000020d 7640!         LCR       #FD$$MPY              ; [CPU_ALU] |1806| 
         0000020e 0000 
    2420                      ; call occurs [#FD$$MPY] ; [] |1806| 
    2421 0000020f 5CAD          MOVZ      AR4,SP                ; [CPU_ALU] |1806| 
    2422 00000210 DCA0          SUBB      XAR4,#32              ; [CPU_ARAU] |1806| 
    2423 00000211 5CA4          MOVZ      AR4,AR4               ; [CPU_ALU] |1806| 
    2424              $C$DW$216       .dwtag  DW_TAG_TI_branch
    2425                      .dwattr $C$DW$216, DW_AT_low_pc(0x00)
    2426                      .dwattr $C$DW$216, DW_AT_name("FD$$TOL")
    2427                      .dwattr $C$DW$216, DW_AT_TI_call
    2428              
    2429 00000212 7640!         LCR       #FD$$TOL              ; [CPU_ALU] |1806| 
         00000213 0000 
    2430                      ; call occurs [#FD$$TOL] ; [] |1806| 
    2431 00000214 D0A4          MOVB      XAR0,#164             ; [CPU_ALU] |1806| 
    2432 00000215 1E91          MOVL      *+XAR1[AR0],ACC       ; [CPU_ALU] |1806| 
    2433                      .dwpsn  file "D:/GIANT/GIANT_TI_instaspin/TI_instaspin_indoor_smart_trainer/motorware/motorware_1_01_
    2434 00000216 8A68          MOVL      XAR4,*-SP[40]         ; [CPU_ALU] |1181| 
    2435 00000217 D0A6          MOVB      XAR0,#166             ; [CPU_ALU] |1181| 
    2436 00000218 0694          MOVL      ACC,*+XAR4[AR0]       ; [CPU_ALU] |1181| 
    2437 00000219 D0A6          MOVB      XAR0,#166             ; [CPU_ALU] |1181| 
    2438 0000021a 1E91          MOVL      *+XAR1[AR0],ACC       ; [CPU_ALU] |1181| 
    2439                      .dwpsn  file "D:/GIANT/GIANT_TI_instaspin/TI_instaspin_indoor_smart_trainer/motorware/motorware_1_01_
    2440 0000021b D030          MOVB      XAR0,#48              ; [CPU_ALU] |1547| 
    2441 0000021c 0694          MOVL      ACC,*+XAR4[AR0]       ; [CPU_ALU] |1547| 
    2442 0000021d 5CAD          MOVZ      AR4,SP                ; [CPU_ALU] |1547| 
    2443 0000021e DCA4          SUBB      XAR4,#36              ; [CPU_ARAU] |1547| 
    2444 0000021f 88A4          MOVZ      AR6,AR4               ; [CPU_ALU] |1547| 
    2445              $C$DW$217       .dwtag  DW_TAG_TI_branch
    2446                      .dwattr $C$DW$217, DW_AT_low_pc(0x00)
    2447                      .dwattr $C$DW$217, DW_AT_name("FS$$TOFD")
    2448                      .dwattr $C$DW$217, DW_AT_TI_call
    2449              
    2450 00000220 7640!         LCR       #FS$$TOFD             ; [CPU_ALU] |1547| 
         00000221 0000 
    2451                      ; call occurs [#FS$$TOFD] ; [] |1547| 
    2452 00000222 5DAD          MOVZ      AR5,SP                ; [CPU_ALU] |1547| 
    2453 00000223 5CAD          MOVZ      AR4,SP                ; [CPU_ALU] |1547| 
    2454 00000224 DDA0          SUBB      XAR5,#32              ; [CPU_ARAU] |1547| 
    2455 00000225 DCA4          SUBB      XAR4,#36              ; [CPU_ARAU] |1547| 
    2456 00000226 88A5          MOVZ      AR6,AR5               ; [CPU_ALU] |1547| 
TMS320C2000 Assembler PC v22.6.0 Tue Apr 18 11:09:46 2023

Copyright (c) 1996-2018 Texas Instruments Incorporated
C:\Users\User\AppData\Local\Temp\{F169EDD6-E2A2-400A-8386-A823CBD75D49} PAGE   47

    2457 00000227 5CA4          MOVZ      AR4,AR4               ; [CPU_ALU] |1547| 
    2458 00000228 8F40+         MOVL      XAR5,#$C$FL1          ; [CPU_ARAU] |1547| 
         00000229 0000 
    2459              $C$DW$218       .dwtag  DW_TAG_TI_branch
    2460                      .dwattr $C$DW$218, DW_AT_low_pc(0x00)
    2461                      .dwattr $C$DW$218, DW_AT_name("FD$$MPY")
    2462                      .dwattr $C$DW$218, DW_AT_TI_call
    2463              
    2464 0000022a 7640!         LCR       #FD$$MPY              ; [CPU_ALU] |1547| 
         0000022b 0000 
    2465                      ; call occurs [#FD$$MPY] ; [] |1547| 
    2466 0000022c 5CAD          MOVZ      AR4,SP                ; [CPU_ALU] |1547| 
    2467 0000022d DCA0          SUBB      XAR4,#32              ; [CPU_ARAU] |1547| 
    2468 0000022e 5CA4          MOVZ      AR4,AR4               ; [CPU_ALU] |1547| 
    2469              $C$DW$219       .dwtag  DW_TAG_TI_branch
    2470                      .dwattr $C$DW$219, DW_AT_low_pc(0x00)
    2471                      .dwattr $C$DW$219, DW_AT_name("FD$$TOL")
    2472                      .dwattr $C$DW$219, DW_AT_TI_call
    2473              
    2474 0000022f 7640!         LCR       #FD$$TOL              ; [CPU_ALU] |1547| 
         00000230 0000 
    2475                      ; call occurs [#FD$$TOL] ; [] |1547| 
    2476 00000231 D0A8          MOVB      XAR0,#168             ; [CPU_ALU] |1547| 
    2477 00000232 1E91          MOVL      *+XAR1[AR0],ACC       ; [CPU_ALU] |1547| 
    2478                      .dwpsn  file "D:/GIANT/GIANT_TI_instaspin/TI_instaspin_indoor_smart_trainer/motorware/motorware_1_01_
    2479 00000233 D0AA          MOVB      XAR0,#170             ; [CPU_ALU] |1328| 
    2480 00000234 0648          MOVL      ACC,*-SP[8]           ; [CPU_ALU] |1328| 
    2481 00000235 1E91          MOVL      *+XAR1[AR0],ACC       ; [CPU_ALU] |1328| 
    2482                      .dwpsn  file "D:/GIANT/GIANT_TI_instaspin/TI_instaspin_indoor_smart_trainer/motorware/motorware_1_01_
    2483 00000236 D0AC          MOVB      XAR0,#172             ; [CPU_ALU] |1329| 
    2484 00000237 0646          MOVL      ACC,*-SP[6]           ; [CPU_ALU] |1329| 
    2485 00000238 1E91          MOVL      *+XAR1[AR0],ACC       ; [CPU_ALU] |1329| 
    2486                      .dwpsn  file "D:/GIANT/GIANT_TI_instaspin/TI_instaspin_indoor_smart_trainer/motorware/motorware_1_01_
    2487 00000239 D0B2          MOVB      XAR0,#178             ; [CPU_ALU] |1361| 
    2488 0000023a 064C          MOVL      ACC,*-SP[12]          ; [CPU_ALU] |1361| 
    2489 0000023b 1E91          MOVL      *+XAR1[AR0],ACC       ; [CPU_ALU] |1361| 
    2490                      .dwpsn  file "D:/GIANT/GIANT_TI_instaspin/TI_instaspin_indoor_smart_trainer/motorware/motorware_1_01_
    2491 0000023c D0B4          MOVB      XAR0,#180             ; [CPU_ALU] |1362| 
    2492 0000023d 064A          MOVL      ACC,*-SP[10]          ; [CPU_ALU] |1362| 
    2493 0000023e 1E91          MOVL      *+XAR1[AR0],ACC       ; [CPU_ALU] |1362| 
    2494                      .dwpsn  file "D:/GIANT/GIANT_TI_instaspin/TI_instaspin_indoor_smart_trainer/motorware/motorware_1_01_
    2495 0000023f D0E2          MOVB      XAR0,#226             ; [CPU_ALU] |1389| 
    2496 00000240 0650          MOVL      ACC,*-SP[16]          ; [CPU_ALU] |1389| 
    2497 00000241 1E91          MOVL      *+XAR1[AR0],ACC       ; [CPU_ALU] |1389| 
    2498                      .dwpsn  file "D:/GIANT/GIANT_TI_instaspin/TI_instaspin_indoor_smart_trainer/motorware/motorware_1_01_
    2499 00000242 D0E4          MOVB      XAR0,#228             ; [CPU_ALU] |1390| 
    2500 00000243 064E          MOVL      ACC,*-SP[14]          ; [CPU_ALU] |1390| 
    2501 00000244 1E91          MOVL      *+XAR1[AR0],ACC       ; [CPU_ALU] |1390| 
    2502 00000245 8A68          MOVL      XAR4,*-SP[40]         ; [CPU_ALU] |1390| 
    2503                      .dwpsn  file "D:/GIANT/GIANT_TI_instaspin/TI_instaspin_indoor_smart_trainer/motorware/motorware_1_01_
    2504 00000246 D04A          MOVB      XAR0,#74              ; [CPU_ALU] |1403| 
    2505 00000247 06C4          MOVL      ACC,*+XAR4[0]         ; [CPU_ALU] |1403| 
    2506 00000248 1E42          MOVL      *-SP[2],ACC           ; [CPU_ALU] |1403| 
    2507 00000249 0694          MOVL      ACC,*+XAR4[AR0]       ; [CPU_ALU] |1403| 
    2508              $C$DW$220       .dwtag  DW_TAG_TI_branch
TMS320C2000 Assembler PC v22.6.0 Tue Apr 18 11:09:46 2023

Copyright (c) 1996-2018 Texas Instruments Incorporated
C:\Users\User\AppData\Local\Temp\{F169EDD6-E2A2-400A-8386-A823CBD75D49} PAGE   48

    2509                      .dwattr $C$DW$220, DW_AT_low_pc(0x00)
    2510                      .dwattr $C$DW$220, DW_AT_name("FS$$DIV")
    2511                      .dwattr $C$DW$220, DW_AT_TI_call
    2512              
    2513 0000024a 7640!         LCR       #FS$$DIV              ; [CPU_ALU] |1403| 
         0000024b 0000 
    2514                      ; call occurs [#FS$$DIV] ; [] |1403| 
    2515 0000024c 5CAD          MOVZ      AR4,SP                ; [CPU_ALU] |1403| 
    2516 0000024d DCA4          SUBB      XAR4,#36              ; [CPU_ARAU] |1403| 
    2517 0000024e 88A4          MOVZ      AR6,AR4               ; [CPU_ALU] |1403| 
    2518              $C$DW$221       .dwtag  DW_TAG_TI_branch
    2519                      .dwattr $C$DW$221, DW_AT_low_pc(0x00)
    2520                      .dwattr $C$DW$221, DW_AT_name("FS$$TOFD")
    2521                      .dwattr $C$DW$221, DW_AT_TI_call
    2522              
    2523 0000024f 7640!         LCR       #FS$$TOFD             ; [CPU_ALU] |1403| 
         00000250 0000 
    2524                      ; call occurs [#FS$$TOFD] ; [] |1403| 
    2525 00000251 5DAD          MOVZ      AR5,SP                ; [CPU_ALU] |1403| 
    2526 00000252 5CAD          MOVZ      AR4,SP                ; [CPU_ALU] |1403| 
    2527 00000253 DDA0          SUBB      XAR5,#32              ; [CPU_ARAU] |1403| 
    2528 00000254 DCA4          SUBB      XAR4,#36              ; [CPU_ARAU] |1403| 
    2529 00000255 88A5          MOVZ      AR6,AR5               ; [CPU_ALU] |1403| 
    2530 00000256 5CA4          MOVZ      AR4,AR4               ; [CPU_ALU] |1403| 
    2531 00000257 8F40+         MOVL      XAR5,#$C$FL1          ; [CPU_ARAU] |1403| 
         00000258 0000 
    2532              $C$DW$222       .dwtag  DW_TAG_TI_branch
    2533                      .dwattr $C$DW$222, DW_AT_low_pc(0x00)
    2534                      .dwattr $C$DW$222, DW_AT_name("FD$$MPY")
    2535                      .dwattr $C$DW$222, DW_AT_TI_call
    2536              
    2537 00000259 7640!         LCR       #FD$$MPY              ; [CPU_ALU] |1403| 
         0000025a 0000 
    2538                      ; call occurs [#FD$$MPY] ; [] |1403| 
    2539 0000025b 5CAD          MOVZ      AR4,SP                ; [CPU_ALU] |1403| 
    2540 0000025c DCA0          SUBB      XAR4,#32              ; [CPU_ARAU] |1403| 
    2541 0000025d 5CA4          MOVZ      AR4,AR4               ; [CPU_ALU] |1403| 
    2542              $C$DW$223       .dwtag  DW_TAG_TI_branch
    2543                      .dwattr $C$DW$223, DW_AT_low_pc(0x00)
    2544                      .dwattr $C$DW$223, DW_AT_name("FD$$TOL")
    2545                      .dwattr $C$DW$223, DW_AT_TI_call
    2546              
    2547 0000025e 7640!         LCR       #FD$$TOL              ; [CPU_ALU] |1403| 
         0000025f 0000 
    2548                      ; call occurs [#FD$$TOL] ; [] |1403| 
    2549 00000260 D0E6          MOVB      XAR0,#230             ; [CPU_ALU] |1403| 
    2550 00000261 1E91          MOVL      *+XAR1[AR0],ACC       ; [CPU_ALU] |1403| 
    2551                      .dwpsn  file "D:/GIANT/GIANT_TI_instaspin/TI_instaspin_indoor_smart_trainer/motorware/motorware_1_01_
    2552 00000262 D0B6          MOVB      XAR0,#182             ; [CPU_ALU] |1887| 
    2553 00000263 0654          MOVL      ACC,*-SP[20]          ; [CPU_ALU] |1887| 
    2554 00000264 1E91          MOVL      *+XAR1[AR0],ACC       ; [CPU_ALU] |1887| 
    2555                      .dwpsn  file "D:/GIANT/GIANT_TI_instaspin/TI_instaspin_indoor_smart_trainer/motorware/motorware_1_01_
    2556 00000265 D0B8          MOVB      XAR0,#184             ; [CPU_ALU] |1888| 
    2557 00000266 0652          MOVL      ACC,*-SP[18]          ; [CPU_ALU] |1888| 
    2558 00000267 1E91          MOVL      *+XAR1[AR0],ACC       ; [CPU_ALU] |1888| 
TMS320C2000 Assembler PC v22.6.0 Tue Apr 18 11:09:46 2023

Copyright (c) 1996-2018 Texas Instruments Incorporated
C:\Users\User\AppData\Local\Temp\{F169EDD6-E2A2-400A-8386-A823CBD75D49} PAGE   49

    2559                      .dwpsn  file "D:/GIANT/GIANT_TI_instaspin/TI_instaspin_indoor_smart_trainer/motorware/motorware_1_01_
    2560 00000268 D0BC          MOVB      XAR0,#188             ; [CPU_ALU] |1901| 
    2561 00000269 0658          MOVL      ACC,*-SP[24]          ; [CPU_ALU] |1901| 
    2562 0000026a 1E91          MOVL      *+XAR1[AR0],ACC       ; [CPU_ALU] |1901| 
    2563                      .dwpsn  file "D:/GIANT/GIANT_TI_instaspin/TI_instaspin_indoor_smart_trainer/motorware/motorware_1_01_
    2564 0000026b D0BE          MOVB      XAR0,#190             ; [CPU_ALU] |1902| 
    2565 0000026c 0656          MOVL      ACC,*-SP[22]          ; [CPU_ALU] |1902| 
    2566 0000026d 1E91          MOVL      *+XAR1[AR0],ACC       ; [CPU_ALU] |1902| 
    2567                      .dwpsn  file "D:/GIANT/GIANT_TI_instaspin/TI_instaspin_indoor_smart_trainer/motorware/motorware_1_01_
    2568 0000026e D0C0          MOVB      XAR0,#192             ; [CPU_ALU] |1929| 
    2569 0000026f 065C          MOVL      ACC,*-SP[28]          ; [CPU_ALU] |1929| 
    2570 00000270 1E91          MOVL      *+XAR1[AR0],ACC       ; [CPU_ALU] |1929| 
    2571                      .dwpsn  file "D:/GIANT/GIANT_TI_instaspin/TI_instaspin_indoor_smart_trainer/motorware/motorware_1_01_
    2572 00000271 D0C2          MOVB      XAR0,#194             ; [CPU_ALU] |1930| 
    2573 00000272 065A          MOVL      ACC,*-SP[26]          ; [CPU_ALU] |1930| 
    2574 00000273 1E91          MOVL      *+XAR1[AR0],ACC       ; [CPU_ALU] |1930| 
    2575                      .dwpsn  file "D:/GIANT/GIANT_TI_instaspin/TI_instaspin_indoor_smart_trainer/motorware/motorware_1_01_
    2576 00000274 D0BA          MOVB      XAR0,#186             ; [CPU_ALU] |1728| 
    2577 00000275 0200          MOVB      ACC,#0                ; [CPU_ALU] |1728| 
    2578 00000276 1E91          MOVL      *+XAR1[AR0],ACC       ; [CPU_ALU] |1728| 
    2579                      .dwpsn  file "D:/GIANT/GIANT_TI_instaspin/TI_instaspin_indoor_smart_trainer/motorware/motorware_1_01_
    2580 00000277 D0C4          MOVB      XAR0,#196             ; [CPU_ALU] |1676| 
    2581 00000278 FF20          MOV       ACC,#0                ; [CPU_ALU] |1676| 
         00000279 0000 
    2582 0000027a 1E91          MOVL      *+XAR1[AR0],ACC       ; [CPU_ALU] |1676| 
    2583                      .dwpsn  file "D:/GIANT/GIANT_TI_instaspin/TI_instaspin_indoor_smart_trainer/motorware/motorware_1_01_
    2584 0000027b D0C6          MOVB      XAR0,#198             ; [CPU_ALU] |1528| 
    2585 0000027c 1E91          MOVL      *+XAR1[AR0],ACC       ; [CPU_ALU] |1528| 
    2586                      .dwpsn  file "D:/GIANT/GIANT_TI_instaspin/TI_instaspin_indoor_smart_trainer/motorware/motorware_1_01_
    2587 0000027d D0C8          MOVB      XAR0,#200             ; [CPU_ALU] |1689| 
    2588 0000027e 1E91          MOVL      *+XAR1[AR0],ACC       ; [CPU_ALU] |1689| 
    2589                      .dwpsn  file "D:/GIANT/GIANT_TI_instaspin/TI_instaspin_indoor_smart_trainer/motorware/motorware_1_01_
    2590 0000027f D0EC          MOVB      XAR0,#236             ; [CPU_ALU] |1076| 
    2591                      .dwpsn  file "D:/GIANT/GIANT_TI_instaspin/TI_instaspin_indoor_smart_trainer/motorware/motorware_1_01_
    2592 00000280 0200          MOVB      ACC,#0                ; [CPU_ALU] |1112| 
    2593                      .dwpsn  file "D:/GIANT/GIANT_TI_instaspin/TI_instaspin_indoor_smart_trainer/motorware/motorware_1_01_
    2594 00000281 2B91          MOV       *+XAR1[AR0],#0        ; [CPU_ALU] |1076| 
    2595                      .dwpsn  file "D:/GIANT/GIANT_TI_instaspin/TI_instaspin_indoor_smart_trainer/motorware/motorware_1_01_
    2596 00000282 D0ED          MOVB      XAR0,#237             ; [CPU_ALU] |1088| 
    2597 00000283 56BF          MOVB      *+XAR1[AR0],#1,UNC    ; [CPU_ALU] |1088| 
         00000284 0191 
    2598                      .dwpsn  file "D:/GIANT/GIANT_TI_instaspin/TI_instaspin_indoor_smart_trainer/motorware/motorware_1_01_
    2599 00000285 D0EE          MOVB      XAR0,#238             ; [CPU_ALU] |1100| 
    2600 00000286 2B91          MOV       *+XAR1[AR0],#0        ; [CPU_ALU] |1100| 
    2601                      .dwpsn  file "D:/GIANT/GIANT_TI_instaspin/TI_instaspin_indoor_smart_trainer/motorware/motorware_1_01_
    2602 00000287 D09A          MOVB      XAR0,#154             ; [CPU_ALU] |1112| 
    2603 00000288 1E91          MOVL      *+XAR1[AR0],ACC       ; [CPU_ALU] |1112| 
    2604                      .dwpsn  file "D:/GIANT/GIANT_TI_instaspin/TI_instaspin_indoor_smart_trainer/motorware/motorware_1_01_
    2605 00000289 D0EF          MOVB      XAR0,#239             ; [CPU_ALU] |1124| 
    2606 0000028a 2B91          MOV       *+XAR1[AR0],#0        ; [CPU_ALU] |1124| 
    2607 0000028b 8368          MOVL      XAR5,*-SP[40]         ; [CPU_ALU] |1124| 
    2608                      .dwpsn  file "D:/GIANT/GIANT_TI_instaspin/TI_instaspin_indoor_smart_trainer/motorware/motorware_1_01_
    2609 0000028c 8AA1          MOVL      XAR4,XAR1             ; [CPU_ALU] |330| 
    2610 0000028d DD54          ADDB      XAR5,#84              ; [CPU_ALU] |330| 
    2611              $C$DW$224       .dwtag  DW_TAG_TI_branch
TMS320C2000 Assembler PC v22.6.0 Tue Apr 18 11:09:46 2023

Copyright (c) 1996-2018 Texas Instruments Incorporated
C:\Users\User\AppData\Local\Temp\{F169EDD6-E2A2-400A-8386-A823CBD75D49} PAGE   50

    2612                      .dwattr $C$DW$224, DW_AT_low_pc(0x00)
    2613                      .dwattr $C$DW$224, DW_AT_name("_CTRL_setWaitTimes")
    2614                      .dwattr $C$DW$224, DW_AT_TI_call
    2615              
    2616 0000028e 7640'         LCR       #_CTRL_setWaitTimes   ; [CPU_ALU] |330| 
         0000028f 0149 
    2617                      ; call occurs [#_CTRL_setWaitTimes] ; [] |330| 
    2618                      .dwpsn  file "D:/GIANT/GIANT_TI_instaspin/TI_instaspin_indoor_smart_trainer/motorware/motorware_1_01_
    2619 00000290 D0F2          MOVB      XAR0,#242             ; [CPU_ALU] |1263| 
    2620 00000291 2B91          MOV       *+XAR1[AR0],#0        ; [CPU_ALU] |1263| 
    2621                      .dwpsn  file "D:/GIANT/GIANT_TI_instaspin/TI_instaspin_indoor_smart_trainer/motorware/motorware_1_01_
    2622 00000292 D0F0          MOVB      XAR0,#240             ; [CPU_ALU] |1219| 
    2623 00000293 2B91          MOV       *+XAR1[AR0],#0        ; [CPU_ALU] |1219| 
    2624                      .dwpsn  file "D:/GIANT/GIANT_TI_instaspin/TI_instaspin_indoor_smart_trainer/motorware/motorware_1_01_
    2625 00000294 D0F3          MOVB      XAR0,#243             ; [CPU_ALU] |1276| 
    2626 00000295 56BF          MOVB      *+XAR1[AR0],#1,UNC    ; [CPU_ALU] |1276| 
         00000296 0191 
    2627                      .dwpsn  file "D:/GIANT/GIANT_TI_instaspin/TI_instaspin_indoor_smart_trainer/motorware/motorware_1_01_
    2628 00000297 D0F4          MOVB      XAR0,#244             ; [CPU_ALU] |1289| 
    2629 00000298 56BF          MOVB      *+XAR1[AR0],#1,UNC    ; [CPU_ALU] |1289| 
         00000299 0191 
    2630                      .dwpsn  file "D:/GIANT/GIANT_TI_instaspin/TI_instaspin_indoor_smart_trainer/motorware/motorware_1_01_
    2631 0000029a D0F5          MOVB      XAR0,#245             ; [CPU_ALU] |1305| 
    2632 0000029b 2B91          MOV       *+XAR1[AR0],#0        ; [CPU_ALU] |1305| 
    2633                      .dwpsn  file "D:/GIANT/GIANT_TI_instaspin/TI_instaspin_indoor_smart_trainer/motorware/motorware_1_01_
    2634 0000029c D0F1          MOVB      XAR0,#241             ; [CPU_ALU] |1247| 
    2635 0000029d 56BF          MOVB      *+XAR1[AR0],#1,UNC    ; [CPU_ALU] |1247| 
         0000029e 0191 
    2636                      .dwpsn  file "D:/GIANT/GIANT_TI_instaspin/TI_instaspin_indoor_smart_trainer/motorware/motorware_1_01_
    2637 0000029f 8D00          MOVL      XAR0,#262             ; [CPU_ALU] |1232| 
         000002a0 0106 
    2638 000002a1 56BF          MOVB      *+XAR1[AR0],#1,UNC    ; [CPU_ALU] |1232| 
         000002a2 0191 
    2639                      .dwpsn  file "D:/GIANT/GIANT_TI_instaspin/TI_instaspin_indoor_smart_trainer/motorware/motorware_1_01_
    2640 000002a3 2BF1          MOV       *+XAR1[6],#0          ; [CPU_ALU] |1194| 
    2641                      .dwpsn  file "D:/GIANT/GIANT_TI_instaspin/TI_instaspin_indoor_smart_trainer/motorware/motorware_1_01_
    2642 000002a4 92E1          MOV       AL,*+XAR1[4]          ; [CPU_ALU] |1779| 
    2643 000002a5 96E9          MOV       *+XAR1[5],AL          ; [CPU_ALU] |1779| 
    2644                      .dwpsn  file "D:/GIANT/GIANT_TI_instaspin/TI_instaspin_indoor_smart_trainer/motorware/motorware_1_01_
    2645 000002a6 56BF          MOVB      *+XAR1[4],#1,UNC      ; [CPU_ALU] |1780| 
         000002a7 01E1 
    2646                      .dwpsn  file "D:/GIANT/GIANT_TI_instaspin/TI_instaspin_indoor_smart_trainer/motorware/motorware_1_01_
    2647 000002a8 8A68          MOVL      XAR4,*-SP[40]         ; [CPU_ALU] |350| 
    2648 000002a9 D00B          MOVB      XAR0,#11              ; [CPU_ALU] |350| 
    2649 000002aa 9294          MOV       AL,*+XAR4[AR0]        ; [CPU_ALU] |350| 
    2650 000002ab 8AA1          MOVL      XAR4,XAR1             ; [CPU_ALU] |350| 
    2651              $C$DW$225       .dwtag  DW_TAG_TI_branch
    2652                      .dwattr $C$DW$225, DW_AT_low_pc(0x00)
    2653                      .dwattr $C$DW$225, DW_AT_name("_CTRL_setupClarke_I")
    2654                      .dwattr $C$DW$225, DW_AT_TI_call
    2655              
    2656 000002ac 7640'         LCR       #_CTRL_setupClarke_I  ; [CPU_ALU] |350| 
         000002ad 0123 
    2657                      ; call occurs [#_CTRL_setupClarke_I] ; [] |350| 
    2658                      .dwpsn  file "D:/GIANT/GIANT_TI_instaspin/TI_instaspin_indoor_smart_trainer/motorware/motorware_1_01_
TMS320C2000 Assembler PC v22.6.0 Tue Apr 18 11:09:46 2023

Copyright (c) 1996-2018 Texas Instruments Incorporated
C:\Users\User\AppData\Local\Temp\{F169EDD6-E2A2-400A-8386-A823CBD75D49} PAGE   51

    2659 000002ae 8A68          MOVL      XAR4,*-SP[40]         ; [CPU_ALU] |353| 
    2660 000002af D00C          MOVB      XAR0,#12              ; [CPU_ALU] |353| 
    2661 000002b0 9294          MOV       AL,*+XAR4[AR0]        ; [CPU_ALU] |353| 
    2662 000002b1 8AA1          MOVL      XAR4,XAR1             ; [CPU_ALU] |353| 
    2663              $C$DW$226       .dwtag  DW_TAG_TI_branch
    2664                      .dwattr $C$DW$226, DW_AT_low_pc(0x00)
    2665                      .dwattr $C$DW$226, DW_AT_name("_CTRL_setupClarke_V")
    2666                      .dwattr $C$DW$226, DW_AT_TI_call
    2667              
    2668 000002b2 7640'         LCR       #_CTRL_setupClarke_V  ; [CPU_ALU] |353| 
         000002b3 010D 
    2669                      ; call occurs [#_CTRL_setupClarke_V] ; [] |353| 
    2670                      .dwpsn  file "D:/GIANT/GIANT_TI_instaspin/TI_instaspin_indoor_smart_trainer/motorware/motorware_1_01_
    2671 000002b4 28A9          MOV       AL,#4719              ; [CPU_ALU] |357| 
         000002b5 126F 
    2672 000002b6 8A68          MOVL      XAR4,*-SP[40]         ; [CPU_ALU] |357| 
    2673 000002b7 28A8          MOV       AH,#15235             ; [CPU_ALU] |357| 
         000002b8 3B83 
    2674 000002b9 D0A6          MOVB      XAR0,#166             ; [CPU_ALU] |357| 
    2675 000002ba 1E42          MOVL      *-SP[2],ACC           ; [CPU_ALU] |357| 
    2676 000002bb 0694          MOVL      ACC,*+XAR4[AR0]       ; [CPU_ALU] |357| 
    2677              $C$DW$227       .dwtag  DW_TAG_TI_branch
    2678                      .dwattr $C$DW$227, DW_AT_low_pc(0x00)
    2679                      .dwattr $C$DW$227, DW_AT_name("FS$$DIV")
    2680                      .dwattr $C$DW$227, DW_AT_TI_call
    2681              
    2682 000002bc 7640!         LCR       #FS$$DIV              ; [CPU_ALU] |357| 
         000002bd 0000 
    2683                      ; call occurs [#FS$$DIV] ; [] |357| 
    2684 000002be 5CAD          MOVZ      AR4,SP                ; [CPU_ALU] |357| 
    2685 000002bf DCA4          SUBB      XAR4,#36              ; [CPU_ARAU] |357| 
    2686 000002c0 88A4          MOVZ      AR6,AR4               ; [CPU_ALU] |357| 
    2687              $C$DW$228       .dwtag  DW_TAG_TI_branch
    2688                      .dwattr $C$DW$228, DW_AT_low_pc(0x00)
    2689                      .dwattr $C$DW$228, DW_AT_name("FS$$TOFD")
    2690                      .dwattr $C$DW$228, DW_AT_TI_call
    2691              
    2692 000002c1 7640!         LCR       #FS$$TOFD             ; [CPU_ALU] |357| 
         000002c2 0000 
    2693                      ; call occurs [#FS$$TOFD] ; [] |357| 
    2694 000002c3 5DAD          MOVZ      AR5,SP                ; [CPU_ALU] |357| 
    2695 000002c4 5CAD          MOVZ      AR4,SP                ; [CPU_ALU] |357| 
    2696 000002c5 DDA0          SUBB      XAR5,#32              ; [CPU_ARAU] |357| 
    2697 000002c6 DCA4          SUBB      XAR4,#36              ; [CPU_ARAU] |357| 
    2698 000002c7 88A5          MOVZ      AR6,AR5               ; [CPU_ALU] |357| 
    2699 000002c8 5CA4          MOVZ      AR4,AR4               ; [CPU_ALU] |357| 
    2700 000002c9 8F40+         MOVL      XAR5,#$C$FL1          ; [CPU_ARAU] |357| 
         000002ca 0000 
    2701              $C$DW$229       .dwtag  DW_TAG_TI_branch
    2702                      .dwattr $C$DW$229, DW_AT_low_pc(0x00)
    2703                      .dwattr $C$DW$229, DW_AT_name("FD$$MPY")
    2704                      .dwattr $C$DW$229, DW_AT_TI_call
    2705              
    2706 000002cb 7640!         LCR       #FD$$MPY              ; [CPU_ALU] |357| 
         000002cc 0000 
TMS320C2000 Assembler PC v22.6.0 Tue Apr 18 11:09:46 2023

Copyright (c) 1996-2018 Texas Instruments Incorporated
C:\Users\User\AppData\Local\Temp\{F169EDD6-E2A2-400A-8386-A823CBD75D49} PAGE   52

    2707                      ; call occurs [#FD$$MPY] ; [] |357| 
    2708 000002cd 5CAD          MOVZ      AR4,SP                ; [CPU_ALU] |357| 
    2709 000002ce DCA0          SUBB      XAR4,#32              ; [CPU_ARAU] |357| 
    2710 000002cf 5CA4          MOVZ      AR4,AR4               ; [CPU_ALU] |357| 
    2711              $C$DW$230       .dwtag  DW_TAG_TI_branch
    2712                      .dwattr $C$DW$230, DW_AT_low_pc(0x00)
    2713                      .dwattr $C$DW$230, DW_AT_name("FD$$TOL")
    2714                      .dwattr $C$DW$230, DW_AT_TI_call
    2715              
    2716 000002d0 7640!         LCR       #FD$$TOL              ; [CPU_ALU] |357| 
         000002d1 0000 
    2717                      ; call occurs [#FD$$TOL] ; [] |357| 
    2718                      .dwpsn  file "D:/GIANT/GIANT_TI_instaspin/TI_instaspin_indoor_smart_trainer/motorware/motorware_1_01_
    2719 000002d2 D020          MOVB      XAR0,#32              ; [CPU_ALU] |456| 
    2720 000002d3 8A91          MOVL      XAR4,*+XAR1[AR0]      ; [CPU_ALU] |456| 
    2721                      .dwpsn  file "D:/GIANT/GIANT_TI_instaspin/TI_instaspin_indoor_smart_trainer/motorware/motorware_1_01_
    2722 000002d4 8F59          MOVL      XAR5,#1677721         ; [CPU_ARAU] |459| 
         000002d5 9999 
    2723                      .dwpsn  file "D:/GIANT/GIANT_TI_instaspin/TI_instaspin_indoor_smart_trainer/motorware/motorware_1_01_
    2724 000002d6 1EA6          MOVL      XAR6,ACC              ; [CPU_ALU] |456| 
    2725                      .dwpsn  file "D:/GIANT/GIANT_TI_instaspin/TI_instaspin_indoor_smart_trainer/motorware/motorware_1_01_
    2726 000002d7 D020          MOVB      XAR0,#32              ; [CPU_ALU] |560| 
    2727                      .dwpsn  file "D:/GIANT/GIANT_TI_instaspin/TI_instaspin_indoor_smart_trainer/motorware/motorware_1_01_
    2728 000002d8 A0C4          MOVL      *+XAR4[0],XAR5        ; [CPU_ALU] |459| 
    2729                      .dwpsn  file "D:/GIANT/GIANT_TI_instaspin/TI_instaspin_indoor_smart_trainer/motorware/motorware_1_01_
    2730 000002d9 1ED4          MOVL      *+XAR4[2],ACC         ; [CPU_ALU] |460| 
    2731                      .dwpsn  file "D:/GIANT/GIANT_TI_instaspin/TI_instaspin_indoor_smart_trainer/motorware/motorware_1_01_
    2732 000002da 0200          MOVB      ACC,#0                ; [CPU_ALU] |461| 
    2733 000002db 1EE4          MOVL      *+XAR4[4],ACC         ; [CPU_ALU] |461| 
    2734                      .dwpsn  file "D:/GIANT/GIANT_TI_instaspin/TI_instaspin_indoor_smart_trainer/motorware/motorware_1_01_
    2735 000002dc 8A91          MOVL      XAR4,*+XAR1[AR0]      ; [CPU_ALU] |560| 
    2736                      .dwpsn  file "D:/GIANT/GIANT_TI_instaspin/TI_instaspin_indoor_smart_trainer/motorware/motorware_1_01_
    2737 000002dd D020          MOVB      XAR0,#32              ; [CPU_ALU] |508| 
    2738                      .dwpsn  file "D:/GIANT/GIANT_TI_instaspin/TI_instaspin_indoor_smart_trainer/motorware/motorware_1_01_
    2739 000002de 1EF4          MOVL      *+XAR4[6],ACC         ; [CPU_ALU] |560| 
    2740                      .dwpsn  file "D:/GIANT/GIANT_TI_instaspin/TI_instaspin_indoor_smart_trainer/motorware/motorware_1_01_
    2741 000002df 28A9          MOV       AL,#52429             ; [CPU_ALU] |511| 
         000002e0 CCCD 
    2742                      .dwpsn  file "D:/GIANT/GIANT_TI_instaspin/TI_instaspin_indoor_smart_trainer/motorware/motorware_1_01_
    2743 000002e1 8A91          MOVL      XAR4,*+XAR1[AR0]      ; [CPU_ALU] |508| 
    2744                      .dwpsn  file "D:/GIANT/GIANT_TI_instaspin/TI_instaspin_indoor_smart_trainer/motorware/motorware_1_01_
    2745 000002e2 28A8          MOV       AH,#65292             ; [CPU_ALU] |511| 
         000002e3 FF0C 
    2746                      .dwpsn  file "D:/GIANT/GIANT_TI_instaspin/TI_instaspin_indoor_smart_trainer/motorware/motorware_1_01_
    2747 000002e4 D501          MOVB      XAR5,#1               ; [CPU_ALU] |365| 
    2748                      .dwpsn  file "D:/GIANT/GIANT_TI_instaspin/TI_instaspin_indoor_smart_trainer/motorware/motorware_1_01_
    2749 000002e5 D00C          MOVB      XAR0,#12              ; [CPU_ALU] |511| 
    2750 000002e6 1E94          MOVL      *+XAR4[AR0],ACC       ; [CPU_ALU] |511| 
    2751                      .dwpsn  file "D:/GIANT/GIANT_TI_instaspin/TI_instaspin_indoor_smart_trainer/motorware/motorware_1_01_
    2752 000002e7 D00E          MOVB      XAR0,#14              ; [CPU_ALU] |512| 
    2753 000002e8 28A9          MOV       AL,#13107             ; [CPU_ALU] |512| 
         000002e9 3333 
    2754 000002ea 9BF3          MOV       AH,#243               ; [CPU_ALU] |512| 
    2755 000002eb 1E94          MOVL      *+XAR4[AR0],ACC       ; [CPU_ALU] |512| 
    2756                      .dwpsn  file "D:/GIANT/GIANT_TI_instaspin/TI_instaspin_indoor_smart_trainer/motorware/motorware_1_01_
TMS320C2000 Assembler PC v22.6.0 Tue Apr 18 11:09:46 2023

Copyright (c) 1996-2018 Texas Instruments Incorporated
C:\Users\User\AppData\Local\Temp\{F169EDD6-E2A2-400A-8386-A823CBD75D49} PAGE   53

    2757 000002ec 0200          MOVB      ACC,#0                ; [CPU_ALU] |365| 
    2758 000002ed 8AA1          MOVL      XAR4,XAR1             ; [CPU_ALU] |365| 
    2759 000002ee C242          MOVL      *-SP[2],XAR6          ; [CPU_ALU] |365| 
    2760 000002ef 7699          MOVL      XAR6,#1677721         ; [CPU_ARAU] |365| 
         000002f0 9999 
    2761 000002f1 1E44          MOVL      *-SP[4],ACC           ; [CPU_ALU] |365| 
    2762 000002f2 06A6          MOVL      ACC,XAR6              ; [CPU_ALU] |365| 
    2763              $C$DW$231       .dwtag  DW_TAG_TI_branch
    2764                      .dwattr $C$DW$231, DW_AT_low_pc(0x00)
    2765                      .dwattr $C$DW$231, DW_AT_name("_CTRL_setGains")
    2766                      .dwattr $C$DW$231, DW_AT_TI_call
    2767              
    2768 000002f3 7640'         LCR       #_CTRL_setGains       ; [CPU_ALU] |365| 
         000002f4 0168 
    2769                      ; call occurs [#_CTRL_setGains] ; [] |365| 
    2770                      .dwpsn  file "D:/GIANT/GIANT_TI_instaspin/TI_instaspin_indoor_smart_trainer/motorware/motorware_1_01_
    2771 000002f5 28A9          MOV       AL,#4719              ; [CPU_ALU] |369| 
         000002f6 126F 
    2772 000002f7 8A68          MOVL      XAR4,*-SP[40]         ; [CPU_ALU] |369| 
    2773 000002f8 28A8          MOV       AH,#15235             ; [CPU_ALU] |369| 
         000002f9 3B83 
    2774 000002fa D0A6          MOVB      XAR0,#166             ; [CPU_ALU] |369| 
    2775 000002fb 1E42          MOVL      *-SP[2],ACC           ; [CPU_ALU] |369| 
    2776 000002fc 0694          MOVL      ACC,*+XAR4[AR0]       ; [CPU_ALU] |369| 
    2777              $C$DW$232       .dwtag  DW_TAG_TI_branch
    2778                      .dwattr $C$DW$232, DW_AT_low_pc(0x00)
    2779                      .dwattr $C$DW$232, DW_AT_name("FS$$DIV")
    2780                      .dwattr $C$DW$232, DW_AT_TI_call
    2781              
    2782 000002fd 7640!         LCR       #FS$$DIV              ; [CPU_ALU] |369| 
         000002fe 0000 
    2783                      ; call occurs [#FS$$DIV] ; [] |369| 
    2784 000002ff 5CAD          MOVZ      AR4,SP                ; [CPU_ALU] |369| 
    2785 00000300 DCA4          SUBB      XAR4,#36              ; [CPU_ARAU] |369| 
    2786 00000301 88A4          MOVZ      AR6,AR4               ; [CPU_ALU] |369| 
    2787              $C$DW$233       .dwtag  DW_TAG_TI_branch
    2788                      .dwattr $C$DW$233, DW_AT_low_pc(0x00)
    2789                      .dwattr $C$DW$233, DW_AT_name("FS$$TOFD")
    2790                      .dwattr $C$DW$233, DW_AT_TI_call
    2791              
    2792 00000302 7640!         LCR       #FS$$TOFD             ; [CPU_ALU] |369| 
         00000303 0000 
    2793                      ; call occurs [#FS$$TOFD] ; [] |369| 
    2794 00000304 5DAD          MOVZ      AR5,SP                ; [CPU_ALU] |369| 
    2795 00000305 5CAD          MOVZ      AR4,SP                ; [CPU_ALU] |369| 
    2796 00000306 DDA0          SUBB      XAR5,#32              ; [CPU_ARAU] |369| 
    2797 00000307 DCA4          SUBB      XAR4,#36              ; [CPU_ARAU] |369| 
    2798 00000308 88A5          MOVZ      AR6,AR5               ; [CPU_ALU] |369| 
    2799 00000309 5CA4          MOVZ      AR4,AR4               ; [CPU_ALU] |369| 
    2800 0000030a 8F40+         MOVL      XAR5,#$C$FL1          ; [CPU_ARAU] |369| 
         0000030b 0000 
    2801              $C$DW$234       .dwtag  DW_TAG_TI_branch
    2802                      .dwattr $C$DW$234, DW_AT_low_pc(0x00)
    2803                      .dwattr $C$DW$234, DW_AT_name("FD$$MPY")
    2804                      .dwattr $C$DW$234, DW_AT_TI_call
TMS320C2000 Assembler PC v22.6.0 Tue Apr 18 11:09:46 2023

Copyright (c) 1996-2018 Texas Instruments Incorporated
C:\Users\User\AppData\Local\Temp\{F169EDD6-E2A2-400A-8386-A823CBD75D49} PAGE   54

    2805              
    2806 0000030c 7640!         LCR       #FD$$MPY              ; [CPU_ALU] |369| 
         0000030d 0000 
    2807                      ; call occurs [#FD$$MPY] ; [] |369| 
    2808 0000030e 5CAD          MOVZ      AR4,SP                ; [CPU_ALU] |369| 
    2809 0000030f DCA0          SUBB      XAR4,#32              ; [CPU_ARAU] |369| 
    2810 00000310 5CA4          MOVZ      AR4,AR4               ; [CPU_ALU] |369| 
    2811              $C$DW$235       .dwtag  DW_TAG_TI_branch
    2812                      .dwattr $C$DW$235, DW_AT_low_pc(0x00)
    2813                      .dwattr $C$DW$235, DW_AT_name("FD$$TOL")
    2814                      .dwattr $C$DW$235, DW_AT_TI_call
    2815              
    2816 00000311 7640!         LCR       #FD$$TOL              ; [CPU_ALU] |369| 
         00000312 0000 
    2817                      ; call occurs [#FD$$TOL] ; [] |369| 
    2818                      .dwpsn  file "D:/GIANT/GIANT_TI_instaspin/TI_instaspin_indoor_smart_trainer/motorware/motorware_1_01_
    2819 00000313 D032          MOVB      XAR0,#50              ; [CPU_ALU] |456| 
    2820 00000314 8A91          MOVL      XAR4,*+XAR1[AR0]      ; [CPU_ALU] |456| 
    2821                      .dwpsn  file "D:/GIANT/GIANT_TI_instaspin/TI_instaspin_indoor_smart_trainer/motorware/motorware_1_01_
    2822 00000315 8F59          MOVL      XAR5,#1677721         ; [CPU_ARAU] |459| 
         00000316 9999 
    2823                      .dwpsn  file "D:/GIANT/GIANT_TI_instaspin/TI_instaspin_indoor_smart_trainer/motorware/motorware_1_01_
    2824 00000317 1EA6          MOVL      XAR6,ACC              ; [CPU_ALU] |456| 
    2825                      .dwpsn  file "D:/GIANT/GIANT_TI_instaspin/TI_instaspin_indoor_smart_trainer/motorware/motorware_1_01_
    2826 00000318 D032          MOVB      XAR0,#50              ; [CPU_ALU] |560| 
    2827                      .dwpsn  file "D:/GIANT/GIANT_TI_instaspin/TI_instaspin_indoor_smart_trainer/motorware/motorware_1_01_
    2828 00000319 A0C4          MOVL      *+XAR4[0],XAR5        ; [CPU_ALU] |459| 
    2829                      .dwpsn  file "D:/GIANT/GIANT_TI_instaspin/TI_instaspin_indoor_smart_trainer/motorware/motorware_1_01_
    2830 0000031a 1ED4          MOVL      *+XAR4[2],ACC         ; [CPU_ALU] |460| 
    2831                      .dwpsn  file "D:/GIANT/GIANT_TI_instaspin/TI_instaspin_indoor_smart_trainer/motorware/motorware_1_01_
    2832 0000031b 0200          MOVB      ACC,#0                ; [CPU_ALU] |461| 
    2833 0000031c 1EE4          MOVL      *+XAR4[4],ACC         ; [CPU_ALU] |461| 
    2834                      .dwpsn  file "D:/GIANT/GIANT_TI_instaspin/TI_instaspin_indoor_smart_trainer/motorware/motorware_1_01_
    2835 0000031d 8A91          MOVL      XAR4,*+XAR1[AR0]      ; [CPU_ALU] |560| 
    2836                      .dwpsn  file "D:/GIANT/GIANT_TI_instaspin/TI_instaspin_indoor_smart_trainer/motorware/motorware_1_01_
    2837 0000031e D032          MOVB      XAR0,#50              ; [CPU_ALU] |508| 
    2838                      .dwpsn  file "D:/GIANT/GIANT_TI_instaspin/TI_instaspin_indoor_smart_trainer/motorware/motorware_1_01_
    2839 0000031f 1EF4          MOVL      *+XAR4[6],ACC         ; [CPU_ALU] |560| 
    2840                      .dwpsn  file "D:/GIANT/GIANT_TI_instaspin/TI_instaspin_indoor_smart_trainer/motorware/motorware_1_01_
    2841 00000320 28A9          MOV       AL,#52429             ; [CPU_ALU] |511| 
         00000321 CCCD 
    2842                      .dwpsn  file "D:/GIANT/GIANT_TI_instaspin/TI_instaspin_indoor_smart_trainer/motorware/motorware_1_01_
    2843 00000322 8A91          MOVL      XAR4,*+XAR1[AR0]      ; [CPU_ALU] |508| 
    2844                      .dwpsn  file "D:/GIANT/GIANT_TI_instaspin/TI_instaspin_indoor_smart_trainer/motorware/motorware_1_01_
    2845 00000323 28A8          MOV       AH,#65292             ; [CPU_ALU] |511| 
         00000324 FF0C 
    2846                      .dwpsn  file "D:/GIANT/GIANT_TI_instaspin/TI_instaspin_indoor_smart_trainer/motorware/motorware_1_01_
    2847 00000325 D502          MOVB      XAR5,#2               ; [CPU_ALU] |377| 
    2848                      .dwpsn  file "D:/GIANT/GIANT_TI_instaspin/TI_instaspin_indoor_smart_trainer/motorware/motorware_1_01_
    2849 00000326 D00C          MOVB      XAR0,#12              ; [CPU_ALU] |511| 
    2850 00000327 1E94          MOVL      *+XAR4[AR0],ACC       ; [CPU_ALU] |511| 
    2851                      .dwpsn  file "D:/GIANT/GIANT_TI_instaspin/TI_instaspin_indoor_smart_trainer/motorware/motorware_1_01_
    2852 00000328 D00E          MOVB      XAR0,#14              ; [CPU_ALU] |512| 
    2853 00000329 28A9          MOV       AL,#13107             ; [CPU_ALU] |512| 
         0000032a 3333 
TMS320C2000 Assembler PC v22.6.0 Tue Apr 18 11:09:46 2023

Copyright (c) 1996-2018 Texas Instruments Incorporated
C:\Users\User\AppData\Local\Temp\{F169EDD6-E2A2-400A-8386-A823CBD75D49} PAGE   55

    2854 0000032b 9BF3          MOV       AH,#243               ; [CPU_ALU] |512| 
    2855 0000032c 1E94          MOVL      *+XAR4[AR0],ACC       ; [CPU_ALU] |512| 
    2856                      .dwpsn  file "D:/GIANT/GIANT_TI_instaspin/TI_instaspin_indoor_smart_trainer/motorware/motorware_1_01_
    2857 0000032d 0200          MOVB      ACC,#0                ; [CPU_ALU] |377| 
    2858 0000032e 8AA1          MOVL      XAR4,XAR1             ; [CPU_ALU] |377| 
    2859 0000032f C242          MOVL      *-SP[2],XAR6          ; [CPU_ALU] |377| 
    2860 00000330 7699          MOVL      XAR6,#1677721         ; [CPU_ARAU] |377| 
         00000331 9999 
    2861 00000332 1E44          MOVL      *-SP[4],ACC           ; [CPU_ALU] |377| 
    2862 00000333 06A6          MOVL      ACC,XAR6              ; [CPU_ALU] |377| 
    2863              $C$DW$236       .dwtag  DW_TAG_TI_branch
    2864                      .dwattr $C$DW$236, DW_AT_low_pc(0x00)
    2865                      .dwattr $C$DW$236, DW_AT_name("_CTRL_setGains")
    2866                      .dwattr $C$DW$236, DW_AT_TI_call
    2867              
    2868 00000334 7640'         LCR       #_CTRL_setGains       ; [CPU_ALU] |377| 
         00000335 0168 
    2869                      ; call occurs [#_CTRL_setGains] ; [] |377| 
    2870 00000336 8A68          MOVL      XAR4,*-SP[40]         ; [CPU_ALU] |377| 
    2871                      .dwpsn  file "D:/GIANT/GIANT_TI_instaspin/TI_instaspin_indoor_smart_trainer/motorware/motorware_1_01_
    2872 00000337 D040          MOVB      XAR0,#64              ; [CPU_ALU] |380| 
    2873 00000338 06C4          MOVL      ACC,*+XAR4[0]         ; [CPU_ALU] |380| 
    2874 00000339 1E66          MOVL      *-SP[38],ACC          ; [CPU_ALU] |380| 
    2875 0000033a 28A9          MOV       AL,#55050             ; [CPU_ALU] |380| 
         0000033b D70A 
    2876 0000033c 8294          MOVL      XAR3,*+XAR4[AR0]      ; [CPU_ALU] |380| 
    2877 0000033d 28A8          MOV       AH,#15523             ; [CPU_ALU] |380| 
         0000033e 3CA3 
    2878 0000033f 86E4          MOVL      XAR2,*+XAR4[4]        ; [CPU_ALU] |380| 
    2879 00000340 1E42          MOVL      *-SP[2],ACC           ; [CPU_ALU] |380| 
    2880 00000341 A2A9          MOVL      ACC,XAR3              ; [CPU_ALU] |380| 
    2881              $C$DW$237       .dwtag  DW_TAG_TI_branch
    2882                      .dwattr $C$DW$237, DW_AT_low_pc(0x00)
    2883                      .dwattr $C$DW$237, DW_AT_name("FS$$MPY")
    2884                      .dwattr $C$DW$237, DW_AT_TI_call
    2885              
    2886 00000342 7640!         LCR       #FS$$MPY              ; [CPU_ALU] |380| 
         00000343 0000 
    2887                      ; call occurs [#FS$$MPY] ; [] |380| 
    2888 00000344 AA42          MOVL      *-SP[2],XAR2          ; [CPU_ALU] |380| 
    2889              $C$DW$238       .dwtag  DW_TAG_TI_branch
    2890                      .dwattr $C$DW$238, DW_AT_low_pc(0x00)
    2891                      .dwattr $C$DW$238, DW_AT_name("FS$$MPY")
    2892                      .dwattr $C$DW$238, DW_AT_TI_call
    2893              
    2894 00000345 7640!         LCR       #FS$$MPY              ; [CPU_ALU] |380| 
         00000346 0000 
    2895                      ; call occurs [#FS$$MPY] ; [] |380| 
    2896 00000347 C466          MOVL      XAR6,*-SP[38]         ; [CPU_ALU] |380| 
    2897 00000348 C242          MOVL      *-SP[2],XAR6          ; [CPU_ALU] |380| 
    2898              $C$DW$239       .dwtag  DW_TAG_TI_branch
    2899                      .dwattr $C$DW$239, DW_AT_low_pc(0x00)
    2900                      .dwattr $C$DW$239, DW_AT_name("FS$$DIV")
    2901                      .dwattr $C$DW$239, DW_AT_TI_call
    2902              
TMS320C2000 Assembler PC v22.6.0 Tue Apr 18 11:09:46 2023

Copyright (c) 1996-2018 Texas Instruments Incorporated
C:\Users\User\AppData\Local\Temp\{F169EDD6-E2A2-400A-8386-A823CBD75D49} PAGE   56

    2903 00000349 7640!         LCR       #FS$$DIV              ; [CPU_ALU] |380| 
         0000034a 0000 
    2904                      ; call occurs [#FS$$DIV] ; [] |380| 
    2905 0000034b 5CAD          MOVZ      AR4,SP                ; [CPU_ALU] |380| 
    2906 0000034c DCA4          SUBB      XAR4,#36              ; [CPU_ARAU] |380| 
    2907 0000034d 88A4          MOVZ      AR6,AR4               ; [CPU_ALU] |380| 
    2908              $C$DW$240       .dwtag  DW_TAG_TI_branch
    2909                      .dwattr $C$DW$240, DW_AT_low_pc(0x00)
    2910                      .dwattr $C$DW$240, DW_AT_name("FS$$TOFD")
    2911                      .dwattr $C$DW$240, DW_AT_TI_call
    2912              
    2913 0000034e 7640!         LCR       #FS$$TOFD             ; [CPU_ALU] |380| 
         0000034f 0000 
    2914                      ; call occurs [#FS$$TOFD] ; [] |380| 
    2915 00000350 5DAD          MOVZ      AR5,SP                ; [CPU_ALU] |380| 
    2916 00000351 5CAD          MOVZ      AR4,SP                ; [CPU_ALU] |380| 
    2917 00000352 DDA0          SUBB      XAR5,#32              ; [CPU_ARAU] |380| 
    2918 00000353 DCA4          SUBB      XAR4,#36              ; [CPU_ARAU] |380| 
    2919 00000354 88A5          MOVZ      AR6,AR5               ; [CPU_ALU] |380| 
    2920 00000355 5CA4          MOVZ      AR4,AR4               ; [CPU_ALU] |380| 
    2921 00000356 8F40+         MOVL      XAR5,#$C$FL1          ; [CPU_ARAU] |380| 
         00000357 0000 
    2922              $C$DW$241       .dwtag  DW_TAG_TI_branch
    2923                      .dwattr $C$DW$241, DW_AT_low_pc(0x00)
    2924                      .dwattr $C$DW$241, DW_AT_name("FD$$MPY")
    2925                      .dwattr $C$DW$241, DW_AT_TI_call
    2926              
    2927 00000358 7640!         LCR       #FD$$MPY              ; [CPU_ALU] |380| 
         00000359 0000 
    2928                      ; call occurs [#FD$$MPY] ; [] |380| 
    2929 0000035a 5CAD          MOVZ      AR4,SP                ; [CPU_ALU] |380| 
    2930 0000035b DCA0          SUBB      XAR4,#32              ; [CPU_ARAU] |380| 
    2931 0000035c 5CA4          MOVZ      AR4,AR4               ; [CPU_ALU] |380| 
    2932              $C$DW$242       .dwtag  DW_TAG_TI_branch
    2933                      .dwattr $C$DW$242, DW_AT_low_pc(0x00)
    2934                      .dwattr $C$DW$242, DW_AT_name("FD$$TOL")
    2935                      .dwattr $C$DW$242, DW_AT_TI_call
    2936              
    2937 0000035d 7640!         LCR       #FD$$TOL              ; [CPU_ALU] |380| 
         0000035e 0000 
    2938                      ; call occurs [#FD$$TOL] ; [] |380| 
    2939 0000035f 1E6A          MOVL      *-SP[42],ACC          ; [CPU_ALU] |380| 
    2940                      .dwpsn  file "D:/GIANT/GIANT_TI_instaspin/TI_instaspin_indoor_smart_trainer/motorware/motorware_1_01_
    2941 00000360 A242          MOVL      *-SP[2],XAR3          ; [CPU_ALU] |383| 
    2942 00000361 A2A9          MOVL      ACC,XAR3              ; [CPU_ALU] |383| 
    2943              $C$DW$243       .dwtag  DW_TAG_TI_branch
    2944                      .dwattr $C$DW$243, DW_AT_low_pc(0x00)
    2945                      .dwattr $C$DW$243, DW_AT_name("FS$$ADD")
    2946                      .dwattr $C$DW$243, DW_AT_TI_call
    2947              
    2948 00000362 7640!         LCR       #FS$$ADD              ; [CPU_ALU] |383| 
         00000363 0000 
    2949                      ; call occurs [#FS$$ADD] ; [] |383| 
    2950 00000364 AA42          MOVL      *-SP[2],XAR2          ; [CPU_ALU] |383| 
    2951              $C$DW$244       .dwtag  DW_TAG_TI_branch
TMS320C2000 Assembler PC v22.6.0 Tue Apr 18 11:09:46 2023

Copyright (c) 1996-2018 Texas Instruments Incorporated
C:\Users\User\AppData\Local\Temp\{F169EDD6-E2A2-400A-8386-A823CBD75D49} PAGE   57

    2952                      .dwattr $C$DW$244, DW_AT_low_pc(0x00)
    2953                      .dwattr $C$DW$244, DW_AT_name("FS$$MPY")
    2954                      .dwattr $C$DW$244, DW_AT_TI_call
    2955              
    2956 00000365 7640!         LCR       #FS$$MPY              ; [CPU_ALU] |383| 
         00000366 0000 
    2957                      ; call occurs [#FS$$MPY] ; [] |383| 
    2958 00000367 8A68          MOVL      XAR4,*-SP[40]         ; [CPU_ALU] |383| 
    2959 00000368 D0A6          MOVB      XAR0,#166             ; [CPU_ALU] |383| 
    2960 00000369 C494          MOVL      XAR6,*+XAR4[AR0]      ; [CPU_ALU] |383| 
    2961 0000036a C242          MOVL      *-SP[2],XAR6          ; [CPU_ALU] |383| 
    2962              $C$DW$245       .dwtag  DW_TAG_TI_branch
    2963                      .dwattr $C$DW$245, DW_AT_low_pc(0x00)
    2964                      .dwattr $C$DW$245, DW_AT_name("FS$$MPY")
    2965                      .dwattr $C$DW$245, DW_AT_TI_call
    2966              
    2967 0000036b 7640!         LCR       #FS$$MPY              ; [CPU_ALU] |383| 
         0000036c 0000 
    2968                      ; call occurs [#FS$$MPY] ; [] |383| 
    2969 0000036d C466          MOVL      XAR6,*-SP[38]         ; [CPU_ALU] |383| 
    2970 0000036e C242          MOVL      *-SP[2],XAR6          ; [CPU_ALU] |383| 
    2971              $C$DW$246       .dwtag  DW_TAG_TI_branch
    2972                      .dwattr $C$DW$246, DW_AT_low_pc(0x00)
    2973                      .dwattr $C$DW$246, DW_AT_name("FS$$DIV")
    2974                      .dwattr $C$DW$246, DW_AT_TI_call
    2975              
    2976 0000036f 7640!         LCR       #FS$$DIV              ; [CPU_ALU] |383| 
         00000370 0000 
    2977                      ; call occurs [#FS$$DIV] ; [] |383| 
    2978 00000371 5CAD          MOVZ      AR4,SP                ; [CPU_ALU] |383| 
    2979 00000372 DCA4          SUBB      XAR4,#36              ; [CPU_ARAU] |383| 
    2980 00000373 88A4          MOVZ      AR6,AR4               ; [CPU_ALU] |383| 
    2981              $C$DW$247       .dwtag  DW_TAG_TI_branch
    2982                      .dwattr $C$DW$247, DW_AT_low_pc(0x00)
    2983                      .dwattr $C$DW$247, DW_AT_name("FS$$TOFD")
    2984                      .dwattr $C$DW$247, DW_AT_TI_call
    2985              
    2986 00000374 7640!         LCR       #FS$$TOFD             ; [CPU_ALU] |383| 
         00000375 0000 
    2987                      ; call occurs [#FS$$TOFD] ; [] |383| 
    2988 00000376 5DAD          MOVZ      AR5,SP                ; [CPU_ALU] |383| 
    2989 00000377 5CAD          MOVZ      AR4,SP                ; [CPU_ALU] |383| 
    2990 00000378 DDA0          SUBB      XAR5,#32              ; [CPU_ARAU] |383| 
    2991 00000379 DCA4          SUBB      XAR4,#36              ; [CPU_ARAU] |383| 
    2992 0000037a 88A5          MOVZ      AR6,AR5               ; [CPU_ALU] |383| 
    2993 0000037b 5CA4          MOVZ      AR4,AR4               ; [CPU_ALU] |383| 
    2994 0000037c 8F40+         MOVL      XAR5,#$C$FL1          ; [CPU_ARAU] |383| 
         0000037d 0000 
    2995              $C$DW$248       .dwtag  DW_TAG_TI_branch
    2996                      .dwattr $C$DW$248, DW_AT_low_pc(0x00)
    2997                      .dwattr $C$DW$248, DW_AT_name("FD$$MPY")
    2998                      .dwattr $C$DW$248, DW_AT_TI_call
    2999              
    3000 0000037e 7640!         LCR       #FD$$MPY              ; [CPU_ALU] |383| 
         0000037f 0000 
TMS320C2000 Assembler PC v22.6.0 Tue Apr 18 11:09:46 2023

Copyright (c) 1996-2018 Texas Instruments Incorporated
C:\Users\User\AppData\Local\Temp\{F169EDD6-E2A2-400A-8386-A823CBD75D49} PAGE   58

    3001                      ; call occurs [#FD$$MPY] ; [] |383| 
    3002 00000380 5CAD          MOVZ      AR4,SP                ; [CPU_ALU] |383| 
    3003 00000381 DCA0          SUBB      XAR4,#32              ; [CPU_ARAU] |383| 
    3004 00000382 5CA4          MOVZ      AR4,AR4               ; [CPU_ALU] |383| 
    3005              $C$DW$249       .dwtag  DW_TAG_TI_branch
    3006                      .dwattr $C$DW$249, DW_AT_low_pc(0x00)
    3007                      .dwattr $C$DW$249, DW_AT_name("FD$$TOL")
    3008                      .dwattr $C$DW$249, DW_AT_TI_call
    3009              
    3010 00000383 7640!         LCR       #FD$$TOL              ; [CPU_ALU] |383| 
         00000384 0000 
    3011                      ; call occurs [#FD$$TOL] ; [] |383| 
    3012                      .dwpsn  file "D:/GIANT/GIANT_TI_instaspin/TI_instaspin_indoor_smart_trainer/motorware/motorware_1_01_
    3013 00000385 D044          MOVB      XAR0,#68              ; [CPU_ALU] |456| 
    3014 00000386 8A91          MOVL      XAR4,*+XAR1[AR0]      ; [CPU_ALU] |456| 
    3015 00000387 1EA6          MOVL      XAR6,ACC              ; [CPU_ALU] |456| 
    3016 00000388 066A          MOVL      ACC,*-SP[42]          ; [CPU_ALU] |456| 
    3017                      .dwpsn  file "D:/GIANT/GIANT_TI_instaspin/TI_instaspin_indoor_smart_trainer/motorware/motorware_1_01_
    3018 00000389 D044          MOVB      XAR0,#68              ; [CPU_ALU] |560| 
    3019                      .dwpsn  file "D:/GIANT/GIANT_TI_instaspin/TI_instaspin_indoor_smart_trainer/motorware/motorware_1_01_
    3020 0000038a 1EC4          MOVL      *+XAR4[0],ACC         ; [CPU_ALU] |459| 
    3021                      .dwpsn  file "D:/GIANT/GIANT_TI_instaspin/TI_instaspin_indoor_smart_trainer/motorware/motorware_1_01_
    3022 0000038b 0200          MOVB      ACC,#0                ; [CPU_ALU] |461| 
    3023                      .dwpsn  file "D:/GIANT/GIANT_TI_instaspin/TI_instaspin_indoor_smart_trainer/motorware/motorware_1_01_
    3024 0000038c C2D4          MOVL      *+XAR4[2],XAR6        ; [CPU_ALU] |460| 
    3025                      .dwpsn  file "D:/GIANT/GIANT_TI_instaspin/TI_instaspin_indoor_smart_trainer/motorware/motorware_1_01_
    3026 0000038d 1EE4          MOVL      *+XAR4[4],ACC         ; [CPU_ALU] |461| 
    3027                      .dwpsn  file "D:/GIANT/GIANT_TI_instaspin/TI_instaspin_indoor_smart_trainer/motorware/motorware_1_01_
    3028 0000038e 8A91          MOVL      XAR4,*+XAR1[AR0]      ; [CPU_ALU] |560| 
    3029                      .dwpsn  file "D:/GIANT/GIANT_TI_instaspin/TI_instaspin_indoor_smart_trainer/motorware/motorware_1_01_
    3030 0000038f D044          MOVB      XAR0,#68              ; [CPU_ALU] |508| 
    3031                      .dwpsn  file "D:/GIANT/GIANT_TI_instaspin/TI_instaspin_indoor_smart_trainer/motorware/motorware_1_01_
    3032 00000390 1EF4          MOVL      *+XAR4[6],ACC         ; [CPU_ALU] |560| 
    3033                      .dwpsn  file "D:/GIANT/GIANT_TI_instaspin/TI_instaspin_indoor_smart_trainer/motorware/motorware_1_01_
    3034 00000391 020C          MOVB      ACC,#12               ; [CPU_ALU] |511| 
    3035                      .dwpsn  file "D:/GIANT/GIANT_TI_instaspin/TI_instaspin_indoor_smart_trainer/motorware/motorware_1_01_
    3036 00000392 8391          MOVL      XAR5,*+XAR1[AR0]      ; [CPU_ALU] |508| 
    3037                      .dwpsn  file "D:/GIANT/GIANT_TI_instaspin/TI_instaspin_indoor_smart_trainer/motorware/motorware_1_01_
    3038 00000393 D044          MOVB      XAR0,#68              ; [CPU_ALU] |511| 
    3039 00000394 0791          ADDL      ACC,*+XAR1[AR0]       ; [CPU_ALU] |511| 
    3040 00000395 8AA9          MOVL      XAR4,ACC              ; [CPU_ALU] |511| 
    3041 00000396 3B01          SETC      SXM                   ; [CPU_ALU] 
    3042                      .dwpsn  file "D:/GIANT/GIANT_TI_instaspin/TI_instaspin_indoor_smart_trainer/motorware/motorware_1_01_
    3043 00000397 D00E          MOVB      XAR0,#14              ; [CPU_ALU] |512| 
    3044                      .dwpsn  file "D:/GIANT/GIANT_TI_instaspin/TI_instaspin_indoor_smart_trainer/motorware/motorware_1_01_
    3045 00000398 FF2F          MOV       ACC,#-512 << 15       ; [CPU_ALU] |511| 
         00000399 FE00 
    3046 0000039a 1EC4          MOVL      *+XAR4[0],ACC         ; [CPU_ALU] |511| 
    3047                      .dwpsn  file "D:/GIANT/GIANT_TI_instaspin/TI_instaspin_indoor_smart_trainer/motorware/motorware_1_01_
    3048 0000039b FF2F          MOV       ACC,#512 << 15        ; [CPU_ALU] |512| 
         0000039c 0200 
    3049                      .dwpsn  file "D:/GIANT/GIANT_TI_instaspin/TI_instaspin_indoor_smart_trainer/motorware/motorware_1_01_
    3050 0000039d 8AA1          MOVL      XAR4,XAR1             ; [CPU_ALU] |394| 
    3051                      .dwpsn  file "D:/GIANT/GIANT_TI_instaspin/TI_instaspin_indoor_smart_trainer/motorware/motorware_1_01_
    3052 0000039e 1E95          MOVL      *+XAR5[AR0],ACC       ; [CPU_ALU] |512| 
TMS320C2000 Assembler PC v22.6.0 Tue Apr 18 11:09:46 2023

Copyright (c) 1996-2018 Texas Instruments Incorporated
C:\Users\User\AppData\Local\Temp\{F169EDD6-E2A2-400A-8386-A823CBD75D49} PAGE   59

    3053                      .dwpsn  file "D:/GIANT/GIANT_TI_instaspin/TI_instaspin_indoor_smart_trainer/motorware/motorware_1_01_
    3054 0000039f 0200          MOVB      ACC,#0                ; [CPU_ALU] |394| 
    3055 000003a0 D500          MOVB      XAR5,#0               ; [CPU_ALU] |394| 
    3056 000003a1 C242          MOVL      *-SP[2],XAR6          ; [CPU_ALU] |394| 
    3057 000003a2 1E44          MOVL      *-SP[4],ACC           ; [CPU_ALU] |394| 
    3058 000003a3 066A          MOVL      ACC,*-SP[42]          ; [CPU_ALU] |394| 
    3059              $C$DW$250       .dwtag  DW_TAG_TI_branch
    3060                      .dwattr $C$DW$250, DW_AT_low_pc(0x00)
    3061                      .dwattr $C$DW$250, DW_AT_name("_CTRL_setGains")
    3062                      .dwattr $C$DW$250, DW_AT_TI_call
    3063              
    3064 000003a4 7640'         LCR       #_CTRL_setGains       ; [CPU_ALU] |394| 
         000003a5 0168 
    3065                      ; call occurs [#_CTRL_setGains] ; [] |394| 
    3066                      .dwpsn  file "D:/GIANT/GIANT_TI_instaspin/TI_instaspin_indoor_smart_trainer/motorware/motorware_1_01_
    3067 000003a6 0200          MOVB      ACC,#0                ; [CPU_ALU] |397| 
    3068              $C$DW$251       .dwtag  DW_TAG_TI_branch
    3069                      .dwattr $C$DW$251, DW_AT_low_pc(0x00)
    3070                      .dwattr $C$DW$251, DW_AT_name("_CTRL_setSpd_ref_pu")
    3071                      .dwattr $C$DW$251, DW_AT_TI_call
    3072              
    3073 000003a7 7640'         LCR       #_CTRL_setSpd_ref_pu  ; [CPU_ALU] |397| 
         000003a8 0152 
    3074                      ; call occurs [#_CTRL_setSpd_ref_pu] ; [] |397| 
    3075                      .dwpsn  file "D:/GIANT/GIANT_TI_instaspin/TI_instaspin_indoor_smart_trainer/motorware/motorware_1_01_
    3076 000003a9 D060          MOVB      XAR0,#96              ; [CPU_ALU] |158| 
    3077 000003aa 8A91          MOVL      XAR4,*+XAR1[AR0]      ; [CPU_ALU] |158| 
    3078                      .dwpsn  file "D:/GIANT/GIANT_TI_instaspin/TI_instaspin_indoor_smart_trainer/motorware/motorware_1_01_
    3079 000003ab D060          MOVB      XAR0,#96              ; [CPU_ALU] |210| 
    3080                      .dwpsn  file "D:/GIANT/GIANT_TI_instaspin/TI_instaspin_indoor_smart_trainer/motorware/motorware_1_01_
    3081 000003ac 1ED4          MOVL      *+XAR4[2],ACC         ; [CPU_ALU] |158| 
    3082                      .dwpsn  file "D:/GIANT/GIANT_TI_instaspin/TI_instaspin_indoor_smart_trainer/motorware/motorware_1_01_
    3083 000003ad 8A91          MOVL      XAR4,*+XAR1[AR0]      ; [CPU_ALU] |210| 
    3084                      .dwpsn  file "D:/GIANT/GIANT_TI_instaspin/TI_instaspin_indoor_smart_trainer/motorware/motorware_1_01_
    3085 000003ae D060          MOVB      XAR0,#96              ; [CPU_ALU] |197| 
    3086                      .dwpsn  file "D:/GIANT/GIANT_TI_instaspin/TI_instaspin_indoor_smart_trainer/motorware/motorware_1_01_
    3087 000003af 1EC4          MOVL      *+XAR4[0],ACC         ; [CPU_ALU] |210| 
    3088                      .dwpsn  file "D:/GIANT/GIANT_TI_instaspin/TI_instaspin_indoor_smart_trainer/motorware/motorware_1_01_
    3089 000003b0 8A91          MOVL      XAR4,*+XAR1[AR0]      ; [CPU_ALU] |197| 
    3090                      .dwpsn  file "D:/GIANT/GIANT_TI_instaspin/TI_instaspin_indoor_smart_trainer/motorware/motorware_1_01_
    3091 000003b1 D060          MOVB      XAR0,#96              ; [CPU_ALU] |184| 
    3092                      .dwpsn  file "D:/GIANT/GIANT_TI_instaspin/TI_instaspin_indoor_smart_trainer/motorware/motorware_1_01_
    3093 000003b2 1EE4          MOVL      *+XAR4[4],ACC         ; [CPU_ALU] |197| 
    3094                      .dwpsn  file "D:/GIANT/GIANT_TI_instaspin/TI_instaspin_indoor_smart_trainer/motorware/motorware_1_01_
    3095 000003b3 8A91          MOVL      XAR4,*+XAR1[AR0]      ; [CPU_ALU] |184| 
    3096                      .dwpsn  file "D:/GIANT/GIANT_TI_instaspin/TI_instaspin_indoor_smart_trainer/motorware/motorware_1_01_
    3097 000003b4 BE00          MOVB      XAR6,#0               ; [CPU_ALU] |171| 
    3098 000003b5 D060          MOVB      XAR0,#96              ; [CPU_ALU] |171| 
    3099                      .dwpsn  file "D:/GIANT/GIANT_TI_instaspin/TI_instaspin_indoor_smart_trainer/motorware/motorware_1_01_
    3100 000003b6 1EF4          MOVL      *+XAR4[6],ACC         ; [CPU_ALU] |184| 
    3101                      .dwpsn  file "D:/GIANT/GIANT_TI_instaspin/TI_instaspin_indoor_smart_trainer/motorware/motorware_1_01_
    3102 000003b7 0208          MOVB      ACC,#8                ; [CPU_ALU] |171| 
    3103 000003b8 0791          ADDL      ACC,*+XAR1[AR0]       ; [CPU_ALU] |171| 
    3104 000003b9 8AA9          MOVL      XAR4,ACC              ; [CPU_ALU] |171| 
    3105                      .dwpsn  file "D:/GIANT/GIANT_TI_instaspin/TI_instaspin_indoor_smart_trainer/motorware/motorware_1_01_
TMS320C2000 Assembler PC v22.6.0 Tue Apr 18 11:09:46 2023

Copyright (c) 1996-2018 Texas Instruments Incorporated
C:\Users\User\AppData\Local\Temp\{F169EDD6-E2A2-400A-8386-A823CBD75D49} PAGE   60

    3106 000003ba D06C          MOVB      XAR0,#108             ; [CPU_ALU] |158| 
    3107                      .dwpsn  file "D:/GIANT/GIANT_TI_instaspin/TI_instaspin_indoor_smart_trainer/motorware/motorware_1_01_
    3108 000003bb C2C4          MOVL      *+XAR4[0],XAR6        ; [CPU_ALU] |171| 
    3109                      .dwpsn  file "D:/GIANT/GIANT_TI_instaspin/TI_instaspin_indoor_smart_trainer/motorware/motorware_1_01_
    3110 000003bc 8A91          MOVL      XAR4,*+XAR1[AR0]      ; [CPU_ALU] |158| 
    3111 000003bd 0200          MOVB      ACC,#0                ; [CPU_ALU] |158| 
    3112                      .dwpsn  file "D:/GIANT/GIANT_TI_instaspin/TI_instaspin_indoor_smart_trainer/motorware/motorware_1_01_
    3113 000003be D06C          MOVB      XAR0,#108             ; [CPU_ALU] |210| 
    3114                      .dwpsn  file "D:/GIANT/GIANT_TI_instaspin/TI_instaspin_indoor_smart_trainer/motorware/motorware_1_01_
    3115 000003bf 1ED4          MOVL      *+XAR4[2],ACC         ; [CPU_ALU] |158| 
    3116                      .dwpsn  file "D:/GIANT/GIANT_TI_instaspin/TI_instaspin_indoor_smart_trainer/motorware/motorware_1_01_
    3117 000003c0 8A91          MOVL      XAR4,*+XAR1[AR0]      ; [CPU_ALU] |210| 
    3118                      .dwpsn  file "D:/GIANT/GIANT_TI_instaspin/TI_instaspin_indoor_smart_trainer/motorware/motorware_1_01_
    3119 000003c1 D06C          MOVB      XAR0,#108             ; [CPU_ALU] |197| 
    3120                      .dwpsn  file "D:/GIANT/GIANT_TI_instaspin/TI_instaspin_indoor_smart_trainer/motorware/motorware_1_01_
    3121 000003c2 1EC4          MOVL      *+XAR4[0],ACC         ; [CPU_ALU] |210| 
    3122                      .dwpsn  file "D:/GIANT/GIANT_TI_instaspin/TI_instaspin_indoor_smart_trainer/motorware/motorware_1_01_
    3123 000003c3 8A91          MOVL      XAR4,*+XAR1[AR0]      ; [CPU_ALU] |197| 
    3124                      .dwpsn  file "D:/GIANT/GIANT_TI_instaspin/TI_instaspin_indoor_smart_trainer/motorware/motorware_1_01_
    3125 000003c4 D06C          MOVB      XAR0,#108             ; [CPU_ALU] |184| 
    3126                      .dwpsn  file "D:/GIANT/GIANT_TI_instaspin/TI_instaspin_indoor_smart_trainer/motorware/motorware_1_01_
    3127 000003c5 1EE4          MOVL      *+XAR4[4],ACC         ; [CPU_ALU] |197| 
    3128                      .dwpsn  file "D:/GIANT/GIANT_TI_instaspin/TI_instaspin_indoor_smart_trainer/motorware/motorware_1_01_
    3129 000003c6 8A91          MOVL      XAR4,*+XAR1[AR0]      ; [CPU_ALU] |184| 
    3130                      .dwpsn  file "D:/GIANT/GIANT_TI_instaspin/TI_instaspin_indoor_smart_trainer/motorware/motorware_1_01_
    3131 000003c7 D06C          MOVB      XAR0,#108             ; [CPU_ALU] |171| 
    3132                      .dwpsn  file "D:/GIANT/GIANT_TI_instaspin/TI_instaspin_indoor_smart_trainer/motorware/motorware_1_01_
    3133 000003c8 1EF4          MOVL      *+XAR4[6],ACC         ; [CPU_ALU] |184| 
    3134                      .dwpsn  file "D:/GIANT/GIANT_TI_instaspin/TI_instaspin_indoor_smart_trainer/motorware/motorware_1_01_
    3135 000003c9 0208          MOVB      ACC,#8                ; [CPU_ALU] |171| 
    3136 000003ca 0791          ADDL      ACC,*+XAR1[AR0]       ; [CPU_ALU] |171| 
    3137 000003cb 8AA9          MOVL      XAR4,ACC              ; [CPU_ALU] |171| 
    3138                      .dwpsn  file "D:/GIANT/GIANT_TI_instaspin/TI_instaspin_indoor_smart_trainer/motorware/motorware_1_01_
    3139 000003cc D078          MOVB      XAR0,#120             ; [CPU_ALU] |158| 
    3140                      .dwpsn  file "D:/GIANT/GIANT_TI_instaspin/TI_instaspin_indoor_smart_trainer/motorware/motorware_1_01_
    3141 000003cd C2C4          MOVL      *+XAR4[0],XAR6        ; [CPU_ALU] |171| 
    3142                      .dwpsn  file "D:/GIANT/GIANT_TI_instaspin/TI_instaspin_indoor_smart_trainer/motorware/motorware_1_01_
    3143 000003ce 8A91          MOVL      XAR4,*+XAR1[AR0]      ; [CPU_ALU] |158| 
    3144 000003cf 0200          MOVB      ACC,#0                ; [CPU_ALU] |158| 
    3145                      .dwpsn  file "D:/GIANT/GIANT_TI_instaspin/TI_instaspin_indoor_smart_trainer/motorware/motorware_1_01_
    3146 000003d0 D078          MOVB      XAR0,#120             ; [CPU_ALU] |210| 
    3147                      .dwpsn  file "D:/GIANT/GIANT_TI_instaspin/TI_instaspin_indoor_smart_trainer/motorware/motorware_1_01_
    3148 000003d1 1ED4          MOVL      *+XAR4[2],ACC         ; [CPU_ALU] |158| 
    3149                      .dwpsn  file "D:/GIANT/GIANT_TI_instaspin/TI_instaspin_indoor_smart_trainer/motorware/motorware_1_01_
    3150 000003d2 8A91          MOVL      XAR4,*+XAR1[AR0]      ; [CPU_ALU] |210| 
    3151                      .dwpsn  file "D:/GIANT/GIANT_TI_instaspin/TI_instaspin_indoor_smart_trainer/motorware/motorware_1_01_
    3152 000003d3 D078          MOVB      XAR0,#120             ; [CPU_ALU] |197| 
    3153                      .dwpsn  file "D:/GIANT/GIANT_TI_instaspin/TI_instaspin_indoor_smart_trainer/motorware/motorware_1_01_
    3154 000003d4 1EC4          MOVL      *+XAR4[0],ACC         ; [CPU_ALU] |210| 
    3155                      .dwpsn  file "D:/GIANT/GIANT_TI_instaspin/TI_instaspin_indoor_smart_trainer/motorware/motorware_1_01_
    3156 000003d5 8A91          MOVL      XAR4,*+XAR1[AR0]      ; [CPU_ALU] |197| 
    3157                      .dwpsn  file "D:/GIANT/GIANT_TI_instaspin/TI_instaspin_indoor_smart_trainer/motorware/motorware_1_01_
    3158 000003d6 D078          MOVB      XAR0,#120             ; [CPU_ALU] |184| 
    3159                      .dwpsn  file "D:/GIANT/GIANT_TI_instaspin/TI_instaspin_indoor_smart_trainer/motorware/motorware_1_01_
    3160 000003d7 1EE4          MOVL      *+XAR4[4],ACC         ; [CPU_ALU] |197| 
TMS320C2000 Assembler PC v22.6.0 Tue Apr 18 11:09:46 2023

Copyright (c) 1996-2018 Texas Instruments Incorporated
C:\Users\User\AppData\Local\Temp\{F169EDD6-E2A2-400A-8386-A823CBD75D49} PAGE   61

    3161                      .dwpsn  file "D:/GIANT/GIANT_TI_instaspin/TI_instaspin_indoor_smart_trainer/motorware/motorware_1_01_
    3162 000003d8 8A91          MOVL      XAR4,*+XAR1[AR0]      ; [CPU_ALU] |184| 
    3163                      .dwpsn  file "D:/GIANT/GIANT_TI_instaspin/TI_instaspin_indoor_smart_trainer/motorware/motorware_1_01_
    3164 000003d9 D078          MOVB      XAR0,#120             ; [CPU_ALU] |171| 
    3165                      .dwpsn  file "D:/GIANT/GIANT_TI_instaspin/TI_instaspin_indoor_smart_trainer/motorware/motorware_1_01_
    3166 000003da 1EF4          MOVL      *+XAR4[6],ACC         ; [CPU_ALU] |184| 
    3167                      .dwpsn  file "D:/GIANT/GIANT_TI_instaspin/TI_instaspin_indoor_smart_trainer/motorware/motorware_1_01_
    3168 000003db 0208          MOVB      ACC,#8                ; [CPU_ALU] |171| 
    3169 000003dc 0791          ADDL      ACC,*+XAR1[AR0]       ; [CPU_ALU] |171| 
    3170 000003dd 8AA9          MOVL      XAR4,ACC              ; [CPU_ALU] |171| 
    3171                      .dwpsn  file "D:/GIANT/GIANT_TI_instaspin/TI_instaspin_indoor_smart_trainer/motorware/motorware_1_01_
    3172 000003de D018          MOVB      XAR0,#24              ; [CPU_ALU] |421| 
    3173                      .dwpsn  file "D:/GIANT/GIANT_TI_instaspin/TI_instaspin_indoor_smart_trainer/motorware/motorware_1_01_
    3174 000003df C2C4          MOVL      *+XAR4[0],XAR6        ; [CPU_ALU] |171| 
    3175                      .dwpsn  file "D:/GIANT/GIANT_TI_instaspin/TI_instaspin_indoor_smart_trainer/motorware/motorware_1_01_
    3176 000003e0 8368          MOVL      XAR5,*-SP[40]         ; [CPU_ALU] |421| 
    3177 000003e1 8A91          MOVL      XAR4,*+XAR1[AR0]      ; [CPU_ALU] |421| 
    3178              $C$DW$252       .dwtag  DW_TAG_TI_branch
    3179                      .dwattr $C$DW$252, DW_AT_low_pc(0x00)
    3180                      .dwattr $C$DW$252, DW_AT_name("_CTRL_setEstParams")
    3181                      .dwattr $C$DW$252, DW_AT_TI_call
    3182              
    3183 000003e2 7640!         LCR       #_CTRL_setEstParams   ; [CPU_ALU] |421| 
         000003e3 0000 
    3184                      ; call occurs [#_CTRL_setEstParams] ; [] |421| 
    3185                      .dwpsn  file "D:/GIANT/GIANT_TI_instaspin/TI_instaspin_indoor_smart_trainer/motorware/motorware_1_01_
    3186 000003e4 D05C          MOVB      XAR0,#92              ; [CPU_ALU] |184| 
    3187 000003e5 8A91          MOVL      XAR4,*+XAR1[AR0]      ; [CPU_ALU] |184| 
    3188 000003e6 28A9          MOV       AL,#43691             ; [CPU_ALU] |184| 
         000003e7 AAAB 
    3189 000003e8 9BAA          MOV       AH,#170               ; [CPU_ALU] |184| 
    3190 000003e9 1EC4          MOVL      *+XAR4[0],ACC         ; [CPU_ALU] |184| 
    3191 000003ea FEAA          SUBB      SP,#42                ; [CPU_ARAU] 
    3192                      .dwcfi  cfa_offset, -8
    3193 000003eb 82BE          MOVL      XAR3,*--SP            ; [CPU_ALU] 
    3194                      .dwcfi  cfa_offset, -6
    3195                      .dwcfi  restore_reg, 11
    3196 000003ec 86BE          MOVL      XAR2,*--SP            ; [CPU_ALU] 
    3197                      .dwcfi  cfa_offset, -4
    3198                      .dwcfi  restore_reg, 9
    3199 000003ed 8BBE          MOVL      XAR1,*--SP            ; [CPU_ALU] 
    3200                      .dwcfi  cfa_offset, -2
    3201                      .dwcfi  restore_reg, 7
    3202              $C$DW$253       .dwtag  DW_TAG_TI_branch
    3203                      .dwattr $C$DW$253, DW_AT_low_pc(0x00)
    3204                      .dwattr $C$DW$253, DW_AT_TI_return
    3205              
    3206 000003ee 0006          LRETR     ; [CPU_ALU] 
    3207                      ; return occurs ; [] 
    3208                      .dwattr $C$DW$184, DW_AT_TI_end_file("D:/GIANT/GIANT_TI_instaspin/TI_instaspin_indoor_smart_trainer/m
    3209                      .dwattr $C$DW$184, DW_AT_TI_end_line(0x1ac)
    3210                      .dwattr $C$DW$184, DW_AT_TI_end_column(0x01)
    3211                      .dwendentry
    3212                      .dwendtag $C$DW$184
    3213              
TMS320C2000 Assembler PC v22.6.0 Tue Apr 18 11:09:46 2023

Copyright (c) 1996-2018 Texas Instruments Incorporated
C:\Users\User\AppData\Local\Temp\{F169EDD6-E2A2-400A-8386-A823CBD75D49} PAGE   62

    3214 000003ef               .sect   ".text"
    3215                      .clink
    3216                      .global _CTRL_run
    3217              
    3218              $C$DW$254       .dwtag  DW_TAG_subprogram
    3219                      .dwattr $C$DW$254, DW_AT_name("CTRL_run")
    3220                      .dwattr $C$DW$254, DW_AT_low_pc(_CTRL_run)
    3221                      .dwattr $C$DW$254, DW_AT_high_pc(0x00)
    3222                      .dwattr $C$DW$254, DW_AT_TI_symbol_name("_CTRL_run")
    3223                      .dwattr $C$DW$254, DW_AT_external
    3224                      .dwattr $C$DW$254, DW_AT_TI_begin_file("D:/GIANT/GIANT_TI_instaspin/TI_instaspin_indoor_smart_trainer
    3225                      .dwattr $C$DW$254, DW_AT_TI_begin_line(0xad)
    3226                      .dwattr $C$DW$254, DW_AT_TI_begin_column(0x06)
    3227                      .dwattr $C$DW$254, DW_AT_TI_max_frame_size(-32)
    3228                      .dwpsn  file "D:/GIANT/GIANT_TI_instaspin/TI_instaspin_indoor_smart_trainer/motorware/motorware_1_01_
    3229              
    3230                      .dwfde $C$DW$CIE, _CTRL_run
    3231              $C$DW$255       .dwtag  DW_TAG_formal_parameter
    3232                      .dwattr $C$DW$255, DW_AT_name("handle")
    3233                      .dwattr $C$DW$255, DW_AT_TI_symbol_name("_handle")
    3234                      .dwattr $C$DW$255, DW_AT_type(*$C$DW$T$172)
    3235                      .dwattr $C$DW$255, DW_AT_location[DW_OP_reg12]
    3236              
    3237              $C$DW$256       .dwtag  DW_TAG_formal_parameter
    3238                      .dwattr $C$DW$256, DW_AT_name("halHandle")
    3239                      .dwattr $C$DW$256, DW_AT_TI_symbol_name("_halHandle")
    3240                      .dwattr $C$DW$256, DW_AT_type(*$C$DW$T$198)
    3241                      .dwattr $C$DW$256, DW_AT_location[DW_OP_reg14]
    3242              
    3243              $C$DW$257       .dwtag  DW_TAG_formal_parameter
    3244                      .dwattr $C$DW$257, DW_AT_name("pAdcData")
    3245                      .dwattr $C$DW$257, DW_AT_TI_symbol_name("_pAdcData")
    3246                      .dwattr $C$DW$257, DW_AT_type(*$C$DW$T$190)
    3247                      .dwattr $C$DW$257, DW_AT_location[DW_OP_breg20 -34]
    3248              
    3249              $C$DW$258       .dwtag  DW_TAG_formal_parameter
    3250                      .dwattr $C$DW$258, DW_AT_name("pPwmData")
    3251                      .dwattr $C$DW$258, DW_AT_TI_symbol_name("_pPwmData")
    3252                      .dwattr $C$DW$258, DW_AT_type(*$C$DW$T$202)
    3253                      .dwattr $C$DW$258, DW_AT_location[DW_OP_breg20 -36]
    3254              
    3255              
    3256              ;***************************************************************
    3257              ;* FNAME: _CTRL_run                     FR SIZE:  30           *
    3258              ;*                                                             *
    3259              ;* FUNCTION ENVIRONMENT                                        *
    3260              ;*                                                             *
    3261              ;* FUNCTION PROPERTIES                                         *
    3262              ;*                            4 Parameter, 20 Auto,  6 SOE     *
    3263              ;***************************************************************
    3264              
    3265              _CTRL_run:
    3266              $C$DW$259       .dwtag  DW_TAG_variable
    3267                      .dwattr $C$DW$259, DW_AT_name("phasor")
    3268                      .dwattr $C$DW$259, DW_AT_TI_symbol_name("_phasor")
TMS320C2000 Assembler PC v22.6.0 Tue Apr 18 11:09:46 2023

Copyright (c) 1996-2018 Texas Instruments Incorporated
C:\Users\User\AppData\Local\Temp\{F169EDD6-E2A2-400A-8386-A823CBD75D49} PAGE   63

    3269                      .dwattr $C$DW$259, DW_AT_type(*$C$DW$T$72)
    3270                      .dwattr $C$DW$259, DW_AT_location[DW_OP_breg20 -8]
    3271              
    3272              $C$DW$260       .dwtag  DW_TAG_variable
    3273                      .dwattr $C$DW$260, DW_AT_name("phasor")
    3274                      .dwattr $C$DW$260, DW_AT_TI_symbol_name("_phasor")
    3275                      .dwattr $C$DW$260, DW_AT_type(*$C$DW$T$72)
    3276                      .dwattr $C$DW$260, DW_AT_location[DW_OP_breg20 -12]
    3277              
    3278              $C$DW$261       .dwtag  DW_TAG_variable
    3279                      .dwattr $C$DW$261, DW_AT_name("refValue")
    3280                      .dwattr $C$DW$261, DW_AT_TI_symbol_name("_refValue")
    3281                      .dwattr $C$DW$261, DW_AT_type(*$C$DW$T$32)
    3282                      .dwattr $C$DW$261, DW_AT_location[DW_OP_breg20 -14]
    3283              
    3284              $C$DW$262       .dwtag  DW_TAG_variable
    3285                      .dwattr $C$DW$262, DW_AT_name("refValue")
    3286                      .dwattr $C$DW$262, DW_AT_TI_symbol_name("_refValue")
    3287                      .dwattr $C$DW$262, DW_AT_type(*$C$DW$T$32)
    3288                      .dwattr $C$DW$262, DW_AT_location[DW_OP_breg20 -16]
    3289              
    3290              ;* AL    assigned to $O$C49
    3291              ;* PL    assigned to $O$C50
    3292              ;* AR0   assigned to $O$C51
    3293              ;* AR4   assigned to $O$C52
    3294              ;* AR1   assigned to $O$C53
    3295              ;* AR6   assigned to $O$C54
    3296              ;* AR0   assigned to $O$C55
    3297              ;* AR4   assigned to $O$C56
    3298              ;* AL    assigned to $O$C57
    3299              ;* AR7   assigned to $O$C58
    3300              ;* AL    assigned to $O$C59
    3301              ;* AL    assigned to $O$C60
    3302              ;* AR5   assigned to $O$C61
    3303              ;* AL    assigned to $O$C62
    3304              ;* PL    assigned to $O$C64
    3305              ;* AR0   assigned to $O$C65
    3306              ;* AR4   assigned to $O$C66
    3307              ;* AR0   assigned to $O$C67
    3308              ;* AR4   assigned to $O$C68
    3309              ;* AL    assigned to $O$C69
    3310              ;* AR7   assigned to $O$C70
    3311              ;* AL    assigned to $O$C71
    3312              ;* AL    assigned to $O$C72
    3313              ;* AR5   assigned to $O$C73
    3314              ;* AL    assigned to $O$C74
    3315              ;* AR4   assigned to $O$C75
    3316              ;* AL    assigned to $O$C76
    3317              ;* AR4   assigned to $O$C77
    3318              ;* AL    assigned to $O$C78
    3319              ;* AR1   assigned to $O$K107
    3320              ;* AR1   assigned to $O$K107
    3321              ;* AR6   assigned to $O$K148
    3322              ;* AR6   assigned to $O$K148
    3323              ;* AR3   assigned to _cnt
TMS320C2000 Assembler PC v22.6.0 Tue Apr 18 11:09:46 2023

Copyright (c) 1996-2018 Texas Instruments Incorporated
C:\Users\User\AppData\Local\Temp\{F169EDD6-E2A2-400A-8386-A823CBD75D49} PAGE   64

    3324              $C$DW$263       .dwtag  DW_TAG_variable
    3325                      .dwattr $C$DW$263, DW_AT_name("cnt")
    3326                      .dwattr $C$DW$263, DW_AT_TI_symbol_name("_cnt")
    3327                      .dwattr $C$DW$263, DW_AT_type(*$C$DW$T$34)
    3328                      .dwattr $C$DW$263, DW_AT_location[DW_OP_reg10]
    3329              
    3330              ;* AR3   assigned to _cnt
    3331              $C$DW$264       .dwtag  DW_TAG_variable
    3332                      .dwattr $C$DW$264, DW_AT_name("cnt")
    3333                      .dwattr $C$DW$264, DW_AT_TI_symbol_name("_cnt")
    3334                      .dwattr $C$DW$264, DW_AT_type(*$C$DW$T$34)
    3335                      .dwattr $C$DW$264, DW_AT_location[DW_OP_reg10]
    3336              
    3337              ;* AR6   assigned to _fbackValue
    3338              $C$DW$265       .dwtag  DW_TAG_variable
    3339                      .dwattr $C$DW$265, DW_AT_name("fbackValue")
    3340                      .dwattr $C$DW$265, DW_AT_TI_symbol_name("_fbackValue")
    3341                      .dwattr $C$DW$265, DW_AT_type(*$C$DW$T$32)
    3342                      .dwattr $C$DW$265, DW_AT_location[DW_OP_reg16]
    3343              
    3344              ;* AR7   assigned to _fbackValue
    3345              $C$DW$266       .dwtag  DW_TAG_variable
    3346                      .dwattr $C$DW$266, DW_AT_name("fbackValue")
    3347                      .dwattr $C$DW$266, DW_AT_TI_symbol_name("_fbackValue")
    3348                      .dwattr $C$DW$266, DW_AT_type(*$C$DW$T$32)
    3349                      .dwattr $C$DW$266, DW_AT_location[DW_OP_reg18]
    3350              
    3351              $C$DW$267       .dwtag  DW_TAG_variable
    3352                      .dwattr $C$DW$267, DW_AT_name("fbackValue")
    3353                      .dwattr $C$DW$267, DW_AT_TI_symbol_name("_fbackValue")
    3354                      .dwattr $C$DW$267, DW_AT_type(*$C$DW$T$32)
    3355                      .dwattr $C$DW$267, DW_AT_location[DW_OP_breg20 -18]
    3356              
    3357              ;* AR6   assigned to _fbackValue
    3358              $C$DW$268       .dwtag  DW_TAG_variable
    3359                      .dwattr $C$DW$268, DW_AT_name("fbackValue")
    3360                      .dwattr $C$DW$268, DW_AT_TI_symbol_name("_fbackValue")
    3361                      .dwattr $C$DW$268, DW_AT_type(*$C$DW$T$32)
    3362                      .dwattr $C$DW$268, DW_AT_location[DW_OP_reg16]
    3363              
    3364              ;* AR3   assigned to _handle
    3365              $C$DW$269       .dwtag  DW_TAG_variable
    3366                      .dwattr $C$DW$269, DW_AT_name("handle")
    3367                      .dwattr $C$DW$269, DW_AT_TI_symbol_name("_handle")
    3368                      .dwattr $C$DW$269, DW_AT_type(*$C$DW$T$185)
    3369                      .dwattr $C$DW$269, DW_AT_location[DW_OP_reg10]
    3370              
    3371              ;* AR5   assigned to _halHandle
    3372              $C$DW$270       .dwtag  DW_TAG_variable
    3373                      .dwattr $C$DW$270, DW_AT_name("halHandle")
    3374                      .dwattr $C$DW$270, DW_AT_TI_symbol_name("_halHandle")
    3375                      .dwattr $C$DW$270, DW_AT_type(*$C$DW$T$199)
    3376                      .dwattr $C$DW$270, DW_AT_location[DW_OP_reg14]
    3377              
    3378              ;* AR2   assigned to _pAdcData
TMS320C2000 Assembler PC v22.6.0 Tue Apr 18 11:09:46 2023

Copyright (c) 1996-2018 Texas Instruments Incorporated
C:\Users\User\AppData\Local\Temp\{F169EDD6-E2A2-400A-8386-A823CBD75D49} PAGE   65

    3379              $C$DW$271       .dwtag  DW_TAG_variable
    3380                      .dwattr $C$DW$271, DW_AT_name("pAdcData")
    3381                      .dwattr $C$DW$271, DW_AT_TI_symbol_name("_pAdcData")
    3382                      .dwattr $C$DW$271, DW_AT_type(*$C$DW$T$191)
    3383                      .dwattr $C$DW$271, DW_AT_location[DW_OP_reg8]
    3384              
    3385              $C$DW$272       .dwtag  DW_TAG_variable
    3386                      .dwattr $C$DW$272, DW_AT_name("pPwmData")
    3387                      .dwattr $C$DW$272, DW_AT_TI_symbol_name("_pPwmData")
    3388                      .dwattr $C$DW$272, DW_AT_type(*$C$DW$T$203)
    3389                      .dwattr $C$DW$272, DW_AT_location[DW_OP_breg20 -20]
    3390              
    3391              ;* AR6   assigned to _ctrlState
    3392              $C$DW$273       .dwtag  DW_TAG_variable
    3393                      .dwattr $C$DW$273, DW_AT_name("ctrlState")
    3394                      .dwattr $C$DW$273, DW_AT_TI_symbol_name("_ctrlState")
    3395                      .dwattr $C$DW$273, DW_AT_type(*$C$DW$T$41)
    3396                      .dwattr $C$DW$273, DW_AT_location[DW_OP_reg16]
    3397              
    3398              ;* AR7   assigned to _obj
    3399              $C$DW$274       .dwtag  DW_TAG_variable
    3400                      .dwattr $C$DW$274, DW_AT_name("obj")
    3401                      .dwattr $C$DW$274, DW_AT_TI_symbol_name("_obj")
    3402                      .dwattr $C$DW$274, DW_AT_type(*$C$DW$T$223)
    3403                      .dwattr $C$DW$274, DW_AT_location[DW_OP_reg18]
    3404              
    3405              ;* AR6   assigned to _obj
    3406              $C$DW$275       .dwtag  DW_TAG_variable
    3407                      .dwattr $C$DW$275, DW_AT_name("obj")
    3408                      .dwattr $C$DW$275, DW_AT_TI_symbol_name("_obj")
    3409                      .dwattr $C$DW$275, DW_AT_type(*$C$DW$T$187)
    3410                      .dwattr $C$DW$275, DW_AT_location[DW_OP_reg16]
    3411              
    3412              ;* AR7   assigned to _obj
    3413              $C$DW$276       .dwtag  DW_TAG_variable
    3414                      .dwattr $C$DW$276, DW_AT_name("obj")
    3415                      .dwattr $C$DW$276, DW_AT_TI_symbol_name("_obj")
    3416                      .dwattr $C$DW$276, DW_AT_type(*$C$DW$T$223)
    3417                      .dwattr $C$DW$276, DW_AT_location[DW_OP_reg18]
    3418              
    3419              ;* AR6   assigned to _obj
    3420              $C$DW$277       .dwtag  DW_TAG_variable
    3421                      .dwattr $C$DW$277, DW_AT_name("obj")
    3422                      .dwattr $C$DW$277, DW_AT_TI_symbol_name("_obj")
    3423                      .dwattr $C$DW$277, DW_AT_type(*$C$DW$T$187)
    3424                      .dwattr $C$DW$277, DW_AT_location[DW_OP_reg16]
    3425              
    3426              ;* AR2   assigned to _angle_pu
    3427              $C$DW$278       .dwtag  DW_TAG_variable
    3428                      .dwattr $C$DW$278, DW_AT_name("angle_pu")
    3429                      .dwattr $C$DW$278, DW_AT_TI_symbol_name("_angle_pu")
    3430                      .dwattr $C$DW$278, DW_AT_type(*$C$DW$T$32)
    3431                      .dwattr $C$DW$278, DW_AT_location[DW_OP_reg8]
    3432              
    3433              ;* AR1   assigned to _refValue
TMS320C2000 Assembler PC v22.6.0 Tue Apr 18 11:09:46 2023

Copyright (c) 1996-2018 Texas Instruments Incorporated
C:\Users\User\AppData\Local\Temp\{F169EDD6-E2A2-400A-8386-A823CBD75D49} PAGE   66

    3434              $C$DW$279       .dwtag  DW_TAG_variable
    3435                      .dwattr $C$DW$279, DW_AT_name("refValue")
    3436                      .dwattr $C$DW$279, DW_AT_TI_symbol_name("_refValue")
    3437                      .dwattr $C$DW$279, DW_AT_type(*$C$DW$T$32)
    3438                      .dwattr $C$DW$279, DW_AT_location[DW_OP_reg6]
    3439              
    3440              ;* AR6   assigned to _fbackValue
    3441              $C$DW$280       .dwtag  DW_TAG_variable
    3442                      .dwattr $C$DW$280, DW_AT_name("fbackValue")
    3443                      .dwattr $C$DW$280, DW_AT_TI_symbol_name("_fbackValue")
    3444                      .dwattr $C$DW$280, DW_AT_type(*$C$DW$T$32)
    3445                      .dwattr $C$DW$280, DW_AT_location[DW_OP_reg16]
    3446              
    3447              ;* AR7   assigned to _outMax
    3448              $C$DW$281       .dwtag  DW_TAG_variable
    3449                      .dwattr $C$DW$281, DW_AT_name("outMax")
    3450                      .dwattr $C$DW$281, DW_AT_TI_symbol_name("_outMax")
    3451                      .dwattr $C$DW$281, DW_AT_type(*$C$DW$T$32)
    3452                      .dwattr $C$DW$281, DW_AT_location[DW_OP_reg18]
    3453              
    3454              ;* PL    assigned to _outMin
    3455              $C$DW$282       .dwtag  DW_TAG_variable
    3456                      .dwattr $C$DW$282, DW_AT_name("outMin")
    3457                      .dwattr $C$DW$282, DW_AT_TI_symbol_name("_outMin")
    3458                      .dwattr $C$DW$282, DW_AT_type(*$C$DW$T$32)
    3459                      .dwattr $C$DW$282, DW_AT_location[DW_OP_reg2]
    3460              
    3461              ;* AR1   assigned to _Kp_Id
    3462              $C$DW$283       .dwtag  DW_TAG_variable
    3463                      .dwattr $C$DW$283, DW_AT_name("Kp_Id")
    3464                      .dwattr $C$DW$283, DW_AT_TI_symbol_name("_Kp_Id")
    3465                      .dwattr $C$DW$283, DW_AT_type(*$C$DW$T$32)
    3466                      .dwattr $C$DW$283, DW_AT_location[DW_OP_reg6]
    3467              
    3468              $C$DW$284       .dwtag  DW_TAG_variable
    3469                      .dwattr $C$DW$284, DW_AT_name("Kp_Iq")
    3470                      .dwattr $C$DW$284, DW_AT_TI_symbol_name("_Kp_Iq")
    3471                      .dwattr $C$DW$284, DW_AT_type(*$C$DW$T$32)
    3472                      .dwattr $C$DW$284, DW_AT_location[DW_OP_breg20 -18]
    3473              
    3474              ;* AR2   assigned to _maxVsMag
    3475              $C$DW$285       .dwtag  DW_TAG_variable
    3476                      .dwattr $C$DW$285, DW_AT_name("maxVsMag")
    3477                      .dwattr $C$DW$285, DW_AT_TI_symbol_name("_maxVsMag")
    3478                      .dwattr $C$DW$285, DW_AT_type(*$C$DW$T$32)
    3479                      .dwattr $C$DW$285, DW_AT_location[DW_OP_reg8]
    3480              
    3481              ;* AR2   assigned to _pInVec
    3482              $C$DW$286       .dwtag  DW_TAG_variable
    3483                      .dwattr $C$DW$286, DW_AT_name("pInVec")
    3484                      .dwattr $C$DW$286, DW_AT_TI_symbol_name("_pInVec")
    3485                      .dwattr $C$DW$286, DW_AT_type(*$C$DW$T$218)
    3486                      .dwattr $C$DW$286, DW_AT_location[DW_OP_reg8]
    3487              
    3488              ;* AR4   assigned to _pOutVec
TMS320C2000 Assembler PC v22.6.0 Tue Apr 18 11:09:46 2023

Copyright (c) 1996-2018 Texas Instruments Incorporated
C:\Users\User\AppData\Local\Temp\{F169EDD6-E2A2-400A-8386-A823CBD75D49} PAGE   67

    3489              $C$DW$287       .dwtag  DW_TAG_variable
    3490                      .dwattr $C$DW$287, DW_AT_name("pOutVec")
    3491                      .dwattr $C$DW$287, DW_AT_TI_symbol_name("_pOutVec")
    3492                      .dwattr $C$DW$287, DW_AT_type(*$C$DW$T$209)
    3493                      .dwattr $C$DW$287, DW_AT_location[DW_OP_reg12]
    3494              
    3495              ;* AR6   assigned to _alpha_sf
    3496              $C$DW$288       .dwtag  DW_TAG_variable
    3497                      .dwattr $C$DW$288, DW_AT_name("alpha_sf")
    3498                      .dwattr $C$DW$288, DW_AT_TI_symbol_name("_alpha_sf")
    3499                      .dwattr $C$DW$288, DW_AT_type(*$C$DW$T$32)
    3500                      .dwattr $C$DW$288, DW_AT_location[DW_OP_reg16]
    3501              
    3502              ;* AR7   assigned to _beta_sf
    3503              $C$DW$289       .dwtag  DW_TAG_variable
    3504                      .dwattr $C$DW$289, DW_AT_name("beta_sf")
    3505                      .dwattr $C$DW$289, DW_AT_TI_symbol_name("_beta_sf")
    3506                      .dwattr $C$DW$289, DW_AT_type(*$C$DW$T$32)
    3507                      .dwattr $C$DW$289, DW_AT_location[DW_OP_reg18]
    3508              
    3509              ;* AR4   assigned to _pInVec
    3510              $C$DW$290       .dwtag  DW_TAG_variable
    3511                      .dwattr $C$DW$290, DW_AT_name("pInVec")
    3512                      .dwattr $C$DW$290, DW_AT_TI_symbol_name("_pInVec")
    3513                      .dwattr $C$DW$290, DW_AT_type(*$C$DW$T$218)
    3514                      .dwattr $C$DW$290, DW_AT_location[DW_OP_reg12]
    3515              
    3516              ;* AR5   assigned to _pOutVec
    3517              $C$DW$291       .dwtag  DW_TAG_variable
    3518                      .dwattr $C$DW$291, DW_AT_name("pOutVec")
    3519                      .dwattr $C$DW$291, DW_AT_TI_symbol_name("_pOutVec")
    3520                      .dwattr $C$DW$291, DW_AT_type(*$C$DW$T$209)
    3521                      .dwattr $C$DW$291, DW_AT_location[DW_OP_reg14]
    3522              
    3523              ;* AR0   assigned to _alpha_sf
    3524              $C$DW$292       .dwtag  DW_TAG_variable
    3525                      .dwattr $C$DW$292, DW_AT_name("alpha_sf")
    3526                      .dwattr $C$DW$292, DW_AT_TI_symbol_name("_alpha_sf")
    3527                      .dwattr $C$DW$292, DW_AT_type(*$C$DW$T$32)
    3528                      .dwattr $C$DW$292, DW_AT_location[DW_OP_reg4]
    3529              
    3530              $C$DW$293       .dwtag  DW_TAG_variable
    3531                      .dwattr $C$DW$293, DW_AT_name("beta_sf")
    3532                      .dwattr $C$DW$293, DW_AT_TI_symbol_name("_beta_sf")
    3533                      .dwattr $C$DW$293, DW_AT_type(*$C$DW$T$32)
    3534                      .dwattr $C$DW$293, DW_AT_location[DW_OP_breg20 -18]
    3535              
    3536              ;* AR4   assigned to _handle
    3537              $C$DW$294       .dwtag  DW_TAG_variable
    3538                      .dwattr $C$DW$294, DW_AT_name("handle")
    3539                      .dwattr $C$DW$294, DW_AT_TI_symbol_name("_handle")
    3540                      .dwattr $C$DW$294, DW_AT_type(*$C$DW$T$50)
    3541                      .dwattr $C$DW$294, DW_AT_location[DW_OP_reg12]
    3542              
    3543              ;* AR6   assigned to _sinTh
TMS320C2000 Assembler PC v22.6.0 Tue Apr 18 11:09:46 2023

Copyright (c) 1996-2018 Texas Instruments Incorporated
C:\Users\User\AppData\Local\Temp\{F169EDD6-E2A2-400A-8386-A823CBD75D49} PAGE   68

    3544              $C$DW$295       .dwtag  DW_TAG_variable
    3545                      .dwattr $C$DW$295, DW_AT_name("sinTh")
    3546                      .dwattr $C$DW$295, DW_AT_TI_symbol_name("_sinTh")
    3547                      .dwattr $C$DW$295, DW_AT_type(*$C$DW$T$32)
    3548                      .dwattr $C$DW$295, DW_AT_location[DW_OP_reg16]
    3549              
    3550              ;* AR7   assigned to _cosTh
    3551              $C$DW$296       .dwtag  DW_TAG_variable
    3552                      .dwattr $C$DW$296, DW_AT_name("cosTh")
    3553                      .dwattr $C$DW$296, DW_AT_TI_symbol_name("_cosTh")
    3554                      .dwattr $C$DW$296, DW_AT_type(*$C$DW$T$32)
    3555                      .dwattr $C$DW$296, DW_AT_location[DW_OP_reg18]
    3556              
    3557              ;* AR5   assigned to _value_0
    3558              $C$DW$297       .dwtag  DW_TAG_variable
    3559                      .dwattr $C$DW$297, DW_AT_name("value_0")
    3560                      .dwattr $C$DW$297, DW_AT_TI_symbol_name("_value_0")
    3561                      .dwattr $C$DW$297, DW_AT_type(*$C$DW$T$32)
    3562                      .dwattr $C$DW$297, DW_AT_location[DW_OP_reg14]
    3563              
    3564              ;* AR4   assigned to _value_1
    3565              $C$DW$298       .dwtag  DW_TAG_variable
    3566                      .dwattr $C$DW$298, DW_AT_name("value_1")
    3567                      .dwattr $C$DW$298, DW_AT_TI_symbol_name("_value_1")
    3568                      .dwattr $C$DW$298, DW_AT_type(*$C$DW$T$32)
    3569                      .dwattr $C$DW$298, DW_AT_location[DW_OP_reg12]
    3570              
    3571              ;* AR5   assigned to _handle
    3572              $C$DW$299       .dwtag  DW_TAG_variable
    3573                      .dwattr $C$DW$299, DW_AT_name("handle")
    3574                      .dwattr $C$DW$299, DW_AT_TI_symbol_name("_handle")
    3575                      .dwattr $C$DW$299, DW_AT_type(*$C$DW$T$53)
    3576                      .dwattr $C$DW$299, DW_AT_location[DW_OP_reg14]
    3577              
    3578              ;* AR7   assigned to _outMax
    3579              $C$DW$300       .dwtag  DW_TAG_variable
    3580                      .dwattr $C$DW$300, DW_AT_name("outMax")
    3581                      .dwattr $C$DW$300, DW_AT_TI_symbol_name("_outMax")
    3582                      .dwattr $C$DW$300, DW_AT_type(*$C$DW$T$32)
    3583                      .dwattr $C$DW$300, DW_AT_location[DW_OP_reg18]
    3584              
    3585              ;* AR4   assigned to _handle
    3586              $C$DW$301       .dwtag  DW_TAG_variable
    3587                      .dwattr $C$DW$301, DW_AT_name("handle")
    3588                      .dwattr $C$DW$301, DW_AT_TI_symbol_name("_handle")
    3589                      .dwattr $C$DW$301, DW_AT_type(*$C$DW$T$53)
    3590                      .dwattr $C$DW$301, DW_AT_location[DW_OP_reg12]
    3591              
    3592              ;* AR5   assigned to _refValue
    3593              $C$DW$302       .dwtag  DW_TAG_variable
    3594                      .dwattr $C$DW$302, DW_AT_name("refValue")
    3595                      .dwattr $C$DW$302, DW_AT_TI_symbol_name("_refValue")
    3596                      .dwattr $C$DW$302, DW_AT_type(*$C$DW$T$32)
    3597                      .dwattr $C$DW$302, DW_AT_location[DW_OP_reg14]
    3598              
TMS320C2000 Assembler PC v22.6.0 Tue Apr 18 11:09:46 2023

Copyright (c) 1996-2018 Texas Instruments Incorporated
C:\Users\User\AppData\Local\Temp\{F169EDD6-E2A2-400A-8386-A823CBD75D49} PAGE   69

    3599              ;* AR7   assigned to _Up
    3600              $C$DW$303       .dwtag  DW_TAG_variable
    3601                      .dwattr $C$DW$303, DW_AT_name("Up")
    3602                      .dwattr $C$DW$303, DW_AT_TI_symbol_name("_Up")
    3603                      .dwattr $C$DW$303, DW_AT_type(*$C$DW$T$32)
    3604                      .dwattr $C$DW$303, DW_AT_location[DW_OP_reg18]
    3605              
    3606              ;* AL    assigned to _Ui
    3607              $C$DW$304       .dwtag  DW_TAG_variable
    3608                      .dwattr $C$DW$304, DW_AT_name("Ui")
    3609                      .dwattr $C$DW$304, DW_AT_TI_symbol_name("_Ui")
    3610                      .dwattr $C$DW$304, DW_AT_type(*$C$DW$T$32)
    3611                      .dwattr $C$DW$304, DW_AT_location[DW_OP_reg0]
    3612              
    3613              ;* AH    assigned to _result
    3614              $C$DW$305       .dwtag  DW_TAG_variable
    3615                      .dwattr $C$DW$305, DW_AT_name("result")
    3616                      .dwattr $C$DW$305, DW_AT_TI_symbol_name("_result")
    3617                      .dwattr $C$DW$305, DW_AT_type(*$C$DW$T$73)
    3618                      .dwattr $C$DW$305, DW_AT_location[DW_OP_reg1]
    3619              
    3620              ;* AR4   assigned to _handle
    3621              $C$DW$306       .dwtag  DW_TAG_variable
    3622                      .dwattr $C$DW$306, DW_AT_name("handle")
    3623                      .dwattr $C$DW$306, DW_AT_TI_symbol_name("_handle")
    3624                      .dwattr $C$DW$306, DW_AT_type(*$C$DW$T$53)
    3625                      .dwattr $C$DW$306, DW_AT_location[DW_OP_reg12]
    3626              
    3627              ;* AR4   assigned to _handle
    3628              $C$DW$307       .dwtag  DW_TAG_variable
    3629                      .dwattr $C$DW$307, DW_AT_name("handle")
    3630                      .dwattr $C$DW$307, DW_AT_TI_symbol_name("_handle")
    3631                      .dwattr $C$DW$307, DW_AT_type(*$C$DW$T$53)
    3632                      .dwattr $C$DW$307, DW_AT_location[DW_OP_reg12]
    3633              
    3634              ;* AR6   assigned to _refValue
    3635              $C$DW$308       .dwtag  DW_TAG_variable
    3636                      .dwattr $C$DW$308, DW_AT_name("refValue")
    3637                      .dwattr $C$DW$308, DW_AT_TI_symbol_name("_refValue")
    3638                      .dwattr $C$DW$308, DW_AT_type(*$C$DW$T$32)
    3639                      .dwattr $C$DW$308, DW_AT_location[DW_OP_reg16]
    3640              
    3641              ;* AR7   assigned to _fbackValue
    3642              $C$DW$309       .dwtag  DW_TAG_variable
    3643                      .dwattr $C$DW$309, DW_AT_name("fbackValue")
    3644                      .dwattr $C$DW$309, DW_AT_TI_symbol_name("_fbackValue")
    3645                      .dwattr $C$DW$309, DW_AT_type(*$C$DW$T$32)
    3646                      .dwattr $C$DW$309, DW_AT_location[DW_OP_reg18]
    3647              
    3648              $C$DW$310       .dwtag  DW_TAG_variable
    3649                      .dwattr $C$DW$310, DW_AT_name("Up")
    3650                      .dwattr $C$DW$310, DW_AT_TI_symbol_name("_Up")
    3651                      .dwattr $C$DW$310, DW_AT_type(*$C$DW$T$32)
    3652                      .dwattr $C$DW$310, DW_AT_location[DW_OP_breg20 -22]
    3653              
TMS320C2000 Assembler PC v22.6.0 Tue Apr 18 11:09:46 2023

Copyright (c) 1996-2018 Texas Instruments Incorporated
C:\Users\User\AppData\Local\Temp\{F169EDD6-E2A2-400A-8386-A823CBD75D49} PAGE   70

    3654              ;* AL    assigned to _Ui
    3655              $C$DW$311       .dwtag  DW_TAG_variable
    3656                      .dwattr $C$DW$311, DW_AT_name("Ui")
    3657                      .dwattr $C$DW$311, DW_AT_TI_symbol_name("_Ui")
    3658                      .dwattr $C$DW$311, DW_AT_type(*$C$DW$T$32)
    3659                      .dwattr $C$DW$311, DW_AT_location[DW_OP_reg0]
    3660              
    3661              ;* AR4   assigned to _handle
    3662              $C$DW$312       .dwtag  DW_TAG_variable
    3663                      .dwattr $C$DW$312, DW_AT_name("handle")
    3664                      .dwattr $C$DW$312, DW_AT_TI_symbol_name("_handle")
    3665                      .dwattr $C$DW$312, DW_AT_type(*$C$DW$T$53)
    3666                      .dwattr $C$DW$312, DW_AT_location[DW_OP_reg12]
    3667              
    3668              ;* AR2   assigned to _outMax
    3669              $C$DW$313       .dwtag  DW_TAG_variable
    3670                      .dwattr $C$DW$313, DW_AT_name("outMax")
    3671                      .dwattr $C$DW$313, DW_AT_TI_symbol_name("_outMax")
    3672                      .dwattr $C$DW$313, DW_AT_type(*$C$DW$T$32)
    3673                      .dwattr $C$DW$313, DW_AT_location[DW_OP_reg8]
    3674              
    3675              ;* AR4   assigned to _handle
    3676              $C$DW$314       .dwtag  DW_TAG_variable
    3677                      .dwattr $C$DW$314, DW_AT_name("handle")
    3678                      .dwattr $C$DW$314, DW_AT_TI_symbol_name("_handle")
    3679                      .dwattr $C$DW$314, DW_AT_type(*$C$DW$T$53)
    3680                      .dwattr $C$DW$314, DW_AT_location[DW_OP_reg12]
    3681              
    3682              ;* AR6   assigned to _fbackValue
    3683              $C$DW$315       .dwtag  DW_TAG_variable
    3684                      .dwattr $C$DW$315, DW_AT_name("fbackValue")
    3685                      .dwattr $C$DW$315, DW_AT_TI_symbol_name("_fbackValue")
    3686                      .dwattr $C$DW$315, DW_AT_type(*$C$DW$T$32)
    3687                      .dwattr $C$DW$315, DW_AT_location[DW_OP_reg16]
    3688              
    3689              ;* AR7   assigned to _Up
    3690              $C$DW$316       .dwtag  DW_TAG_variable
    3691                      .dwattr $C$DW$316, DW_AT_name("Up")
    3692                      .dwattr $C$DW$316, DW_AT_TI_symbol_name("_Up")
    3693                      .dwattr $C$DW$316, DW_AT_type(*$C$DW$T$32)
    3694                      .dwattr $C$DW$316, DW_AT_location[DW_OP_reg18]
    3695              
    3696              ;* AL    assigned to _Ui
    3697              $C$DW$317       .dwtag  DW_TAG_variable
    3698                      .dwattr $C$DW$317, DW_AT_name("Ui")
    3699                      .dwattr $C$DW$317, DW_AT_TI_symbol_name("_Ui")
    3700                      .dwattr $C$DW$317, DW_AT_type(*$C$DW$T$32)
    3701                      .dwattr $C$DW$317, DW_AT_location[DW_OP_reg0]
    3702              
    3703              ;* AR4   assigned to _handle
    3704              $C$DW$318       .dwtag  DW_TAG_variable
    3705                      .dwattr $C$DW$318, DW_AT_name("handle")
    3706                      .dwattr $C$DW$318, DW_AT_TI_symbol_name("_handle")
    3707                      .dwattr $C$DW$318, DW_AT_type(*$C$DW$T$56)
    3708                      .dwattr $C$DW$318, DW_AT_location[DW_OP_reg12]
TMS320C2000 Assembler PC v22.6.0 Tue Apr 18 11:09:46 2023

Copyright (c) 1996-2018 Texas Instruments Incorporated
C:\Users\User\AppData\Local\Temp\{F169EDD6-E2A2-400A-8386-A823CBD75D49} PAGE   71

    3709              
    3710              ;* AR7   assigned to _sinTh
    3711              $C$DW$319       .dwtag  DW_TAG_variable
    3712                      .dwattr $C$DW$319, DW_AT_name("sinTh")
    3713                      .dwattr $C$DW$319, DW_AT_TI_symbol_name("_sinTh")
    3714                      .dwattr $C$DW$319, DW_AT_type(*$C$DW$T$32)
    3715                      .dwattr $C$DW$319, DW_AT_location[DW_OP_reg18]
    3716              
    3717              ;* AR6   assigned to _cosTh
    3718              $C$DW$320       .dwtag  DW_TAG_variable
    3719                      .dwattr $C$DW$320, DW_AT_name("cosTh")
    3720                      .dwattr $C$DW$320, DW_AT_TI_symbol_name("_cosTh")
    3721                      .dwattr $C$DW$320, DW_AT_type(*$C$DW$T$32)
    3722                      .dwattr $C$DW$320, DW_AT_location[DW_OP_reg16]
    3723              
    3724              ;* AR4   assigned to _value_0
    3725              $C$DW$321       .dwtag  DW_TAG_variable
    3726                      .dwattr $C$DW$321, DW_AT_name("value_0")
    3727                      .dwattr $C$DW$321, DW_AT_TI_symbol_name("_value_0")
    3728                      .dwattr $C$DW$321, DW_AT_type(*$C$DW$T$32)
    3729                      .dwattr $C$DW$321, DW_AT_location[DW_OP_reg12]
    3730              
    3731              ;* AR5   assigned to _value_1
    3732              $C$DW$322       .dwtag  DW_TAG_variable
    3733                      .dwattr $C$DW$322, DW_AT_name("value_1")
    3734                      .dwattr $C$DW$322, DW_AT_TI_symbol_name("_value_1")
    3735                      .dwattr $C$DW$322, DW_AT_type(*$C$DW$T$32)
    3736                      .dwattr $C$DW$322, DW_AT_location[DW_OP_reg14]
    3737              
    3738              ;* PL    assigned to _Vmax
    3739              $C$DW$323       .dwtag  DW_TAG_variable
    3740                      .dwattr $C$DW$323, DW_AT_name("Vmax")
    3741                      .dwattr $C$DW$323, DW_AT_TI_symbol_name("_Vmax")
    3742                      .dwattr $C$DW$323, DW_AT_type(*$C$DW$T$32)
    3743                      .dwattr $C$DW$323, DW_AT_location[DW_OP_reg2]
    3744              
    3745              ;* XT    assigned to _Vmin
    3746              $C$DW$324       .dwtag  DW_TAG_variable
    3747                      .dwattr $C$DW$324, DW_AT_name("Vmin")
    3748                      .dwattr $C$DW$324, DW_AT_TI_symbol_name("_Vmin")
    3749                      .dwattr $C$DW$324, DW_AT_type(*$C$DW$T$32)
    3750                      .dwattr $C$DW$324, DW_AT_location[DW_OP_reg21]
    3751              
    3752              ;* AR6   assigned to _Va
    3753              $C$DW$325       .dwtag  DW_TAG_variable
    3754                      .dwattr $C$DW$325, DW_AT_name("Va")
    3755                      .dwattr $C$DW$325, DW_AT_TI_symbol_name("_Va")
    3756                      .dwattr $C$DW$325, DW_AT_type(*$C$DW$T$32)
    3757                      .dwattr $C$DW$325, DW_AT_location[DW_OP_reg16]
    3758              
    3759              ;* AR5   assigned to _Vb
    3760              $C$DW$326       .dwtag  DW_TAG_variable
    3761                      .dwattr $C$DW$326, DW_AT_name("Vb")
    3762                      .dwattr $C$DW$326, DW_AT_TI_symbol_name("_Vb")
    3763                      .dwattr $C$DW$326, DW_AT_type(*$C$DW$T$32)
TMS320C2000 Assembler PC v22.6.0 Tue Apr 18 11:09:46 2023

Copyright (c) 1996-2018 Texas Instruments Incorporated
C:\Users\User\AppData\Local\Temp\{F169EDD6-E2A2-400A-8386-A823CBD75D49} PAGE   72

    3764                      .dwattr $C$DW$326, DW_AT_location[DW_OP_reg14]
    3765              
    3766              ;* AR7   assigned to _Vc
    3767              $C$DW$327       .dwtag  DW_TAG_variable
    3768                      .dwattr $C$DW$327, DW_AT_name("Vc")
    3769                      .dwattr $C$DW$327, DW_AT_TI_symbol_name("_Vc")
    3770                      .dwattr $C$DW$327, DW_AT_type(*$C$DW$T$32)
    3771                      .dwattr $C$DW$327, DW_AT_location[DW_OP_reg18]
    3772              
    3773              ;* AR2   assigned to _angle_pu
    3774              $C$DW$328       .dwtag  DW_TAG_variable
    3775                      .dwattr $C$DW$328, DW_AT_name("angle_pu")
    3776                      .dwattr $C$DW$328, DW_AT_TI_symbol_name("_angle_pu")
    3777                      .dwattr $C$DW$328, DW_AT_type(*$C$DW$T$32)
    3778                      .dwattr $C$DW$328, DW_AT_location[DW_OP_reg8]
    3779              
    3780              ;* AR1   assigned to _refValue
    3781              $C$DW$329       .dwtag  DW_TAG_variable
    3782                      .dwattr $C$DW$329, DW_AT_name("refValue")
    3783                      .dwattr $C$DW$329, DW_AT_TI_symbol_name("_refValue")
    3784                      .dwattr $C$DW$329, DW_AT_type(*$C$DW$T$32)
    3785                      .dwattr $C$DW$329, DW_AT_location[DW_OP_reg6]
    3786              
    3787              ;* AR6   assigned to _fbackValue
    3788              $C$DW$330       .dwtag  DW_TAG_variable
    3789                      .dwattr $C$DW$330, DW_AT_name("fbackValue")
    3790                      .dwattr $C$DW$330, DW_AT_TI_symbol_name("_fbackValue")
    3791                      .dwattr $C$DW$330, DW_AT_type(*$C$DW$T$32)
    3792                      .dwattr $C$DW$330, DW_AT_location[DW_OP_reg16]
    3793              
    3794              ;* AR7   assigned to _outMax
    3795              $C$DW$331       .dwtag  DW_TAG_variable
    3796                      .dwattr $C$DW$331, DW_AT_name("outMax")
    3797                      .dwattr $C$DW$331, DW_AT_TI_symbol_name("_outMax")
    3798                      .dwattr $C$DW$331, DW_AT_type(*$C$DW$T$32)
    3799                      .dwattr $C$DW$331, DW_AT_location[DW_OP_reg18]
    3800              
    3801              ;* PL    assigned to _outMin
    3802              $C$DW$332       .dwtag  DW_TAG_variable
    3803                      .dwattr $C$DW$332, DW_AT_name("outMin")
    3804                      .dwattr $C$DW$332, DW_AT_TI_symbol_name("_outMin")
    3805                      .dwattr $C$DW$332, DW_AT_type(*$C$DW$T$32)
    3806                      .dwattr $C$DW$332, DW_AT_location[DW_OP_reg2]
    3807              
    3808              ;* AR1   assigned to _Kp_Id
    3809              $C$DW$333       .dwtag  DW_TAG_variable
    3810                      .dwattr $C$DW$333, DW_AT_name("Kp_Id")
    3811                      .dwattr $C$DW$333, DW_AT_TI_symbol_name("_Kp_Id")
    3812                      .dwattr $C$DW$333, DW_AT_type(*$C$DW$T$32)
    3813                      .dwattr $C$DW$333, DW_AT_location[DW_OP_reg6]
    3814              
    3815              $C$DW$334       .dwtag  DW_TAG_variable
    3816                      .dwattr $C$DW$334, DW_AT_name("Kp_Iq")
    3817                      .dwattr $C$DW$334, DW_AT_TI_symbol_name("_Kp_Iq")
    3818                      .dwattr $C$DW$334, DW_AT_type(*$C$DW$T$32)
TMS320C2000 Assembler PC v22.6.0 Tue Apr 18 11:09:46 2023

Copyright (c) 1996-2018 Texas Instruments Incorporated
C:\Users\User\AppData\Local\Temp\{F169EDD6-E2A2-400A-8386-A823CBD75D49} PAGE   73

    3819                      .dwattr $C$DW$334, DW_AT_location[DW_OP_breg20 -18]
    3820              
    3821              ;* AR6   assigned to _outMax
    3822              $C$DW$335       .dwtag  DW_TAG_variable
    3823                      .dwattr $C$DW$335, DW_AT_name("outMax")
    3824                      .dwattr $C$DW$335, DW_AT_TI_symbol_name("_outMax")
    3825                      .dwattr $C$DW$335, DW_AT_type(*$C$DW$T$32)
    3826                      .dwattr $C$DW$335, DW_AT_location[DW_OP_reg16]
    3827              
    3828              $C$DW$336       .dwtag  DW_TAG_variable
    3829                      .dwattr $C$DW$336, DW_AT_name("maxVsMag")
    3830                      .dwattr $C$DW$336, DW_AT_TI_symbol_name("_maxVsMag")
    3831                      .dwattr $C$DW$336, DW_AT_type(*$C$DW$T$32)
    3832                      .dwattr $C$DW$336, DW_AT_location[DW_OP_breg20 -22]
    3833              
    3834              ;* AR2   assigned to _pInVec
    3835              $C$DW$337       .dwtag  DW_TAG_variable
    3836                      .dwattr $C$DW$337, DW_AT_name("pInVec")
    3837                      .dwattr $C$DW$337, DW_AT_TI_symbol_name("_pInVec")
    3838                      .dwattr $C$DW$337, DW_AT_type(*$C$DW$T$218)
    3839                      .dwattr $C$DW$337, DW_AT_location[DW_OP_reg8]
    3840              
    3841              ;* AR4   assigned to _pOutVec
    3842              $C$DW$338       .dwtag  DW_TAG_variable
    3843                      .dwattr $C$DW$338, DW_AT_name("pOutVec")
    3844                      .dwattr $C$DW$338, DW_AT_TI_symbol_name("_pOutVec")
    3845                      .dwattr $C$DW$338, DW_AT_type(*$C$DW$T$209)
    3846                      .dwattr $C$DW$338, DW_AT_location[DW_OP_reg12]
    3847              
    3848              ;* AR6   assigned to _alpha_sf
    3849              $C$DW$339       .dwtag  DW_TAG_variable
    3850                      .dwattr $C$DW$339, DW_AT_name("alpha_sf")
    3851                      .dwattr $C$DW$339, DW_AT_TI_symbol_name("_alpha_sf")
    3852                      .dwattr $C$DW$339, DW_AT_type(*$C$DW$T$32)
    3853                      .dwattr $C$DW$339, DW_AT_location[DW_OP_reg16]
    3854              
    3855              ;* AR7   assigned to _beta_sf
    3856              $C$DW$340       .dwtag  DW_TAG_variable
    3857                      .dwattr $C$DW$340, DW_AT_name("beta_sf")
    3858                      .dwattr $C$DW$340, DW_AT_TI_symbol_name("_beta_sf")
    3859                      .dwattr $C$DW$340, DW_AT_type(*$C$DW$T$32)
    3860                      .dwattr $C$DW$340, DW_AT_location[DW_OP_reg18]
    3861              
    3862              ;* AR4   assigned to _pInVec
    3863              $C$DW$341       .dwtag  DW_TAG_variable
    3864                      .dwattr $C$DW$341, DW_AT_name("pInVec")
    3865                      .dwattr $C$DW$341, DW_AT_TI_symbol_name("_pInVec")
    3866                      .dwattr $C$DW$341, DW_AT_type(*$C$DW$T$218)
    3867                      .dwattr $C$DW$341, DW_AT_location[DW_OP_reg12]
    3868              
    3869              ;* AR5   assigned to _pOutVec
    3870              $C$DW$342       .dwtag  DW_TAG_variable
    3871                      .dwattr $C$DW$342, DW_AT_name("pOutVec")
    3872                      .dwattr $C$DW$342, DW_AT_TI_symbol_name("_pOutVec")
    3873                      .dwattr $C$DW$342, DW_AT_type(*$C$DW$T$209)
TMS320C2000 Assembler PC v22.6.0 Tue Apr 18 11:09:46 2023

Copyright (c) 1996-2018 Texas Instruments Incorporated
C:\Users\User\AppData\Local\Temp\{F169EDD6-E2A2-400A-8386-A823CBD75D49} PAGE   74

    3874                      .dwattr $C$DW$342, DW_AT_location[DW_OP_reg14]
    3875              
    3876              ;* AR0   assigned to _alpha_sf
    3877              $C$DW$343       .dwtag  DW_TAG_variable
    3878                      .dwattr $C$DW$343, DW_AT_name("alpha_sf")
    3879                      .dwattr $C$DW$343, DW_AT_TI_symbol_name("_alpha_sf")
    3880                      .dwattr $C$DW$343, DW_AT_type(*$C$DW$T$32)
    3881                      .dwattr $C$DW$343, DW_AT_location[DW_OP_reg4]
    3882              
    3883              $C$DW$344       .dwtag  DW_TAG_variable
    3884                      .dwattr $C$DW$344, DW_AT_name("beta_sf")
    3885                      .dwattr $C$DW$344, DW_AT_TI_symbol_name("_beta_sf")
    3886                      .dwattr $C$DW$344, DW_AT_type(*$C$DW$T$32)
    3887                      .dwattr $C$DW$344, DW_AT_location[DW_OP_breg20 -18]
    3888              
    3889              ;* AR4   assigned to _handle
    3890              $C$DW$345       .dwtag  DW_TAG_variable
    3891                      .dwattr $C$DW$345, DW_AT_name("handle")
    3892                      .dwattr $C$DW$345, DW_AT_TI_symbol_name("_handle")
    3893                      .dwattr $C$DW$345, DW_AT_type(*$C$DW$T$50)
    3894                      .dwattr $C$DW$345, DW_AT_location[DW_OP_reg12]
    3895              
    3896              ;* AR6   assigned to _sinTh
    3897              $C$DW$346       .dwtag  DW_TAG_variable
    3898                      .dwattr $C$DW$346, DW_AT_name("sinTh")
    3899                      .dwattr $C$DW$346, DW_AT_TI_symbol_name("_sinTh")
    3900                      .dwattr $C$DW$346, DW_AT_type(*$C$DW$T$32)
    3901                      .dwattr $C$DW$346, DW_AT_location[DW_OP_reg16]
    3902              
    3903              ;* AR7   assigned to _cosTh
    3904              $C$DW$347       .dwtag  DW_TAG_variable
    3905                      .dwattr $C$DW$347, DW_AT_name("cosTh")
    3906                      .dwattr $C$DW$347, DW_AT_TI_symbol_name("_cosTh")
    3907                      .dwattr $C$DW$347, DW_AT_type(*$C$DW$T$32)
    3908                      .dwattr $C$DW$347, DW_AT_location[DW_OP_reg18]
    3909              
    3910              ;* AR5   assigned to _value_0
    3911              $C$DW$348       .dwtag  DW_TAG_variable
    3912                      .dwattr $C$DW$348, DW_AT_name("value_0")
    3913                      .dwattr $C$DW$348, DW_AT_TI_symbol_name("_value_0")
    3914                      .dwattr $C$DW$348, DW_AT_type(*$C$DW$T$32)
    3915                      .dwattr $C$DW$348, DW_AT_location[DW_OP_reg14]
    3916              
    3917              ;* AR4   assigned to _value_1
    3918              $C$DW$349       .dwtag  DW_TAG_variable
    3919                      .dwattr $C$DW$349, DW_AT_name("value_1")
    3920                      .dwattr $C$DW$349, DW_AT_TI_symbol_name("_value_1")
    3921                      .dwattr $C$DW$349, DW_AT_type(*$C$DW$T$32)
    3922                      .dwattr $C$DW$349, DW_AT_location[DW_OP_reg12]
    3923              
    3924              ;* AR5   assigned to _handle
    3925              $C$DW$350       .dwtag  DW_TAG_variable
    3926                      .dwattr $C$DW$350, DW_AT_name("handle")
    3927                      .dwattr $C$DW$350, DW_AT_TI_symbol_name("_handle")
    3928                      .dwattr $C$DW$350, DW_AT_type(*$C$DW$T$53)
TMS320C2000 Assembler PC v22.6.0 Tue Apr 18 11:09:46 2023

Copyright (c) 1996-2018 Texas Instruments Incorporated
C:\Users\User\AppData\Local\Temp\{F169EDD6-E2A2-400A-8386-A823CBD75D49} PAGE   75

    3929                      .dwattr $C$DW$350, DW_AT_location[DW_OP_reg14]
    3930              
    3931              ;* AR7   assigned to _outMax
    3932              $C$DW$351       .dwtag  DW_TAG_variable
    3933                      .dwattr $C$DW$351, DW_AT_name("outMax")
    3934                      .dwattr $C$DW$351, DW_AT_TI_symbol_name("_outMax")
    3935                      .dwattr $C$DW$351, DW_AT_type(*$C$DW$T$32)
    3936                      .dwattr $C$DW$351, DW_AT_location[DW_OP_reg18]
    3937              
    3938              ;* AR4   assigned to _handle
    3939              $C$DW$352       .dwtag  DW_TAG_variable
    3940                      .dwattr $C$DW$352, DW_AT_name("handle")
    3941                      .dwattr $C$DW$352, DW_AT_TI_symbol_name("_handle")
    3942                      .dwattr $C$DW$352, DW_AT_type(*$C$DW$T$53)
    3943                      .dwattr $C$DW$352, DW_AT_location[DW_OP_reg12]
    3944              
    3945              ;* AR7   assigned to _refValue
    3946              $C$DW$353       .dwtag  DW_TAG_variable
    3947                      .dwattr $C$DW$353, DW_AT_name("refValue")
    3948                      .dwattr $C$DW$353, DW_AT_TI_symbol_name("_refValue")
    3949                      .dwattr $C$DW$353, DW_AT_type(*$C$DW$T$32)
    3950                      .dwattr $C$DW$353, DW_AT_location[DW_OP_reg18]
    3951              
    3952              ;* AR5   assigned to _Up
    3953              $C$DW$354       .dwtag  DW_TAG_variable
    3954                      .dwattr $C$DW$354, DW_AT_name("Up")
    3955                      .dwattr $C$DW$354, DW_AT_TI_symbol_name("_Up")
    3956                      .dwattr $C$DW$354, DW_AT_type(*$C$DW$T$32)
    3957                      .dwattr $C$DW$354, DW_AT_location[DW_OP_reg14]
    3958              
    3959              ;* AL    assigned to _Ui
    3960              $C$DW$355       .dwtag  DW_TAG_variable
    3961                      .dwattr $C$DW$355, DW_AT_name("Ui")
    3962                      .dwattr $C$DW$355, DW_AT_TI_symbol_name("_Ui")
    3963                      .dwattr $C$DW$355, DW_AT_type(*$C$DW$T$32)
    3964                      .dwattr $C$DW$355, DW_AT_location[DW_OP_reg0]
    3965              
    3966              ;* AH    assigned to _result
    3967              $C$DW$356       .dwtag  DW_TAG_variable
    3968                      .dwattr $C$DW$356, DW_AT_name("result")
    3969                      .dwattr $C$DW$356, DW_AT_TI_symbol_name("_result")
    3970                      .dwattr $C$DW$356, DW_AT_type(*$C$DW$T$73)
    3971                      .dwattr $C$DW$356, DW_AT_location[DW_OP_reg1]
    3972              
    3973              ;* AR4   assigned to _handle
    3974              $C$DW$357       .dwtag  DW_TAG_variable
    3975                      .dwattr $C$DW$357, DW_AT_name("handle")
    3976                      .dwattr $C$DW$357, DW_AT_TI_symbol_name("_handle")
    3977                      .dwattr $C$DW$357, DW_AT_type(*$C$DW$T$53)
    3978                      .dwattr $C$DW$357, DW_AT_location[DW_OP_reg12]
    3979              
    3980              ;* AR4   assigned to _handle
    3981              $C$DW$358       .dwtag  DW_TAG_variable
    3982                      .dwattr $C$DW$358, DW_AT_name("handle")
    3983                      .dwattr $C$DW$358, DW_AT_TI_symbol_name("_handle")
TMS320C2000 Assembler PC v22.6.0 Tue Apr 18 11:09:46 2023

Copyright (c) 1996-2018 Texas Instruments Incorporated
C:\Users\User\AppData\Local\Temp\{F169EDD6-E2A2-400A-8386-A823CBD75D49} PAGE   76

    3984                      .dwattr $C$DW$358, DW_AT_type(*$C$DW$T$53)
    3985                      .dwattr $C$DW$358, DW_AT_location[DW_OP_reg12]
    3986              
    3987              ;* AR7   assigned to _refValue
    3988              $C$DW$359       .dwtag  DW_TAG_variable
    3989                      .dwattr $C$DW$359, DW_AT_name("refValue")
    3990                      .dwattr $C$DW$359, DW_AT_TI_symbol_name("_refValue")
    3991                      .dwattr $C$DW$359, DW_AT_type(*$C$DW$T$32)
    3992                      .dwattr $C$DW$359, DW_AT_location[DW_OP_reg18]
    3993              
    3994              ;* AR6   assigned to _fbackValue
    3995              $C$DW$360       .dwtag  DW_TAG_variable
    3996                      .dwattr $C$DW$360, DW_AT_name("fbackValue")
    3997                      .dwattr $C$DW$360, DW_AT_TI_symbol_name("_fbackValue")
    3998                      .dwattr $C$DW$360, DW_AT_type(*$C$DW$T$32)
    3999                      .dwattr $C$DW$360, DW_AT_location[DW_OP_reg16]
    4000              
    4001              $C$DW$361       .dwtag  DW_TAG_variable
    4002                      .dwattr $C$DW$361, DW_AT_name("Up")
    4003                      .dwattr $C$DW$361, DW_AT_TI_symbol_name("_Up")
    4004                      .dwattr $C$DW$361, DW_AT_type(*$C$DW$T$32)
    4005                      .dwattr $C$DW$361, DW_AT_location[DW_OP_breg20 -24]
    4006              
    4007              ;* AL    assigned to _Ui
    4008              $C$DW$362       .dwtag  DW_TAG_variable
    4009                      .dwattr $C$DW$362, DW_AT_name("Ui")
    4010                      .dwattr $C$DW$362, DW_AT_TI_symbol_name("_Ui")
    4011                      .dwattr $C$DW$362, DW_AT_type(*$C$DW$T$32)
    4012                      .dwattr $C$DW$362, DW_AT_location[DW_OP_reg0]
    4013              
    4014              ;* AR4   assigned to _handle
    4015              $C$DW$363       .dwtag  DW_TAG_variable
    4016                      .dwattr $C$DW$363, DW_AT_name("handle")
    4017                      .dwattr $C$DW$363, DW_AT_TI_symbol_name("_handle")
    4018                      .dwattr $C$DW$363, DW_AT_type(*$C$DW$T$53)
    4019                      .dwattr $C$DW$363, DW_AT_location[DW_OP_reg12]
    4020              
    4021              ;* AR4   assigned to _handle
    4022              $C$DW$364       .dwtag  DW_TAG_variable
    4023                      .dwattr $C$DW$364, DW_AT_name("handle")
    4024                      .dwattr $C$DW$364, DW_AT_TI_symbol_name("_handle")
    4025                      .dwattr $C$DW$364, DW_AT_type(*$C$DW$T$53)
    4026                      .dwattr $C$DW$364, DW_AT_location[DW_OP_reg12]
    4027              
    4028              ;* AR6   assigned to _fbackValue
    4029              $C$DW$365       .dwtag  DW_TAG_variable
    4030                      .dwattr $C$DW$365, DW_AT_name("fbackValue")
    4031                      .dwattr $C$DW$365, DW_AT_TI_symbol_name("_fbackValue")
    4032                      .dwattr $C$DW$365, DW_AT_type(*$C$DW$T$32)
    4033                      .dwattr $C$DW$365, DW_AT_location[DW_OP_reg16]
    4034              
    4035              ;* AR7   assigned to _Up
    4036              $C$DW$366       .dwtag  DW_TAG_variable
    4037                      .dwattr $C$DW$366, DW_AT_name("Up")
    4038                      .dwattr $C$DW$366, DW_AT_TI_symbol_name("_Up")
TMS320C2000 Assembler PC v22.6.0 Tue Apr 18 11:09:46 2023

Copyright (c) 1996-2018 Texas Instruments Incorporated
C:\Users\User\AppData\Local\Temp\{F169EDD6-E2A2-400A-8386-A823CBD75D49} PAGE   77

    4039                      .dwattr $C$DW$366, DW_AT_type(*$C$DW$T$32)
    4040                      .dwattr $C$DW$366, DW_AT_location[DW_OP_reg18]
    4041              
    4042              ;* AL    assigned to _Ui
    4043              $C$DW$367       .dwtag  DW_TAG_variable
    4044                      .dwattr $C$DW$367, DW_AT_name("Ui")
    4045                      .dwattr $C$DW$367, DW_AT_TI_symbol_name("_Ui")
    4046                      .dwattr $C$DW$367, DW_AT_type(*$C$DW$T$32)
    4047                      .dwattr $C$DW$367, DW_AT_location[DW_OP_reg0]
    4048              
    4049              ;* XT    assigned to _angleDelta_pu
    4050              $C$DW$368       .dwtag  DW_TAG_variable
    4051                      .dwattr $C$DW$368, DW_AT_name("angleDelta_pu")
    4052                      .dwattr $C$DW$368, DW_AT_TI_symbol_name("_angleDelta_pu")
    4053                      .dwattr $C$DW$368, DW_AT_type(*$C$DW$T$32)
    4054                      .dwattr $C$DW$368, DW_AT_location[DW_OP_reg21]
    4055              
    4056              ;* AR1   assigned to _angleComp_pu
    4057              $C$DW$369       .dwtag  DW_TAG_variable
    4058                      .dwattr $C$DW$369, DW_AT_name("angleComp_pu")
    4059                      .dwattr $C$DW$369, DW_AT_TI_symbol_name("_angleComp_pu")
    4060                      .dwattr $C$DW$369, DW_AT_type(*$C$DW$T$32)
    4061                      .dwattr $C$DW$369, DW_AT_location[DW_OP_reg6]
    4062              
    4063              ;* AR4   assigned to _handle
    4064              $C$DW$370       .dwtag  DW_TAG_variable
    4065                      .dwattr $C$DW$370, DW_AT_name("handle")
    4066                      .dwattr $C$DW$370, DW_AT_TI_symbol_name("_handle")
    4067                      .dwattr $C$DW$370, DW_AT_type(*$C$DW$T$56)
    4068                      .dwattr $C$DW$370, DW_AT_location[DW_OP_reg12]
    4069              
    4070              ;* AR7   assigned to _sinTh
    4071              $C$DW$371       .dwtag  DW_TAG_variable
    4072                      .dwattr $C$DW$371, DW_AT_name("sinTh")
    4073                      .dwattr $C$DW$371, DW_AT_TI_symbol_name("_sinTh")
    4074                      .dwattr $C$DW$371, DW_AT_type(*$C$DW$T$32)
    4075                      .dwattr $C$DW$371, DW_AT_location[DW_OP_reg18]
    4076              
    4077              ;* AR6   assigned to _cosTh
    4078              $C$DW$372       .dwtag  DW_TAG_variable
    4079                      .dwattr $C$DW$372, DW_AT_name("cosTh")
    4080                      .dwattr $C$DW$372, DW_AT_TI_symbol_name("_cosTh")
    4081                      .dwattr $C$DW$372, DW_AT_type(*$C$DW$T$32)
    4082                      .dwattr $C$DW$372, DW_AT_location[DW_OP_reg16]
    4083              
    4084              ;* AR4   assigned to _value_0
    4085              $C$DW$373       .dwtag  DW_TAG_variable
    4086                      .dwattr $C$DW$373, DW_AT_name("value_0")
    4087                      .dwattr $C$DW$373, DW_AT_TI_symbol_name("_value_0")
    4088                      .dwattr $C$DW$373, DW_AT_type(*$C$DW$T$32)
    4089                      .dwattr $C$DW$373, DW_AT_location[DW_OP_reg12]
    4090              
    4091              ;* AR5   assigned to _value_1
    4092              $C$DW$374       .dwtag  DW_TAG_variable
    4093                      .dwattr $C$DW$374, DW_AT_name("value_1")
TMS320C2000 Assembler PC v22.6.0 Tue Apr 18 11:09:46 2023

Copyright (c) 1996-2018 Texas Instruments Incorporated
C:\Users\User\AppData\Local\Temp\{F169EDD6-E2A2-400A-8386-A823CBD75D49} PAGE   78

    4094                      .dwattr $C$DW$374, DW_AT_TI_symbol_name("_value_1")
    4095                      .dwattr $C$DW$374, DW_AT_type(*$C$DW$T$32)
    4096                      .dwattr $C$DW$374, DW_AT_location[DW_OP_reg14]
    4097              
    4098              ;* AR4   assigned to _pT
    4099              $C$DW$375       .dwtag  DW_TAG_variable
    4100                      .dwattr $C$DW$375, DW_AT_name("pT")
    4101                      .dwattr $C$DW$375, DW_AT_TI_symbol_name("_pT")
    4102                      .dwattr $C$DW$375, DW_AT_type(*$C$DW$T$219)
    4103                      .dwattr $C$DW$375, DW_AT_location[DW_OP_reg12]
    4104              
    4105              ;* PL    assigned to _Vmax
    4106              $C$DW$376       .dwtag  DW_TAG_variable
    4107                      .dwattr $C$DW$376, DW_AT_name("Vmax")
    4108                      .dwattr $C$DW$376, DW_AT_TI_symbol_name("_Vmax")
    4109                      .dwattr $C$DW$376, DW_AT_type(*$C$DW$T$32)
    4110                      .dwattr $C$DW$376, DW_AT_location[DW_OP_reg2]
    4111              
    4112              ;* XT    assigned to _Vmin
    4113              $C$DW$377       .dwtag  DW_TAG_variable
    4114                      .dwattr $C$DW$377, DW_AT_name("Vmin")
    4115                      .dwattr $C$DW$377, DW_AT_TI_symbol_name("_Vmin")
    4116                      .dwattr $C$DW$377, DW_AT_type(*$C$DW$T$32)
    4117                      .dwattr $C$DW$377, DW_AT_location[DW_OP_reg21]
    4118              
    4119              ;* AR6   assigned to _Va
    4120              $C$DW$378       .dwtag  DW_TAG_variable
    4121                      .dwattr $C$DW$378, DW_AT_name("Va")
    4122                      .dwattr $C$DW$378, DW_AT_TI_symbol_name("_Va")
    4123                      .dwattr $C$DW$378, DW_AT_type(*$C$DW$T$32)
    4124                      .dwattr $C$DW$378, DW_AT_location[DW_OP_reg16]
    4125              
    4126              ;* AR5   assigned to _Vb
    4127              $C$DW$379       .dwtag  DW_TAG_variable
    4128                      .dwattr $C$DW$379, DW_AT_name("Vb")
    4129                      .dwattr $C$DW$379, DW_AT_TI_symbol_name("_Vb")
    4130                      .dwattr $C$DW$379, DW_AT_type(*$C$DW$T$32)
    4131                      .dwattr $C$DW$379, DW_AT_location[DW_OP_reg14]
    4132              
    4133              ;* AR7   assigned to _Vc
    4134              $C$DW$380       .dwtag  DW_TAG_variable
    4135                      .dwattr $C$DW$380, DW_AT_name("Vc")
    4136                      .dwattr $C$DW$380, DW_AT_TI_symbol_name("_Vc")
    4137                      .dwattr $C$DW$380, DW_AT_type(*$C$DW$T$32)
    4138                      .dwattr $C$DW$380, DW_AT_location[DW_OP_reg18]
    4139              
    4140                      .dwcfi  cfa_offset, -2
    4141                      .dwcfi  save_reg_to_mem, 26, 0
    4142 000003ef B2BD          MOVL      *SP++,XAR1            ; [CPU_ALU] 
    4143                      .dwcfi  save_reg_to_mem, 7, 2
    4144                      .dwcfi  cfa_offset, -4
    4145 000003f0 AABD          MOVL      *SP++,XAR2            ; [CPU_ALU] 
    4146                      .dwcfi  save_reg_to_mem, 9, 4
    4147                      .dwcfi  cfa_offset, -6
    4148 000003f1 A2BD          MOVL      *SP++,XAR3            ; [CPU_ALU] 
TMS320C2000 Assembler PC v22.6.0 Tue Apr 18 11:09:46 2023

Copyright (c) 1996-2018 Texas Instruments Incorporated
C:\Users\User\AppData\Local\Temp\{F169EDD6-E2A2-400A-8386-A823CBD75D49} PAGE   79

    4149                      .dwcfi  save_reg_to_mem, 11, 6
    4150                      .dwcfi  cfa_offset, -8
    4151 000003f2 FE18          ADDB      SP,#24                ; [CPU_ARAU] 
    4152                      .dwcfi  cfa_offset, -32
    4153                      .dwpsn  file "D:/GIANT/GIANT_TI_instaspin/TI_instaspin_indoor_smart_trainer/motorware/motorware_1_01_
    4154 000003f3 D09C          MOVB      XAR0,#156             ; [CPU_ALU] |181| 
    4155                      .dwpsn  file "D:/GIANT/GIANT_TI_instaspin/TI_instaspin_indoor_smart_trainer/motorware/motorware_1_01_
    4156 000003f4 82A4          MOVL      XAR3,XAR4             ; [CPU_ALU] |175| 
    4157 000003f5 0664          MOVL      ACC,*-SP[36]          ; [CPU_ALU] |175| 
    4158 000003f6 8662          MOVL      XAR2,*-SP[34]         ; [CPU_ALU] |175| 
    4159 000003f7 1E54          MOVL      *-SP[20],ACC          ; [CPU_ALU] |175| 
    4160                      .dwpsn  file "D:/GIANT/GIANT_TI_instaspin/TI_instaspin_indoor_smart_trainer/motorware/motorware_1_01_
    4161 000003f8 9293          MOV       AL,*+XAR3[AR0]        ; [CPU_ALU] |181| 
    4162 000003f9 D0ED          MOVB      XAR0,#237             ; [CPU_ALU] |181| 
    4163 000003fa 5493          CMP       AL,*+XAR3[AR0]        ; [CPU_ALU] |181| 
    4164 000003fb FFE6          B         $C$L78,HI             ; [CPU_ALU] |181| 
         000003fc 051A 
    4165                      ; branchcc occurs ; [] |181| 
    4166                      .dwpsn  file "D:/GIANT/GIANT_TI_instaspin/TI_instaspin_indoor_smart_trainer/motorware/motorware_1_01_
    4167 000003fd A2A9          MOVL      ACC,XAR3              ; [CPU_ALU] |1014| 
    4168                      .dwpsn  file "D:/GIANT/GIANT_TI_instaspin/TI_instaspin_indoor_smart_trainer/motorware/motorware_1_01_
    4169 000003fe D0ED          MOVB      XAR0,#237             ; [CPU_ALU] |1088| 
    4170                      .dwpsn  file "D:/GIANT/GIANT_TI_instaspin/TI_instaspin_indoor_smart_trainer/motorware/motorware_1_01_
    4171 000003ff 099A          ADDB      ACC,#154              ; [CPU_ALU] |1014| 
    4172 00000400 8AA9          MOVL      XAR4,ACC              ; [CPU_ALU] |1014| 
    4173                      .dwpsn  file "D:/GIANT/GIANT_TI_instaspin/TI_instaspin_indoor_smart_trainer/motorware/motorware_1_01_
    4174 00000401 88E3          MOVZ      AR6,*+XAR3[4]         ; [CPU_ALU] |772| 
    4175                      .dwpsn  file "D:/GIANT/GIANT_TI_instaspin/TI_instaspin_indoor_smart_trainer/motorware/motorware_1_01_
    4176 00000402 56BF          MOVB      *+XAR3[AR0],#1,UNC    ; [CPU_ALU] |1088| 
         00000403 0193 
    4177                      .dwpsn  file "D:/GIANT/GIANT_TI_instaspin/TI_instaspin_indoor_smart_trainer/motorware/motorware_1_01_
    4178 00000404 0201          MOVB      ACC,#1                ; [CPU_ALU] |1014| 
    4179 00000405 5601          ADDL      *+XAR4[0],ACC         ; [CPU_ALU] |1014| 
         00000406 00C4 
    4180                      .dwpsn  file "D:/GIANT/GIANT_TI_instaspin/TI_instaspin_indoor_smart_trainer/motorware/motorware_1_01_
    4181 00000407 A2A9          MOVL      ACC,XAR3              ; [CPU_ALU] |1032| 
    4182 00000408 09EF          ADDB      ACC,#239              ; [CPU_ALU] |1032| 
    4183 00000409 8AA9          MOVL      XAR4,ACC              ; [CPU_ALU] |1032| 
    4184 0000040a 92A6          MOV       AL,AR6                ; [CPU_ALU] |1032| 
    4185 0000040b 0AC4          INC       *+XAR4[0]             ; [CPU_ALU] |1032| 
    4186                      .dwpsn  file "D:/GIANT/GIANT_TI_instaspin/TI_instaspin_indoor_smart_trainer/motorware/motorware_1_01_
    4187 0000040c 5203          CMPB      AL,#3                 ; [CPU_ALU] |195| 
    4188 0000040d 6170          B         $C$L41,EQ             ; [CPU_ALU] |195| 
    4189                      ; branchcc occurs ; [] |195| 
    4190                      .dwpsn  file "D:/GIANT/GIANT_TI_instaspin/TI_instaspin_indoor_smart_trainer/motorware/motorware_1_01_
    4191 0000040e 5202          CMPB      AL,#2                 ; [CPU_ALU] |216| 
    4192 0000040f 6105          B         $C$L35,EQ             ; [CPU_ALU] |216| 
    4193                      ; branchcc occurs ; [] |216| 
    4194                      .dwpsn  file "D:/GIANT/GIANT_TI_instaspin/TI_instaspin_indoor_smart_trainer/motorware/motorware_1_01_
    4195 00000410 5201          CMPB      AL,#1                 ; [CPU_ALU] |221| 
    4196 00000411 610F          B         $C$L38,EQ             ; [CPU_ALU] |221| 
    4197                      ; branchcc occurs ; [] |221| 
    4198 00000412 FFEF          B         $C$L79,UNC            ; [CPU_ALU] |221| 
         00000413 0507 
    4199                      ; branch occurs ; [] |221| 
TMS320C2000 Assembler PC v22.6.0 Tue Apr 18 11:09:46 2023

Copyright (c) 1996-2018 Texas Instruments Incorporated
C:\Users\User\AppData\Local\Temp\{F169EDD6-E2A2-400A-8386-A823CBD75D49} PAGE   80

    4200 00000414       $C$L35:    
    4201                      .dwpsn  file "D:/GIANT/GIANT_TI_instaspin/TI_instaspin_indoor_smart_trainer/motorware/motorware_1_01_
    4202 00000414 D300          MOVB      XAR3,#0               ; [CPU_ALU] |206| 
    4203 00000415 2901          CLRC      SXM                   ; [CPU_ALU] 
    4204 00000416       $C$L36:    
    4205                      .dwpsn  file "D:/GIANT/GIANT_TI_instaspin/TI_instaspin_indoor_smart_trainer/motorware/motorware_1_01_
    4206 00000416 D098          MOVB      XAR0,#152             ; [CPU_ALU] |206| 
    4207 00000417 92A3          MOV       AL,AR3                ; [CPU_ALU] |206| 
    4208 00000418 5495          CMP       AL,*+XAR5[AR0]        ; [CPU_ALU] |206| 
    4209 00000419 6839          B         $C$L40,LO             ; [CPU_ALU] |206| 
    4210                      ; branchcc occurs ; [] |206| 
    4211                      .dwpsn  file "D:/GIANT/GIANT_TI_instaspin/TI_instaspin_indoor_smart_trainer/motorware/motorware_1_01_
    4212 0000041a D300          MOVB      XAR3,#0               ; [CPU_ALU] |212| 
    4213 0000041b 2901          CLRC      SXM                   ; [CPU_ALU] 
    4214 0000041c       $C$L37:    
    4215                      .dwpsn  file "D:/GIANT/GIANT_TI_instaspin/TI_instaspin_indoor_smart_trainer/motorware/motorware_1_01_
    4216 0000041c D099          MOVB      XAR0,#153             ; [CPU_ALU] |212| 
    4217 0000041d 92A3          MOV       AL,AR3                ; [CPU_ALU] |212| 
    4218 0000041e 5495          CMP       AL,*+XAR5[AR0]        ; [CPU_ALU] |212| 
    4219 0000041f 6808          B         $C$L39,LO             ; [CPU_ALU] |212| 
    4220                      ; branchcc occurs ; [] |212| 
    4221 00000420       $C$L38:    
    4222                      .dwpsn  file "D:/GIANT/GIANT_TI_instaspin/TI_instaspin_indoor_smart_trainer/motorware/motorware_1_01_
    4223 00000420 8A54          MOVL      XAR4,*-SP[20]         ; [CPU_ALU] |2098| 
    4224 00000421 0200          MOVB      ACC,#0                ; [CPU_ALU] |2098| 
    4225 00000422 1EC4          MOVL      *+XAR4[0],ACC         ; [CPU_ALU] |2098| 
    4226                      .dwpsn  file "D:/GIANT/GIANT_TI_instaspin/TI_instaspin_indoor_smart_trainer/motorware/motorware_1_01_
    4227 00000423 1ED4          MOVL      *+XAR4[2],ACC         ; [CPU_ALU] |2099| 
    4228                      .dwpsn  file "D:/GIANT/GIANT_TI_instaspin/TI_instaspin_indoor_smart_trainer/motorware/motorware_1_01_
    4229 00000424 1EE4          MOVL      *+XAR4[4],ACC         ; [CPU_ALU] |2100| 
    4230 00000425 FFEF          B         $C$L79,UNC            ; [CPU_ALU] 
         00000426 04F4 
    4231                      ; branch occurs ; [] 
    4232 00000427       $C$L39:    
    4233                      .dwpsn  file "D:/GIANT/GIANT_TI_instaspin/TI_instaspin_indoor_smart_trainer/motorware/motorware_1_01_
    4234 00000427 8AA5          MOVL      XAR4,XAR5             ; [CPU_ALU] |139| 
    4235 00000428 5603          MOV       ACC,AL << 1           ; [CPU_ALU] |139| 
         00000429 01A9 
    4236 0000042a 5601          ADDL      XAR4,ACC              ; [CPU_ALU] |139| 
         0000042b 00A4 
    4237 0000042c D03A          MOVB      XAR0,#58              ; [CPU_ALU] |139| 
    4238 0000042d C594          MOVL      XAR7,*+XAR4[AR0]      ; [CPU_ALU] |139| 
    4239                      .dwpsn  file "D:/GIANT/GIANT_TI_instaspin/TI_instaspin_indoor_smart_trainer/motorware/motorware_1_01_
    4240 0000042e 8AA2          MOVL      XAR4,XAR2             ; [CPU_ALU] |201| 
    4241                      .dwpsn  file "D:/GIANT/GIANT_TI_instaspin/TI_instaspin_indoor_smart_trainer/motorware/motorware_1_01_
    4242 0000042f D00C          MOVB      XAR0,#12              ; [CPU_ALU] |191| 
    4243 00000430 C497          MOVL      XAR6,*+XAR7[AR0]      ; [CPU_ALU] |191| 
    4244                      .dwpsn  file "D:/GIANT/GIANT_TI_instaspin/TI_instaspin_indoor_smart_trainer/motorware/motorware_1_01_
    4245 00000431 5601          ADDL      XAR4,ACC              ; [CPU_ALU] |201| 
         00000432 00A4 
    4246 00000433 87D6          MOVL      XT,*+XAR6[2]          ; [CPU_ALU] |201| 
    4247 00000434 5605          IMPYL     P,XT,*+XAR4[6]        ; [CPU_ALU] |201| 
         00000435 00F4 
    4248 00000436 5663          QMPYL     ACC,XT,*+XAR4[6]      ; [CPU_ALU] |201| 
         00000437 00F4 
TMS320C2000 Assembler PC v22.6.0 Tue Apr 18 11:09:46 2023

Copyright (c) 1996-2018 Texas Instruments Incorporated
C:\Users\User\AppData\Local\Temp\{F169EDD6-E2A2-400A-8386-A823CBD75D49} PAGE   81

    4249 00000438 56A7          LSL64     ACC:P,#8              ; [CPU_ALU] |201| 
    4250 00000439 87E6          MOVL      XT,*+XAR6[4]          ; [CPU_ALU] |201| 
    4251 0000043a 8EA9          MOVL      XAR0,ACC              ; [CPU_ALU] |201| 
    4252 0000043b 5605          IMPYL     P,XT,*+XAR6[6]        ; [CPU_ALU] |201| 
         0000043c 00F6 
    4253 0000043d 5663          QMPYL     ACC,XT,*+XAR6[6]      ; [CPU_ALU] |201| 
         0000043e 00F6 
    4254 0000043f 56A7          LSL64     ACC:P,#8              ; [CPU_ALU] |201| 
    4255 00000440 87C6          MOVL      XT,*+XAR6[0]          ; [CPU_ALU] |201| 
    4256 00000441 07A0          ADDL      ACC,XAR0              ; [CPU_ALU] |201| 
    4257 00000442 8BA9          MOVL      XAR1,ACC              ; [CPU_ALU] |201| 
    4258 00000443 D008          MOVB      XAR0,#8               ; [CPU_ALU] |201| 
    4259 00000444 5605          IMPYL     P,XT,*+XAR6[AR0]      ; [CPU_ALU] |201| 
         00000445 0096 
    4260 00000446 5663          QMPYL     ACC,XT,*+XAR6[AR0]    ; [CPU_ALU] |201| 
         00000447 0096 
    4261 00000448 56A7          LSL64     ACC:P,#8              ; [CPU_ALU] |201| 
    4262                      .dwpsn  file "D:/GIANT/GIANT_TI_instaspin/TI_instaspin_indoor_smart_trainer/motorware/motorware_1_01_
    4263 00000449 A3F4          MOVL      P,*+XAR4[6]           ; [CPU_ALU] |206| 
    4264                      .dwpsn  file "D:/GIANT/GIANT_TI_instaspin/TI_instaspin_indoor_smart_trainer/motorware/motorware_1_01_
    4265 0000044a 5641          SUBL      XAR1,ACC              ; [CPU_ALU] |201| 
         0000044b 00A1 
    4266                      .dwpsn  file "D:/GIANT/GIANT_TI_instaspin/TI_instaspin_indoor_smart_trainer/motorware/motorware_1_01_
    4267 0000044c D008          MOVB      XAR0,#8               ; [CPU_ALU] |207| 
    4268                      .dwpsn  file "D:/GIANT/GIANT_TI_instaspin/TI_instaspin_indoor_smart_trainer/motorware/motorware_1_01_
    4269 0000044d DB01          ADDB      XAR3,#1               ; [CPU_ALU] |212| 
    4270                      .dwpsn  file "D:/GIANT/GIANT_TI_instaspin/TI_instaspin_indoor_smart_trainer/motorware/motorware_1_01_
    4271 0000044e A9F6          MOVL      *+XAR6[6],P           ; [CPU_ALU] |206| 
    4272                      .dwpsn  file "D:/GIANT/GIANT_TI_instaspin/TI_instaspin_indoor_smart_trainer/motorware/motorware_1_01_
    4273 0000044f B296          MOVL      *+XAR6[AR0],XAR1      ; [CPU_ALU] |207| 
    4274                      .dwpsn  file "D:/GIANT/GIANT_TI_instaspin/TI_instaspin_indoor_smart_trainer/motorware/motorware_1_01_
    4275 00000450 B2C7          MOVL      *+XAR7[0],XAR1        ; [CPU_ALU] |141| 
    4276                      .dwpsn  file "D:/GIANT/GIANT_TI_instaspin/TI_instaspin_indoor_smart_trainer/motorware/motorware_1_01_
    4277 00000451 6FCB          B         $C$L37,UNC            ; [CPU_ALU] |212| 
    4278                      ; branch occurs ; [] |212| 
    4279 00000452       $C$L40:    
    4280                      .dwpsn  file "D:/GIANT/GIANT_TI_instaspin/TI_instaspin_indoor_smart_trainer/motorware/motorware_1_01_
    4281 00000452 8AA5          MOVL      XAR4,XAR5             ; [CPU_ALU] |139| 
    4282 00000453 5603          MOV       ACC,AL << 1           ; [CPU_ALU] |139| 
         00000454 01A9 
    4283 00000455 5601          ADDL      XAR4,ACC              ; [CPU_ALU] |139| 
         00000456 00A4 
    4284 00000457 D00A          MOVB      XAR0,#10              ; [CPU_ALU] |139| 
    4285 00000458 C594          MOVL      XAR7,*+XAR4[AR0]      ; [CPU_ALU] |139| 
    4286                      .dwpsn  file "D:/GIANT/GIANT_TI_instaspin/TI_instaspin_indoor_smart_trainer/motorware/motorware_1_01_
    4287 00000459 8AA2          MOVL      XAR4,XAR2             ; [CPU_ALU] |201| 
    4288                      .dwpsn  file "D:/GIANT/GIANT_TI_instaspin/TI_instaspin_indoor_smart_trainer/motorware/motorware_1_01_
    4289 0000045a D00C          MOVB      XAR0,#12              ; [CPU_ALU] |191| 
    4290 0000045b C497          MOVL      XAR6,*+XAR7[AR0]      ; [CPU_ALU] |191| 
    4291                      .dwpsn  file "D:/GIANT/GIANT_TI_instaspin/TI_instaspin_indoor_smart_trainer/motorware/motorware_1_01_
    4292 0000045c 5601          ADDL      XAR4,ACC              ; [CPU_ALU] |201| 
         0000045d 00A4 
    4293 0000045e 87D6          MOVL      XT,*+XAR6[2]          ; [CPU_ALU] |201| 
    4294 0000045f 5605          IMPYL     P,XT,*+XAR4[0]        ; [CPU_ALU] |201| 
         00000460 00C4 
TMS320C2000 Assembler PC v22.6.0 Tue Apr 18 11:09:46 2023

Copyright (c) 1996-2018 Texas Instruments Incorporated
C:\Users\User\AppData\Local\Temp\{F169EDD6-E2A2-400A-8386-A823CBD75D49} PAGE   82

    4295 00000461 5663          QMPYL     ACC,XT,*+XAR4[0]      ; [CPU_ALU] |201| 
         00000462 00C4 
    4296 00000463 56A7          LSL64     ACC:P,#8              ; [CPU_ALU] |201| 
    4297 00000464 87E6          MOVL      XT,*+XAR6[4]          ; [CPU_ALU] |201| 
    4298 00000465 8EA9          MOVL      XAR0,ACC              ; [CPU_ALU] |201| 
    4299 00000466 5605          IMPYL     P,XT,*+XAR6[6]        ; [CPU_ALU] |201| 
         00000467 00F6 
    4300 00000468 5663          QMPYL     ACC,XT,*+XAR6[6]      ; [CPU_ALU] |201| 
         00000469 00F6 
    4301 0000046a 56A7          LSL64     ACC:P,#8              ; [CPU_ALU] |201| 
    4302 0000046b 87C6          MOVL      XT,*+XAR6[0]          ; [CPU_ALU] |201| 
    4303 0000046c 07A0          ADDL      ACC,XAR0              ; [CPU_ALU] |201| 
    4304 0000046d 8BA9          MOVL      XAR1,ACC              ; [CPU_ALU] |201| 
    4305 0000046e D008          MOVB      XAR0,#8               ; [CPU_ALU] |201| 
    4306 0000046f 5605          IMPYL     P,XT,*+XAR6[AR0]      ; [CPU_ALU] |201| 
         00000470 0096 
    4307 00000471 5663          QMPYL     ACC,XT,*+XAR6[AR0]    ; [CPU_ALU] |201| 
         00000472 0096 
    4308 00000473 56A7          LSL64     ACC:P,#8              ; [CPU_ALU] |201| 
    4309                      .dwpsn  file "D:/GIANT/GIANT_TI_instaspin/TI_instaspin_indoor_smart_trainer/motorware/motorware_1_01_
    4310 00000474 A3C4          MOVL      P,*+XAR4[0]           ; [CPU_ALU] |206| 
    4311                      .dwpsn  file "D:/GIANT/GIANT_TI_instaspin/TI_instaspin_indoor_smart_trainer/motorware/motorware_1_01_
    4312 00000475 5641          SUBL      XAR1,ACC              ; [CPU_ALU] |201| 
         00000476 00A1 
    4313                      .dwpsn  file "D:/GIANT/GIANT_TI_instaspin/TI_instaspin_indoor_smart_trainer/motorware/motorware_1_01_
    4314 00000477 D008          MOVB      XAR0,#8               ; [CPU_ALU] |207| 
    4315                      .dwpsn  file "D:/GIANT/GIANT_TI_instaspin/TI_instaspin_indoor_smart_trainer/motorware/motorware_1_01_
    4316 00000478 DB01          ADDB      XAR3,#1               ; [CPU_ALU] |206| 
    4317                      .dwpsn  file "D:/GIANT/GIANT_TI_instaspin/TI_instaspin_indoor_smart_trainer/motorware/motorware_1_01_
    4318 00000479 A9F6          MOVL      *+XAR6[6],P           ; [CPU_ALU] |206| 
    4319                      .dwpsn  file "D:/GIANT/GIANT_TI_instaspin/TI_instaspin_indoor_smart_trainer/motorware/motorware_1_01_
    4320 0000047a B296          MOVL      *+XAR6[AR0],XAR1      ; [CPU_ALU] |207| 
    4321                      .dwpsn  file "D:/GIANT/GIANT_TI_instaspin/TI_instaspin_indoor_smart_trainer/motorware/motorware_1_01_
    4322 0000047b B2C7          MOVL      *+XAR7[0],XAR1        ; [CPU_ALU] |141| 
    4323                      .dwpsn  file "D:/GIANT/GIANT_TI_instaspin/TI_instaspin_indoor_smart_trainer/motorware/motorware_1_01_
    4324 0000047c 6F9A          B         $C$L36,UNC            ; [CPU_ALU] |206| 
    4325                      ; branch occurs ; [] |206| 
    4326 0000047d       $C$L41:    
    4327                      .dwpsn  file "D:/GIANT/GIANT_TI_instaspin/TI_instaspin_indoor_smart_trainer/motorware/motorware_1_01_
    4328 0000047d A2A9          MOVL      ACC,XAR3              ; [CPU_ALU] |960| 
    4329 0000047e 09EC          ADDB      ACC,#236              ; [CPU_ALU] |960| 
    4330 0000047f 8AA9          MOVL      XAR4,ACC              ; [CPU_ALU] |960| 
    4331                      .dwpsn  file "D:/GIANT/GIANT_TI_instaspin/TI_instaspin_indoor_smart_trainer/motorware/motorware_1_01_
    4332 00000480 A2A9          MOVL      ACC,XAR3              ; [CPU_ALU] |996| 
    4333                      .dwpsn  file "D:/GIANT/GIANT_TI_instaspin/TI_instaspin_indoor_smart_trainer/motorware/motorware_1_01_
    4334 00000481 0AC4          INC       *+XAR4[0]             ; [CPU_ALU] |960| 
    4335                      .dwpsn  file "D:/GIANT/GIANT_TI_instaspin/TI_instaspin_indoor_smart_trainer/motorware/motorware_1_01_
    4336 00000482 09EE          ADDB      ACC,#238              ; [CPU_ALU] |996| 
    4337 00000483 8AA9          MOVL      XAR4,ACC              ; [CPU_ALU] |996| 
    4338                      .dwpsn  file "D:/GIANT/GIANT_TI_instaspin/TI_instaspin_indoor_smart_trainer/motorware/motorware_1_01_
    4339 00000484 D018          MOVB      XAR0,#24              ; [CPU_ALU] |205| 
    4340                      .dwpsn  file "D:/GIANT/GIANT_TI_instaspin/TI_instaspin_indoor_smart_trainer/motorware/motorware_1_01_
    4341 00000485 0AC4          INC       *+XAR4[0]             ; [CPU_ALU] |996| 
    4342                      .dwpsn  file "D:/GIANT/GIANT_TI_instaspin/TI_instaspin_indoor_smart_trainer/motorware/motorware_1_01_
    4343 00000486 8A93          MOVL      XAR4,*+XAR3[AR0]      ; [CPU_ALU] |205| 
TMS320C2000 Assembler PC v22.6.0 Tue Apr 18 11:09:46 2023

Copyright (c) 1996-2018 Texas Instruments Incorporated
C:\Users\User\AppData\Local\Temp\{F169EDD6-E2A2-400A-8386-A823CBD75D49} PAGE   83

    4344              $C$DW$381       .dwtag  DW_TAG_TI_branch
    4345                      .dwattr $C$DW$381, DW_AT_low_pc(0x00)
    4346                      .dwattr $C$DW$381, DW_AT_name("_EST_getState")
    4347                      .dwattr $C$DW$381, DW_AT_TI_call
    4348              
    4349 00000487 7640!         LCR       #_EST_getState        ; [CPU_ALU] |205| 
         00000488 0000 
    4350                      ; call occurs [#_EST_getState] ; [] |205| 
    4351 00000489 520C          CMPB      AL,#12                ; [CPU_ALU] |205| 
    4352 0000048a FFE7          B         $C$L59,HIS            ; [CPU_ALU] |205| 
         0000048b 0234 
    4353                      ; branchcc occurs ; [] |205| 
    4354                      .dwpsn  file "D:/GIANT/GIANT_TI_instaspin/TI_instaspin_indoor_smart_trainer/motorware/motorware_1_01_
    4355 0000048c D008          MOVB      XAR0,#8               ; [CPU_ALU] |125| 
    4356                      .dwpsn  file "D:/GIANT/GIANT_TI_instaspin/TI_instaspin_indoor_smart_trainer/motorware/motorware_1_01_
    4357 0000048d A2A9          MOVL      ACC,XAR3              ; [CPU_ALU] |120| 
    4358                      .dwpsn  file "D:/GIANT/GIANT_TI_instaspin/TI_instaspin_indoor_smart_trainer/motorware/motorware_1_01_
    4359 0000048e 8393          MOVL      XAR5,*+XAR3[AR0]      ; [CPU_ALU] |125| 
    4360                      .dwpsn  file "D:/GIANT/GIANT_TI_instaspin/TI_instaspin_indoor_smart_trainer/motorware/motorware_1_01_
    4361 0000048f 09AA          ADDB      ACC,#170              ; [CPU_ALU] |120| 
    4362 00000490 8BA9          MOVL      XAR1,ACC              ; [CPU_ALU] |120| 
    4363 00000491 8AA9          MOVL      XAR4,ACC              ; [CPU_ALU] |120| 
    4364                      .dwpsn  file "D:/GIANT/GIANT_TI_instaspin/TI_instaspin_indoor_smart_trainer/motorware/motorware_1_01_
    4365 00000492 C4C5          MOVL      XAR6,*+XAR5[0]        ; [CPU_ALU] |125| 
    4366                      .dwpsn  file "D:/GIANT/GIANT_TI_instaspin/TI_instaspin_indoor_smart_trainer/motorware/motorware_1_01_
    4367 00000493 C5D5          MOVL      XAR7,*+XAR5[2]        ; [CPU_ALU] |126| 
    4368                      .dwpsn  file "D:/GIANT/GIANT_TI_instaspin/TI_instaspin_indoor_smart_trainer/motorware/motorware_1_01_
    4369 00000494 92E5          MOV       AL,*+XAR5[4]          ; [CPU_ALU] |129| 
    4370 00000495 5203          CMPB      AL,#3                 ; [CPU_ALU] |129| 
    4371 00000496 6116          B         $C$L42,EQ             ; [CPU_ALU] |129| 
    4372                      ; branchcc occurs ; [] |129| 
    4373                      .dwpsn  file "D:/GIANT/GIANT_TI_instaspin/TI_instaspin_indoor_smart_trainer/motorware/motorware_1_01_
    4374 00000497 5202          CMPB      AL,#2                 ; [CPU_ALU] |134| 
    4375 00000498 6028          B         $C$L43,NEQ            ; [CPU_ALU] |134| 
    4376                      ; branchcc occurs ; [] |134| 
    4377                      .dwpsn  file "D:/GIANT/GIANT_TI_instaspin/TI_instaspin_indoor_smart_trainer/motorware/motorware_1_01_
    4378 00000499 87C2          MOVL      XT,*+XAR2[0]          ; [CPU_ALU] |136| 
    4379 0000049a 5605          IMPYL     P,XT,XAR6             ; [CPU_ALU] |136| 
         0000049b 00A6 
    4380 0000049c 5663          QMPYL     ACC,XT,XAR6           ; [CPU_ALU] |136| 
         0000049d 00A6 
    4381                      .dwpsn  file "D:/GIANT/GIANT_TI_instaspin/TI_instaspin_indoor_smart_trainer/motorware/motorware_1_01_
    4382 0000049e D0AC          MOVB      XAR0,#172             ; [CPU_ALU] |137| 
    4383                      .dwpsn  file "D:/GIANT/GIANT_TI_instaspin/TI_instaspin_indoor_smart_trainer/motorware/motorware_1_01_
    4384 0000049f 56A7          LSL64     ACC:P,#8              ; [CPU_ALU] |136| 
    4385 000004a0 1EC1          MOVL      *+XAR1[0],ACC         ; [CPU_ALU] |136| 
    4386                      .dwpsn  file "D:/GIANT/GIANT_TI_instaspin/TI_instaspin_indoor_smart_trainer/motorware/motorware_1_01_
    4387 000004a1 06D2          MOVL      ACC,*+XAR2[2]         ; [CPU_ALU] |137| 
    4388 000004a2 FF30          LSL       ACC,1                 ; [CPU_ALU] |137| 
    4389 000004a3 07C2          ADDL      ACC,*+XAR2[0]         ; [CPU_ALU] |137| 
    4390 000004a4 1EAC          MOVL      XT,ACC                ; [CPU_ALU] |137| 
    4391 000004a5 5605          IMPYL     P,XT,XAR7             ; [CPU_ALU] |137| 
         000004a6 00A7 
    4392 000004a7 5663          QMPYL     ACC,XT,XAR7           ; [CPU_ALU] |137| 
         000004a8 00A7 
TMS320C2000 Assembler PC v22.6.0 Tue Apr 18 11:09:46 2023

Copyright (c) 1996-2018 Texas Instruments Incorporated
C:\Users\User\AppData\Local\Temp\{F169EDD6-E2A2-400A-8386-A823CBD75D49} PAGE   84

    4393 000004a9 56A7          LSL64     ACC:P,#8              ; [CPU_ALU] |137| 
    4394 000004aa 1E93          MOVL      *+XAR3[AR0],ACC       ; [CPU_ALU] |137| 
    4395 000004ab 6F15          B         $C$L43,UNC            ; [CPU_ALU] |137| 
    4396                      ; branch occurs ; [] |137| 
    4397 000004ac       $C$L42:    
    4398                      .dwpsn  file "D:/GIANT/GIANT_TI_instaspin/TI_instaspin_indoor_smart_trainer/motorware/motorware_1_01_
    4399 000004ac 06C2          MOVL      ACC,*+XAR2[0]         ; [CPU_ALU] |131| 
    4400 000004ad FF30          LSL       ACC,1                 ; [CPU_ALU] |131| 
    4401 000004ae 03D2          SUBL      ACC,*+XAR2[2]         ; [CPU_ALU] |131| 
    4402 000004af 03E2          SUBL      ACC,*+XAR2[4]         ; [CPU_ALU] |131| 
    4403 000004b0 1EAC          MOVL      XT,ACC                ; [CPU_ALU] |131| 
    4404 000004b1 5605          IMPYL     P,XT,XAR6             ; [CPU_ALU] |131| 
         000004b2 00A6 
    4405 000004b3 5663          QMPYL     ACC,XT,XAR6           ; [CPU_ALU] |131| 
         000004b4 00A6 
    4406 000004b5 56A7          LSL64     ACC:P,#8              ; [CPU_ALU] |131| 
    4407 000004b6 1EC4          MOVL      *+XAR4[0],ACC         ; [CPU_ALU] |131| 
    4408                      .dwpsn  file "D:/GIANT/GIANT_TI_instaspin/TI_instaspin_indoor_smart_trainer/motorware/motorware_1_01_
    4409 000004b7 06D2          MOVL      ACC,*+XAR2[2]         ; [CPU_ALU] |132| 
    4410 000004b8 03E2          SUBL      ACC,*+XAR2[4]         ; [CPU_ALU] |132| 
    4411 000004b9 1EAC          MOVL      XT,ACC                ; [CPU_ALU] |132| 
    4412 000004ba 5605          IMPYL     P,XT,XAR7             ; [CPU_ALU] |132| 
         000004bb 00A7 
    4413 000004bc 5663          QMPYL     ACC,XT,XAR7           ; [CPU_ALU] |132| 
         000004bd 00A7 
    4414 000004be 56A7          LSL64     ACC:P,#8              ; [CPU_ALU] |132| 
    4415 000004bf 1ED4          MOVL      *+XAR4[2],ACC         ; [CPU_ALU] |132| 
    4416 000004c0       $C$L43:    
    4417                      .dwpsn  file "D:/GIANT/GIANT_TI_instaspin/TI_instaspin_indoor_smart_trainer/motorware/motorware_1_01_
    4418 000004c0 D010          MOVB      XAR0,#16              ; [CPU_ALU] |125| 
    4419                      .dwpsn  file "D:/GIANT/GIANT_TI_instaspin/TI_instaspin_indoor_smart_trainer/motorware/motorware_1_01_
    4420 000004c1 A2A9          MOVL      ACC,XAR3              ; [CPU_ALU] |120| 
    4421 000004c2 8AA2          MOVL      XAR4,XAR2             ; [CPU_ALU] |120| 
    4422                      .dwpsn  file "D:/GIANT/GIANT_TI_instaspin/TI_instaspin_indoor_smart_trainer/motorware/motorware_1_01_
    4423 000004c3 C593          MOVL      XAR7,*+XAR3[AR0]      ; [CPU_ALU] |125| 
    4424                      .dwpsn  file "D:/GIANT/GIANT_TI_instaspin/TI_instaspin_indoor_smart_trainer/motorware/motorware_1_01_
    4425 000004c4 09B6          ADDB      ACC,#182              ; [CPU_ALU] |120| 
    4426 000004c5 1EA6          MOVL      XAR6,ACC              ; [CPU_ALU] |120| 
    4427 000004c6 83A9          MOVL      XAR5,ACC              ; [CPU_ALU] |120| 
    4428                      .dwpsn  file "D:/GIANT/GIANT_TI_instaspin/TI_instaspin_indoor_smart_trainer/motorware/motorware_1_01_
    4429 000004c7 8EC7          MOVL      XAR0,*+XAR7[0]        ; [CPU_ALU] |125| 
    4430                      .dwpsn  file "D:/GIANT/GIANT_TI_instaspin/TI_instaspin_indoor_smart_trainer/motorware/motorware_1_01_
    4431 000004c8 DC06          ADDB      XAR4,#6               ; [CPU_ALU] |120| 
    4432                      .dwpsn  file "D:/GIANT/GIANT_TI_instaspin/TI_instaspin_indoor_smart_trainer/motorware/motorware_1_01_
    4433 000004c9 06D7          MOVL      ACC,*+XAR7[2]         ; [CPU_ALU] |126| 
    4434 000004ca 1E52          MOVL      *-SP[18],ACC          ; [CPU_ALU] |126| 
    4435                      .dwpsn  file "D:/GIANT/GIANT_TI_instaspin/TI_instaspin_indoor_smart_trainer/motorware/motorware_1_01_
    4436 000004cb 92E7          MOV       AL,*+XAR7[4]          ; [CPU_ALU] |129| 
    4437 000004cc 5203          CMPB      AL,#3                 ; [CPU_ALU] |129| 
    4438 000004cd 6119          B         $C$L44,EQ             ; [CPU_ALU] |129| 
    4439                      ; branchcc occurs ; [] |129| 
    4440                      .dwpsn  file "D:/GIANT/GIANT_TI_instaspin/TI_instaspin_indoor_smart_trainer/motorware/motorware_1_01_
    4441 000004ce 5202          CMPB      AL,#2                 ; [CPU_ALU] |134| 
    4442 000004cf 602D          B         $C$L45,NEQ            ; [CPU_ALU] |134| 
    4443                      ; branchcc occurs ; [] |134| 
TMS320C2000 Assembler PC v22.6.0 Tue Apr 18 11:09:46 2023

Copyright (c) 1996-2018 Texas Instruments Incorporated
C:\Users\User\AppData\Local\Temp\{F169EDD6-E2A2-400A-8386-A823CBD75D49} PAGE   85

    4444                      .dwpsn  file "D:/GIANT/GIANT_TI_instaspin/TI_instaspin_indoor_smart_trainer/motorware/motorware_1_01_
    4445 000004d0 87C4          MOVL      XT,*+XAR4[0]          ; [CPU_ALU] |136| 
    4446 000004d1 5605          IMPYL     P,XT,XAR0             ; [CPU_ALU] |136| 
         000004d2 00A0 
    4447 000004d3 5663          QMPYL     ACC,XT,XAR0           ; [CPU_ALU] |136| 
         000004d4 00A0 
    4448                      .dwpsn  file "D:/GIANT/GIANT_TI_instaspin/TI_instaspin_indoor_smart_trainer/motorware/motorware_1_01_
    4449 000004d5 D008          MOVB      XAR0,#8               ; [CPU_ALU] |137| 
    4450                      .dwpsn  file "D:/GIANT/GIANT_TI_instaspin/TI_instaspin_indoor_smart_trainer/motorware/motorware_1_01_
    4451 000004d6 56A7          LSL64     ACC:P,#8              ; [CPU_ALU] |136| 
    4452 000004d7 1EC6          MOVL      *+XAR6[0],ACC         ; [CPU_ALU] |136| 
    4453                      .dwpsn  file "D:/GIANT/GIANT_TI_instaspin/TI_instaspin_indoor_smart_trainer/motorware/motorware_1_01_
    4454 000004d8 C552          MOVL      XAR7,*-SP[18]         ; [CPU_ALU] |137| 
    4455 000004d9 0692          MOVL      ACC,*+XAR2[AR0]       ; [CPU_ALU] |137| 
    4456 000004da FF30          LSL       ACC,1                 ; [CPU_ALU] |137| 
    4457 000004db D0B8          MOVB      XAR0,#184             ; [CPU_ALU] |137| 
    4458 000004dc 07C4          ADDL      ACC,*+XAR4[0]         ; [CPU_ALU] |137| 
    4459 000004dd 1EAC          MOVL      XT,ACC                ; [CPU_ALU] |137| 
    4460 000004de 0652          MOVL      ACC,*-SP[18]          ; [CPU_ALU] |137| 
    4461 000004df 5605          IMPYL     P,XT,XAR7             ; [CPU_ALU] |137| 
         000004e0 00A7 
    4462 000004e1 5663          QMPYL     ACC,XT,ACC            ; [CPU_ALU] |137| 
         000004e2 00A9 
    4463 000004e3 56A7          LSL64     ACC:P,#8              ; [CPU_ALU] |137| 
    4464 000004e4 1E93          MOVL      *+XAR3[AR0],ACC       ; [CPU_ALU] |137| 
    4465 000004e5 6F17          B         $C$L45,UNC            ; [CPU_ALU] |137| 
    4466                      ; branch occurs ; [] |137| 
    4467 000004e6       $C$L44:    
    4468                      .dwpsn  file "D:/GIANT/GIANT_TI_instaspin/TI_instaspin_indoor_smart_trainer/motorware/motorware_1_01_
    4469 000004e6 06C4          MOVL      ACC,*+XAR4[0]         ; [CPU_ALU] |131| 
    4470 000004e7 FF30          LSL       ACC,1                 ; [CPU_ALU] |131| 
    4471 000004e8 03D4          SUBL      ACC,*+XAR4[2]         ; [CPU_ALU] |131| 
    4472 000004e9 03E4          SUBL      ACC,*+XAR4[4]         ; [CPU_ALU] |131| 
    4473 000004ea 1EAC          MOVL      XT,ACC                ; [CPU_ALU] |131| 
    4474 000004eb 5605          IMPYL     P,XT,XAR0             ; [CPU_ALU] |131| 
         000004ec 00A0 
    4475 000004ed 5663          QMPYL     ACC,XT,XAR0           ; [CPU_ALU] |131| 
         000004ee 00A0 
    4476 000004ef 56A7          LSL64     ACC:P,#8              ; [CPU_ALU] |131| 
    4477 000004f0 1EC5          MOVL      *+XAR5[0],ACC         ; [CPU_ALU] |131| 
    4478                      .dwpsn  file "D:/GIANT/GIANT_TI_instaspin/TI_instaspin_indoor_smart_trainer/motorware/motorware_1_01_
    4479 000004f1 C552          MOVL      XAR7,*-SP[18]         ; [CPU_ALU] |132| 
    4480 000004f2 06D4          MOVL      ACC,*+XAR4[2]         ; [CPU_ALU] |132| 
    4481 000004f3 03E4          SUBL      ACC,*+XAR4[4]         ; [CPU_ALU] |132| 
    4482 000004f4 1EAC          MOVL      XT,ACC                ; [CPU_ALU] |132| 
    4483 000004f5 0652          MOVL      ACC,*-SP[18]          ; [CPU_ALU] |132| 
    4484 000004f6 5605          IMPYL     P,XT,XAR7             ; [CPU_ALU] |132| 
         000004f7 00A7 
    4485 000004f8 5663          QMPYL     ACC,XT,ACC            ; [CPU_ALU] |132| 
         000004f9 00A9 
    4486 000004fa 56A7          LSL64     ACC:P,#8              ; [CPU_ALU] |132| 
    4487 000004fb 1ED5          MOVL      *+XAR5[2],ACC         ; [CPU_ALU] |132| 
    4488 000004fc       $C$L45:    
    4489                      .dwpsn  file "D:/GIANT/GIANT_TI_instaspin/TI_instaspin_indoor_smart_trainer/motorware/motorware_1_01_
    4490 000004fc C242          MOVL      *-SP[2],XAR6          ; [CPU_ALU] |2178| 
TMS320C2000 Assembler PC v22.6.0 Tue Apr 18 11:09:46 2023

Copyright (c) 1996-2018 Texas Instruments Incorporated
C:\Users\User\AppData\Local\Temp\{F169EDD6-E2A2-400A-8386-A823CBD75D49} PAGE   86

    4491 000004fd D06C          MOVB      XAR0,#108             ; [CPU_ALU] |2178| 
    4492 000004fe 8A93          MOVL      XAR4,*+XAR3[AR0]      ; [CPU_ALU] |2178| 
    4493 000004ff 83A1          MOVL      XAR5,XAR1             ; [CPU_ALU] |2178| 
    4494 00000500 D018          MOVB      XAR0,#24              ; [CPU_ALU] |2178| 
    4495 00000501 06D4          MOVL      ACC,*+XAR4[2]         ; [CPU_ALU] |2178| 
    4496 00000502 1E44          MOVL      *-SP[4],ACC           ; [CPU_ALU] |2178| 
    4497 00000503 8A93          MOVL      XAR4,*+XAR3[AR0]      ; [CPU_ALU] |2178| 
    4498 00000504 D00C          MOVB      XAR0,#12              ; [CPU_ALU] |2178| 
    4499 00000505 0692          MOVL      ACC,*+XAR2[AR0]       ; [CPU_ALU] |2178| 
    4500              $C$DW$382       .dwtag  DW_TAG_TI_branch
    4501                      .dwattr $C$DW$382, DW_AT_low_pc(0x00)
    4502                      .dwattr $C$DW$382, DW_AT_name("_EST_run")
    4503                      .dwattr $C$DW$382, DW_AT_TI_call
    4504              
    4505 00000506 7640!         LCR       #_EST_run             ; [CPU_ALU] |2178| 
         00000507 0000 
    4506                      ; call occurs [#_EST_run] ; [] |2178| 
    4507                      .dwpsn  file "D:/GIANT/GIANT_TI_instaspin/TI_instaspin_indoor_smart_trainer/motorware/motorware_1_01_
    4508 00000508 D018          MOVB      XAR0,#24              ; [CPU_ALU] |2183| 
    4509 00000509 8A93          MOVL      XAR4,*+XAR3[AR0]      ; [CPU_ALU] |2183| 
    4510              $C$DW$383       .dwtag  DW_TAG_TI_branch
    4511                      .dwattr $C$DW$383, DW_AT_low_pc(0x00)
    4512                      .dwattr $C$DW$383, DW_AT_name("_EST_getAngle_pu")
    4513                      .dwattr $C$DW$383, DW_AT_TI_call
    4514              
    4515 0000050a 7640!         LCR       #_EST_getAngle_pu     ; [CPU_ALU] |2183| 
         0000050b 0000 
    4516                      ; call occurs [#_EST_getAngle_pu] ; [] |2183| 
    4517 0000050c 86A9          MOVL      XAR2,ACC              ; [CPU_ALU] |2183| 
    4518                      .dwpsn  file "D:/GIANT/GIANT_TI_instaspin/TI_instaspin_indoor_smart_trainer/motorware/motorware_1_01_
    4519              $C$DW$384       .dwtag  DW_TAG_TI_branch
    4520                      .dwattr $C$DW$384, DW_AT_low_pc(0x00)
    4521                      .dwattr $C$DW$384, DW_AT_name("__IQ24cosPU")
    4522                      .dwattr $C$DW$384, DW_AT_TI_call
    4523              
    4524 0000050d 7640!         LCR       #__IQ24cosPU          ; [CPU_ALU] |2044| 
         0000050e 0000 
    4525                      ; call occurs [#__IQ24cosPU] ; [] |2044| 
    4526 0000050f 1E48          MOVL      *-SP[8],ACC           ; [CPU_ALU] |2044| 
    4527                      .dwpsn  file "D:/GIANT/GIANT_TI_instaspin/TI_instaspin_indoor_smart_trainer/motorware/motorware_1_01_
    4528 00000510 AAA9          MOVL      ACC,XAR2              ; [CPU_ALU] |2045| 
    4529              $C$DW$385       .dwtag  DW_TAG_TI_branch
    4530                      .dwattr $C$DW$385, DW_AT_low_pc(0x00)
    4531                      .dwattr $C$DW$385, DW_AT_name("__IQ24sinPU")
    4532                      .dwattr $C$DW$385, DW_AT_TI_call
    4533              
    4534 00000511 7640!         LCR       #__IQ24sinPU          ; [CPU_ALU] |2045| 
         00000512 0000 
    4535                      ; call occurs [#__IQ24sinPU] ; [] |2045| 
    4536                      .dwpsn  file "D:/GIANT/GIANT_TI_instaspin/TI_instaspin_indoor_smart_trainer/motorware/motorware_1_01_
    4537 00000513 D01A          MOVB      XAR0,#26              ; [CPU_ALU] |172| 
    4538                      .dwpsn  file "D:/GIANT/GIANT_TI_instaspin/TI_instaspin_indoor_smart_trainer/motorware/motorware_1_01_
    4539 00000514 1E46          MOVL      *-SP[6],ACC           ; [CPU_ALU] |2045| 
    4540                      .dwpsn  file "D:/GIANT/GIANT_TI_instaspin/TI_instaspin_indoor_smart_trainer/motorware/motorware_1_01_
    4541 00000515 8A93          MOVL      XAR4,*+XAR3[AR0]      ; [CPU_ALU] |172| 
TMS320C2000 Assembler PC v22.6.0 Tue Apr 18 11:09:46 2023

Copyright (c) 1996-2018 Texas Instruments Incorporated
C:\Users\User\AppData\Local\Temp\{F169EDD6-E2A2-400A-8386-A823CBD75D49} PAGE   87

    4542                      .dwpsn  file "D:/GIANT/GIANT_TI_instaspin/TI_instaspin_indoor_smart_trainer/motorware/motorware_1_01_
    4543 00000516 0648          MOVL      ACC,*-SP[8]           ; [CPU_ALU] |175| 
    4544                      .dwpsn  file "D:/GIANT/GIANT_TI_instaspin/TI_instaspin_indoor_smart_trainer/motorware/motorware_1_01_
    4545 00000517 D01A          MOVB      XAR0,#26              ; [CPU_ALU] |141| 
    4546                      .dwpsn  file "D:/GIANT/GIANT_TI_instaspin/TI_instaspin_indoor_smart_trainer/motorware/motorware_1_01_
    4547 00000518 1ED4          MOVL      *+XAR4[2],ACC         ; [CPU_ALU] |175| 
    4548                      .dwpsn  file "D:/GIANT/GIANT_TI_instaspin/TI_instaspin_indoor_smart_trainer/motorware/motorware_1_01_
    4549 00000519 0646          MOVL      ACC,*-SP[6]           ; [CPU_ALU] |176| 
    4550 0000051a 1EC4          MOVL      *+XAR4[0],ACC         ; [CPU_ALU] |176| 
    4551                      .dwpsn  file "D:/GIANT/GIANT_TI_instaspin/TI_instaspin_indoor_smart_trainer/motorware/motorware_1_01_
    4552 0000051b 8A93          MOVL      XAR4,*+XAR3[AR0]      ; [CPU_ALU] |141| 
    4553                      .dwpsn  file "D:/GIANT/GIANT_TI_instaspin/TI_instaspin_indoor_smart_trainer/motorware/motorware_1_01_
    4554 0000051c 83C1          MOVL      XAR5,*+XAR1[0]        ; [CPU_ALU] |144| 
    4555                      .dwpsn  file "D:/GIANT/GIANT_TI_instaspin/TI_instaspin_indoor_smart_trainer/motorware/motorware_1_01_
    4556 0000051d D0AC          MOVB      XAR0,#172             ; [CPU_ALU] |145| 
    4557                      .dwpsn  file "D:/GIANT/GIANT_TI_instaspin/TI_instaspin_indoor_smart_trainer/motorware/motorware_1_01_
    4558 0000051e C5D4          MOVL      XAR7,*+XAR4[2]        ; [CPU_ALU] |142| 
    4559                      .dwpsn  file "D:/GIANT/GIANT_TI_instaspin/TI_instaspin_indoor_smart_trainer/motorware/motorware_1_01_
    4560 0000051f A0AC          MOVL      XT,XAR5               ; [CPU_ALU] |145| 
    4561                      .dwpsn  file "D:/GIANT/GIANT_TI_instaspin/TI_instaspin_indoor_smart_trainer/motorware/motorware_1_01_
    4562 00000520 C4C4          MOVL      XAR6,*+XAR4[0]        ; [CPU_ALU] |141| 
    4563                      .dwpsn  file "D:/GIANT/GIANT_TI_instaspin/TI_instaspin_indoor_smart_trainer/motorware/motorware_1_01_
    4564 00000521 8A93          MOVL      XAR4,*+XAR3[AR0]      ; [CPU_ALU] |145| 
    4565                      .dwpsn  file "D:/GIANT/GIANT_TI_instaspin/TI_instaspin_indoor_smart_trainer/motorware/motorware_1_01_
    4566 00000522 5605          IMPYL     P,XT,XAR7             ; [CPU_ALU] |148| 
         00000523 00A7 
    4567 00000524 5663          QMPYL     ACC,XT,XAR7           ; [CPU_ALU] |148| 
         00000525 00A7 
    4568 00000526 56A7          LSL64     ACC:P,#8              ; [CPU_ALU] |148| 
    4569 00000527 A8AC          MOVL      XT,XAR4               ; [CPU_ALU] |148| 
    4570 00000528 8EA9          MOVL      XAR0,ACC              ; [CPU_ALU] |148| 
    4571 00000529 5605          IMPYL     P,XT,XAR6             ; [CPU_ALU] |148| 
         0000052a 00A6 
    4572 0000052b 5663          QMPYL     ACC,XT,XAR6           ; [CPU_ALU] |148| 
         0000052c 00A6 
    4573 0000052d 56A7          LSL64     ACC:P,#8              ; [CPU_ALU] |148| 
    4574 0000052e A0AC          MOVL      XT,XAR5               ; [CPU_ALU] |148| 
    4575 0000052f 07A0          ADDL      ACC,XAR0              ; [CPU_ALU] |148| 
    4576 00000530 D0B2          MOVB      XAR0,#178             ; [CPU_ALU] |148| 
    4577                      .dwpsn  file "D:/GIANT/GIANT_TI_instaspin/TI_instaspin_indoor_smart_trainer/motorware/motorware_1_01_
    4578 00000531 5605          IMPYL     P,XT,XAR6             ; [CPU_ALU] |149| 
         00000532 00A6 
    4579                      .dwpsn  file "D:/GIANT/GIANT_TI_instaspin/TI_instaspin_indoor_smart_trainer/motorware/motorware_1_01_
    4580 00000533 1E93          MOVL      *+XAR3[AR0],ACC       ; [CPU_ALU] |148| 
    4581                      .dwpsn  file "D:/GIANT/GIANT_TI_instaspin/TI_instaspin_indoor_smart_trainer/motorware/motorware_1_01_
    4582 00000534 D0B4          MOVB      XAR0,#180             ; [CPU_ALU] |149| 
    4583 00000535 5663          QMPYL     ACC,XT,XAR6           ; [CPU_ALU] |149| 
         00000536 00A6 
    4584 00000537 56A7          LSL64     ACC:P,#8              ; [CPU_ALU] |149| 
    4585 00000538 A8AC          MOVL      XT,XAR4               ; [CPU_ALU] |149| 
    4586 00000539 1EA6          MOVL      XAR6,ACC              ; [CPU_ALU] |149| 
    4587 0000053a 5605          IMPYL     P,XT,XAR7             ; [CPU_ALU] |149| 
         0000053b 00A7 
    4588 0000053c 5663          QMPYL     ACC,XT,XAR7           ; [CPU_ALU] |149| 
         0000053d 00A7 
TMS320C2000 Assembler PC v22.6.0 Tue Apr 18 11:09:46 2023

Copyright (c) 1996-2018 Texas Instruments Incorporated
C:\Users\User\AppData\Local\Temp\{F169EDD6-E2A2-400A-8386-A823CBD75D49} PAGE   88

    4589 0000053e 56A7          LSL64     ACC:P,#8              ; [CPU_ALU] |149| 
    4590 0000053f 03A6          SUBL      ACC,XAR6              ; [CPU_ALU] |149| 
    4591 00000540 1E93          MOVL      *+XAR3[AR0],ACC       ; [CPU_ALU] |149| 
    4592                      .dwpsn  file "D:/GIANT/GIANT_TI_instaspin/TI_instaspin_indoor_smart_trainer/motorware/motorware_1_01_
    4593 00000541 D018          MOVB      XAR0,#24              ; [CPU_ALU] |2199| 
    4594 00000542 8A93          MOVL      XAR4,*+XAR3[AR0]      ; [CPU_ALU] |2199| 
    4595              $C$DW$386       .dwtag  DW_TAG_TI_branch
    4596                      .dwattr $C$DW$386, DW_AT_low_pc(0x00)
    4597                      .dwattr $C$DW$386, DW_AT_name("_EST_doSpeedCtrl")
    4598                      .dwattr $C$DW$386, DW_AT_TI_call
    4599              
    4600 00000543 7640!         LCR       #_EST_doSpeedCtrl     ; [CPU_ALU] |2199| 
         00000544 0000 
    4601                      ; call occurs [#_EST_doSpeedCtrl] ; [] |2199| 
    4602 00000545 5200          CMPB      AL,#0                 ; [CPU_ALU] |2199| 
    4603 00000546 6149          B         $C$L46,EQ             ; [CPU_ALU] |2199| 
    4604                      ; branchcc occurs ; [] |2199| 
    4605                      .dwpsn  file "D:/GIANT/GIANT_TI_instaspin/TI_instaspin_indoor_smart_trainer/motorware/motorware_1_01_
    4606 00000547 D09E          MOVB      XAR0,#158             ; [CPU_ALU] |2076| 
    4607 00000548 9293          MOV       AL,*+XAR3[AR0]        ; [CPU_ALU] |2076| 
    4608 00000549 D0EE          MOVB      XAR0,#238             ; [CPU_ALU] |2076| 
    4609 0000054a 5493          CMP       AL,*+XAR3[AR0]        ; [CPU_ALU] |2076| 
    4610 0000054b 664A          B         $C$L47,HI             ; [CPU_ALU] |2076| 
    4611                      ; branchcc occurs ; [] |2076| 
    4612                      .dwpsn  file "D:/GIANT/GIANT_TI_instaspin/TI_instaspin_indoor_smart_trainer/motorware/motorware_1_01_
    4613 0000054c D06C          MOVB      XAR0,#108             ; [CPU_ALU] |96| 
    4614 0000054d 8A93          MOVL      XAR4,*+XAR3[AR0]      ; [CPU_ALU] |96| 
    4615                      .dwpsn  file "D:/GIANT/GIANT_TI_instaspin/TI_instaspin_indoor_smart_trainer/motorware/motorware_1_01_
    4616 0000054e D018          MOVB      XAR0,#24              ; [CPU_ALU] |2204| 
    4617                      .dwpsn  file "D:/GIANT/GIANT_TI_instaspin/TI_instaspin_indoor_smart_trainer/motorware/motorware_1_01_
    4618 0000054f 8BD4          MOVL      XAR1,*+XAR4[2]        ; [CPU_ALU] |96| 
    4619                      .dwpsn  file "D:/GIANT/GIANT_TI_instaspin/TI_instaspin_indoor_smart_trainer/motorware/motorware_1_01_
    4620 00000550 8A93          MOVL      XAR4,*+XAR3[AR0]      ; [CPU_ALU] |2204| 
    4621              $C$DW$387       .dwtag  DW_TAG_TI_branch
    4622                      .dwattr $C$DW$387, DW_AT_low_pc(0x00)
    4623                      .dwattr $C$DW$387, DW_AT_name("_EST_getFm_pu")
    4624                      .dwattr $C$DW$387, DW_AT_TI_call
    4625              
    4626 00000551 7640!         LCR       #_EST_getFm_pu        ; [CPU_ALU] |2204| 
         00000552 0000 
    4627                      ; call occurs [#_EST_getFm_pu] ; [] |2204| 
    4628                      .dwpsn  file "D:/GIANT/GIANT_TI_instaspin/TI_instaspin_indoor_smart_trainer/motorware/motorware_1_01_
    4629 00000553 D078          MOVB      XAR0,#120             ; [CPU_ALU] |96| 
    4630 00000554 8A93          MOVL      XAR4,*+XAR3[AR0]      ; [CPU_ALU] |96| 
    4631                      .dwpsn  file "D:/GIANT/GIANT_TI_instaspin/TI_instaspin_indoor_smart_trainer/motorware/motorware_1_01_
    4632 00000555 D0EE          MOVB      XAR0,#238             ; [CPU_ALU] |1100| 
    4633                      .dwpsn  file "D:/GIANT/GIANT_TI_instaspin/TI_instaspin_indoor_smart_trainer/motorware/motorware_1_01_
    4634 00000556 C5D4          MOVL      XAR7,*+XAR4[2]        ; [CPU_ALU] |96| 
    4635                      .dwpsn  file "D:/GIANT/GIANT_TI_instaspin/TI_instaspin_indoor_smart_trainer/motorware/motorware_1_01_
    4636 00000557 1EA6          MOVL      XAR6,ACC              ; [CPU_ALU] |2204| 
    4637                      .dwpsn  file "D:/GIANT/GIANT_TI_instaspin/TI_instaspin_indoor_smart_trainer/motorware/motorware_1_01_
    4638 00000558 2B93          MOV       *+XAR3[AR0],#0        ; [CPU_ALU] |1100| 
    4639                      .dwpsn  file "D:/GIANT/GIANT_TI_instaspin/TI_instaspin_indoor_smart_trainer/motorware/motorware_1_01_
    4640 00000559 D044          MOVB      XAR0,#68              ; [CPU_ALU] |508| 
    4641                      .dwpsn  file "D:/GIANT/GIANT_TI_instaspin/TI_instaspin_indoor_smart_trainer/motorware/motorware_1_01_
TMS320C2000 Assembler PC v22.6.0 Tue Apr 18 11:09:46 2023

Copyright (c) 1996-2018 Texas Instruments Incorporated
C:\Users\User\AppData\Local\Temp\{F169EDD6-E2A2-400A-8386-A823CBD75D49} PAGE   89

    4642 0000055a 06A7          MOVL      ACC,XAR7              ; [CPU_ALU] |2206| 
    4643                      .dwpsn  file "D:/GIANT/GIANT_TI_instaspin/TI_instaspin_indoor_smart_trainer/motorware/motorware_1_01_
    4644 0000055b 8393          MOVL      XAR5,*+XAR3[AR0]      ; [CPU_ALU] |508| 
    4645                      .dwpsn  file "D:/GIANT/GIANT_TI_instaspin/TI_instaspin_indoor_smart_trainer/motorware/motorware_1_01_
    4646 0000055c FF54          NEG       ACC                   ; [CPU_ALU] |2206| 
    4647                      .dwpsn  file "D:/GIANT/GIANT_TI_instaspin/TI_instaspin_indoor_smart_trainer/motorware/motorware_1_01_
    4648 0000055d D044          MOVB      XAR0,#68              ; [CPU_ALU] |511| 
    4649                      .dwpsn  file "D:/GIANT/GIANT_TI_instaspin/TI_instaspin_indoor_smart_trainer/motorware/motorware_1_01_
    4650 0000055e FF5A          MOVL      P,ACC                 ; [CPU_ALU] |2206| 
    4651                      .dwpsn  file "D:/GIANT/GIANT_TI_instaspin/TI_instaspin_indoor_smart_trainer/motorware/motorware_1_01_
    4652 0000055f 020C          MOVB      ACC,#12               ; [CPU_ALU] |511| 
    4653 00000560 0793          ADDL      ACC,*+XAR3[AR0]       ; [CPU_ALU] |511| 
    4654 00000561 8AA9          MOVL      XAR4,ACC              ; [CPU_ALU] |511| 
    4655                      .dwpsn  file "D:/GIANT/GIANT_TI_instaspin/TI_instaspin_indoor_smart_trainer/motorware/motorware_1_01_
    4656 00000562 D00E          MOVB      XAR0,#14              ; [CPU_ALU] |512| 
    4657                      .dwpsn  file "D:/GIANT/GIANT_TI_instaspin/TI_instaspin_indoor_smart_trainer/motorware/motorware_1_01_
    4658 00000563 A9C4          MOVL      *+XAR4[0],P           ; [CPU_ALU] |511| 
    4659                      .dwpsn  file "D:/GIANT/GIANT_TI_instaspin/TI_instaspin_indoor_smart_trainer/motorware/motorware_1_01_
    4660 00000564 B2AB          MOVL      P,XAR1                ; [CPU_ALU] |246| 
    4661                      .dwpsn  file "D:/GIANT/GIANT_TI_instaspin/TI_instaspin_indoor_smart_trainer/motorware/motorware_1_01_
    4662 00000565 C395          MOVL      *+XAR5[AR0],XAR7      ; [CPU_ALU] |512| 
    4663                      .dwpsn  file "D:/GIANT/GIANT_TI_instaspin/TI_instaspin_indoor_smart_trainer/motorware/motorware_1_01_
    4664 00000566 D044          MOVB      XAR0,#68              ; [CPU_ALU] |246| 
    4665                      .dwpsn  file "D:/GIANT/GIANT_TI_instaspin/TI_instaspin_indoor_smart_trainer/motorware/motorware_1_01_
    4666 00000567 565D          SUBUL     P,XAR6                ; [CPU_ALU] |255| 
         00000568 00A6 
    4667                      .dwpsn  file "D:/GIANT/GIANT_TI_instaspin/TI_instaspin_indoor_smart_trainer/motorware/motorware_1_01_
    4668 00000569 8A93          MOVL      XAR4,*+XAR3[AR0]      ; [CPU_ALU] |246| 
    4669                      .dwpsn  file "D:/GIANT/GIANT_TI_instaspin/TI_instaspin_indoor_smart_trainer/motorware/motorware_1_01_
    4670 0000056a A9A0          MOVL      XAR0,P                ; [CPU_ALU] |255| 
    4671                      .dwpsn  file "D:/GIANT/GIANT_TI_instaspin/TI_instaspin_indoor_smart_trainer/motorware/motorware_1_01_
    4672 0000056b 83A1          MOVL      XAR5,XAR1             ; [CPU_ALU] |246| 
    4673                      .dwpsn  file "D:/GIANT/GIANT_TI_instaspin/TI_instaspin_indoor_smart_trainer/motorware/motorware_1_01_
    4674 0000056c D10E          MOVB      XAR1,#14              ; [CPU_ALU] |256| 
    4675                      .dwpsn  file "D:/GIANT/GIANT_TI_instaspin/TI_instaspin_indoor_smart_trainer/motorware/motorware_1_01_
    4676 0000056d 87C4          MOVL      XT,*+XAR4[0]          ; [CPU_ALU] |255| 
    4677 0000056e 5663          QMPYL     ACC,XT,XAR0           ; [CPU_ALU] |255| 
         0000056f 00A0 
    4678 00000570 5605          IMPYL     P,XT,XAR0             ; [CPU_ALU] |255| 
         00000571 00A0 
    4679 00000572 56A7          LSL64     ACC:P,#8              ; [CPU_ALU] |255| 
    4680                      .dwpsn  file "D:/GIANT/GIANT_TI_instaspin/TI_instaspin_indoor_smart_trainer/motorware/motorware_1_01_
    4681 00000573 87D4          MOVL      XT,*+XAR4[2]          ; [CPU_ALU] |256| 
    4682                      .dwpsn  file "D:/GIANT/GIANT_TI_instaspin/TI_instaspin_indoor_smart_trainer/motorware/motorware_1_01_
    4683 00000574 1EA7          MOVL      XAR7,ACC              ; [CPU_ALU] |255| 
    4684                      .dwpsn  file "D:/GIANT/GIANT_TI_instaspin/TI_instaspin_indoor_smart_trainer/motorware/motorware_1_01_
    4685 00000575 5605          IMPYL     P,XT,XAR0             ; [CPU_ALU] |256| 
         00000576 00A0 
    4686 00000577 5663          QMPYL     ACC,XT,XAR0           ; [CPU_ALU] |256| 
         00000578 00A0 
    4687 00000579 D00C          MOVB      XAR0,#12              ; [CPU_ALU] |256| 
    4688 0000057a 56A7          LSL64     ACC:P,#8              ; [CPU_ALU] |256| 
    4689 0000057b 07F4          ADDL      ACC,*+XAR4[6]         ; [CPU_ALU] |256| 
    4690 0000057c 5650          MINL      ACC,*+XAR4[AR1]       ; [CPU_ALU] |256| 
         0000057d 009C 
TMS320C2000 Assembler PC v22.6.0 Tue Apr 18 11:09:46 2023

Copyright (c) 1996-2018 Texas Instruments Incorporated
C:\Users\User\AppData\Local\Temp\{F169EDD6-E2A2-400A-8386-A823CBD75D49} PAGE   90

    4691                      .dwpsn  file "D:/GIANT/GIANT_TI_instaspin/TI_instaspin_indoor_smart_trainer/motorware/motorware_1_01_
    4692 0000057e D10E          MOVB      XAR1,#14              ; [CPU_ALU] |262| 
    4693                      .dwpsn  file "D:/GIANT/GIANT_TI_instaspin/TI_instaspin_indoor_smart_trainer/motorware/motorware_1_01_
    4694 0000057f 5661          MAXL      ACC,*+XAR4[AR0]       ; [CPU_ALU] |256| 
         00000580 0094 
    4695                      .dwpsn  file "D:/GIANT/GIANT_TI_instaspin/TI_instaspin_indoor_smart_trainer/motorware/motorware_1_01_
    4696 00000581 D008          MOVB      XAR0,#8               ; [CPU_ALU] |259| 
    4697                      .dwpsn  file "D:/GIANT/GIANT_TI_instaspin/TI_instaspin_indoor_smart_trainer/motorware/motorware_1_01_
    4698 00000582 1EF4          MOVL      *+XAR4[6],ACC         ; [CPU_ALU] |258| 
    4699                      .dwpsn  file "D:/GIANT/GIANT_TI_instaspin/TI_instaspin_indoor_smart_trainer/motorware/motorware_1_01_
    4700 00000583 07A7          ADDL      ACC,XAR7              ; [CPU_ALU] |262| 
    4701                      .dwpsn  file "D:/GIANT/GIANT_TI_instaspin/TI_instaspin_indoor_smart_trainer/motorware/motorware_1_01_
    4702 00000584 A094          MOVL      *+XAR4[AR0],XAR5      ; [CPU_ALU] |259| 
    4703                      .dwpsn  file "D:/GIANT/GIANT_TI_instaspin/TI_instaspin_indoor_smart_trainer/motorware/motorware_1_01_
    4704 00000585 D00A          MOVB      XAR0,#10              ; [CPU_ALU] |260| 
    4705 00000586 C294          MOVL      *+XAR4[AR0],XAR6      ; [CPU_ALU] |260| 
    4706                      .dwpsn  file "D:/GIANT/GIANT_TI_instaspin/TI_instaspin_indoor_smart_trainer/motorware/motorware_1_01_
    4707 00000587 D00C          MOVB      XAR0,#12              ; [CPU_ALU] |262| 
    4708 00000588 5650          MINL      ACC,*+XAR4[AR1]       ; [CPU_ALU] |262| 
         00000589 009C 
    4709 0000058a 5661          MAXL      ACC,*+XAR4[AR0]       ; [CPU_ALU] |262| 
         0000058b 0094 
    4710 0000058c D0BA          MOVB      XAR0,#186             ; [CPU_ALU] |262| 
    4711 0000058d 1E93          MOVL      *+XAR3[AR0],ACC       ; [CPU_ALU] |262| 
    4712                      .dwpsn  file "D:/GIANT/GIANT_TI_instaspin/TI_instaspin_indoor_smart_trainer/motorware/motorware_1_01_
    4713 0000058e 6F07          B         $C$L47,UNC            ; [CPU_ALU] |2213| 
    4714                      ; branch occurs ; [] |2213| 
    4715 0000058f       $C$L46:    
    4716                      .dwpsn  file "D:/GIANT/GIANT_TI_instaspin/TI_instaspin_indoor_smart_trainer/motorware/motorware_1_01_
    4717 0000058f D0BA          MOVB      XAR0,#186             ; [CPU_ALU] |1728| 
    4718 00000590 0200          MOVB      ACC,#0                ; [CPU_ALU] |1728| 
    4719 00000591 1E93          MOVL      *+XAR3[AR0],ACC       ; [CPU_ALU] |1728| 
    4720                      .dwpsn  file "D:/GIANT/GIANT_TI_instaspin/TI_instaspin_indoor_smart_trainer/motorware/motorware_1_01_
    4721 00000592 D044          MOVB      XAR0,#68              ; [CPU_ALU] |560| 
    4722 00000593 8A93          MOVL      XAR4,*+XAR3[AR0]      ; [CPU_ALU] |560| 
    4723 00000594 1EF4          MOVL      *+XAR4[6],ACC         ; [CPU_ALU] |560| 
    4724 00000595       $C$L47:    
    4725                      .dwpsn  file "D:/GIANT/GIANT_TI_instaspin/TI_instaspin_indoor_smart_trainer/motorware/motorware_1_01_
    4726 00000595 9B00          MOVB      AH,#0                 ; [CPU_ALU] |2057| 
    4727                      .dwpsn  file "D:/GIANT/GIANT_TI_instaspin/TI_instaspin_indoor_smart_trainer/motorware/motorware_1_01_
    4728 00000596 8D00          MOVL      XAR0,#262             ; [CPU_ALU] |2059| 
         00000597 0106 
    4729 00000598 9293          MOV       AL,*+XAR3[AR0]        ; [CPU_ALU] |2059| 
    4730 00000599 6106          B         $C$L48,EQ             ; [CPU_ALU] |2059| 
    4731                      ; branchcc occurs ; [] |2059| 
    4732 0000059a D09D          MOVB      XAR0,#157             ; [CPU_ALU] |2059| 
    4733 0000059b 9293          MOV       AL,*+XAR3[AR0]        ; [CPU_ALU] |2059| 
    4734 0000059c D0EC          MOVB      XAR0,#236             ; [CPU_ALU] |2059| 
    4735 0000059d 5493          CMP       AL,*+XAR3[AR0]        ; [CPU_ALU] |2059| 
    4736 0000059e 6904          B         $C$L49,LOS            ; [CPU_ALU] |2059| 
    4737                      ; branchcc occurs ; [] |2059| 
    4738 0000059f       $C$L48:    
    4739 0000059f 5300          CMPB      AH,#0                 ; [CPU_ALU] |2059| 
    4740 000005a0 FFE1          B         $C$L56,EQ             ; [CPU_ALU] |2059| 
         000005a1 00C6 
TMS320C2000 Assembler PC v22.6.0 Tue Apr 18 11:09:46 2023

Copyright (c) 1996-2018 Texas Instruments Incorporated
C:\Users\User\AppData\Local\Temp\{F169EDD6-E2A2-400A-8386-A823CBD75D49} PAGE   91

    4741                      ; branchcc occurs ; [] |2059| 
    4742 000005a2       $C$L49:    
    4743                      .dwpsn  file "D:/GIANT/GIANT_TI_instaspin/TI_instaspin_indoor_smart_trainer/motorware/motorware_1_01_
    4744 000005a2 D018          MOVB      XAR0,#24              ; [CPU_ALU] |2227| 
    4745 000005a3 8A93          MOVL      XAR4,*+XAR3[AR0]      ; [CPU_ALU] |2227| 
    4746              $C$DW$388       .dwtag  DW_TAG_TI_branch
    4747                      .dwattr $C$DW$388, DW_AT_low_pc(0x00)
    4748                      .dwattr $C$DW$388, DW_AT_name("_EST_doCurrentCtrl")
    4749                      .dwattr $C$DW$388, DW_AT_TI_call
    4750              
    4751 000005a4 7640!         LCR       #_EST_doCurrentCtrl   ; [CPU_ALU] |2227| 
         000005a5 0000 
    4752                      ; call occurs [#_EST_doCurrentCtrl] ; [] |2227| 
    4753 000005a6 5200          CMPB      AL,#0                 ; [CPU_ALU] |2227| 
    4754 000005a7 FFE1          B         $C$L56,EQ             ; [CPU_ALU] |2227| 
         000005a8 00BF 
    4755                      ; branchcc occurs ; [] |2227| 
    4756                      .dwpsn  file "D:/GIANT/GIANT_TI_instaspin/TI_instaspin_indoor_smart_trainer/motorware/motorware_1_01_
    4757 000005a9 D0CA          MOVB      XAR0,#202             ; [CPU_ALU] |518| 
    4758 000005aa 8B93          MOVL      XAR1,*+XAR3[AR0]      ; [CPU_ALU] |518| 
    4759 000005ab D0CC          MOVB      XAR0,#204             ; [CPU_ALU] |518| 
    4760 000005ac 0693          MOVL      ACC,*+XAR3[AR0]       ; [CPU_ALU] |518| 
    4761                      .dwpsn  file "D:/GIANT/GIANT_TI_instaspin/TI_instaspin_indoor_smart_trainer/motorware/motorware_1_01_
    4762 000005ad D0A8          MOVB      XAR0,#168             ; [CPU_ALU] |546| 
    4763                      .dwpsn  file "D:/GIANT/GIANT_TI_instaspin/TI_instaspin_indoor_smart_trainer/motorware/motorware_1_01_
    4764 000005ae 1E52          MOVL      *-SP[18],ACC          ; [CPU_ALU] |518| 
    4765                      .dwpsn  file "D:/GIANT/GIANT_TI_instaspin/TI_instaspin_indoor_smart_trainer/motorware/motorware_1_01_
    4766 000005af 8693          MOVL      XAR2,*+XAR3[AR0]      ; [CPU_ALU] |546| 
    4767                      .dwpsn  file "D:/GIANT/GIANT_TI_instaspin/TI_instaspin_indoor_smart_trainer/motorware/motorware_1_01_
    4768 000005b0 D0EC          MOVB      XAR0,#236             ; [CPU_ALU] |1076| 
    4769 000005b1 2B93          MOV       *+XAR3[AR0],#0        ; [CPU_ALU] |1076| 
    4770                      .dwpsn  file "D:/GIANT/GIANT_TI_instaspin/TI_instaspin_indoor_smart_trainer/motorware/motorware_1_01_
    4771 000005b2 D0F1          MOVB      XAR0,#241             ; [CPU_ALU] |2245| 
    4772 000005b3 9293          MOV       AL,*+XAR3[AR0]        ; [CPU_ALU] |2245| 
    4773 000005b4 610C          B         $C$L50,EQ             ; [CPU_ALU] |2245| 
    4774                      ; branchcc occurs ; [] |2245| 
    4775                      .dwpsn  file "D:/GIANT/GIANT_TI_instaspin/TI_instaspin_indoor_smart_trainer/motorware/motorware_1_01_
    4776 000005b5 D018          MOVB      XAR0,#24              ; [CPU_ALU] |2247| 
    4777 000005b6 8A93          MOVL      XAR4,*+XAR3[AR0]      ; [CPU_ALU] |2247| 
    4778              $C$DW$389       .dwtag  DW_TAG_TI_branch
    4779                      .dwattr $C$DW$389, DW_AT_low_pc(0x00)
    4780                      .dwattr $C$DW$389, DW_AT_name("_EST_getOneOverDcBus_pu")
    4781                      .dwattr $C$DW$389, DW_AT_TI_call
    4782              
    4783 000005b7 7640!         LCR       #_EST_getOneOverDcBus_pu ; [CPU_ALU] |2247| 
         000005b8 0000 
    4784                      ; call occurs [#_EST_getOneOverDcBus_pu] ; [] |2247| 
    4785 000005b9 B2AC          MOVL      XT,XAR1               ; [CPU_ALU] |2247| 
    4786 000005ba 5605          IMPYL     P,XT,ACC              ; [CPU_ALU] |2247| 
         000005bb 00A9 
    4787 000005bc 5663          QMPYL     ACC,XT,ACC            ; [CPU_ALU] |2247| 
         000005bd 00A9 
    4788 000005be 56A7          LSL64     ACC:P,#8              ; [CPU_ALU] |2247| 
    4789 000005bf 8BA9          MOVL      XAR1,ACC              ; [CPU_ALU] |2247| 
    4790 000005c0       $C$L50:    
TMS320C2000 Assembler PC v22.6.0 Tue Apr 18 11:09:46 2023

Copyright (c) 1996-2018 Texas Instruments Incorporated
C:\Users\User\AppData\Local\Temp\{F169EDD6-E2A2-400A-8386-A823CBD75D49} PAGE   92

    4791                      .dwpsn  file "D:/GIANT/GIANT_TI_instaspin/TI_instaspin_indoor_smart_trainer/motorware/motorware_1_01_
    4792 000005c0 5DAD          MOVZ      AR5,SP                ; [CPU_ALU] |2256| 
    4793                      .dwpsn  file "D:/GIANT/GIANT_TI_instaspin/TI_instaspin_indoor_smart_trainer/motorware/motorware_1_01_
    4794 000005c1 D020          MOVB      XAR0,#32              ; [CPU_ALU] |497| 
    4795 000005c2 8A93          MOVL      XAR4,*+XAR3[AR0]      ; [CPU_ALU] |497| 
    4796                      .dwpsn  file "D:/GIANT/GIANT_TI_instaspin/TI_instaspin_indoor_smart_trainer/motorware/motorware_1_01_
    4797 000005c3 D060          MOVB      XAR0,#96              ; [CPU_ALU] |2253| 
    4798                      .dwpsn  file "D:/GIANT/GIANT_TI_instaspin/TI_instaspin_indoor_smart_trainer/motorware/motorware_1_01_
    4799 000005c4 DD8E          SUBB      XAR5,#14              ; [CPU_ARAU] |2256| 
    4800                      .dwpsn  file "D:/GIANT/GIANT_TI_instaspin/TI_instaspin_indoor_smart_trainer/motorware/motorware_1_01_
    4801 000005c5 B2C4          MOVL      *+XAR4[0],XAR1        ; [CPU_ALU] |497| 
    4802                      .dwpsn  file "D:/GIANT/GIANT_TI_instaspin/TI_instaspin_indoor_smart_trainer/motorware/motorware_1_01_
    4803 000005c6 5DA5          MOVZ      AR5,AR5               ; [CPU_ALU] |2256| 
    4804                      .dwpsn  file "D:/GIANT/GIANT_TI_instaspin/TI_instaspin_indoor_smart_trainer/motorware/motorware_1_01_
    4805 000005c7 8A93          MOVL      XAR4,*+XAR3[AR0]      ; [CPU_ALU] |2253| 
    4806 000005c8 D0E2          MOVB      XAR0,#226             ; [CPU_ALU] |2253| 
    4807 000005c9 0693          MOVL      ACC,*+XAR3[AR0]       ; [CPU_ALU] |2253| 
    4808                      .dwpsn  file "D:/GIANT/GIANT_TI_instaspin/TI_instaspin_indoor_smart_trainer/motorware/motorware_1_01_
    4809 000005ca D018          MOVB      XAR0,#24              ; [CPU_ALU] |2256| 
    4810                      .dwpsn  file "D:/GIANT/GIANT_TI_instaspin/TI_instaspin_indoor_smart_trainer/motorware/motorware_1_01_
    4811 000005cb 07D4          ADDL      ACC,*+XAR4[2]         ; [CPU_ALU] |2253| 
    4812 000005cc 1E4E          MOVL      *-SP[14],ACC          ; [CPU_ALU] |2253| 
    4813                      .dwpsn  file "D:/GIANT/GIANT_TI_instaspin/TI_instaspin_indoor_smart_trainer/motorware/motorware_1_01_
    4814 000005cd 8A93          MOVL      XAR4,*+XAR3[AR0]      ; [CPU_ALU] |2256| 
    4815              $C$DW$390       .dwtag  DW_TAG_TI_branch
    4816                      .dwattr $C$DW$390, DW_AT_low_pc(0x00)
    4817                      .dwattr $C$DW$390, DW_AT_name("_EST_updateId_ref_pu")
    4818                      .dwattr $C$DW$390, DW_AT_TI_call
    4819              
    4820 000005ce 7640!         LCR       #_EST_updateId_ref_pu ; [CPU_ALU] |2256| 
         000005cf 0000 
    4821                      ; call occurs [#_EST_updateId_ref_pu] ; [] |2256| 
    4822                      .dwpsn  file "D:/GIANT/GIANT_TI_instaspin/TI_instaspin_indoor_smart_trainer/motorware/motorware_1_01_
    4823 000005d0 D0B2          MOVB      XAR0,#178             ; [CPU_ALU] |330| 
    4824 000005d1 C593          MOVL      XAR7,*+XAR3[AR0]      ; [CPU_ALU] |330| 
    4825                      .dwpsn  file "D:/GIANT/GIANT_TI_instaspin/TI_instaspin_indoor_smart_trainer/motorware/motorware_1_01_
    4826 000005d2 D020          MOVB      XAR0,#32              ; [CPU_ALU] |508| 
    4827 000005d3 8A93          MOVL      XAR4,*+XAR3[AR0]      ; [CPU_ALU] |508| 
    4828                      .dwpsn  file "D:/GIANT/GIANT_TI_instaspin/TI_instaspin_indoor_smart_trainer/motorware/motorware_1_01_
    4829 000005d4 AAA9          MOVL      ACC,XAR2              ; [CPU_ALU] |511| 
    4830 000005d5 FF54          NEG       ACC                   ; [CPU_ALU] |511| 
    4831 000005d6 D00C          MOVB      XAR0,#12              ; [CPU_ALU] |511| 
    4832 000005d7 1E94          MOVL      *+XAR4[AR0],ACC       ; [CPU_ALU] |511| 
    4833                      .dwpsn  file "D:/GIANT/GIANT_TI_instaspin/TI_instaspin_indoor_smart_trainer/motorware/motorware_1_01_
    4834 000005d8 D00E          MOVB      XAR0,#14              ; [CPU_ALU] |512| 
    4835 000005d9 AA94          MOVL      *+XAR4[AR0],XAR2      ; [CPU_ALU] |512| 
    4836                      .dwpsn  file "D:/GIANT/GIANT_TI_instaspin/TI_instaspin_indoor_smart_trainer/motorware/motorware_1_01_
    4837 000005da C44E          MOVL      XAR6,*-SP[14]         ; [CPU_ALU] |218| 
    4838 000005db D020          MOVB      XAR0,#32              ; [CPU_ALU] |218| 
    4839 000005dc 8A93          MOVL      XAR4,*+XAR3[AR0]      ; [CPU_ALU] |218| 
    4840                      .dwpsn  file "D:/GIANT/GIANT_TI_instaspin/TI_instaspin_indoor_smart_trainer/motorware/motorware_1_01_
    4841 000005dd D10E          MOVB      XAR1,#14              ; [CPU_ALU] |228| 
    4842                      .dwpsn  file "D:/GIANT/GIANT_TI_instaspin/TI_instaspin_indoor_smart_trainer/motorware/motorware_1_01_
    4843 000005de 06A6          MOVL      ACC,XAR6              ; [CPU_ALU] |227| 
    4844                      .dwpsn  file "D:/GIANT/GIANT_TI_instaspin/TI_instaspin_indoor_smart_trainer/motorware/motorware_1_01_
TMS320C2000 Assembler PC v22.6.0 Tue Apr 18 11:09:46 2023

Copyright (c) 1996-2018 Texas Instruments Incorporated
C:\Users\User\AppData\Local\Temp\{F169EDD6-E2A2-400A-8386-A823CBD75D49} PAGE   93

    4845 000005df D00C          MOVB      XAR0,#12              ; [CPU_ALU] |228| 
    4846                      .dwpsn  file "D:/GIANT/GIANT_TI_instaspin/TI_instaspin_indoor_smart_trainer/motorware/motorware_1_01_
    4847 000005e0 87C4          MOVL      XT,*+XAR4[0]          ; [CPU_ALU] |227| 
    4848 000005e1 03A7          SUBL      ACC,XAR7              ; [CPU_ALU] |227| 
    4849 000005e2 5605          IMPYL     P,XT,ACC              ; [CPU_ALU] |227| 
         000005e3 00A9 
    4850 000005e4 5663          QMPYL     ACC,XT,ACC            ; [CPU_ALU] |227| 
         000005e5 00A9 
    4851 000005e6 56A7          LSL64     ACC:P,#8              ; [CPU_ALU] |227| 
    4852 000005e7 1E56          MOVL      *-SP[22],ACC          ; [CPU_ALU] |227| 
    4853                      .dwpsn  file "D:/GIANT/GIANT_TI_instaspin/TI_instaspin_indoor_smart_trainer/motorware/motorware_1_01_
    4854 000005e8 87D4          MOVL      XT,*+XAR4[2]          ; [CPU_ALU] |228| 
    4855 000005e9 5605          IMPYL     P,XT,ACC              ; [CPU_ALU] |228| 
         000005ea 00A9 
    4856 000005eb 5663          QMPYL     ACC,XT,ACC            ; [CPU_ALU] |228| 
         000005ec 00A9 
    4857 000005ed 56A7          LSL64     ACC:P,#8              ; [CPU_ALU] |228| 
    4858 000005ee 07F4          ADDL      ACC,*+XAR4[6]         ; [CPU_ALU] |228| 
    4859 000005ef 5650          MINL      ACC,*+XAR4[AR1]       ; [CPU_ALU] |228| 
         000005f0 009C 
    4860 000005f1 5661          MAXL      ACC,*+XAR4[AR0]       ; [CPU_ALU] |228| 
         000005f2 0094 
    4861                      .dwpsn  file "D:/GIANT/GIANT_TI_instaspin/TI_instaspin_indoor_smart_trainer/motorware/motorware_1_01_
    4862 000005f3 D020          MOVB      XAR0,#32              ; [CPU_ALU] |230| 
    4863 000005f4 8393          MOVL      XAR5,*+XAR3[AR0]      ; [CPU_ALU] |230| 
    4864                      .dwpsn  file "D:/GIANT/GIANT_TI_instaspin/TI_instaspin_indoor_smart_trainer/motorware/motorware_1_01_
    4865 000005f5 D008          MOVB      XAR0,#8               ; [CPU_ALU] |231| 
    4866                      .dwpsn  file "D:/GIANT/GIANT_TI_instaspin/TI_instaspin_indoor_smart_trainer/motorware/motorware_1_01_
    4867 000005f6 1EF5          MOVL      *+XAR5[6],ACC         ; [CPU_ALU] |230| 
    4868                      .dwpsn  file "D:/GIANT/GIANT_TI_instaspin/TI_instaspin_indoor_smart_trainer/motorware/motorware_1_01_
    4869 000005f7 C294          MOVL      *+XAR4[AR0],XAR6      ; [CPU_ALU] |231| 
    4870                      .dwpsn  file "D:/GIANT/GIANT_TI_instaspin/TI_instaspin_indoor_smart_trainer/motorware/motorware_1_01_
    4871 000005f8 D00A          MOVB      XAR0,#10              ; [CPU_ALU] |232| 
    4872 000005f9 C394          MOVL      *+XAR4[AR0],XAR7      ; [CPU_ALU] |232| 
    4873                      .dwpsn  file "D:/GIANT/GIANT_TI_instaspin/TI_instaspin_indoor_smart_trainer/motorware/motorware_1_01_
    4874 000005fa C556          MOVL      XAR7,*-SP[22]         ; [CPU_ALU] |234| 
    4875 000005fb D10E          MOVB      XAR1,#14              ; [CPU_ALU] |234| 
    4876 000005fc D00C          MOVB      XAR0,#12              ; [CPU_ALU] |234| 
    4877 000005fd 07A7          ADDL      ACC,XAR7              ; [CPU_ALU] |234| 
    4878 000005fe 5650          MINL      ACC,*+XAR4[AR1]       ; [CPU_ALU] |234| 
         000005ff 009C 
    4879 00000600 5661          MAXL      ACC,*+XAR4[AR0]       ; [CPU_ALU] |234| 
         00000601 0094 
    4880 00000602 D0C0          MOVB      XAR0,#192             ; [CPU_ALU] |234| 
    4881 00000603 1E93          MOVL      *+XAR3[AR0],ACC       ; [CPU_ALU] |234| 
    4882                      .dwpsn  file "D:/GIANT/GIANT_TI_instaspin/TI_instaspin_indoor_smart_trainer/motorware/motorware_1_01_
    4883 00000604 D018          MOVB      XAR0,#24              ; [CPU_ALU] |2272| 
    4884 00000605 06A6          MOVL      ACC,XAR6              ; [CPU_ALU] |2272| 
    4885 00000606 8A93          MOVL      XAR4,*+XAR3[AR0]      ; [CPU_ALU] |2272| 
    4886              $C$DW$391       .dwtag  DW_TAG_TI_branch
    4887                      .dwattr $C$DW$391, DW_AT_low_pc(0x00)
    4888                      .dwattr $C$DW$391, DW_AT_name("_EST_setId_ref_pu")
    4889                      .dwattr $C$DW$391, DW_AT_TI_call
    4890              
    4891 00000607 7640!         LCR       #_EST_setId_ref_pu    ; [CPU_ALU] |2272| 
TMS320C2000 Assembler PC v22.6.0 Tue Apr 18 11:09:46 2023

Copyright (c) 1996-2018 Texas Instruments Incorporated
C:\Users\User\AppData\Local\Temp\{F169EDD6-E2A2-400A-8386-A823CBD75D49} PAGE   94

         00000608 0000 
    4892                      ; call occurs [#_EST_setId_ref_pu] ; [] |2272| 
    4893                      .dwpsn  file "D:/GIANT/GIANT_TI_instaspin/TI_instaspin_indoor_smart_trainer/motorware/motorware_1_01_
    4894 00000609 D0F1          MOVB      XAR0,#241             ; [CPU_ALU] |2279| 
    4895 0000060a 9293          MOV       AL,*+XAR3[AR0]        ; [CPU_ALU] |2279| 
    4896 0000060b 610C          B         $C$L51,EQ             ; [CPU_ALU] |2279| 
    4897                      ; branchcc occurs ; [] |2279| 
    4898                      .dwpsn  file "D:/GIANT/GIANT_TI_instaspin/TI_instaspin_indoor_smart_trainer/motorware/motorware_1_01_
    4899 0000060c D018          MOVB      XAR0,#24              ; [CPU_ALU] |2281| 
    4900 0000060d 8A93          MOVL      XAR4,*+XAR3[AR0]      ; [CPU_ALU] |2281| 
    4901              $C$DW$392       .dwtag  DW_TAG_TI_branch
    4902                      .dwattr $C$DW$392, DW_AT_low_pc(0x00)
    4903                      .dwattr $C$DW$392, DW_AT_name("_EST_getOneOverDcBus_pu")
    4904                      .dwattr $C$DW$392, DW_AT_TI_call
    4905              
    4906 0000060e 7640!         LCR       #_EST_getOneOverDcBus_pu ; [CPU_ALU] |2281| 
         0000060f 0000 
    4907                      ; call occurs [#_EST_getOneOverDcBus_pu] ; [] |2281| 
    4908 00000610 8752          MOVL      XT,*-SP[18]           ; [CPU_ALU] |2281| 
    4909 00000611 5605          IMPYL     P,XT,ACC              ; [CPU_ALU] |2281| 
         00000612 00A9 
    4910 00000613 5663          QMPYL     ACC,XT,ACC            ; [CPU_ALU] |2281| 
         00000614 00A9 
    4911 00000615 56A7          LSL64     ACC:P,#8              ; [CPU_ALU] |2281| 
    4912 00000616 1E52          MOVL      *-SP[18],ACC          ; [CPU_ALU] |2281| 
    4913 00000617       $C$L51:    
    4914                      .dwpsn  file "D:/GIANT/GIANT_TI_instaspin/TI_instaspin_indoor_smart_trainer/motorware/motorware_1_01_
    4915 00000617 D032          MOVB      XAR0,#50              ; [CPU_ALU] |497| 
    4916 00000618 8A93          MOVL      XAR4,*+XAR3[AR0]      ; [CPU_ALU] |497| 
    4917 00000619 0652          MOVL      ACC,*-SP[18]          ; [CPU_ALU] |497| 
    4918                      .dwpsn  file "D:/GIANT/GIANT_TI_instaspin/TI_instaspin_indoor_smart_trainer/motorware/motorware_1_01_
    4919 0000061a D0F4          MOVB      XAR0,#244             ; [CPU_ALU] |2287| 
    4920                      .dwpsn  file "D:/GIANT/GIANT_TI_instaspin/TI_instaspin_indoor_smart_trainer/motorware/motorware_1_01_
    4921 0000061b 1EC4          MOVL      *+XAR4[0],ACC         ; [CPU_ALU] |497| 
    4922                      .dwpsn  file "D:/GIANT/GIANT_TI_instaspin/TI_instaspin_indoor_smart_trainer/motorware/motorware_1_01_
    4923 0000061c 9293          MOV       AL,*+XAR3[AR0]        ; [CPU_ALU] |2287| 
    4924 0000061d 610B          B         $C$L53,EQ             ; [CPU_ALU] |2287| 
    4925                      ; branchcc occurs ; [] |2287| 
    4926                      .dwpsn  file "D:/GIANT/GIANT_TI_instaspin/TI_instaspin_indoor_smart_trainer/motorware/motorware_1_01_
    4927 0000061e D018          MOVB      XAR0,#24              ; [CPU_ALU] |1977| 
    4928 0000061f 8A93          MOVL      XAR4,*+XAR3[AR0]      ; [CPU_ALU] |1977| 
    4929              $C$DW$393       .dwtag  DW_TAG_TI_branch
    4930                      .dwattr $C$DW$393, DW_AT_low_pc(0x00)
    4931                      .dwattr $C$DW$393, DW_AT_name("_EST_useZeroIq_ref")
    4932                      .dwattr $C$DW$393, DW_AT_TI_call
    4933              
    4934 00000620 7640!         LCR       #_EST_useZeroIq_ref   ; [CPU_ALU] |1977| 
         00000621 0000 
    4935                      ; call occurs [#_EST_useZeroIq_ref] ; [] |1977| 
    4936 00000622 5200          CMPB      AL,#0                 ; [CPU_ALU] |1977| 
    4937 00000623 6003          B         $C$L52,NEQ            ; [CPU_ALU] |1977| 
    4938                      ; branchcc occurs ; [] |1977| 
    4939                      .dwpsn  file "D:/GIANT/GIANT_TI_instaspin/TI_instaspin_indoor_smart_trainer/motorware/motorware_1_01_
    4940 00000624 D0BA          MOVB      XAR0,#186             ; [CPU_ALU] |728| 
    4941 00000625 6F04          B         $C$L54,UNC            ; [CPU_ALU] 
TMS320C2000 Assembler PC v22.6.0 Tue Apr 18 11:09:46 2023

Copyright (c) 1996-2018 Texas Instruments Incorporated
C:\Users\User\AppData\Local\Temp\{F169EDD6-E2A2-400A-8386-A823CBD75D49} PAGE   95

    4942                      ; branch occurs ; [] 
    4943 00000626       $C$L52:    
    4944                      .dwpsn  file "D:/GIANT/GIANT_TI_instaspin/TI_instaspin_indoor_smart_trainer/motorware/motorware_1_01_
    4945 00000626 0200          MOVB      ACC,#0                ; [CPU_ALU] |2295| 
    4946 00000627 6F03          B         $C$L55,UNC            ; [CPU_ALU] |2295| 
    4947                      ; branch occurs ; [] |2295| 
    4948 00000628       $C$L53:    
    4949                      .dwpsn  file "D:/GIANT/GIANT_TI_instaspin/TI_instaspin_indoor_smart_trainer/motorware/motorware_1_01_
    4950 00000628 D0E4          MOVB      XAR0,#228             ; [CPU_ALU] |419| 
    4951 00000629       $C$L54:    
    4952 00000629 0693          MOVL      ACC,*+XAR3[AR0]       ; [CPU_ALU] |419| 
    4953 0000062a       $C$L55:    
    4954 0000062a 1E4E          MOVL      *-SP[14],ACC          ; [CPU_ALU] |419| 
    4955                      .dwpsn  file "D:/GIANT/GIANT_TI_instaspin/TI_instaspin_indoor_smart_trainer/motorware/motorware_1_01_
    4956 0000062b D0B4          MOVB      XAR0,#180             ; [CPU_ALU] |397| 
    4957 0000062c C493          MOVL      XAR6,*+XAR3[AR0]      ; [CPU_ALU] |397| 
    4958                      .dwpsn  file "D:/GIANT/GIANT_TI_instaspin/TI_instaspin_indoor_smart_trainer/motorware/motorware_1_01_
    4959 0000062d D032          MOVB      XAR0,#50              ; [CPU_ALU] |508| 
    4960 0000062e 8A93          MOVL      XAR4,*+XAR3[AR0]      ; [CPU_ALU] |508| 
    4961 0000062f D0C0          MOVB      XAR0,#192             ; [CPU_ALU] |508| 
    4962 00000630 0693          MOVL      ACC,*+XAR3[AR0]       ; [CPU_ALU] |508| 
    4963 00000631 FF56          ABS       ACC                   ; [CPU_ALU] |508| 
    4964 00000632 5641          SUBL      XAR2,ACC              ; [CPU_ALU] |508| 
         00000633 00A2 
    4965                      .dwpsn  file "D:/GIANT/GIANT_TI_instaspin/TI_instaspin_indoor_smart_trainer/motorware/motorware_1_01_
    4966 00000634 D00C          MOVB      XAR0,#12              ; [CPU_ALU] |511| 
    4967 00000635 AAA9          MOVL      ACC,XAR2              ; [CPU_ALU] |511| 
    4968 00000636 FF54          NEG       ACC                   ; [CPU_ALU] |511| 
    4969 00000637 1E94          MOVL      *+XAR4[AR0],ACC       ; [CPU_ALU] |511| 
    4970                      .dwpsn  file "D:/GIANT/GIANT_TI_instaspin/TI_instaspin_indoor_smart_trainer/motorware/motorware_1_01_
    4971 00000638 D00E          MOVB      XAR0,#14              ; [CPU_ALU] |512| 
    4972 00000639 AA94          MOVL      *+XAR4[AR0],XAR2      ; [CPU_ALU] |512| 
    4973                      .dwpsn  file "D:/GIANT/GIANT_TI_instaspin/TI_instaspin_indoor_smart_trainer/motorware/motorware_1_01_
    4974 0000063a D032          MOVB      XAR0,#50              ; [CPU_ALU] |218| 
    4975 0000063b 8A93          MOVL      XAR4,*+XAR3[AR0]      ; [CPU_ALU] |218| 
    4976                      .dwpsn  file "D:/GIANT/GIANT_TI_instaspin/TI_instaspin_indoor_smart_trainer/motorware/motorware_1_01_
    4977 0000063c 064E          MOVL      ACC,*-SP[14]          ; [CPU_ALU] |227| 
    4978 0000063d 03A6          SUBL      ACC,XAR6              ; [CPU_ALU] |227| 
    4979 0000063e 87C4          MOVL      XT,*+XAR4[0]          ; [CPU_ALU] |227| 
    4980 0000063f 5605          IMPYL     P,XT,ACC              ; [CPU_ALU] |227| 
         00000640 00A9 
    4981 00000641 5663          QMPYL     ACC,XT,ACC            ; [CPU_ALU] |227| 
         00000642 00A9 
    4982 00000643 56A7          LSL64     ACC:P,#8              ; [CPU_ALU] |227| 
    4983 00000644 1EA7          MOVL      XAR7,ACC              ; [CPU_ALU] |227| 
    4984                      .dwpsn  file "D:/GIANT/GIANT_TI_instaspin/TI_instaspin_indoor_smart_trainer/motorware/motorware_1_01_
    4985 00000645 D10E          MOVB      XAR1,#14              ; [CPU_ALU] |228| 
    4986 00000646 D00C          MOVB      XAR0,#12              ; [CPU_ALU] |228| 
    4987 00000647 87D4          MOVL      XT,*+XAR4[2]          ; [CPU_ALU] |228| 
    4988 00000648 5605          IMPYL     P,XT,XAR7             ; [CPU_ALU] |228| 
         00000649 00A7 
    4989 0000064a 5663          QMPYL     ACC,XT,XAR7           ; [CPU_ALU] |228| 
         0000064b 00A7 
    4990 0000064c 56A7          LSL64     ACC:P,#8              ; [CPU_ALU] |228| 
    4991 0000064d 07F4          ADDL      ACC,*+XAR4[6]         ; [CPU_ALU] |228| 
TMS320C2000 Assembler PC v22.6.0 Tue Apr 18 11:09:46 2023

Copyright (c) 1996-2018 Texas Instruments Incorporated
C:\Users\User\AppData\Local\Temp\{F169EDD6-E2A2-400A-8386-A823CBD75D49} PAGE   96

    4992 0000064e 5650          MINL      ACC,*+XAR4[AR1]       ; [CPU_ALU] |228| 
         0000064f 009C 
    4993                      .dwpsn  file "D:/GIANT/GIANT_TI_instaspin/TI_instaspin_indoor_smart_trainer/motorware/motorware_1_01_
    4994 00000650 D10E          MOVB      XAR1,#14              ; [CPU_ALU] |234| 
    4995                      .dwpsn  file "D:/GIANT/GIANT_TI_instaspin/TI_instaspin_indoor_smart_trainer/motorware/motorware_1_01_
    4996 00000651 5661          MAXL      ACC,*+XAR4[AR0]       ; [CPU_ALU] |228| 
         00000652 0094 
    4997                      .dwpsn  file "D:/GIANT/GIANT_TI_instaspin/TI_instaspin_indoor_smart_trainer/motorware/motorware_1_01_
    4998 00000653 D008          MOVB      XAR0,#8               ; [CPU_ALU] |231| 
    4999                      .dwpsn  file "D:/GIANT/GIANT_TI_instaspin/TI_instaspin_indoor_smart_trainer/motorware/motorware_1_01_
    5000 00000654 1EF4          MOVL      *+XAR4[6],ACC         ; [CPU_ALU] |230| 
    5001                      .dwpsn  file "D:/GIANT/GIANT_TI_instaspin/TI_instaspin_indoor_smart_trainer/motorware/motorware_1_01_
    5002 00000655 A34E          MOVL      P,*-SP[14]            ; [CPU_ALU] |231| 
    5003                      .dwpsn  file "D:/GIANT/GIANT_TI_instaspin/TI_instaspin_indoor_smart_trainer/motorware/motorware_1_01_
    5004 00000656 07A7          ADDL      ACC,XAR7              ; [CPU_ALU] |234| 
    5005                      .dwpsn  file "D:/GIANT/GIANT_TI_instaspin/TI_instaspin_indoor_smart_trainer/motorware/motorware_1_01_
    5006 00000657 A994          MOVL      *+XAR4[AR0],P         ; [CPU_ALU] |231| 
    5007                      .dwpsn  file "D:/GIANT/GIANT_TI_instaspin/TI_instaspin_indoor_smart_trainer/motorware/motorware_1_01_
    5008 00000658 D00A          MOVB      XAR0,#10              ; [CPU_ALU] |232| 
    5009 00000659 C294          MOVL      *+XAR4[AR0],XAR6      ; [CPU_ALU] |232| 
    5010                      .dwpsn  file "D:/GIANT/GIANT_TI_instaspin/TI_instaspin_indoor_smart_trainer/motorware/motorware_1_01_
    5011 0000065a D00C          MOVB      XAR0,#12              ; [CPU_ALU] |234| 
    5012 0000065b 5650          MINL      ACC,*+XAR4[AR1]       ; [CPU_ALU] |234| 
         0000065c 009C 
    5013 0000065d 5661          MAXL      ACC,*+XAR4[AR0]       ; [CPU_ALU] |234| 
         0000065e 0094 
    5014 0000065f D0C2          MOVB      XAR0,#194             ; [CPU_ALU] |234| 
    5015 00000660 1E93          MOVL      *+XAR3[AR0],ACC       ; [CPU_ALU] |234| 
    5016                      .dwpsn  file "D:/GIANT/GIANT_TI_instaspin/TI_instaspin_indoor_smart_trainer/motorware/motorware_1_01_
    5017 00000661 D018          MOVB      XAR0,#24              ; [CPU_ALU] |2318| 
    5018 00000662 064E          MOVL      ACC,*-SP[14]          ; [CPU_ALU] |2318| 
    5019 00000663 8A93          MOVL      XAR4,*+XAR3[AR0]      ; [CPU_ALU] |2318| 
    5020              $C$DW$394       .dwtag  DW_TAG_TI_branch
    5021                      .dwattr $C$DW$394, DW_AT_low_pc(0x00)
    5022                      .dwattr $C$DW$394, DW_AT_name("_EST_setIq_ref_pu")
    5023                      .dwattr $C$DW$394, DW_AT_TI_call
    5024              
    5025 00000664 7640!         LCR       #_EST_setIq_ref_pu    ; [CPU_ALU] |2318| 
         00000665 0000 
    5026                      ; call occurs [#_EST_setIq_ref_pu] ; [] |2318| 
    5027 00000666       $C$L56:    
    5028                      .dwpsn  file "D:/GIANT/GIANT_TI_instaspin/TI_instaspin_indoor_smart_trainer/motorware/motorware_1_01_
    5029 00000666 D056          MOVB      XAR0,#86              ; [CPU_ALU] |172| 
    5030 00000667 8A93          MOVL      XAR4,*+XAR3[AR0]      ; [CPU_ALU] |172| 
    5031                      .dwpsn  file "D:/GIANT/GIANT_TI_instaspin/TI_instaspin_indoor_smart_trainer/motorware/motorware_1_01_
    5032 00000668 0648          MOVL      ACC,*-SP[8]           ; [CPU_ALU] |175| 
    5033                      .dwpsn  file "D:/GIANT/GIANT_TI_instaspin/TI_instaspin_indoor_smart_trainer/motorware/motorware_1_01_
    5034 00000669 D056          MOVB      XAR0,#86              ; [CPU_ALU] |141| 
    5035                      .dwpsn  file "D:/GIANT/GIANT_TI_instaspin/TI_instaspin_indoor_smart_trainer/motorware/motorware_1_01_
    5036 0000066a 1ED4          MOVL      *+XAR4[2],ACC         ; [CPU_ALU] |175| 
    5037                      .dwpsn  file "D:/GIANT/GIANT_TI_instaspin/TI_instaspin_indoor_smart_trainer/motorware/motorware_1_01_
    5038 0000066b 0646          MOVL      ACC,*-SP[6]           ; [CPU_ALU] |176| 
    5039 0000066c 1EC4          MOVL      *+XAR4[0],ACC         ; [CPU_ALU] |176| 
    5040                      .dwpsn  file "D:/GIANT/GIANT_TI_instaspin/TI_instaspin_indoor_smart_trainer/motorware/motorware_1_01_
    5041 0000066d 8A93          MOVL      XAR4,*+XAR3[AR0]      ; [CPU_ALU] |141| 
TMS320C2000 Assembler PC v22.6.0 Tue Apr 18 11:09:46 2023

Copyright (c) 1996-2018 Texas Instruments Incorporated
C:\Users\User\AppData\Local\Temp\{F169EDD6-E2A2-400A-8386-A823CBD75D49} PAGE   97

    5042                      .dwpsn  file "D:/GIANT/GIANT_TI_instaspin/TI_instaspin_indoor_smart_trainer/motorware/motorware_1_01_
    5043 0000066e D0C0          MOVB      XAR0,#192             ; [CPU_ALU] |144| 
    5044                      .dwpsn  file "D:/GIANT/GIANT_TI_instaspin/TI_instaspin_indoor_smart_trainer/motorware/motorware_1_01_
    5045 0000066f C5C4          MOVL      XAR7,*+XAR4[0]        ; [CPU_ALU] |141| 
    5046                      .dwpsn  file "D:/GIANT/GIANT_TI_instaspin/TI_instaspin_indoor_smart_trainer/motorware/motorware_1_01_
    5047 00000670 C4D4          MOVL      XAR6,*+XAR4[2]        ; [CPU_ALU] |142| 
    5048                      .dwpsn  file "D:/GIANT/GIANT_TI_instaspin/TI_instaspin_indoor_smart_trainer/motorware/motorware_1_01_
    5049 00000671 8A93          MOVL      XAR4,*+XAR3[AR0]      ; [CPU_ALU] |144| 
    5050                      .dwpsn  file "D:/GIANT/GIANT_TI_instaspin/TI_instaspin_indoor_smart_trainer/motorware/motorware_1_01_
    5051 00000672 D0C2          MOVB      XAR0,#194             ; [CPU_ALU] |145| 
    5052 00000673 8393          MOVL      XAR5,*+XAR3[AR0]      ; [CPU_ALU] |145| 
    5053 00000674 3B01          SETC      SXM                   ; [CPU_ALU] 
    5054 00000675 A0AC          MOVL      XT,XAR5               ; [CPU_ALU] |145| 
    5055                      .dwpsn  file "D:/GIANT/GIANT_TI_instaspin/TI_instaspin_indoor_smart_trainer/motorware/motorware_1_01_
    5056 00000676 5605          IMPYL     P,XT,XAR7             ; [CPU_ALU] |148| 
         00000677 00A7 
    5057 00000678 5663          QMPYL     ACC,XT,XAR7           ; [CPU_ALU] |148| 
         00000679 00A7 
    5058 0000067a 56A7          LSL64     ACC:P,#8              ; [CPU_ALU] |148| 
    5059 0000067b A8AC          MOVL      XT,XAR4               ; [CPU_ALU] |148| 
    5060 0000067c 8EA9          MOVL      XAR0,ACC              ; [CPU_ALU] |148| 
    5061 0000067d 5605          IMPYL     P,XT,XAR6             ; [CPU_ALU] |148| 
         0000067e 00A6 
    5062 0000067f 5663          QMPYL     ACC,XT,XAR6           ; [CPU_ALU] |148| 
         00000680 00A6 
    5063 00000681 56A7          LSL64     ACC:P,#8              ; [CPU_ALU] |148| 
    5064 00000682 A0AC          MOVL      XT,XAR5               ; [CPU_ALU] |148| 
    5065 00000683 03A0          SUBL      ACC,XAR0              ; [CPU_ALU] |148| 
    5066                      .dwpsn  file "D:/GIANT/GIANT_TI_instaspin/TI_instaspin_indoor_smart_trainer/motorware/motorware_1_01_
    5067 00000684 5605          IMPYL     P,XT,XAR6             ; [CPU_ALU] |149| 
         00000685 00A6 
    5068                      .dwpsn  file "D:/GIANT/GIANT_TI_instaspin/TI_instaspin_indoor_smart_trainer/motorware/motorware_1_01_
    5069 00000686 D0BC          MOVB      XAR0,#188             ; [CPU_ALU] |148| 
    5070 00000687 1E93          MOVL      *+XAR3[AR0],ACC       ; [CPU_ALU] |148| 
    5071                      .dwpsn  file "D:/GIANT/GIANT_TI_instaspin/TI_instaspin_indoor_smart_trainer/motorware/motorware_1_01_
    5072 00000688 D0BE          MOVB      XAR0,#190             ; [CPU_ALU] |149| 
    5073 00000689 5663          QMPYL     ACC,XT,XAR6           ; [CPU_ALU] |149| 
         0000068a 00A6 
    5074 0000068b 56A7          LSL64     ACC:P,#8              ; [CPU_ALU] |149| 
    5075 0000068c A8AC          MOVL      XT,XAR4               ; [CPU_ALU] |149| 
    5076 0000068d 1EA6          MOVL      XAR6,ACC              ; [CPU_ALU] |149| 
    5077 0000068e 5605          IMPYL     P,XT,XAR7             ; [CPU_ALU] |149| 
         0000068f 00A7 
    5078 00000690 5663          QMPYL     ACC,XT,XAR7           ; [CPU_ALU] |149| 
         00000691 00A7 
    5079 00000692 56A7          LSL64     ACC:P,#8              ; [CPU_ALU] |149| 
    5080 00000693 07A6          ADDL      ACC,XAR6              ; [CPU_ALU] |149| 
    5081 00000694 1E93          MOVL      *+XAR3[AR0],ACC       ; [CPU_ALU] |149| 
    5082                      .dwpsn  file "D:/GIANT/GIANT_TI_instaspin/TI_instaspin_indoor_smart_trainer/motorware/motorware_1_01_
    5083 00000695 28A9          MOV       AL,#46039             ; [CPU_ALU] |133| 
         00000696 B3D7 
    5084 00000697 9BDD          MOV       AH,#221               ; [CPU_ALU] |133| 
    5085                      .dwpsn  file "D:/GIANT/GIANT_TI_instaspin/TI_instaspin_indoor_smart_trainer/motorware/motorware_1_01_
    5086 00000698 D0BC          MOVB      XAR0,#188             ; [CPU_ALU] |132| 
    5087                      .dwpsn  file "D:/GIANT/GIANT_TI_instaspin/TI_instaspin_indoor_smart_trainer/motorware/motorware_1_01_
TMS320C2000 Assembler PC v22.6.0 Tue Apr 18 11:09:46 2023

Copyright (c) 1996-2018 Texas Instruments Incorporated
C:\Users\User\AppData\Local\Temp\{F169EDD6-E2A2-400A-8386-A823CBD75D49} PAGE   98

    5088 00000699 1EAC          MOVL      XT,ACC                ; [CPU_ALU] |133| 
    5089                      .dwpsn  file "D:/GIANT/GIANT_TI_instaspin/TI_instaspin_indoor_smart_trainer/motorware/motorware_1_01_
    5090 0000069a C493          MOVL      XAR6,*+XAR3[AR0]      ; [CPU_ALU] |132| 
    5091                      .dwpsn  file "D:/GIANT/GIANT_TI_instaspin/TI_instaspin_indoor_smart_trainer/motorware/motorware_1_01_
    5092 0000069b D0BE          MOVB      XAR0,#190             ; [CPU_ALU] |133| 
    5093                      .dwpsn  file "D:/GIANT/GIANT_TI_instaspin/TI_instaspin_indoor_smart_trainer/motorware/motorware_1_01_
    5094 0000069c 8A54          MOVL      XAR4,*-SP[20]         ; [CPU_ALU] |149| 
    5095                      .dwpsn  file "D:/GIANT/GIANT_TI_instaspin/TI_instaspin_indoor_smart_trainer/motorware/motorware_1_01_
    5096 0000069d 5605          IMPYL     P,XT,*+XAR3[AR0]      ; [CPU_ALU] |133| 
         0000069e 0093 
    5097 0000069f 5663          QMPYL     ACC,XT,*+XAR3[AR0]    ; [CPU_ALU] |133| 
         000006a0 0093 
    5098 000006a1 56A7          LSL64     ACC:P,#8              ; [CPU_ALU] |133| 
    5099 000006a2 8EA9          MOVL      XAR0,ACC              ; [CPU_ALU] |133| 
    5100 000006a3 06A6          MOVL      ACC,XAR6              ; [CPU_ALU] |133| 
    5101 000006a4 FF40          SFR       ACC,1                 ; [CPU_ALU] |133| 
    5102 000006a5 FF54          NEG       ACC                   ; [CPU_ALU] |133| 
    5103 000006a6 FF5A          MOVL      P,ACC                 ; [CPU_ALU] |133| 
    5104 000006a7 3AA9          MOVL      ACC,XAR0              ; [CPU_ALU] |133| 
    5105 000006a8 07AB          ADDL      ACC,P                 ; [CPU_ALU] |133| 
    5106 000006a9 83A9          MOVL      XAR5,ACC              ; [CPU_ALU] |133| 
    5107                      .dwpsn  file "D:/GIANT/GIANT_TI_instaspin/TI_instaspin_indoor_smart_trainer/motorware/motorware_1_01_
    5108 000006aa 565D          SUBUL     P,XAR0                ; [CPU_ALU] |134| 
         000006ab 00A0 
    5109 000006ac A9A7          MOVL      XAR7,P                ; [CPU_ALU] |134| 
    5110                      .dwpsn  file "D:/GIANT/GIANT_TI_instaspin/TI_instaspin_indoor_smart_trainer/motorware/motorware_1_01_
    5111 000006ad 0FA6          CMPL      ACC,XAR6              ; [CPU_ALU] |140| 
    5112 000006ae 6404          B         $C$L57,LT             ; [CPU_ALU] |140| 
    5113                      ; branchcc occurs ; [] |140| 
    5114                      .dwpsn  file "D:/GIANT/GIANT_TI_instaspin/TI_instaspin_indoor_smart_trainer/motorware/motorware_1_01_
    5115 000006af FF5A          MOVL      P,ACC                 ; [CPU_ALU] |147| 
    5116                      .dwpsn  file "D:/GIANT/GIANT_TI_instaspin/TI_instaspin_indoor_smart_trainer/motorware/motorware_1_01_
    5117 000006b0 87A6          MOVL      XT,XAR6               ; [CPU_ALU] |148| 
    5118 000006b1 6F03          B         $C$L58,UNC            ; [CPU_ALU] |148| 
    5119                      ; branch occurs ; [] |148| 
    5120 000006b2       $C$L57:    
    5121                      .dwpsn  file "D:/GIANT/GIANT_TI_instaspin/TI_instaspin_indoor_smart_trainer/motorware/motorware_1_01_
    5122 000006b2 A3A6          MOVL      P,XAR6                ; [CPU_ALU] |142| 
    5123                      .dwpsn  file "D:/GIANT/GIANT_TI_instaspin/TI_instaspin_indoor_smart_trainer/motorware/motorware_1_01_
    5124 000006b3 1EAC          MOVL      XT,ACC                ; [CPU_ALU] |143| 
    5125 000006b4       $C$L58:    
    5126 000006b4 A9A9          MOVL      ACC,P                 ; [CPU_ALU] 
    5127                      .dwpsn  file "D:/GIANT/GIANT_TI_instaspin/TI_instaspin_indoor_smart_trainer/motorware/motorware_1_01_
    5128 000006b5 0FA7          CMPL      ACC,XAR7              ; [CPU_ALU] |151| 
    5129 000006b6 FFE4          B         $C$L76,LT             ; [CPU_ALU] |151| 
         000006b7 024A 
    5130                      ; branchcc occurs ; [] |151| 
    5131 000006b8 ABA9          MOVL      ACC,XT                ; [CPU_ALU] 
    5132                      .dwpsn  file "D:/GIANT/GIANT_TI_instaspin/TI_instaspin_indoor_smart_trainer/motorware/motorware_1_01_
    5133 000006b9 0FA7          CMPL      ACC,XAR7              ; [CPU_ALU] |155| 
    5134 000006ba FFE5          B         $C$L77,LEQ            ; [CPU_ALU] |155| 
         000006bb 0247 
    5135                      ; branchcc occurs ; [] |155| 
    5136                      .dwpsn  file "D:/GIANT/GIANT_TI_instaspin/TI_instaspin_indoor_smart_trainer/motorware/motorware_1_01_
    5137 000006bc FFEF          B         $C$L75,UNC            ; [CPU_ALU] |157| 
TMS320C2000 Assembler PC v22.6.0 Tue Apr 18 11:09:46 2023

Copyright (c) 1996-2018 Texas Instruments Incorporated
C:\Users\User\AppData\Local\Temp\{F169EDD6-E2A2-400A-8386-A823CBD75D49} PAGE   99

         000006bd 0242 
    5138                      ; branch occurs ; [] |157| 
    5139 000006be       $C$L59:    
    5140                      .dwpsn  file "D:/GIANT/GIANT_TI_instaspin/TI_instaspin_indoor_smart_trainer/motorware/motorware_1_01_
    5141 000006be D008          MOVB      XAR0,#8               ; [CPU_ALU] |125| 
    5142                      .dwpsn  file "D:/GIANT/GIANT_TI_instaspin/TI_instaspin_indoor_smart_trainer/motorware/motorware_1_01_
    5143 000006bf A2A9          MOVL      ACC,XAR3              ; [CPU_ALU] |120| 
    5144                      .dwpsn  file "D:/GIANT/GIANT_TI_instaspin/TI_instaspin_indoor_smart_trainer/motorware/motorware_1_01_
    5145 000006c0 8393          MOVL      XAR5,*+XAR3[AR0]      ; [CPU_ALU] |125| 
    5146                      .dwpsn  file "D:/GIANT/GIANT_TI_instaspin/TI_instaspin_indoor_smart_trainer/motorware/motorware_1_01_
    5147 000006c1 09AA          ADDB      ACC,#170              ; [CPU_ALU] |120| 
    5148 000006c2 8BA9          MOVL      XAR1,ACC              ; [CPU_ALU] |120| 
    5149 000006c3 8AA9          MOVL      XAR4,ACC              ; [CPU_ALU] |120| 
    5150                      .dwpsn  file "D:/GIANT/GIANT_TI_instaspin/TI_instaspin_indoor_smart_trainer/motorware/motorware_1_01_
    5151 000006c4 C4C5          MOVL      XAR6,*+XAR5[0]        ; [CPU_ALU] |125| 
    5152                      .dwpsn  file "D:/GIANT/GIANT_TI_instaspin/TI_instaspin_indoor_smart_trainer/motorware/motorware_1_01_
    5153 000006c5 C5D5          MOVL      XAR7,*+XAR5[2]        ; [CPU_ALU] |126| 
    5154                      .dwpsn  file "D:/GIANT/GIANT_TI_instaspin/TI_instaspin_indoor_smart_trainer/motorware/motorware_1_01_
    5155 000006c6 92E5          MOV       AL,*+XAR5[4]          ; [CPU_ALU] |129| 
    5156 000006c7 5203          CMPB      AL,#3                 ; [CPU_ALU] |129| 
    5157 000006c8 6116          B         $C$L60,EQ             ; [CPU_ALU] |129| 
    5158                      ; branchcc occurs ; [] |129| 
    5159                      .dwpsn  file "D:/GIANT/GIANT_TI_instaspin/TI_instaspin_indoor_smart_trainer/motorware/motorware_1_01_
    5160 000006c9 5202          CMPB      AL,#2                 ; [CPU_ALU] |134| 
    5161 000006ca 6028          B         $C$L61,NEQ            ; [CPU_ALU] |134| 
    5162                      ; branchcc occurs ; [] |134| 
    5163                      .dwpsn  file "D:/GIANT/GIANT_TI_instaspin/TI_instaspin_indoor_smart_trainer/motorware/motorware_1_01_
    5164 000006cb 87C2          MOVL      XT,*+XAR2[0]          ; [CPU_ALU] |136| 
    5165 000006cc 5605          IMPYL     P,XT,XAR6             ; [CPU_ALU] |136| 
         000006cd 00A6 
    5166 000006ce 5663          QMPYL     ACC,XT,XAR6           ; [CPU_ALU] |136| 
         000006cf 00A6 
    5167                      .dwpsn  file "D:/GIANT/GIANT_TI_instaspin/TI_instaspin_indoor_smart_trainer/motorware/motorware_1_01_
    5168 000006d0 D0AC          MOVB      XAR0,#172             ; [CPU_ALU] |137| 
    5169                      .dwpsn  file "D:/GIANT/GIANT_TI_instaspin/TI_instaspin_indoor_smart_trainer/motorware/motorware_1_01_
    5170 000006d1 56A7          LSL64     ACC:P,#8              ; [CPU_ALU] |136| 
    5171 000006d2 1EC1          MOVL      *+XAR1[0],ACC         ; [CPU_ALU] |136| 
    5172                      .dwpsn  file "D:/GIANT/GIANT_TI_instaspin/TI_instaspin_indoor_smart_trainer/motorware/motorware_1_01_
    5173 000006d3 06D2          MOVL      ACC,*+XAR2[2]         ; [CPU_ALU] |137| 
    5174 000006d4 FF30          LSL       ACC,1                 ; [CPU_ALU] |137| 
    5175 000006d5 07C2          ADDL      ACC,*+XAR2[0]         ; [CPU_ALU] |137| 
    5176 000006d6 1EAC          MOVL      XT,ACC                ; [CPU_ALU] |137| 
    5177 000006d7 5605          IMPYL     P,XT,XAR7             ; [CPU_ALU] |137| 
         000006d8 00A7 
    5178 000006d9 5663          QMPYL     ACC,XT,XAR7           ; [CPU_ALU] |137| 
         000006da 00A7 
    5179 000006db 56A7          LSL64     ACC:P,#8              ; [CPU_ALU] |137| 
    5180 000006dc 1E93          MOVL      *+XAR3[AR0],ACC       ; [CPU_ALU] |137| 
    5181 000006dd 6F15          B         $C$L61,UNC            ; [CPU_ALU] |137| 
    5182                      ; branch occurs ; [] |137| 
    5183 000006de       $C$L60:    
    5184                      .dwpsn  file "D:/GIANT/GIANT_TI_instaspin/TI_instaspin_indoor_smart_trainer/motorware/motorware_1_01_
    5185 000006de 06C2          MOVL      ACC,*+XAR2[0]         ; [CPU_ALU] |131| 
    5186 000006df FF30          LSL       ACC,1                 ; [CPU_ALU] |131| 
    5187 000006e0 03D2          SUBL      ACC,*+XAR2[2]         ; [CPU_ALU] |131| 
TMS320C2000 Assembler PC v22.6.0 Tue Apr 18 11:09:46 2023

Copyright (c) 1996-2018 Texas Instruments Incorporated
C:\Users\User\AppData\Local\Temp\{F169EDD6-E2A2-400A-8386-A823CBD75D49} PAGE  100

    5188 000006e1 03E2          SUBL      ACC,*+XAR2[4]         ; [CPU_ALU] |131| 
    5189 000006e2 1EAC          MOVL      XT,ACC                ; [CPU_ALU] |131| 
    5190 000006e3 5605          IMPYL     P,XT,XAR6             ; [CPU_ALU] |131| 
         000006e4 00A6 
    5191 000006e5 5663          QMPYL     ACC,XT,XAR6           ; [CPU_ALU] |131| 
         000006e6 00A6 
    5192 000006e7 56A7          LSL64     ACC:P,#8              ; [CPU_ALU] |131| 
    5193 000006e8 1EC4          MOVL      *+XAR4[0],ACC         ; [CPU_ALU] |131| 
    5194                      .dwpsn  file "D:/GIANT/GIANT_TI_instaspin/TI_instaspin_indoor_smart_trainer/motorware/motorware_1_01_
    5195 000006e9 06D2          MOVL      ACC,*+XAR2[2]         ; [CPU_ALU] |132| 
    5196 000006ea 03E2          SUBL      ACC,*+XAR2[4]         ; [CPU_ALU] |132| 
    5197 000006eb 1EAC          MOVL      XT,ACC                ; [CPU_ALU] |132| 
    5198 000006ec 5605          IMPYL     P,XT,XAR7             ; [CPU_ALU] |132| 
         000006ed 00A7 
    5199 000006ee 5663          QMPYL     ACC,XT,XAR7           ; [CPU_ALU] |132| 
         000006ef 00A7 
    5200 000006f0 56A7          LSL64     ACC:P,#8              ; [CPU_ALU] |132| 
    5201 000006f1 1ED4          MOVL      *+XAR4[2],ACC         ; [CPU_ALU] |132| 
    5202 000006f2       $C$L61:    
    5203                      .dwpsn  file "D:/GIANT/GIANT_TI_instaspin/TI_instaspin_indoor_smart_trainer/motorware/motorware_1_01_
    5204 000006f2 D010          MOVB      XAR0,#16              ; [CPU_ALU] |125| 
    5205                      .dwpsn  file "D:/GIANT/GIANT_TI_instaspin/TI_instaspin_indoor_smart_trainer/motorware/motorware_1_01_
    5206 000006f3 A2A9          MOVL      ACC,XAR3              ; [CPU_ALU] |120| 
    5207 000006f4 8AA2          MOVL      XAR4,XAR2             ; [CPU_ALU] |120| 
    5208                      .dwpsn  file "D:/GIANT/GIANT_TI_instaspin/TI_instaspin_indoor_smart_trainer/motorware/motorware_1_01_
    5209 000006f5 C593          MOVL      XAR7,*+XAR3[AR0]      ; [CPU_ALU] |125| 
    5210                      .dwpsn  file "D:/GIANT/GIANT_TI_instaspin/TI_instaspin_indoor_smart_trainer/motorware/motorware_1_01_
    5211 000006f6 09B6          ADDB      ACC,#182              ; [CPU_ALU] |120| 
    5212 000006f7 1EA6          MOVL      XAR6,ACC              ; [CPU_ALU] |120| 
    5213 000006f8 83A9          MOVL      XAR5,ACC              ; [CPU_ALU] |120| 
    5214                      .dwpsn  file "D:/GIANT/GIANT_TI_instaspin/TI_instaspin_indoor_smart_trainer/motorware/motorware_1_01_
    5215 000006f9 8EC7          MOVL      XAR0,*+XAR7[0]        ; [CPU_ALU] |125| 
    5216                      .dwpsn  file "D:/GIANT/GIANT_TI_instaspin/TI_instaspin_indoor_smart_trainer/motorware/motorware_1_01_
    5217 000006fa DC06          ADDB      XAR4,#6               ; [CPU_ALU] |120| 
    5218                      .dwpsn  file "D:/GIANT/GIANT_TI_instaspin/TI_instaspin_indoor_smart_trainer/motorware/motorware_1_01_
    5219 000006fb 06D7          MOVL      ACC,*+XAR7[2]         ; [CPU_ALU] |126| 
    5220 000006fc 1E52          MOVL      *-SP[18],ACC          ; [CPU_ALU] |126| 
    5221                      .dwpsn  file "D:/GIANT/GIANT_TI_instaspin/TI_instaspin_indoor_smart_trainer/motorware/motorware_1_01_
    5222 000006fd 92E7          MOV       AL,*+XAR7[4]          ; [CPU_ALU] |129| 
    5223 000006fe 5203          CMPB      AL,#3                 ; [CPU_ALU] |129| 
    5224 000006ff 6119          B         $C$L62,EQ             ; [CPU_ALU] |129| 
    5225                      ; branchcc occurs ; [] |129| 
    5226                      .dwpsn  file "D:/GIANT/GIANT_TI_instaspin/TI_instaspin_indoor_smart_trainer/motorware/motorware_1_01_
    5227 00000700 5202          CMPB      AL,#2                 ; [CPU_ALU] |134| 
    5228 00000701 602D          B         $C$L63,NEQ            ; [CPU_ALU] |134| 
    5229                      ; branchcc occurs ; [] |134| 
    5230                      .dwpsn  file "D:/GIANT/GIANT_TI_instaspin/TI_instaspin_indoor_smart_trainer/motorware/motorware_1_01_
    5231 00000702 87C4          MOVL      XT,*+XAR4[0]          ; [CPU_ALU] |136| 
    5232 00000703 5605          IMPYL     P,XT,XAR0             ; [CPU_ALU] |136| 
         00000704 00A0 
    5233 00000705 5663          QMPYL     ACC,XT,XAR0           ; [CPU_ALU] |136| 
         00000706 00A0 
    5234                      .dwpsn  file "D:/GIANT/GIANT_TI_instaspin/TI_instaspin_indoor_smart_trainer/motorware/motorware_1_01_
    5235 00000707 D008          MOVB      XAR0,#8               ; [CPU_ALU] |137| 
    5236                      .dwpsn  file "D:/GIANT/GIANT_TI_instaspin/TI_instaspin_indoor_smart_trainer/motorware/motorware_1_01_
TMS320C2000 Assembler PC v22.6.0 Tue Apr 18 11:09:46 2023

Copyright (c) 1996-2018 Texas Instruments Incorporated
C:\Users\User\AppData\Local\Temp\{F169EDD6-E2A2-400A-8386-A823CBD75D49} PAGE  101

    5237 00000708 56A7          LSL64     ACC:P,#8              ; [CPU_ALU] |136| 
    5238 00000709 1EC6          MOVL      *+XAR6[0],ACC         ; [CPU_ALU] |136| 
    5239                      .dwpsn  file "D:/GIANT/GIANT_TI_instaspin/TI_instaspin_indoor_smart_trainer/motorware/motorware_1_01_
    5240 0000070a C552          MOVL      XAR7,*-SP[18]         ; [CPU_ALU] |137| 
    5241 0000070b 0692          MOVL      ACC,*+XAR2[AR0]       ; [CPU_ALU] |137| 
    5242 0000070c FF30          LSL       ACC,1                 ; [CPU_ALU] |137| 
    5243 0000070d D0B8          MOVB      XAR0,#184             ; [CPU_ALU] |137| 
    5244 0000070e 07C4          ADDL      ACC,*+XAR4[0]         ; [CPU_ALU] |137| 
    5245 0000070f 1EAC          MOVL      XT,ACC                ; [CPU_ALU] |137| 
    5246 00000710 0652          MOVL      ACC,*-SP[18]          ; [CPU_ALU] |137| 
    5247 00000711 5605          IMPYL     P,XT,XAR7             ; [CPU_ALU] |137| 
         00000712 00A7 
    5248 00000713 5663          QMPYL     ACC,XT,ACC            ; [CPU_ALU] |137| 
         00000714 00A9 
    5249 00000715 56A7          LSL64     ACC:P,#8              ; [CPU_ALU] |137| 
    5250 00000716 1E93          MOVL      *+XAR3[AR0],ACC       ; [CPU_ALU] |137| 
    5251 00000717 6F17          B         $C$L63,UNC            ; [CPU_ALU] |137| 
    5252                      ; branch occurs ; [] |137| 
    5253 00000718       $C$L62:    
    5254                      .dwpsn  file "D:/GIANT/GIANT_TI_instaspin/TI_instaspin_indoor_smart_trainer/motorware/motorware_1_01_
    5255 00000718 06C4          MOVL      ACC,*+XAR4[0]         ; [CPU_ALU] |131| 
    5256 00000719 FF30          LSL       ACC,1                 ; [CPU_ALU] |131| 
    5257 0000071a 03D4          SUBL      ACC,*+XAR4[2]         ; [CPU_ALU] |131| 
    5258 0000071b 03E4          SUBL      ACC,*+XAR4[4]         ; [CPU_ALU] |131| 
    5259 0000071c 1EAC          MOVL      XT,ACC                ; [CPU_ALU] |131| 
    5260 0000071d 5605          IMPYL     P,XT,XAR0             ; [CPU_ALU] |131| 
         0000071e 00A0 
    5261 0000071f 5663          QMPYL     ACC,XT,XAR0           ; [CPU_ALU] |131| 
         00000720 00A0 
    5262 00000721 56A7          LSL64     ACC:P,#8              ; [CPU_ALU] |131| 
    5263 00000722 1EC5          MOVL      *+XAR5[0],ACC         ; [CPU_ALU] |131| 
    5264                      .dwpsn  file "D:/GIANT/GIANT_TI_instaspin/TI_instaspin_indoor_smart_trainer/motorware/motorware_1_01_
    5265 00000723 C552          MOVL      XAR7,*-SP[18]         ; [CPU_ALU] |132| 
    5266 00000724 06D4          MOVL      ACC,*+XAR4[2]         ; [CPU_ALU] |132| 
    5267 00000725 03E4          SUBL      ACC,*+XAR4[4]         ; [CPU_ALU] |132| 
    5268 00000726 1EAC          MOVL      XT,ACC                ; [CPU_ALU] |132| 
    5269 00000727 0652          MOVL      ACC,*-SP[18]          ; [CPU_ALU] |132| 
    5270 00000728 5605          IMPYL     P,XT,XAR7             ; [CPU_ALU] |132| 
         00000729 00A7 
    5271 0000072a 5663          QMPYL     ACC,XT,ACC            ; [CPU_ALU] |132| 
         0000072b 00A9 
    5272 0000072c 56A7          LSL64     ACC:P,#8              ; [CPU_ALU] |132| 
    5273 0000072d 1ED5          MOVL      *+XAR5[2],ACC         ; [CPU_ALU] |132| 
    5274 0000072e       $C$L63:    
    5275                      .dwpsn  file "D:/GIANT/GIANT_TI_instaspin/TI_instaspin_indoor_smart_trainer/motorware/motorware_1_01_
    5276 0000072e C242          MOVL      *-SP[2],XAR6          ; [CPU_ALU] |2363| 
    5277 0000072f D06C          MOVB      XAR0,#108             ; [CPU_ALU] |2363| 
    5278 00000730 8A93          MOVL      XAR4,*+XAR3[AR0]      ; [CPU_ALU] |2363| 
    5279 00000731 83A1          MOVL      XAR5,XAR1             ; [CPU_ALU] |2363| 
    5280 00000732 D018          MOVB      XAR0,#24              ; [CPU_ALU] |2363| 
    5281 00000733 06D4          MOVL      ACC,*+XAR4[2]         ; [CPU_ALU] |2363| 
    5282 00000734 1E44          MOVL      *-SP[4],ACC           ; [CPU_ALU] |2363| 
    5283 00000735 8A93          MOVL      XAR4,*+XAR3[AR0]      ; [CPU_ALU] |2363| 
    5284 00000736 D00C          MOVB      XAR0,#12              ; [CPU_ALU] |2363| 
    5285 00000737 0692          MOVL      ACC,*+XAR2[AR0]       ; [CPU_ALU] |2363| 
TMS320C2000 Assembler PC v22.6.0 Tue Apr 18 11:09:46 2023

Copyright (c) 1996-2018 Texas Instruments Incorporated
C:\Users\User\AppData\Local\Temp\{F169EDD6-E2A2-400A-8386-A823CBD75D49} PAGE  102

    5286              $C$DW$395       .dwtag  DW_TAG_TI_branch
    5287                      .dwattr $C$DW$395, DW_AT_low_pc(0x00)
    5288                      .dwattr $C$DW$395, DW_AT_name("_EST_run")
    5289                      .dwattr $C$DW$395, DW_AT_TI_call
    5290              
    5291 00000738 7640!         LCR       #_EST_run             ; [CPU_ALU] |2363| 
         00000739 0000 
    5292                      ; call occurs [#_EST_run] ; [] |2363| 
    5293                      .dwpsn  file "D:/GIANT/GIANT_TI_instaspin/TI_instaspin_indoor_smart_trainer/motorware/motorware_1_01_
    5294 0000073a D018          MOVB      XAR0,#24              ; [CPU_ALU] |2368| 
    5295 0000073b 8A93          MOVL      XAR4,*+XAR3[AR0]      ; [CPU_ALU] |2368| 
    5296              $C$DW$396       .dwtag  DW_TAG_TI_branch
    5297                      .dwattr $C$DW$396, DW_AT_low_pc(0x00)
    5298                      .dwattr $C$DW$396, DW_AT_name("_EST_getAngle_pu")
    5299                      .dwattr $C$DW$396, DW_AT_TI_call
    5300              
    5301 0000073c 7640!         LCR       #_EST_getAngle_pu     ; [CPU_ALU] |2368| 
         0000073d 0000 
    5302                      ; call occurs [#_EST_getAngle_pu] ; [] |2368| 
    5303 0000073e 86A9          MOVL      XAR2,ACC              ; [CPU_ALU] |2368| 
    5304                      .dwpsn  file "D:/GIANT/GIANT_TI_instaspin/TI_instaspin_indoor_smart_trainer/motorware/motorware_1_01_
    5305              $C$DW$397       .dwtag  DW_TAG_TI_branch
    5306                      .dwattr $C$DW$397, DW_AT_low_pc(0x00)
    5307                      .dwattr $C$DW$397, DW_AT_name("__IQ24cosPU")
    5308                      .dwattr $C$DW$397, DW_AT_TI_call
    5309              
    5310 0000073f 7640!         LCR       #__IQ24cosPU          ; [CPU_ALU] |2044| 
         00000740 0000 
    5311                      ; call occurs [#__IQ24cosPU] ; [] |2044| 
    5312 00000741 1E4C          MOVL      *-SP[12],ACC          ; [CPU_ALU] |2044| 
    5313                      .dwpsn  file "D:/GIANT/GIANT_TI_instaspin/TI_instaspin_indoor_smart_trainer/motorware/motorware_1_01_
    5314 00000742 AAA9          MOVL      ACC,XAR2              ; [CPU_ALU] |2045| 
    5315              $C$DW$398       .dwtag  DW_TAG_TI_branch
    5316                      .dwattr $C$DW$398, DW_AT_low_pc(0x00)
    5317                      .dwattr $C$DW$398, DW_AT_name("__IQ24sinPU")
    5318                      .dwattr $C$DW$398, DW_AT_TI_call
    5319              
    5320 00000743 7640!         LCR       #__IQ24sinPU          ; [CPU_ALU] |2045| 
         00000744 0000 
    5321                      ; call occurs [#__IQ24sinPU] ; [] |2045| 
    5322                      .dwpsn  file "D:/GIANT/GIANT_TI_instaspin/TI_instaspin_indoor_smart_trainer/motorware/motorware_1_01_
    5323 00000745 D01A          MOVB      XAR0,#26              ; [CPU_ALU] |172| 
    5324                      .dwpsn  file "D:/GIANT/GIANT_TI_instaspin/TI_instaspin_indoor_smart_trainer/motorware/motorware_1_01_
    5325 00000746 1E4A          MOVL      *-SP[10],ACC          ; [CPU_ALU] |2045| 
    5326                      .dwpsn  file "D:/GIANT/GIANT_TI_instaspin/TI_instaspin_indoor_smart_trainer/motorware/motorware_1_01_
    5327 00000747 8A93          MOVL      XAR4,*+XAR3[AR0]      ; [CPU_ALU] |172| 
    5328                      .dwpsn  file "D:/GIANT/GIANT_TI_instaspin/TI_instaspin_indoor_smart_trainer/motorware/motorware_1_01_
    5329 00000748 064C          MOVL      ACC,*-SP[12]          ; [CPU_ALU] |175| 
    5330                      .dwpsn  file "D:/GIANT/GIANT_TI_instaspin/TI_instaspin_indoor_smart_trainer/motorware/motorware_1_01_
    5331 00000749 D01A          MOVB      XAR0,#26              ; [CPU_ALU] |141| 
    5332                      .dwpsn  file "D:/GIANT/GIANT_TI_instaspin/TI_instaspin_indoor_smart_trainer/motorware/motorware_1_01_
    5333 0000074a 1ED4          MOVL      *+XAR4[2],ACC         ; [CPU_ALU] |175| 
    5334                      .dwpsn  file "D:/GIANT/GIANT_TI_instaspin/TI_instaspin_indoor_smart_trainer/motorware/motorware_1_01_
    5335 0000074b 064A          MOVL      ACC,*-SP[10]          ; [CPU_ALU] |176| 
    5336 0000074c 1EC4          MOVL      *+XAR4[0],ACC         ; [CPU_ALU] |176| 
TMS320C2000 Assembler PC v22.6.0 Tue Apr 18 11:09:46 2023

Copyright (c) 1996-2018 Texas Instruments Incorporated
C:\Users\User\AppData\Local\Temp\{F169EDD6-E2A2-400A-8386-A823CBD75D49} PAGE  103

    5337                      .dwpsn  file "D:/GIANT/GIANT_TI_instaspin/TI_instaspin_indoor_smart_trainer/motorware/motorware_1_01_
    5338 0000074d 8A93          MOVL      XAR4,*+XAR3[AR0]      ; [CPU_ALU] |141| 
    5339                      .dwpsn  file "D:/GIANT/GIANT_TI_instaspin/TI_instaspin_indoor_smart_trainer/motorware/motorware_1_01_
    5340 0000074e 83C1          MOVL      XAR5,*+XAR1[0]        ; [CPU_ALU] |144| 
    5341                      .dwpsn  file "D:/GIANT/GIANT_TI_instaspin/TI_instaspin_indoor_smart_trainer/motorware/motorware_1_01_
    5342 0000074f D0AC          MOVB      XAR0,#172             ; [CPU_ALU] |145| 
    5343                      .dwpsn  file "D:/GIANT/GIANT_TI_instaspin/TI_instaspin_indoor_smart_trainer/motorware/motorware_1_01_
    5344 00000750 C5D4          MOVL      XAR7,*+XAR4[2]        ; [CPU_ALU] |142| 
    5345                      .dwpsn  file "D:/GIANT/GIANT_TI_instaspin/TI_instaspin_indoor_smart_trainer/motorware/motorware_1_01_
    5346 00000751 A0AC          MOVL      XT,XAR5               ; [CPU_ALU] |145| 
    5347                      .dwpsn  file "D:/GIANT/GIANT_TI_instaspin/TI_instaspin_indoor_smart_trainer/motorware/motorware_1_01_
    5348 00000752 C4C4          MOVL      XAR6,*+XAR4[0]        ; [CPU_ALU] |141| 
    5349                      .dwpsn  file "D:/GIANT/GIANT_TI_instaspin/TI_instaspin_indoor_smart_trainer/motorware/motorware_1_01_
    5350 00000753 8A93          MOVL      XAR4,*+XAR3[AR0]      ; [CPU_ALU] |145| 
    5351                      .dwpsn  file "D:/GIANT/GIANT_TI_instaspin/TI_instaspin_indoor_smart_trainer/motorware/motorware_1_01_
    5352 00000754 5605          IMPYL     P,XT,XAR7             ; [CPU_ALU] |148| 
         00000755 00A7 
    5353 00000756 5663          QMPYL     ACC,XT,XAR7           ; [CPU_ALU] |148| 
         00000757 00A7 
    5354 00000758 56A7          LSL64     ACC:P,#8              ; [CPU_ALU] |148| 
    5355 00000759 A8AC          MOVL      XT,XAR4               ; [CPU_ALU] |148| 
    5356 0000075a 8EA9          MOVL      XAR0,ACC              ; [CPU_ALU] |148| 
    5357 0000075b 5605          IMPYL     P,XT,XAR6             ; [CPU_ALU] |148| 
         0000075c 00A6 
    5358 0000075d 5663          QMPYL     ACC,XT,XAR6           ; [CPU_ALU] |148| 
         0000075e 00A6 
    5359 0000075f 56A7          LSL64     ACC:P,#8              ; [CPU_ALU] |148| 
    5360 00000760 A0AC          MOVL      XT,XAR5               ; [CPU_ALU] |148| 
    5361 00000761 07A0          ADDL      ACC,XAR0              ; [CPU_ALU] |148| 
    5362 00000762 D0B2          MOVB      XAR0,#178             ; [CPU_ALU] |148| 
    5363                      .dwpsn  file "D:/GIANT/GIANT_TI_instaspin/TI_instaspin_indoor_smart_trainer/motorware/motorware_1_01_
    5364 00000763 5605          IMPYL     P,XT,XAR6             ; [CPU_ALU] |149| 
         00000764 00A6 
    5365                      .dwpsn  file "D:/GIANT/GIANT_TI_instaspin/TI_instaspin_indoor_smart_trainer/motorware/motorware_1_01_
    5366 00000765 1E93          MOVL      *+XAR3[AR0],ACC       ; [CPU_ALU] |148| 
    5367                      .dwpsn  file "D:/GIANT/GIANT_TI_instaspin/TI_instaspin_indoor_smart_trainer/motorware/motorware_1_01_
    5368 00000766 D0B4          MOVB      XAR0,#180             ; [CPU_ALU] |149| 
    5369 00000767 5663          QMPYL     ACC,XT,XAR6           ; [CPU_ALU] |149| 
         00000768 00A6 
    5370 00000769 56A7          LSL64     ACC:P,#8              ; [CPU_ALU] |149| 
    5371 0000076a A8AC          MOVL      XT,XAR4               ; [CPU_ALU] |149| 
    5372 0000076b 1EA6          MOVL      XAR6,ACC              ; [CPU_ALU] |149| 
    5373 0000076c 5605          IMPYL     P,XT,XAR7             ; [CPU_ALU] |149| 
         0000076d 00A7 
    5374 0000076e 5663          QMPYL     ACC,XT,XAR7           ; [CPU_ALU] |149| 
         0000076f 00A7 
    5375 00000770 56A7          LSL64     ACC:P,#8              ; [CPU_ALU] |149| 
    5376 00000771 03A6          SUBL      ACC,XAR6              ; [CPU_ALU] |149| 
    5377 00000772 1E93          MOVL      *+XAR3[AR0],ACC       ; [CPU_ALU] |149| 
    5378                      .dwpsn  file "D:/GIANT/GIANT_TI_instaspin/TI_instaspin_indoor_smart_trainer/motorware/motorware_1_01_
    5379 00000773 D09E          MOVB      XAR0,#158             ; [CPU_ALU] |2076| 
    5380 00000774 9293          MOV       AL,*+XAR3[AR0]        ; [CPU_ALU] |2076| 
    5381 00000775 D0EE          MOVB      XAR0,#238             ; [CPU_ALU] |2076| 
    5382 00000776 5493          CMP       AL,*+XAR3[AR0]        ; [CPU_ALU] |2076| 
    5383 00000777 6643          B         $C$L64,HI             ; [CPU_ALU] |2076| 
TMS320C2000 Assembler PC v22.6.0 Tue Apr 18 11:09:46 2023

Copyright (c) 1996-2018 Texas Instruments Incorporated
C:\Users\User\AppData\Local\Temp\{F169EDD6-E2A2-400A-8386-A823CBD75D49} PAGE  104

    5384                      ; branchcc occurs ; [] |2076| 
    5385                      .dwpsn  file "D:/GIANT/GIANT_TI_instaspin/TI_instaspin_indoor_smart_trainer/motorware/motorware_1_01_
    5386 00000778 D06C          MOVB      XAR0,#108             ; [CPU_ALU] |96| 
    5387 00000779 8A93          MOVL      XAR4,*+XAR3[AR0]      ; [CPU_ALU] |96| 
    5388                      .dwpsn  file "D:/GIANT/GIANT_TI_instaspin/TI_instaspin_indoor_smart_trainer/motorware/motorware_1_01_
    5389 0000077a D018          MOVB      XAR0,#24              ; [CPU_ALU] |2387| 
    5390                      .dwpsn  file "D:/GIANT/GIANT_TI_instaspin/TI_instaspin_indoor_smart_trainer/motorware/motorware_1_01_
    5391 0000077b 8BD4          MOVL      XAR1,*+XAR4[2]        ; [CPU_ALU] |96| 
    5392                      .dwpsn  file "D:/GIANT/GIANT_TI_instaspin/TI_instaspin_indoor_smart_trainer/motorware/motorware_1_01_
    5393 0000077c 8A93          MOVL      XAR4,*+XAR3[AR0]      ; [CPU_ALU] |2387| 
    5394              $C$DW$399       .dwtag  DW_TAG_TI_branch
    5395                      .dwattr $C$DW$399, DW_AT_low_pc(0x00)
    5396                      .dwattr $C$DW$399, DW_AT_name("_EST_getFm_pu")
    5397                      .dwattr $C$DW$399, DW_AT_TI_call
    5398              
    5399 0000077d 7640!         LCR       #_EST_getFm_pu        ; [CPU_ALU] |2387| 
         0000077e 0000 
    5400                      ; call occurs [#_EST_getFm_pu] ; [] |2387| 
    5401                      .dwpsn  file "D:/GIANT/GIANT_TI_instaspin/TI_instaspin_indoor_smart_trainer/motorware/motorware_1_01_
    5402 0000077f D078          MOVB      XAR0,#120             ; [CPU_ALU] |96| 
    5403 00000780 8A93          MOVL      XAR4,*+XAR3[AR0]      ; [CPU_ALU] |96| 
    5404                      .dwpsn  file "D:/GIANT/GIANT_TI_instaspin/TI_instaspin_indoor_smart_trainer/motorware/motorware_1_01_
    5405 00000781 D0EE          MOVB      XAR0,#238             ; [CPU_ALU] |1100| 
    5406                      .dwpsn  file "D:/GIANT/GIANT_TI_instaspin/TI_instaspin_indoor_smart_trainer/motorware/motorware_1_01_
    5407 00000782 C5D4          MOVL      XAR7,*+XAR4[2]        ; [CPU_ALU] |96| 
    5408                      .dwpsn  file "D:/GIANT/GIANT_TI_instaspin/TI_instaspin_indoor_smart_trainer/motorware/motorware_1_01_
    5409 00000783 1EA6          MOVL      XAR6,ACC              ; [CPU_ALU] |2387| 
    5410                      .dwpsn  file "D:/GIANT/GIANT_TI_instaspin/TI_instaspin_indoor_smart_trainer/motorware/motorware_1_01_
    5411 00000784 2B93          MOV       *+XAR3[AR0],#0        ; [CPU_ALU] |1100| 
    5412                      .dwpsn  file "D:/GIANT/GIANT_TI_instaspin/TI_instaspin_indoor_smart_trainer/motorware/motorware_1_01_
    5413 00000785 D044          MOVB      XAR0,#68              ; [CPU_ALU] |508| 
    5414                      .dwpsn  file "D:/GIANT/GIANT_TI_instaspin/TI_instaspin_indoor_smart_trainer/motorware/motorware_1_01_
    5415 00000786 06A7          MOVL      ACC,XAR7              ; [CPU_ALU] |2389| 
    5416                      .dwpsn  file "D:/GIANT/GIANT_TI_instaspin/TI_instaspin_indoor_smart_trainer/motorware/motorware_1_01_
    5417 00000787 8393          MOVL      XAR5,*+XAR3[AR0]      ; [CPU_ALU] |508| 
    5418                      .dwpsn  file "D:/GIANT/GIANT_TI_instaspin/TI_instaspin_indoor_smart_trainer/motorware/motorware_1_01_
    5419 00000788 FF54          NEG       ACC                   ; [CPU_ALU] |2389| 
    5420                      .dwpsn  file "D:/GIANT/GIANT_TI_instaspin/TI_instaspin_indoor_smart_trainer/motorware/motorware_1_01_
    5421 00000789 D044          MOVB      XAR0,#68              ; [CPU_ALU] |511| 
    5422                      .dwpsn  file "D:/GIANT/GIANT_TI_instaspin/TI_instaspin_indoor_smart_trainer/motorware/motorware_1_01_
    5423 0000078a FF5A          MOVL      P,ACC                 ; [CPU_ALU] |2389| 
    5424                      .dwpsn  file "D:/GIANT/GIANT_TI_instaspin/TI_instaspin_indoor_smart_trainer/motorware/motorware_1_01_
    5425 0000078b 020C          MOVB      ACC,#12               ; [CPU_ALU] |511| 
    5426 0000078c 0793          ADDL      ACC,*+XAR3[AR0]       ; [CPU_ALU] |511| 
    5427 0000078d 8AA9          MOVL      XAR4,ACC              ; [CPU_ALU] |511| 
    5428                      .dwpsn  file "D:/GIANT/GIANT_TI_instaspin/TI_instaspin_indoor_smart_trainer/motorware/motorware_1_01_
    5429 0000078e D00E          MOVB      XAR0,#14              ; [CPU_ALU] |512| 
    5430                      .dwpsn  file "D:/GIANT/GIANT_TI_instaspin/TI_instaspin_indoor_smart_trainer/motorware/motorware_1_01_
    5431 0000078f A9C4          MOVL      *+XAR4[0],P           ; [CPU_ALU] |511| 
    5432                      .dwpsn  file "D:/GIANT/GIANT_TI_instaspin/TI_instaspin_indoor_smart_trainer/motorware/motorware_1_01_
    5433 00000790 B2AB          MOVL      P,XAR1                ; [CPU_ALU] |246| 
    5434                      .dwpsn  file "D:/GIANT/GIANT_TI_instaspin/TI_instaspin_indoor_smart_trainer/motorware/motorware_1_01_
    5435 00000791 C395          MOVL      *+XAR5[AR0],XAR7      ; [CPU_ALU] |512| 
    5436                      .dwpsn  file "D:/GIANT/GIANT_TI_instaspin/TI_instaspin_indoor_smart_trainer/motorware/motorware_1_01_
    5437 00000792 D044          MOVB      XAR0,#68              ; [CPU_ALU] |246| 
TMS320C2000 Assembler PC v22.6.0 Tue Apr 18 11:09:46 2023

Copyright (c) 1996-2018 Texas Instruments Incorporated
C:\Users\User\AppData\Local\Temp\{F169EDD6-E2A2-400A-8386-A823CBD75D49} PAGE  105

    5438                      .dwpsn  file "D:/GIANT/GIANT_TI_instaspin/TI_instaspin_indoor_smart_trainer/motorware/motorware_1_01_
    5439 00000793 565D          SUBUL     P,XAR6                ; [CPU_ALU] |255| 
         00000794 00A6 
    5440                      .dwpsn  file "D:/GIANT/GIANT_TI_instaspin/TI_instaspin_indoor_smart_trainer/motorware/motorware_1_01_
    5441 00000795 8A93          MOVL      XAR4,*+XAR3[AR0]      ; [CPU_ALU] |246| 
    5442                      .dwpsn  file "D:/GIANT/GIANT_TI_instaspin/TI_instaspin_indoor_smart_trainer/motorware/motorware_1_01_
    5443 00000796 A9A0          MOVL      XAR0,P                ; [CPU_ALU] |255| 
    5444                      .dwpsn  file "D:/GIANT/GIANT_TI_instaspin/TI_instaspin_indoor_smart_trainer/motorware/motorware_1_01_
    5445 00000797 C5A1          MOVL      XAR7,XAR1             ; [CPU_ALU] |246| 
    5446                      .dwpsn  file "D:/GIANT/GIANT_TI_instaspin/TI_instaspin_indoor_smart_trainer/motorware/motorware_1_01_
    5447 00000798 D10E          MOVB      XAR1,#14              ; [CPU_ALU] |256| 
    5448                      .dwpsn  file "D:/GIANT/GIANT_TI_instaspin/TI_instaspin_indoor_smart_trainer/motorware/motorware_1_01_
    5449 00000799 87C4          MOVL      XT,*+XAR4[0]          ; [CPU_ALU] |255| 
    5450 0000079a 5663          QMPYL     ACC,XT,XAR0           ; [CPU_ALU] |255| 
         0000079b 00A0 
    5451 0000079c 5605          IMPYL     P,XT,XAR0             ; [CPU_ALU] |255| 
         0000079d 00A0 
    5452 0000079e 56A7          LSL64     ACC:P,#8              ; [CPU_ALU] |255| 
    5453                      .dwpsn  file "D:/GIANT/GIANT_TI_instaspin/TI_instaspin_indoor_smart_trainer/motorware/motorware_1_01_
    5454 0000079f 87D4          MOVL      XT,*+XAR4[2]          ; [CPU_ALU] |256| 
    5455                      .dwpsn  file "D:/GIANT/GIANT_TI_instaspin/TI_instaspin_indoor_smart_trainer/motorware/motorware_1_01_
    5456 000007a0 83A9          MOVL      XAR5,ACC              ; [CPU_ALU] |255| 
    5457                      .dwpsn  file "D:/GIANT/GIANT_TI_instaspin/TI_instaspin_indoor_smart_trainer/motorware/motorware_1_01_
    5458 000007a1 5605          IMPYL     P,XT,XAR0             ; [CPU_ALU] |256| 
         000007a2 00A0 
    5459 000007a3 5663          QMPYL     ACC,XT,XAR0           ; [CPU_ALU] |256| 
         000007a4 00A0 
    5460 000007a5 D00C          MOVB      XAR0,#12              ; [CPU_ALU] |256| 
    5461 000007a6 56A7          LSL64     ACC:P,#8              ; [CPU_ALU] |256| 
    5462 000007a7 07F4          ADDL      ACC,*+XAR4[6]         ; [CPU_ALU] |256| 
    5463 000007a8 5650          MINL      ACC,*+XAR4[AR1]       ; [CPU_ALU] |256| 
         000007a9 009C 
    5464                      .dwpsn  file "D:/GIANT/GIANT_TI_instaspin/TI_instaspin_indoor_smart_trainer/motorware/motorware_1_01_
    5465 000007aa D10E          MOVB      XAR1,#14              ; [CPU_ALU] |262| 
    5466                      .dwpsn  file "D:/GIANT/GIANT_TI_instaspin/TI_instaspin_indoor_smart_trainer/motorware/motorware_1_01_
    5467 000007ab 5661          MAXL      ACC,*+XAR4[AR0]       ; [CPU_ALU] |256| 
         000007ac 0094 
    5468                      .dwpsn  file "D:/GIANT/GIANT_TI_instaspin/TI_instaspin_indoor_smart_trainer/motorware/motorware_1_01_
    5469 000007ad D008          MOVB      XAR0,#8               ; [CPU_ALU] |259| 
    5470                      .dwpsn  file "D:/GIANT/GIANT_TI_instaspin/TI_instaspin_indoor_smart_trainer/motorware/motorware_1_01_
    5471 000007ae 1EF4          MOVL      *+XAR4[6],ACC         ; [CPU_ALU] |258| 
    5472                      .dwpsn  file "D:/GIANT/GIANT_TI_instaspin/TI_instaspin_indoor_smart_trainer/motorware/motorware_1_01_
    5473 000007af 07A5          ADDL      ACC,XAR5              ; [CPU_ALU] |262| 
    5474                      .dwpsn  file "D:/GIANT/GIANT_TI_instaspin/TI_instaspin_indoor_smart_trainer/motorware/motorware_1_01_
    5475 000007b0 C394          MOVL      *+XAR4[AR0],XAR7      ; [CPU_ALU] |259| 
    5476                      .dwpsn  file "D:/GIANT/GIANT_TI_instaspin/TI_instaspin_indoor_smart_trainer/motorware/motorware_1_01_
    5477 000007b1 D00A          MOVB      XAR0,#10              ; [CPU_ALU] |260| 
    5478 000007b2 C294          MOVL      *+XAR4[AR0],XAR6      ; [CPU_ALU] |260| 
    5479                      .dwpsn  file "D:/GIANT/GIANT_TI_instaspin/TI_instaspin_indoor_smart_trainer/motorware/motorware_1_01_
    5480 000007b3 D00C          MOVB      XAR0,#12              ; [CPU_ALU] |262| 
    5481 000007b4 5650          MINL      ACC,*+XAR4[AR1]       ; [CPU_ALU] |262| 
         000007b5 009C 
    5482 000007b6 5661          MAXL      ACC,*+XAR4[AR0]       ; [CPU_ALU] |262| 
         000007b7 0094 
    5483 000007b8 D0BA          MOVB      XAR0,#186             ; [CPU_ALU] |262| 
TMS320C2000 Assembler PC v22.6.0 Tue Apr 18 11:09:46 2023

Copyright (c) 1996-2018 Texas Instruments Incorporated
C:\Users\User\AppData\Local\Temp\{F169EDD6-E2A2-400A-8386-A823CBD75D49} PAGE  106

    5484 000007b9 1E93          MOVL      *+XAR3[AR0],ACC       ; [CPU_ALU] |262| 
    5485 000007ba       $C$L64:    
    5486                      .dwpsn  file "D:/GIANT/GIANT_TI_instaspin/TI_instaspin_indoor_smart_trainer/motorware/motorware_1_01_
    5487 000007ba 9B00          MOVB      AH,#0                 ; [CPU_ALU] |2057| 
    5488                      .dwpsn  file "D:/GIANT/GIANT_TI_instaspin/TI_instaspin_indoor_smart_trainer/motorware/motorware_1_01_
    5489 000007bb 8D00          MOVL      XAR0,#262             ; [CPU_ALU] |2059| 
         000007bc 0106 
    5490 000007bd 9293          MOV       AL,*+XAR3[AR0]        ; [CPU_ALU] |2059| 
    5491 000007be 6106          B         $C$L65,EQ             ; [CPU_ALU] |2059| 
    5492                      ; branchcc occurs ; [] |2059| 
    5493 000007bf D09D          MOVB      XAR0,#157             ; [CPU_ALU] |2059| 
    5494 000007c0 9293          MOV       AL,*+XAR3[AR0]        ; [CPU_ALU] |2059| 
    5495 000007c1 D0EC          MOVB      XAR0,#236             ; [CPU_ALU] |2059| 
    5496 000007c2 5493          CMP       AL,*+XAR3[AR0]        ; [CPU_ALU] |2059| 
    5497 000007c3 6904          B         $C$L66,LOS            ; [CPU_ALU] |2059| 
    5498                      ; branchcc occurs ; [] |2059| 
    5499 000007c4       $C$L65:    
    5500 000007c4 5300          CMPB      AH,#0                 ; [CPU_ALU] |2059| 
    5501 000007c5 FFE1          B         $C$L71,EQ             ; [CPU_ALU] |2059| 
         000007c6 00BF 
    5502                      ; branchcc occurs ; [] |2059| 
    5503 000007c7       $C$L66:    
    5504                      .dwpsn  file "D:/GIANT/GIANT_TI_instaspin/TI_instaspin_indoor_smart_trainer/motorware/motorware_1_01_
    5505 000007c7 D0CA          MOVB      XAR0,#202             ; [CPU_ALU] |518| 
    5506 000007c8 8B93          MOVL      XAR1,*+XAR3[AR0]      ; [CPU_ALU] |518| 
    5507 000007c9 D0CC          MOVB      XAR0,#204             ; [CPU_ALU] |518| 
    5508 000007ca 0693          MOVL      ACC,*+XAR3[AR0]       ; [CPU_ALU] |518| 
    5509                      .dwpsn  file "D:/GIANT/GIANT_TI_instaspin/TI_instaspin_indoor_smart_trainer/motorware/motorware_1_01_
    5510 000007cb D0A8          MOVB      XAR0,#168             ; [CPU_ALU] |546| 
    5511                      .dwpsn  file "D:/GIANT/GIANT_TI_instaspin/TI_instaspin_indoor_smart_trainer/motorware/motorware_1_01_
    5512 000007cc 1E52          MOVL      *-SP[18],ACC          ; [CPU_ALU] |518| 
    5513                      .dwpsn  file "D:/GIANT/GIANT_TI_instaspin/TI_instaspin_indoor_smart_trainer/motorware/motorware_1_01_
    5514 000007cd 0693          MOVL      ACC,*+XAR3[AR0]       ; [CPU_ALU] |546| 
    5515                      .dwpsn  file "D:/GIANT/GIANT_TI_instaspin/TI_instaspin_indoor_smart_trainer/motorware/motorware_1_01_
    5516 000007ce D0EC          MOVB      XAR0,#236             ; [CPU_ALU] |1076| 
    5517                      .dwpsn  file "D:/GIANT/GIANT_TI_instaspin/TI_instaspin_indoor_smart_trainer/motorware/motorware_1_01_
    5518 000007cf 1E56          MOVL      *-SP[22],ACC          ; [CPU_ALU] |546| 
    5519                      .dwpsn  file "D:/GIANT/GIANT_TI_instaspin/TI_instaspin_indoor_smart_trainer/motorware/motorware_1_01_
    5520 000007d0 2B93          MOV       *+XAR3[AR0],#0        ; [CPU_ALU] |1076| 
    5521                      .dwpsn  file "D:/GIANT/GIANT_TI_instaspin/TI_instaspin_indoor_smart_trainer/motorware/motorware_1_01_
    5522 000007d1 D0F1          MOVB      XAR0,#241             ; [CPU_ALU] |2421| 
    5523 000007d2 9293          MOV       AL,*+XAR3[AR0]        ; [CPU_ALU] |2421| 
    5524 000007d3 610C          B         $C$L67,EQ             ; [CPU_ALU] |2421| 
    5525                      ; branchcc occurs ; [] |2421| 
    5526                      .dwpsn  file "D:/GIANT/GIANT_TI_instaspin/TI_instaspin_indoor_smart_trainer/motorware/motorware_1_01_
    5527 000007d4 D018          MOVB      XAR0,#24              ; [CPU_ALU] |2423| 
    5528 000007d5 8A93          MOVL      XAR4,*+XAR3[AR0]      ; [CPU_ALU] |2423| 
    5529              $C$DW$400       .dwtag  DW_TAG_TI_branch
    5530                      .dwattr $C$DW$400, DW_AT_low_pc(0x00)
    5531                      .dwattr $C$DW$400, DW_AT_name("_EST_getOneOverDcBus_pu")
    5532                      .dwattr $C$DW$400, DW_AT_TI_call
    5533              
    5534 000007d6 7640!         LCR       #_EST_getOneOverDcBus_pu ; [CPU_ALU] |2423| 
         000007d7 0000 
    5535                      ; call occurs [#_EST_getOneOverDcBus_pu] ; [] |2423| 
TMS320C2000 Assembler PC v22.6.0 Tue Apr 18 11:09:46 2023

Copyright (c) 1996-2018 Texas Instruments Incorporated
C:\Users\User\AppData\Local\Temp\{F169EDD6-E2A2-400A-8386-A823CBD75D49} PAGE  107

    5536 000007d8 B2AC          MOVL      XT,XAR1               ; [CPU_ALU] |2423| 
    5537 000007d9 5605          IMPYL     P,XT,ACC              ; [CPU_ALU] |2423| 
         000007da 00A9 
    5538 000007db 5663          QMPYL     ACC,XT,ACC            ; [CPU_ALU] |2423| 
         000007dc 00A9 
    5539 000007dd 56A7          LSL64     ACC:P,#8              ; [CPU_ALU] |2423| 
    5540 000007de 8BA9          MOVL      XAR1,ACC              ; [CPU_ALU] |2423| 
    5541 000007df       $C$L67:    
    5542                      .dwpsn  file "D:/GIANT/GIANT_TI_instaspin/TI_instaspin_indoor_smart_trainer/motorware/motorware_1_01_
    5543 000007df 5DAD          MOVZ      AR5,SP                ; [CPU_ALU] |2432| 
    5544                      .dwpsn  file "D:/GIANT/GIANT_TI_instaspin/TI_instaspin_indoor_smart_trainer/motorware/motorware_1_01_
    5545 000007e0 D020          MOVB      XAR0,#32              ; [CPU_ALU] |497| 
    5546 000007e1 8A93          MOVL      XAR4,*+XAR3[AR0]      ; [CPU_ALU] |497| 
    5547                      .dwpsn  file "D:/GIANT/GIANT_TI_instaspin/TI_instaspin_indoor_smart_trainer/motorware/motorware_1_01_
    5548 000007e2 D060          MOVB      XAR0,#96              ; [CPU_ALU] |2429| 
    5549                      .dwpsn  file "D:/GIANT/GIANT_TI_instaspin/TI_instaspin_indoor_smart_trainer/motorware/motorware_1_01_
    5550 000007e3 DD90          SUBB      XAR5,#16              ; [CPU_ARAU] |2432| 
    5551                      .dwpsn  file "D:/GIANT/GIANT_TI_instaspin/TI_instaspin_indoor_smart_trainer/motorware/motorware_1_01_
    5552 000007e4 B2C4          MOVL      *+XAR4[0],XAR1        ; [CPU_ALU] |497| 
    5553                      .dwpsn  file "D:/GIANT/GIANT_TI_instaspin/TI_instaspin_indoor_smart_trainer/motorware/motorware_1_01_
    5554 000007e5 5DA5          MOVZ      AR5,AR5               ; [CPU_ALU] |2432| 
    5555                      .dwpsn  file "D:/GIANT/GIANT_TI_instaspin/TI_instaspin_indoor_smart_trainer/motorware/motorware_1_01_
    5556 000007e6 8A93          MOVL      XAR4,*+XAR3[AR0]      ; [CPU_ALU] |2429| 
    5557 000007e7 D0E2          MOVB      XAR0,#226             ; [CPU_ALU] |2429| 
    5558 000007e8 0693          MOVL      ACC,*+XAR3[AR0]       ; [CPU_ALU] |2429| 
    5559                      .dwpsn  file "D:/GIANT/GIANT_TI_instaspin/TI_instaspin_indoor_smart_trainer/motorware/motorware_1_01_
    5560 000007e9 D018          MOVB      XAR0,#24              ; [CPU_ALU] |2432| 
    5561                      .dwpsn  file "D:/GIANT/GIANT_TI_instaspin/TI_instaspin_indoor_smart_trainer/motorware/motorware_1_01_
    5562 000007ea 07D4          ADDL      ACC,*+XAR4[2]         ; [CPU_ALU] |2429| 
    5563 000007eb 1E50          MOVL      *-SP[16],ACC          ; [CPU_ALU] |2429| 
    5564                      .dwpsn  file "D:/GIANT/GIANT_TI_instaspin/TI_instaspin_indoor_smart_trainer/motorware/motorware_1_01_
    5565 000007ec 8A93          MOVL      XAR4,*+XAR3[AR0]      ; [CPU_ALU] |2432| 
    5566              $C$DW$401       .dwtag  DW_TAG_TI_branch
    5567                      .dwattr $C$DW$401, DW_AT_low_pc(0x00)
    5568                      .dwattr $C$DW$401, DW_AT_name("_EST_updateId_ref_pu")
    5569                      .dwattr $C$DW$401, DW_AT_TI_call
    5570              
    5571 000007ed 7640!         LCR       #_EST_updateId_ref_pu ; [CPU_ALU] |2432| 
         000007ee 0000 
    5572                      ; call occurs [#_EST_updateId_ref_pu] ; [] |2432| 
    5573                      .dwpsn  file "D:/GIANT/GIANT_TI_instaspin/TI_instaspin_indoor_smart_trainer/motorware/motorware_1_01_
    5574 000007ef D0B2          MOVB      XAR0,#178             ; [CPU_ALU] |330| 
    5575 000007f0 C493          MOVL      XAR6,*+XAR3[AR0]      ; [CPU_ALU] |330| 
    5576                      .dwpsn  file "D:/GIANT/GIANT_TI_instaspin/TI_instaspin_indoor_smart_trainer/motorware/motorware_1_01_
    5577 000007f1 D020          MOVB      XAR0,#32              ; [CPU_ALU] |508| 
    5578 000007f2 8A93          MOVL      XAR4,*+XAR3[AR0]      ; [CPU_ALU] |508| 
    5579                      .dwpsn  file "D:/GIANT/GIANT_TI_instaspin/TI_instaspin_indoor_smart_trainer/motorware/motorware_1_01_
    5580 000007f3 0656          MOVL      ACC,*-SP[22]          ; [CPU_ALU] |511| 
    5581 000007f4 FF54          NEG       ACC                   ; [CPU_ALU] |511| 
    5582 000007f5 D00C          MOVB      XAR0,#12              ; [CPU_ALU] |511| 
    5583 000007f6 1E94          MOVL      *+XAR4[AR0],ACC       ; [CPU_ALU] |511| 
    5584                      .dwpsn  file "D:/GIANT/GIANT_TI_instaspin/TI_instaspin_indoor_smart_trainer/motorware/motorware_1_01_
    5585 000007f7 D00E          MOVB      XAR0,#14              ; [CPU_ALU] |512| 
    5586 000007f8 0656          MOVL      ACC,*-SP[22]          ; [CPU_ALU] |512| 
    5587 000007f9 1E94          MOVL      *+XAR4[AR0],ACC       ; [CPU_ALU] |512| 
TMS320C2000 Assembler PC v22.6.0 Tue Apr 18 11:09:46 2023

Copyright (c) 1996-2018 Texas Instruments Incorporated
C:\Users\User\AppData\Local\Temp\{F169EDD6-E2A2-400A-8386-A823CBD75D49} PAGE  108

    5588                      .dwpsn  file "D:/GIANT/GIANT_TI_instaspin/TI_instaspin_indoor_smart_trainer/motorware/motorware_1_01_
    5589 000007fa C550          MOVL      XAR7,*-SP[16]         ; [CPU_ALU] |218| 
    5590 000007fb D020          MOVB      XAR0,#32              ; [CPU_ALU] |218| 
    5591 000007fc 8A93          MOVL      XAR4,*+XAR3[AR0]      ; [CPU_ALU] |218| 
    5592                      .dwpsn  file "D:/GIANT/GIANT_TI_instaspin/TI_instaspin_indoor_smart_trainer/motorware/motorware_1_01_
    5593 000007fd D10E          MOVB      XAR1,#14              ; [CPU_ALU] |228| 
    5594                      .dwpsn  file "D:/GIANT/GIANT_TI_instaspin/TI_instaspin_indoor_smart_trainer/motorware/motorware_1_01_
    5595 000007fe 06A7          MOVL      ACC,XAR7              ; [CPU_ALU] |227| 
    5596                      .dwpsn  file "D:/GIANT/GIANT_TI_instaspin/TI_instaspin_indoor_smart_trainer/motorware/motorware_1_01_
    5597 000007ff D00C          MOVB      XAR0,#12              ; [CPU_ALU] |228| 
    5598                      .dwpsn  file "D:/GIANT/GIANT_TI_instaspin/TI_instaspin_indoor_smart_trainer/motorware/motorware_1_01_
    5599 00000800 87C4          MOVL      XT,*+XAR4[0]          ; [CPU_ALU] |227| 
    5600 00000801 03A6          SUBL      ACC,XAR6              ; [CPU_ALU] |227| 
    5601 00000802 5605          IMPYL     P,XT,ACC              ; [CPU_ALU] |227| 
         00000803 00A9 
    5602 00000804 5663          QMPYL     ACC,XT,ACC            ; [CPU_ALU] |227| 
         00000805 00A9 
    5603 00000806 56A7          LSL64     ACC:P,#8              ; [CPU_ALU] |227| 
    5604 00000807 1E58          MOVL      *-SP[24],ACC          ; [CPU_ALU] |227| 
    5605                      .dwpsn  file "D:/GIANT/GIANT_TI_instaspin/TI_instaspin_indoor_smart_trainer/motorware/motorware_1_01_
    5606 00000808 87D4          MOVL      XT,*+XAR4[2]          ; [CPU_ALU] |228| 
    5607 00000809 5605          IMPYL     P,XT,ACC              ; [CPU_ALU] |228| 
         0000080a 00A9 
    5608 0000080b 5663          QMPYL     ACC,XT,ACC            ; [CPU_ALU] |228| 
         0000080c 00A9 
    5609 0000080d 56A7          LSL64     ACC:P,#8              ; [CPU_ALU] |228| 
    5610 0000080e 07F4          ADDL      ACC,*+XAR4[6]         ; [CPU_ALU] |228| 
    5611 0000080f 5650          MINL      ACC,*+XAR4[AR1]       ; [CPU_ALU] |228| 
         00000810 009C 
    5612 00000811 5661          MAXL      ACC,*+XAR4[AR0]       ; [CPU_ALU] |228| 
         00000812 0094 
    5613                      .dwpsn  file "D:/GIANT/GIANT_TI_instaspin/TI_instaspin_indoor_smart_trainer/motorware/motorware_1_01_
    5614 00000813 D020          MOVB      XAR0,#32              ; [CPU_ALU] |230| 
    5615 00000814 8393          MOVL      XAR5,*+XAR3[AR0]      ; [CPU_ALU] |230| 
    5616                      .dwpsn  file "D:/GIANT/GIANT_TI_instaspin/TI_instaspin_indoor_smart_trainer/motorware/motorware_1_01_
    5617 00000815 D008          MOVB      XAR0,#8               ; [CPU_ALU] |231| 
    5618                      .dwpsn  file "D:/GIANT/GIANT_TI_instaspin/TI_instaspin_indoor_smart_trainer/motorware/motorware_1_01_
    5619 00000816 1EF5          MOVL      *+XAR5[6],ACC         ; [CPU_ALU] |230| 
    5620                      .dwpsn  file "D:/GIANT/GIANT_TI_instaspin/TI_instaspin_indoor_smart_trainer/motorware/motorware_1_01_
    5621 00000817 C394          MOVL      *+XAR4[AR0],XAR7      ; [CPU_ALU] |231| 
    5622                      .dwpsn  file "D:/GIANT/GIANT_TI_instaspin/TI_instaspin_indoor_smart_trainer/motorware/motorware_1_01_
    5623 00000818 D00A          MOVB      XAR0,#10              ; [CPU_ALU] |232| 
    5624 00000819 C294          MOVL      *+XAR4[AR0],XAR6      ; [CPU_ALU] |232| 
    5625                      .dwpsn  file "D:/GIANT/GIANT_TI_instaspin/TI_instaspin_indoor_smart_trainer/motorware/motorware_1_01_
    5626 0000081a C458          MOVL      XAR6,*-SP[24]         ; [CPU_ALU] |234| 
    5627 0000081b D10E          MOVB      XAR1,#14              ; [CPU_ALU] |234| 
    5628 0000081c D00C          MOVB      XAR0,#12              ; [CPU_ALU] |234| 
    5629 0000081d 07A6          ADDL      ACC,XAR6              ; [CPU_ALU] |234| 
    5630 0000081e 5650          MINL      ACC,*+XAR4[AR1]       ; [CPU_ALU] |234| 
         0000081f 009C 
    5631 00000820 5661          MAXL      ACC,*+XAR4[AR0]       ; [CPU_ALU] |234| 
         00000821 0094 
    5632 00000822 D0C0          MOVB      XAR0,#192             ; [CPU_ALU] |234| 
    5633 00000823 1E93          MOVL      *+XAR3[AR0],ACC       ; [CPU_ALU] |234| 
    5634                      .dwpsn  file "D:/GIANT/GIANT_TI_instaspin/TI_instaspin_indoor_smart_trainer/motorware/motorware_1_01_
TMS320C2000 Assembler PC v22.6.0 Tue Apr 18 11:09:46 2023

Copyright (c) 1996-2018 Texas Instruments Incorporated
C:\Users\User\AppData\Local\Temp\{F169EDD6-E2A2-400A-8386-A823CBD75D49} PAGE  109

    5635 00000824 D0F1          MOVB      XAR0,#241             ; [CPU_ALU] |2452| 
    5636 00000825 9293          MOV       AL,*+XAR3[AR0]        ; [CPU_ALU] |2452| 
    5637 00000826 610C          B         $C$L68,EQ             ; [CPU_ALU] |2452| 
    5638                      ; branchcc occurs ; [] |2452| 
    5639                      .dwpsn  file "D:/GIANT/GIANT_TI_instaspin/TI_instaspin_indoor_smart_trainer/motorware/motorware_1_01_
    5640 00000827 D018          MOVB      XAR0,#24              ; [CPU_ALU] |2454| 
    5641 00000828 8A93          MOVL      XAR4,*+XAR3[AR0]      ; [CPU_ALU] |2454| 
    5642              $C$DW$402       .dwtag  DW_TAG_TI_branch
    5643                      .dwattr $C$DW$402, DW_AT_low_pc(0x00)
    5644                      .dwattr $C$DW$402, DW_AT_name("_EST_getOneOverDcBus_pu")
    5645                      .dwattr $C$DW$402, DW_AT_TI_call
    5646              
    5647 00000829 7640!         LCR       #_EST_getOneOverDcBus_pu ; [CPU_ALU] |2454| 
         0000082a 0000 
    5648                      ; call occurs [#_EST_getOneOverDcBus_pu] ; [] |2454| 
    5649 0000082b 8752          MOVL      XT,*-SP[18]           ; [CPU_ALU] |2454| 
    5650 0000082c 5605          IMPYL     P,XT,ACC              ; [CPU_ALU] |2454| 
         0000082d 00A9 
    5651 0000082e 5663          QMPYL     ACC,XT,ACC            ; [CPU_ALU] |2454| 
         0000082f 00A9 
    5652 00000830 56A7          LSL64     ACC:P,#8              ; [CPU_ALU] |2454| 
    5653 00000831 1E52          MOVL      *-SP[18],ACC          ; [CPU_ALU] |2454| 
    5654 00000832       $C$L68:    
    5655                      .dwpsn  file "D:/GIANT/GIANT_TI_instaspin/TI_instaspin_indoor_smart_trainer/motorware/motorware_1_01_
    5656 00000832 D032          MOVB      XAR0,#50              ; [CPU_ALU] |497| 
    5657 00000833 8A93          MOVL      XAR4,*+XAR3[AR0]      ; [CPU_ALU] |497| 
    5658 00000834 0652          MOVL      ACC,*-SP[18]          ; [CPU_ALU] |497| 
    5659                      .dwpsn  file "D:/GIANT/GIANT_TI_instaspin/TI_instaspin_indoor_smart_trainer/motorware/motorware_1_01_
    5660 00000835 D0F4          MOVB      XAR0,#244             ; [CPU_ALU] |728| 
    5661                      .dwpsn  file "D:/GIANT/GIANT_TI_instaspin/TI_instaspin_indoor_smart_trainer/motorware/motorware_1_01_
    5662 00000836 1EC4          MOVL      *+XAR4[0],ACC         ; [CPU_ALU] |497| 
    5663                      .dwpsn  file "D:/GIANT/GIANT_TI_instaspin/TI_instaspin_indoor_smart_trainer/motorware/motorware_1_01_
    5664 00000837 9293          MOV       AL,*+XAR3[AR0]        ; [CPU_ALU] |728| 
    5665 00000838 6103          B         $C$L69,EQ             ; [CPU_ALU] |728| 
    5666                      ; branchcc occurs ; [] |728| 
    5667 00000839 D0BA          MOVB      XAR0,#186             ; [CPU_ALU] |728| 
    5668 0000083a 6F02          B         $C$L70,UNC            ; [CPU_ALU] |728| 
    5669                      ; branch occurs ; [] |728| 
    5670 0000083b       $C$L69:    
    5671 0000083b D0E4          MOVB      XAR0,#228             ; [CPU_ALU] |728| 
    5672 0000083c       $C$L70:    
    5673 0000083c 0693          MOVL      ACC,*+XAR3[AR0]       ; [CPU_ALU] |728| 
    5674                      .dwpsn  file "D:/GIANT/GIANT_TI_instaspin/TI_instaspin_indoor_smart_trainer/motorware/motorware_1_01_
    5675 0000083d D0B4          MOVB      XAR0,#180             ; [CPU_ALU] |397| 
    5676                      .dwpsn  file "D:/GIANT/GIANT_TI_instaspin/TI_instaspin_indoor_smart_trainer/motorware/motorware_1_01_
    5677 0000083e D1C0          MOVB      XAR1,#192             ; [CPU_ALU] |2474| 
    5678                      .dwpsn  file "D:/GIANT/GIANT_TI_instaspin/TI_instaspin_indoor_smart_trainer/motorware/motorware_1_01_
    5679 0000083f 1E50          MOVL      *-SP[16],ACC          ; [CPU_ALU] |728| 
    5680                      .dwpsn  file "D:/GIANT/GIANT_TI_instaspin/TI_instaspin_indoor_smart_trainer/motorware/motorware_1_01_
    5681 00000840 0693          MOVL      ACC,*+XAR3[AR0]       ; [CPU_ALU] |397| 
    5682                      .dwpsn  file "D:/GIANT/GIANT_TI_instaspin/TI_instaspin_indoor_smart_trainer/motorware/motorware_1_01_
    5683 00000841 D0C0          MOVB      XAR0,#192             ; [CPU_ALU] |2474| 
    5684                      .dwpsn  file "D:/GIANT/GIANT_TI_instaspin/TI_instaspin_indoor_smart_trainer/motorware/motorware_1_01_
    5685 00000842 1E52          MOVL      *-SP[18],ACC          ; [CPU_ALU] |397| 
    5686                      .dwpsn  file "D:/GIANT/GIANT_TI_instaspin/TI_instaspin_indoor_smart_trainer/motorware/motorware_1_01_
TMS320C2000 Assembler PC v22.6.0 Tue Apr 18 11:09:46 2023

Copyright (c) 1996-2018 Texas Instruments Incorporated
C:\Users\User\AppData\Local\Temp\{F169EDD6-E2A2-400A-8386-A823CBD75D49} PAGE  110

    5687 00000843 879B          MOVL      XT,*+XAR3[AR1]        ; [CPU_ALU] |2474| 
    5688 00000844 5605          IMPYL     P,XT,*+XAR3[AR0]      ; [CPU_ALU] |2474| 
         00000845 0093 
    5689 00000846 5663          QMPYL     ACC,XT,*+XAR3[AR0]    ; [CPU_ALU] |2474| 
         00000847 0093 
    5690 00000848 8756          MOVL      XT,*-SP[22]           ; [CPU_ALU] |2474| 
    5691 00000849 56A7          LSL64     ACC:P,#8              ; [CPU_ALU] |2474| 
    5692 0000084a 1EA6          MOVL      XAR6,ACC              ; [CPU_ALU] |2474| 
    5693 0000084b 0656          MOVL      ACC,*-SP[22]          ; [CPU_ALU] |2474| 
    5694 0000084c 5605          IMPYL     P,XT,ACC              ; [CPU_ALU] |2474| 
         0000084d 00A9 
    5695 0000084e 5663          QMPYL     ACC,XT,ACC            ; [CPU_ALU] |2474| 
         0000084f 00A9 
    5696 00000850 56A7          LSL64     ACC:P,#8              ; [CPU_ALU] |2474| 
    5697 00000851 03A6          SUBL      ACC,XAR6              ; [CPU_ALU] |2474| 
    5698              $C$DW$403       .dwtag  DW_TAG_TI_branch
    5699                      .dwattr $C$DW$403, DW_AT_low_pc(0x00)
    5700                      .dwattr $C$DW$403, DW_AT_name("__IQ24sqrt")
    5701                      .dwattr $C$DW$403, DW_AT_TI_call
    5702              
    5703 00000852 7640!         LCR       #__IQ24sqrt           ; [CPU_ALU] |2474| 
         00000853 0000 
    5704                      ; call occurs [#__IQ24sqrt] ; [] |2474| 
    5705                      .dwpsn  file "D:/GIANT/GIANT_TI_instaspin/TI_instaspin_indoor_smart_trainer/motorware/motorware_1_01_
    5706 00000854 D032          MOVB      XAR0,#50              ; [CPU_ALU] |508| 
    5707 00000855 8A93          MOVL      XAR4,*+XAR3[AR0]      ; [CPU_ALU] |508| 
    5708                      .dwpsn  file "D:/GIANT/GIANT_TI_instaspin/TI_instaspin_indoor_smart_trainer/motorware/motorware_1_01_
    5709 00000856 1EA6          MOVL      XAR6,ACC              ; [CPU_ALU] |2474| 
    5710                      .dwpsn  file "D:/GIANT/GIANT_TI_instaspin/TI_instaspin_indoor_smart_trainer/motorware/motorware_1_01_
    5711 00000857 D00C          MOVB      XAR0,#12              ; [CPU_ALU] |511| 
    5712 00000858 FF54          NEG       ACC                   ; [CPU_ALU] |511| 
    5713 00000859 1E94          MOVL      *+XAR4[AR0],ACC       ; [CPU_ALU] |511| 
    5714                      .dwpsn  file "D:/GIANT/GIANT_TI_instaspin/TI_instaspin_indoor_smart_trainer/motorware/motorware_1_01_
    5715 0000085a D00E          MOVB      XAR0,#14              ; [CPU_ALU] |512| 
    5716 0000085b C294          MOVL      *+XAR4[AR0],XAR6      ; [CPU_ALU] |512| 
    5717                      .dwpsn  file "D:/GIANT/GIANT_TI_instaspin/TI_instaspin_indoor_smart_trainer/motorware/motorware_1_01_
    5718 0000085c C452          MOVL      XAR6,*-SP[18]         ; [CPU_ALU] |218| 
    5719 0000085d D032          MOVB      XAR0,#50              ; [CPU_ALU] |218| 
    5720 0000085e 8A93          MOVL      XAR4,*+XAR3[AR0]      ; [CPU_ALU] |218| 
    5721                      .dwpsn  file "D:/GIANT/GIANT_TI_instaspin/TI_instaspin_indoor_smart_trainer/motorware/motorware_1_01_
    5722 0000085f 0650          MOVL      ACC,*-SP[16]          ; [CPU_ALU] |227| 
    5723 00000860 03A6          SUBL      ACC,XAR6              ; [CPU_ALU] |227| 
    5724 00000861 87C4          MOVL      XT,*+XAR4[0]          ; [CPU_ALU] |227| 
    5725 00000862 5605          IMPYL     P,XT,ACC              ; [CPU_ALU] |227| 
         00000863 00A9 
    5726 00000864 5663          QMPYL     ACC,XT,ACC            ; [CPU_ALU] |227| 
         00000865 00A9 
    5727 00000866 56A7          LSL64     ACC:P,#8              ; [CPU_ALU] |227| 
    5728 00000867 1EA7          MOVL      XAR7,ACC              ; [CPU_ALU] |227| 
    5729                      .dwpsn  file "D:/GIANT/GIANT_TI_instaspin/TI_instaspin_indoor_smart_trainer/motorware/motorware_1_01_
    5730 00000868 D10E          MOVB      XAR1,#14              ; [CPU_ALU] |228| 
    5731 00000869 D00C          MOVB      XAR0,#12              ; [CPU_ALU] |228| 
    5732 0000086a 87D4          MOVL      XT,*+XAR4[2]          ; [CPU_ALU] |228| 
    5733 0000086b 5605          IMPYL     P,XT,XAR7             ; [CPU_ALU] |228| 
         0000086c 00A7 
TMS320C2000 Assembler PC v22.6.0 Tue Apr 18 11:09:46 2023

Copyright (c) 1996-2018 Texas Instruments Incorporated
C:\Users\User\AppData\Local\Temp\{F169EDD6-E2A2-400A-8386-A823CBD75D49} PAGE  111

    5734 0000086d 5663          QMPYL     ACC,XT,XAR7           ; [CPU_ALU] |228| 
         0000086e 00A7 
    5735 0000086f 56A7          LSL64     ACC:P,#8              ; [CPU_ALU] |228| 
    5736 00000870 07F4          ADDL      ACC,*+XAR4[6]         ; [CPU_ALU] |228| 
    5737 00000871 5650          MINL      ACC,*+XAR4[AR1]       ; [CPU_ALU] |228| 
         00000872 009C 
    5738                      .dwpsn  file "D:/GIANT/GIANT_TI_instaspin/TI_instaspin_indoor_smart_trainer/motorware/motorware_1_01_
    5739 00000873 D10E          MOVB      XAR1,#14              ; [CPU_ALU] |234| 
    5740                      .dwpsn  file "D:/GIANT/GIANT_TI_instaspin/TI_instaspin_indoor_smart_trainer/motorware/motorware_1_01_
    5741 00000874 5661          MAXL      ACC,*+XAR4[AR0]       ; [CPU_ALU] |228| 
         00000875 0094 
    5742                      .dwpsn  file "D:/GIANT/GIANT_TI_instaspin/TI_instaspin_indoor_smart_trainer/motorware/motorware_1_01_
    5743 00000876 D008          MOVB      XAR0,#8               ; [CPU_ALU] |231| 
    5744                      .dwpsn  file "D:/GIANT/GIANT_TI_instaspin/TI_instaspin_indoor_smart_trainer/motorware/motorware_1_01_
    5745 00000877 1EF4          MOVL      *+XAR4[6],ACC         ; [CPU_ALU] |230| 
    5746                      .dwpsn  file "D:/GIANT/GIANT_TI_instaspin/TI_instaspin_indoor_smart_trainer/motorware/motorware_1_01_
    5747 00000878 A350          MOVL      P,*-SP[16]            ; [CPU_ALU] |231| 
    5748                      .dwpsn  file "D:/GIANT/GIANT_TI_instaspin/TI_instaspin_indoor_smart_trainer/motorware/motorware_1_01_
    5749 00000879 07A7          ADDL      ACC,XAR7              ; [CPU_ALU] |234| 
    5750                      .dwpsn  file "D:/GIANT/GIANT_TI_instaspin/TI_instaspin_indoor_smart_trainer/motorware/motorware_1_01_
    5751 0000087a A994          MOVL      *+XAR4[AR0],P         ; [CPU_ALU] |231| 
    5752                      .dwpsn  file "D:/GIANT/GIANT_TI_instaspin/TI_instaspin_indoor_smart_trainer/motorware/motorware_1_01_
    5753 0000087b D00A          MOVB      XAR0,#10              ; [CPU_ALU] |232| 
    5754 0000087c C294          MOVL      *+XAR4[AR0],XAR6      ; [CPU_ALU] |232| 
    5755                      .dwpsn  file "D:/GIANT/GIANT_TI_instaspin/TI_instaspin_indoor_smart_trainer/motorware/motorware_1_01_
    5756 0000087d D00C          MOVB      XAR0,#12              ; [CPU_ALU] |234| 
    5757 0000087e 5650          MINL      ACC,*+XAR4[AR1]       ; [CPU_ALU] |234| 
         0000087f 009C 
    5758 00000880 5661          MAXL      ACC,*+XAR4[AR0]       ; [CPU_ALU] |234| 
         00000881 0094 
    5759 00000882 D0C2          MOVB      XAR0,#194             ; [CPU_ALU] |234| 
    5760 00000883 1E93          MOVL      *+XAR3[AR0],ACC       ; [CPU_ALU] |234| 
    5761 00000884       $C$L71:    
    5762                      .dwpsn  file "D:/GIANT/GIANT_TI_instaspin/TI_instaspin_indoor_smart_trainer/motorware/motorware_1_01_
    5763 00000884 D018          MOVB      XAR0,#24              ; [CPU_ALU] |2130| 
    5764 00000885 8A93          MOVL      XAR4,*+XAR3[AR0]      ; [CPU_ALU] |2130| 
    5765              $C$DW$404       .dwtag  DW_TAG_TI_branch
    5766                      .dwattr $C$DW$404, DW_AT_low_pc(0x00)
    5767                      .dwattr $C$DW$404, DW_AT_name("_EST_getFm_pu")
    5768                      .dwattr $C$DW$404, DW_AT_TI_call
    5769              
    5770 00000886 7640!         LCR       #_EST_getFm_pu        ; [CPU_ALU] |2130| 
         00000887 0000 
    5771                      ; call occurs [#_EST_getFm_pu] ; [] |2130| 
    5772 00000888 8F01          MOVL      XAR4,#83886           ; [CPU_ARAU] |2130| 
         00000889 47AE 
    5773 0000088a 1EAC          MOVL      XT,ACC                ; [CPU_ALU] |2130| 
    5774 0000088b 5605          IMPYL     P,XT,XAR4             ; [CPU_ALU] |2130| 
         0000088c 00A4 
    5775 0000088d 5663          QMPYL     ACC,XT,XAR4           ; [CPU_ALU] |2130| 
         0000088e 00A4 
    5776 0000088f 56A7          LSL64     ACC:P,#8              ; [CPU_ALU] |2130| 
    5777 00000890 1EAC          MOVL      XT,ACC                ; [CPU_ALU] |2130| 
    5778                      .dwpsn  file "D:/GIANT/GIANT_TI_instaspin/TI_instaspin_indoor_smart_trainer/motorware/motorware_1_01_
    5779 00000891 FF2F          MOV       ACC,#1024 << 15       ; [CPU_ALU] |2143| 
TMS320C2000 Assembler PC v22.6.0 Tue Apr 18 11:09:46 2023

Copyright (c) 1996-2018 Texas Instruments Incorporated
C:\Users\User\AppData\Local\Temp\{F169EDD6-E2A2-400A-8386-A823CBD75D49} PAGE  112

         00000892 0400 
    5780 00000893 5605          IMPYL     P,XT,ACC              ; [CPU_ALU] |2143| 
         00000894 00A9 
    5781 00000895 5663          QMPYL     ACC,XT,ACC            ; [CPU_ALU] |2143| 
         00000896 00A9 
    5782 00000897 56A7          LSL64     ACC:P,#8              ; [CPU_ALU] |2143| 
    5783 00000898 07A2          ADDL      ACC,XAR2              ; [CPU_ALU] |2143| 
    5784 00000899 1EA6          MOVL      XAR6,ACC              ; [CPU_ALU] |2143| 
    5785 0000089a FF56          ABS       ACC                   ; [CPU_ALU] |2143| 
    5786 0000089b 91FF          ANDB      AH,#255               ; [CPU_ALU] |2143| 
    5787 0000089c 8BA9          MOVL      XAR1,ACC              ; [CPU_ALU] |2143| 
    5788 0000089d 06A6          MOVL      ACC,XAR6              ; [CPU_ALU] |2143| 
    5789                      .dwpsn  file "D:/GIANT/GIANT_TI_instaspin/TI_instaspin_indoor_smart_trainer/motorware/motorware_1_01_
    5790 0000089e 6304          B         $C$L72,GEQ            ; [CPU_ALU] |2146| 
    5791                      ; branchcc occurs ; [] |2146| 
    5792                      .dwpsn  file "D:/GIANT/GIANT_TI_instaspin/TI_instaspin_indoor_smart_trainer/motorware/motorware_1_01_
    5793 0000089f B2A9          MOVL      ACC,XAR1              ; [CPU_ALU] |2148| 
    5794 000008a0 FF54          NEG       ACC                   ; [CPU_ALU] |2148| 
    5795 000008a1 8BA9          MOVL      XAR1,ACC              ; [CPU_ALU] |2148| 
    5796 000008a2       $C$L72:    
    5797                      .dwpsn  file "D:/GIANT/GIANT_TI_instaspin/TI_instaspin_indoor_smart_trainer/motorware/motorware_1_01_
    5798 000008a2 B2A9          MOVL      ACC,XAR1              ; [CPU_ALU] |2044| 
    5799              $C$DW$405       .dwtag  DW_TAG_TI_branch
    5800                      .dwattr $C$DW$405, DW_AT_low_pc(0x00)
    5801                      .dwattr $C$DW$405, DW_AT_name("__IQ24cosPU")
    5802                      .dwattr $C$DW$405, DW_AT_TI_call
    5803              
    5804 000008a3 7640!         LCR       #__IQ24cosPU          ; [CPU_ALU] |2044| 
         000008a4 0000 
    5805                      ; call occurs [#__IQ24cosPU] ; [] |2044| 
    5806 000008a5 1E4C          MOVL      *-SP[12],ACC          ; [CPU_ALU] |2044| 
    5807                      .dwpsn  file "D:/GIANT/GIANT_TI_instaspin/TI_instaspin_indoor_smart_trainer/motorware/motorware_1_01_
    5808 000008a6 B2A9          MOVL      ACC,XAR1              ; [CPU_ALU] |2045| 
    5809              $C$DW$406       .dwtag  DW_TAG_TI_branch
    5810                      .dwattr $C$DW$406, DW_AT_low_pc(0x00)
    5811                      .dwattr $C$DW$406, DW_AT_name("__IQ24sinPU")
    5812                      .dwattr $C$DW$406, DW_AT_TI_call
    5813              
    5814 000008a7 7640!         LCR       #__IQ24sinPU          ; [CPU_ALU] |2045| 
         000008a8 0000 
    5815                      ; call occurs [#__IQ24sinPU] ; [] |2045| 
    5816                      .dwpsn  file "D:/GIANT/GIANT_TI_instaspin/TI_instaspin_indoor_smart_trainer/motorware/motorware_1_01_
    5817 000008a9 D056          MOVB      XAR0,#86              ; [CPU_ALU] |172| 
    5818                      .dwpsn  file "D:/GIANT/GIANT_TI_instaspin/TI_instaspin_indoor_smart_trainer/motorware/motorware_1_01_
    5819 000008aa 1E4A          MOVL      *-SP[10],ACC          ; [CPU_ALU] |2045| 
    5820                      .dwpsn  file "D:/GIANT/GIANT_TI_instaspin/TI_instaspin_indoor_smart_trainer/motorware/motorware_1_01_
    5821 000008ab 8A93          MOVL      XAR4,*+XAR3[AR0]      ; [CPU_ALU] |172| 
    5822                      .dwpsn  file "D:/GIANT/GIANT_TI_instaspin/TI_instaspin_indoor_smart_trainer/motorware/motorware_1_01_
    5823 000008ac 064C          MOVL      ACC,*-SP[12]          ; [CPU_ALU] |175| 
    5824                      .dwpsn  file "D:/GIANT/GIANT_TI_instaspin/TI_instaspin_indoor_smart_trainer/motorware/motorware_1_01_
    5825 000008ad D056          MOVB      XAR0,#86              ; [CPU_ALU] |141| 
    5826                      .dwpsn  file "D:/GIANT/GIANT_TI_instaspin/TI_instaspin_indoor_smart_trainer/motorware/motorware_1_01_
    5827 000008ae 1ED4          MOVL      *+XAR4[2],ACC         ; [CPU_ALU] |175| 
    5828                      .dwpsn  file "D:/GIANT/GIANT_TI_instaspin/TI_instaspin_indoor_smart_trainer/motorware/motorware_1_01_
    5829 000008af 064A          MOVL      ACC,*-SP[10]          ; [CPU_ALU] |176| 
TMS320C2000 Assembler PC v22.6.0 Tue Apr 18 11:09:46 2023

Copyright (c) 1996-2018 Texas Instruments Incorporated
C:\Users\User\AppData\Local\Temp\{F169EDD6-E2A2-400A-8386-A823CBD75D49} PAGE  113

    5830 000008b0 1EC4          MOVL      *+XAR4[0],ACC         ; [CPU_ALU] |176| 
    5831                      .dwpsn  file "D:/GIANT/GIANT_TI_instaspin/TI_instaspin_indoor_smart_trainer/motorware/motorware_1_01_
    5832 000008b1 8A93          MOVL      XAR4,*+XAR3[AR0]      ; [CPU_ALU] |141| 
    5833                      .dwpsn  file "D:/GIANT/GIANT_TI_instaspin/TI_instaspin_indoor_smart_trainer/motorware/motorware_1_01_
    5834 000008b2 D0C0          MOVB      XAR0,#192             ; [CPU_ALU] |144| 
    5835                      .dwpsn  file "D:/GIANT/GIANT_TI_instaspin/TI_instaspin_indoor_smart_trainer/motorware/motorware_1_01_
    5836 000008b3 C5C4          MOVL      XAR7,*+XAR4[0]        ; [CPU_ALU] |141| 
    5837                      .dwpsn  file "D:/GIANT/GIANT_TI_instaspin/TI_instaspin_indoor_smart_trainer/motorware/motorware_1_01_
    5838 000008b4 C4D4          MOVL      XAR6,*+XAR4[2]        ; [CPU_ALU] |142| 
    5839                      .dwpsn  file "D:/GIANT/GIANT_TI_instaspin/TI_instaspin_indoor_smart_trainer/motorware/motorware_1_01_
    5840 000008b5 8A93          MOVL      XAR4,*+XAR3[AR0]      ; [CPU_ALU] |144| 
    5841                      .dwpsn  file "D:/GIANT/GIANT_TI_instaspin/TI_instaspin_indoor_smart_trainer/motorware/motorware_1_01_
    5842 000008b6 D0C2          MOVB      XAR0,#194             ; [CPU_ALU] |145| 
    5843 000008b7 8393          MOVL      XAR5,*+XAR3[AR0]      ; [CPU_ALU] |145| 
    5844 000008b8 3B01          SETC      SXM                   ; [CPU_ALU] 
    5845 000008b9 A0AC          MOVL      XT,XAR5               ; [CPU_ALU] |145| 
    5846                      .dwpsn  file "D:/GIANT/GIANT_TI_instaspin/TI_instaspin_indoor_smart_trainer/motorware/motorware_1_01_
    5847 000008ba 5605          IMPYL     P,XT,XAR7             ; [CPU_ALU] |148| 
         000008bb 00A7 
    5848 000008bc 5663          QMPYL     ACC,XT,XAR7           ; [CPU_ALU] |148| 
         000008bd 00A7 
    5849 000008be 56A7          LSL64     ACC:P,#8              ; [CPU_ALU] |148| 
    5850 000008bf A8AC          MOVL      XT,XAR4               ; [CPU_ALU] |148| 
    5851 000008c0 8EA9          MOVL      XAR0,ACC              ; [CPU_ALU] |148| 
    5852 000008c1 5605          IMPYL     P,XT,XAR6             ; [CPU_ALU] |148| 
         000008c2 00A6 
    5853 000008c3 5663          QMPYL     ACC,XT,XAR6           ; [CPU_ALU] |148| 
         000008c4 00A6 
    5854 000008c5 56A7          LSL64     ACC:P,#8              ; [CPU_ALU] |148| 
    5855 000008c6 A0AC          MOVL      XT,XAR5               ; [CPU_ALU] |148| 
    5856 000008c7 03A0          SUBL      ACC,XAR0              ; [CPU_ALU] |148| 
    5857 000008c8 D0BC          MOVB      XAR0,#188             ; [CPU_ALU] |148| 
    5858                      .dwpsn  file "D:/GIANT/GIANT_TI_instaspin/TI_instaspin_indoor_smart_trainer/motorware/motorware_1_01_
    5859 000008c9 5605          IMPYL     P,XT,XAR6             ; [CPU_ALU] |149| 
         000008ca 00A6 
    5860                      .dwpsn  file "D:/GIANT/GIANT_TI_instaspin/TI_instaspin_indoor_smart_trainer/motorware/motorware_1_01_
    5861 000008cb 1E93          MOVL      *+XAR3[AR0],ACC       ; [CPU_ALU] |148| 
    5862                      .dwpsn  file "D:/GIANT/GIANT_TI_instaspin/TI_instaspin_indoor_smart_trainer/motorware/motorware_1_01_
    5863 000008cc D0BE          MOVB      XAR0,#190             ; [CPU_ALU] |149| 
    5864 000008cd 5663          QMPYL     ACC,XT,XAR6           ; [CPU_ALU] |149| 
         000008ce 00A6 
    5865 000008cf 56A7          LSL64     ACC:P,#8              ; [CPU_ALU] |149| 
    5866 000008d0 A8AC          MOVL      XT,XAR4               ; [CPU_ALU] |149| 
    5867 000008d1 1EA6          MOVL      XAR6,ACC              ; [CPU_ALU] |149| 
    5868 000008d2 5605          IMPYL     P,XT,XAR7             ; [CPU_ALU] |149| 
         000008d3 00A7 
    5869 000008d4 5663          QMPYL     ACC,XT,XAR7           ; [CPU_ALU] |149| 
         000008d5 00A7 
    5870 000008d6 56A7          LSL64     ACC:P,#8              ; [CPU_ALU] |149| 
    5871 000008d7 07A6          ADDL      ACC,XAR6              ; [CPU_ALU] |149| 
    5872 000008d8 1E93          MOVL      *+XAR3[AR0],ACC       ; [CPU_ALU] |149| 
    5873                      .dwpsn  file "D:/GIANT/GIANT_TI_instaspin/TI_instaspin_indoor_smart_trainer/motorware/motorware_1_01_
    5874 000008d9 28A9          MOV       AL,#46039             ; [CPU_ALU] |133| 
         000008da B3D7 
    5875 000008db 9BDD          MOV       AH,#221               ; [CPU_ALU] |133| 
TMS320C2000 Assembler PC v22.6.0 Tue Apr 18 11:09:46 2023

Copyright (c) 1996-2018 Texas Instruments Incorporated
C:\Users\User\AppData\Local\Temp\{F169EDD6-E2A2-400A-8386-A823CBD75D49} PAGE  114

    5876                      .dwpsn  file "D:/GIANT/GIANT_TI_instaspin/TI_instaspin_indoor_smart_trainer/motorware/motorware_1_01_
    5877 000008dc D0BC          MOVB      XAR0,#188             ; [CPU_ALU] |132| 
    5878                      .dwpsn  file "D:/GIANT/GIANT_TI_instaspin/TI_instaspin_indoor_smart_trainer/motorware/motorware_1_01_
    5879 000008dd 1EAC          MOVL      XT,ACC                ; [CPU_ALU] |133| 
    5880                      .dwpsn  file "D:/GIANT/GIANT_TI_instaspin/TI_instaspin_indoor_smart_trainer/motorware/motorware_1_01_
    5881 000008de C493          MOVL      XAR6,*+XAR3[AR0]      ; [CPU_ALU] |132| 
    5882                      .dwpsn  file "D:/GIANT/GIANT_TI_instaspin/TI_instaspin_indoor_smart_trainer/motorware/motorware_1_01_
    5883 000008df D0BE          MOVB      XAR0,#190             ; [CPU_ALU] |133| 
    5884                      .dwpsn  file "D:/GIANT/GIANT_TI_instaspin/TI_instaspin_indoor_smart_trainer/motorware/motorware_1_01_
    5885 000008e0 8A54          MOVL      XAR4,*-SP[20]         ; [CPU_ALU] |149| 
    5886                      .dwpsn  file "D:/GIANT/GIANT_TI_instaspin/TI_instaspin_indoor_smart_trainer/motorware/motorware_1_01_
    5887 000008e1 5605          IMPYL     P,XT,*+XAR3[AR0]      ; [CPU_ALU] |133| 
         000008e2 0093 
    5888 000008e3 5663          QMPYL     ACC,XT,*+XAR3[AR0]    ; [CPU_ALU] |133| 
         000008e4 0093 
    5889 000008e5 56A7          LSL64     ACC:P,#8              ; [CPU_ALU] |133| 
    5890 000008e6 8EA9          MOVL      XAR0,ACC              ; [CPU_ALU] |133| 
    5891 000008e7 06A6          MOVL      ACC,XAR6              ; [CPU_ALU] |133| 
    5892 000008e8 FF40          SFR       ACC,1                 ; [CPU_ALU] |133| 
    5893 000008e9 FF54          NEG       ACC                   ; [CPU_ALU] |133| 
    5894 000008ea FF5A          MOVL      P,ACC                 ; [CPU_ALU] |133| 
    5895 000008eb 3AA9          MOVL      ACC,XAR0              ; [CPU_ALU] |133| 
    5896 000008ec 07AB          ADDL      ACC,P                 ; [CPU_ALU] |133| 
    5897 000008ed 83A9          MOVL      XAR5,ACC              ; [CPU_ALU] |133| 
    5898                      .dwpsn  file "D:/GIANT/GIANT_TI_instaspin/TI_instaspin_indoor_smart_trainer/motorware/motorware_1_01_
    5899 000008ee 565D          SUBUL     P,XAR0                ; [CPU_ALU] |134| 
         000008ef 00A0 
    5900 000008f0 A9A7          MOVL      XAR7,P                ; [CPU_ALU] |134| 
    5901                      .dwpsn  file "D:/GIANT/GIANT_TI_instaspin/TI_instaspin_indoor_smart_trainer/motorware/motorware_1_01_
    5902 000008f1 0FA6          CMPL      ACC,XAR6              ; [CPU_ALU] |140| 
    5903 000008f2 6404          B         $C$L73,LT             ; [CPU_ALU] |140| 
    5904                      ; branchcc occurs ; [] |140| 
    5905                      .dwpsn  file "D:/GIANT/GIANT_TI_instaspin/TI_instaspin_indoor_smart_trainer/motorware/motorware_1_01_
    5906 000008f3 FF5A          MOVL      P,ACC                 ; [CPU_ALU] |147| 
    5907                      .dwpsn  file "D:/GIANT/GIANT_TI_instaspin/TI_instaspin_indoor_smart_trainer/motorware/motorware_1_01_
    5908 000008f4 87A6          MOVL      XT,XAR6               ; [CPU_ALU] |148| 
    5909 000008f5 6F03          B         $C$L74,UNC            ; [CPU_ALU] |148| 
    5910                      ; branch occurs ; [] |148| 
    5911 000008f6       $C$L73:    
    5912                      .dwpsn  file "D:/GIANT/GIANT_TI_instaspin/TI_instaspin_indoor_smart_trainer/motorware/motorware_1_01_
    5913 000008f6 A3A6          MOVL      P,XAR6                ; [CPU_ALU] |142| 
    5914                      .dwpsn  file "D:/GIANT/GIANT_TI_instaspin/TI_instaspin_indoor_smart_trainer/motorware/motorware_1_01_
    5915 000008f7 1EAC          MOVL      XT,ACC                ; [CPU_ALU] |143| 
    5916 000008f8       $C$L74:    
    5917 000008f8 A9A9          MOVL      ACC,P                 ; [CPU_ALU] 
    5918                      .dwpsn  file "D:/GIANT/GIANT_TI_instaspin/TI_instaspin_indoor_smart_trainer/motorware/motorware_1_01_
    5919 000008f9 0FA7          CMPL      ACC,XAR7              ; [CPU_ALU] |151| 
    5920 000008fa 6406          B         $C$L76,LT             ; [CPU_ALU] |151| 
    5921                      ; branchcc occurs ; [] |151| 
    5922 000008fb ABA9          MOVL      ACC,XT                ; [CPU_ALU] 
    5923                      .dwpsn  file "D:/GIANT/GIANT_TI_instaspin/TI_instaspin_indoor_smart_trainer/motorware/motorware_1_01_
    5924 000008fc 0FA7          CMPL      ACC,XAR7              ; [CPU_ALU] |155| 
    5925 000008fd 6504          B         $C$L77,LEQ            ; [CPU_ALU] |155| 
    5926                      ; branchcc occurs ; [] |155| 
    5927 000008fe       $C$L75:    
TMS320C2000 Assembler PC v22.6.0 Tue Apr 18 11:09:46 2023

Copyright (c) 1996-2018 Texas Instruments Incorporated
C:\Users\User\AppData\Local\Temp\{F169EDD6-E2A2-400A-8386-A823CBD75D49} PAGE  115

    5928                      .dwpsn  file "D:/GIANT/GIANT_TI_instaspin/TI_instaspin_indoor_smart_trainer/motorware/motorware_1_01_
    5929 000008fe 87A7          MOVL      XT,XAR7               ; [CPU_ALU] |157| 
    5930 000008ff 6F02          B         $C$L77,UNC            ; [CPU_ALU] |157| 
    5931                      ; branch occurs ; [] |157| 
    5932 00000900       $C$L76:    
    5933                      .dwpsn  file "D:/GIANT/GIANT_TI_instaspin/TI_instaspin_indoor_smart_trainer/motorware/motorware_1_01_
    5934 00000900 A3A7          MOVL      P,XAR7                ; [CPU_ALU] |153| 
    5935 00000901       $C$L77:    
    5936                      .dwpsn  file "D:/GIANT/GIANT_TI_instaspin/TI_instaspin_indoor_smart_trainer/motorware/motorware_1_01_
    5937 00000901 A9A9          MOVL      ACC,P                 ; [CPU_ALU] |163| 
    5938 00000902 5601          ADDL      XT,ACC                ; [CPU_ALU] |163| 
         00000903 00AC 
    5939 00000904 9A00          MOVB      AL,#0                 ; [CPU_ALU] |163| 
    5940 00000905 9B80          MOV       AH,#128               ; [CPU_ALU] |163| 
    5941 00000906 5605          IMPYL     P,XT,ACC              ; [CPU_ALU] |163| 
         00000907 00A9 
    5942 00000908 5663          QMPYL     ACC,XT,ACC            ; [CPU_ALU] |163| 
         00000909 00A9 
    5943 0000090a 56A7          LSL64     ACC:P,#8              ; [CPU_ALU] |163| 
    5944 0000090b 5641          SUBL      XAR6,ACC              ; [CPU_ALU] |163| 
         0000090c 00A6 
    5945                      .dwpsn  file "D:/GIANT/GIANT_TI_instaspin/TI_instaspin_indoor_smart_trainer/motorware/motorware_1_01_
    5946 0000090d 5641          SUBL      XAR5,ACC              ; [CPU_ALU] |164| 
         0000090e 00A5 
    5947                      .dwpsn  file "D:/GIANT/GIANT_TI_instaspin/TI_instaspin_indoor_smart_trainer/motorware/motorware_1_01_
    5948 0000090f 5641          SUBL      XAR7,ACC              ; [CPU_ALU] |165| 
         00000910 00A7 
    5949                      .dwpsn  file "D:/GIANT/GIANT_TI_instaspin/TI_instaspin_indoor_smart_trainer/motorware/motorware_1_01_
    5950 00000911 C2C4          MOVL      *+XAR4[0],XAR6        ; [CPU_ALU] |163| 
    5951                      .dwpsn  file "D:/GIANT/GIANT_TI_instaspin/TI_instaspin_indoor_smart_trainer/motorware/motorware_1_01_
    5952 00000912 A0D4          MOVL      *+XAR4[2],XAR5        ; [CPU_ALU] |164| 
    5953                      .dwpsn  file "D:/GIANT/GIANT_TI_instaspin/TI_instaspin_indoor_smart_trainer/motorware/motorware_1_01_
    5954 00000913 C3E4          MOVL      *+XAR4[4],XAR7        ; [CPU_ALU] |165| 
    5955 00000914 6F05          B         $C$L79,UNC            ; [CPU_ALU] 
    5956                      ; branch occurs ; [] 
    5957 00000915       $C$L78:    
    5958                      .dwpsn  file "D:/GIANT/GIANT_TI_instaspin/TI_instaspin_indoor_smart_trainer/motorware/motorware_1_01_
    5959 00000915 A2A9          MOVL      ACC,XAR3              ; [CPU_ALU] |978| 
    5960 00000916 09ED          ADDB      ACC,#237              ; [CPU_ALU] |978| 
    5961 00000917 82A9          MOVL      XAR3,ACC              ; [CPU_ALU] |978| 
    5962 00000918 0AC3          INC       *+XAR3[0]             ; [CPU_ALU] |978| 
    5963 00000919       $C$L79:    
    5964 00000919 FE98          SUBB      SP,#24                ; [CPU_ARAU] 
    5965                      .dwcfi  cfa_offset, -8
    5966 0000091a 82BE          MOVL      XAR3,*--SP            ; [CPU_ALU] 
    5967                      .dwcfi  cfa_offset, -6
    5968                      .dwcfi  restore_reg, 11
    5969 0000091b 86BE          MOVL      XAR2,*--SP            ; [CPU_ALU] 
    5970                      .dwcfi  cfa_offset, -4
    5971                      .dwcfi  restore_reg, 9
    5972 0000091c 8BBE          MOVL      XAR1,*--SP            ; [CPU_ALU] 
    5973                      .dwcfi  cfa_offset, -2
    5974                      .dwcfi  restore_reg, 7
    5975              $C$DW$407       .dwtag  DW_TAG_TI_branch
    5976                      .dwattr $C$DW$407, DW_AT_low_pc(0x00)
TMS320C2000 Assembler PC v22.6.0 Tue Apr 18 11:09:46 2023

Copyright (c) 1996-2018 Texas Instruments Incorporated
C:\Users\User\AppData\Local\Temp\{F169EDD6-E2A2-400A-8386-A823CBD75D49} PAGE  116

    5977                      .dwattr $C$DW$407, DW_AT_TI_return
    5978              
    5979 0000091d 0006          LRETR     ; [CPU_ALU] 
    5980                      ; return occurs ; [] 
    5981                      .dwattr $C$DW$254, DW_AT_TI_end_file("D:/GIANT/GIANT_TI_instaspin/TI_instaspin_indoor_smart_trainer/m
    5982                      .dwattr $C$DW$254, DW_AT_TI_end_line(0xec)
    5983                      .dwattr $C$DW$254, DW_AT_TI_end_column(0x01)
    5984                      .dwendentry
    5985                      .dwendtag $C$DW$254
    5986              
    5987 0000091e               .sect   ".text"
    5988                      .clink
    5989                      .global _CTRL_getWaitTimes
    5990              
    5991              $C$DW$408       .dwtag  DW_TAG_subprogram
    5992                      .dwattr $C$DW$408, DW_AT_name("CTRL_getWaitTimes")
    5993                      .dwattr $C$DW$408, DW_AT_low_pc(_CTRL_getWaitTimes)
    5994                      .dwattr $C$DW$408, DW_AT_high_pc(0x00)
    5995                      .dwattr $C$DW$408, DW_AT_TI_symbol_name("_CTRL_getWaitTimes")
    5996                      .dwattr $C$DW$408, DW_AT_external
    5997                      .dwattr $C$DW$408, DW_AT_TI_begin_file("D:/GIANT/GIANT_TI_instaspin/TI_instaspin_indoor_smart_trainer
    5998                      .dwattr $C$DW$408, DW_AT_TI_begin_line(0xa0)
    5999                      .dwattr $C$DW$408, DW_AT_TI_begin_column(0x06)
    6000                      .dwattr $C$DW$408, DW_AT_TI_max_frame_size(-2)
    6001                      .dwpsn  file "D:/GIANT/GIANT_TI_instaspin/TI_instaspin_indoor_smart_trainer/motorware/motorware_1_01_
    6002              
    6003                      .dwfde $C$DW$CIE, _CTRL_getWaitTimes
    6004              $C$DW$409       .dwtag  DW_TAG_formal_parameter
    6005                      .dwattr $C$DW$409, DW_AT_name("handle")
    6006                      .dwattr $C$DW$409, DW_AT_TI_symbol_name("_handle")
    6007                      .dwattr $C$DW$409, DW_AT_type(*$C$DW$T$172)
    6008                      .dwattr $C$DW$409, DW_AT_location[DW_OP_reg12]
    6009              
    6010              $C$DW$410       .dwtag  DW_TAG_formal_parameter
    6011                      .dwattr $C$DW$410, DW_AT_name("pWaitTimes")
    6012                      .dwattr $C$DW$410, DW_AT_TI_symbol_name("_pWaitTimes")
    6013                      .dwattr $C$DW$410, DW_AT_type(*$C$DW$T$283)
    6014                      .dwattr $C$DW$410, DW_AT_location[DW_OP_reg14]
    6015              
    6016              
    6017              ;***************************************************************
    6018              ;* FNAME: _CTRL_getWaitTimes            FR SIZE:   0           *
    6019              ;*                                                             *
    6020              ;* FUNCTION ENVIRONMENT                                        *
    6021              ;*                                                             *
    6022              ;* FUNCTION PROPERTIES                                         *
    6023              ;*                            0 Parameter,  0 Auto,  0 SOE     *
    6024              ;***************************************************************
    6025              
    6026              _CTRL_getWaitTimes:
    6027              ;* AR4   assigned to $O$U9
    6028              ;* AR5   assigned to $O$U11
    6029              ;* AR4   assigned to _handle
    6030              $C$DW$411       .dwtag  DW_TAG_variable
    6031                      .dwattr $C$DW$411, DW_AT_name("handle")
TMS320C2000 Assembler PC v22.6.0 Tue Apr 18 11:09:46 2023

Copyright (c) 1996-2018 Texas Instruments Incorporated
C:\Users\User\AppData\Local\Temp\{F169EDD6-E2A2-400A-8386-A823CBD75D49} PAGE  117

    6032                      .dwattr $C$DW$411, DW_AT_TI_symbol_name("_handle")
    6033                      .dwattr $C$DW$411, DW_AT_type(*$C$DW$T$185)
    6034                      .dwattr $C$DW$411, DW_AT_location[DW_OP_reg12]
    6035              
    6036                      .dwcfi  cfa_offset, -2
    6037                      .dwcfi  save_reg_to_mem, 26, 0
    6038 0000091e A8A9          MOVL      ACC,XAR4              ; [CPU_ALU] 
    6039 0000091f 0992          ADDB      ACC,#146              ; [CPU_ALU] 
    6040 00000920 8AA9          MOVL      XAR4,ACC              ; [CPU_ALU] 
    6041 00000921 BE03          MOVB      XAR6,#3               ; [CPU_ALU] 
    6042 00000922       $C$L80:    
    6043                      .dwpsn  file "D:/GIANT/GIANT_TI_instaspin/TI_instaspin_indoor_smart_trainer/motorware/motorware_1_01_
    6044 00000922 0684          MOVL      ACC,*XAR4++           ; [CPU_ALU] |167| 
    6045 00000923 1E85          MOVL      *XAR5++,ACC           ; [CPU_ALU] |167| 
    6046                      .dwpsn  file "D:/GIANT/GIANT_TI_instaspin/TI_instaspin_indoor_smart_trainer/motorware/motorware_1_01_
    6047 00000924 000E          BANZ      $C$L80,AR6--          ; [CPU_ALU] |165| 
         00000925 FFFE 
    6048                      ; branchcc occurs ; [] |165| 
    6049              $C$DW$412       .dwtag  DW_TAG_TI_branch
    6050                      .dwattr $C$DW$412, DW_AT_low_pc(0x00)
    6051                      .dwattr $C$DW$412, DW_AT_TI_return
    6052              
    6053 00000926 0006          LRETR     ; [CPU_ALU] 
    6054                      ; return occurs ; [] 
    6055                      .dwattr $C$DW$408, DW_AT_TI_end_file("D:/GIANT/GIANT_TI_instaspin/TI_instaspin_indoor_smart_trainer/m
    6056                      .dwattr $C$DW$408, DW_AT_TI_end_line(0xab)
    6057                      .dwattr $C$DW$408, DW_AT_TI_end_column(0x01)
    6058                      .dwendentry
    6059                      .dwendtag $C$DW$408
    6060              
    6061 00000927               .sect   ".text"
    6062                      .clink
    6063                      .global _CTRL_getVdq_out_pu
    6064              
    6065              $C$DW$413       .dwtag  DW_TAG_subprogram
    6066                      .dwattr $C$DW$413, DW_AT_name("CTRL_getVdq_out_pu")
    6067                      .dwattr $C$DW$413, DW_AT_low_pc(_CTRL_getVdq_out_pu)
    6068                      .dwattr $C$DW$413, DW_AT_high_pc(0x00)
    6069                      .dwattr $C$DW$413, DW_AT_TI_symbol_name("_CTRL_getVdq_out_pu")
    6070                      .dwattr $C$DW$413, DW_AT_external
    6071                      .dwattr $C$DW$413, DW_AT_TI_begin_file("D:/GIANT/GIANT_TI_instaspin/TI_instaspin_indoor_smart_trainer
    6072                      .dwattr $C$DW$413, DW_AT_TI_begin_line(0x96)
    6073                      .dwattr $C$DW$413, DW_AT_TI_begin_column(0x06)
    6074                      .dwattr $C$DW$413, DW_AT_TI_max_frame_size(-2)
    6075                      .dwpsn  file "D:/GIANT/GIANT_TI_instaspin/TI_instaspin_indoor_smart_trainer/motorware/motorware_1_01_
    6076              
    6077                      .dwfde $C$DW$CIE, _CTRL_getVdq_out_pu
    6078              $C$DW$414       .dwtag  DW_TAG_formal_parameter
    6079                      .dwattr $C$DW$414, DW_AT_name("handle")
    6080                      .dwattr $C$DW$414, DW_AT_TI_symbol_name("_handle")
    6081                      .dwattr $C$DW$414, DW_AT_type(*$C$DW$T$172)
    6082                      .dwattr $C$DW$414, DW_AT_location[DW_OP_reg12]
    6083              
    6084              $C$DW$415       .dwtag  DW_TAG_formal_parameter
    6085                      .dwattr $C$DW$415, DW_AT_name("pVdq_out_pu")
TMS320C2000 Assembler PC v22.6.0 Tue Apr 18 11:09:46 2023

Copyright (c) 1996-2018 Texas Instruments Incorporated
C:\Users\User\AppData\Local\Temp\{F169EDD6-E2A2-400A-8386-A823CBD75D49} PAGE  118

    6086                      .dwattr $C$DW$415, DW_AT_TI_symbol_name("_pVdq_out_pu")
    6087                      .dwattr $C$DW$415, DW_AT_type(*$C$DW$T$209)
    6088                      .dwattr $C$DW$415, DW_AT_location[DW_OP_reg14]
    6089              
    6090              
    6091              ;***************************************************************
    6092              ;* FNAME: _CTRL_getVdq_out_pu           FR SIZE:   0           *
    6093              ;*                                                             *
    6094              ;* FUNCTION ENVIRONMENT                                        *
    6095              ;*                                                             *
    6096              ;* FUNCTION PROPERTIES                                         *
    6097              ;*                            0 Parameter,  0 Auto,  0 SOE     *
    6098              ;***************************************************************
    6099              
    6100              _CTRL_getVdq_out_pu:
    6101              ;* AR4   assigned to _handle
    6102              $C$DW$416       .dwtag  DW_TAG_variable
    6103                      .dwattr $C$DW$416, DW_AT_name("handle")
    6104                      .dwattr $C$DW$416, DW_AT_TI_symbol_name("_handle")
    6105                      .dwattr $C$DW$416, DW_AT_type(*$C$DW$T$185)
    6106                      .dwattr $C$DW$416, DW_AT_location[DW_OP_reg12]
    6107              
    6108              ;* AR5   assigned to _pVdq_out_pu
    6109              $C$DW$417       .dwtag  DW_TAG_variable
    6110                      .dwattr $C$DW$417, DW_AT_name("pVdq_out_pu")
    6111                      .dwattr $C$DW$417, DW_AT_TI_symbol_name("_pVdq_out_pu")
    6112                      .dwattr $C$DW$417, DW_AT_type(*$C$DW$T$211)
    6113                      .dwattr $C$DW$417, DW_AT_location[DW_OP_reg14]
    6114              
    6115                      .dwcfi  cfa_offset, -2
    6116                      .dwcfi  save_reg_to_mem, 26, 0
    6117                      .dwpsn  file "D:/GIANT/GIANT_TI_instaspin/TI_instaspin_indoor_smart_trainer/motorware/motorware_1_01_
    6118 00000927 D0C0          MOVB      XAR0,#192             ; [CPU_ALU] |154| 
    6119 00000928 0694          MOVL      ACC,*+XAR4[AR0]       ; [CPU_ALU] |154| 
    6120                      .dwpsn  file "D:/GIANT/GIANT_TI_instaspin/TI_instaspin_indoor_smart_trainer/motorware/motorware_1_01_
    6121 00000929 D0C2          MOVB      XAR0,#194             ; [CPU_ALU] |155| 
    6122                      .dwpsn  file "D:/GIANT/GIANT_TI_instaspin/TI_instaspin_indoor_smart_trainer/motorware/motorware_1_01_
    6123 0000092a 1EC5          MOVL      *+XAR5[0],ACC         ; [CPU_ALU] |154| 
    6124                      .dwpsn  file "D:/GIANT/GIANT_TI_instaspin/TI_instaspin_indoor_smart_trainer/motorware/motorware_1_01_
    6125 0000092b 0694          MOVL      ACC,*+XAR4[AR0]       ; [CPU_ALU] |155| 
    6126 0000092c 1ED5          MOVL      *+XAR5[2],ACC         ; [CPU_ALU] |155| 
    6127              $C$DW$418       .dwtag  DW_TAG_TI_branch
    6128                      .dwattr $C$DW$418, DW_AT_low_pc(0x00)
    6129                      .dwattr $C$DW$418, DW_AT_TI_return
    6130              
    6131 0000092d 0006          LRETR     ; [CPU_ALU] 
    6132                      ; return occurs ; [] 
    6133                      .dwattr $C$DW$413, DW_AT_TI_end_file("D:/GIANT/GIANT_TI_instaspin/TI_instaspin_indoor_smart_trainer/m
    6134                      .dwattr $C$DW$413, DW_AT_TI_end_line(0x9e)
    6135                      .dwattr $C$DW$413, DW_AT_TI_end_column(0x01)
    6136                      .dwendentry
    6137                      .dwendtag $C$DW$413
    6138              
    6139 0000092e               .sect   ".text"
    6140                      .clink
TMS320C2000 Assembler PC v22.6.0 Tue Apr 18 11:09:46 2023

Copyright (c) 1996-2018 Texas Instruments Incorporated
C:\Users\User\AppData\Local\Temp\{F169EDD6-E2A2-400A-8386-A823CBD75D49} PAGE  119

    6141                      .global _CTRL_getVab_out_pu
    6142              
    6143              $C$DW$419       .dwtag  DW_TAG_subprogram
    6144                      .dwattr $C$DW$419, DW_AT_name("CTRL_getVab_out_pu")
    6145                      .dwattr $C$DW$419, DW_AT_low_pc(_CTRL_getVab_out_pu)
    6146                      .dwattr $C$DW$419, DW_AT_high_pc(0x00)
    6147                      .dwattr $C$DW$419, DW_AT_TI_symbol_name("_CTRL_getVab_out_pu")
    6148                      .dwattr $C$DW$419, DW_AT_external
    6149                      .dwattr $C$DW$419, DW_AT_TI_begin_file("D:/GIANT/GIANT_TI_instaspin/TI_instaspin_indoor_smart_trainer
    6150                      .dwattr $C$DW$419, DW_AT_TI_begin_line(0x8c)
    6151                      .dwattr $C$DW$419, DW_AT_TI_begin_column(0x06)
    6152                      .dwattr $C$DW$419, DW_AT_TI_max_frame_size(-2)
    6153                      .dwpsn  file "D:/GIANT/GIANT_TI_instaspin/TI_instaspin_indoor_smart_trainer/motorware/motorware_1_01_
    6154              
    6155                      .dwfde $C$DW$CIE, _CTRL_getVab_out_pu
    6156              $C$DW$420       .dwtag  DW_TAG_formal_parameter
    6157                      .dwattr $C$DW$420, DW_AT_name("handle")
    6158                      .dwattr $C$DW$420, DW_AT_TI_symbol_name("_handle")
    6159                      .dwattr $C$DW$420, DW_AT_type(*$C$DW$T$172)
    6160                      .dwattr $C$DW$420, DW_AT_location[DW_OP_reg12]
    6161              
    6162              $C$DW$421       .dwtag  DW_TAG_formal_parameter
    6163                      .dwattr $C$DW$421, DW_AT_name("pVab_out_pu")
    6164                      .dwattr $C$DW$421, DW_AT_TI_symbol_name("_pVab_out_pu")
    6165                      .dwattr $C$DW$421, DW_AT_type(*$C$DW$T$209)
    6166                      .dwattr $C$DW$421, DW_AT_location[DW_OP_reg14]
    6167              
    6168              
    6169              ;***************************************************************
    6170              ;* FNAME: _CTRL_getVab_out_pu           FR SIZE:   0           *
    6171              ;*                                                             *
    6172              ;* FUNCTION ENVIRONMENT                                        *
    6173              ;*                                                             *
    6174              ;* FUNCTION PROPERTIES                                         *
    6175              ;*                            0 Parameter,  0 Auto,  0 SOE     *
    6176              ;***************************************************************
    6177              
    6178              _CTRL_getVab_out_pu:
    6179              ;* AR4   assigned to _handle
    6180              $C$DW$422       .dwtag  DW_TAG_variable
    6181                      .dwattr $C$DW$422, DW_AT_name("handle")
    6182                      .dwattr $C$DW$422, DW_AT_TI_symbol_name("_handle")
    6183                      .dwattr $C$DW$422, DW_AT_type(*$C$DW$T$185)
    6184                      .dwattr $C$DW$422, DW_AT_location[DW_OP_reg12]
    6185              
    6186              ;* AR5   assigned to _pVab_out_pu
    6187              $C$DW$423       .dwtag  DW_TAG_variable
    6188                      .dwattr $C$DW$423, DW_AT_name("pVab_out_pu")
    6189                      .dwattr $C$DW$423, DW_AT_TI_symbol_name("_pVab_out_pu")
    6190                      .dwattr $C$DW$423, DW_AT_type(*$C$DW$T$211)
    6191                      .dwattr $C$DW$423, DW_AT_location[DW_OP_reg14]
    6192              
    6193                      .dwcfi  cfa_offset, -2
    6194                      .dwcfi  save_reg_to_mem, 26, 0
    6195                      .dwpsn  file "D:/GIANT/GIANT_TI_instaspin/TI_instaspin_indoor_smart_trainer/motorware/motorware_1_01_
TMS320C2000 Assembler PC v22.6.0 Tue Apr 18 11:09:46 2023

Copyright (c) 1996-2018 Texas Instruments Incorporated
C:\Users\User\AppData\Local\Temp\{F169EDD6-E2A2-400A-8386-A823CBD75D49} PAGE  120

    6196 0000092e D0BC          MOVB      XAR0,#188             ; [CPU_ALU] |144| 
    6197 0000092f 0694          MOVL      ACC,*+XAR4[AR0]       ; [CPU_ALU] |144| 
    6198                      .dwpsn  file "D:/GIANT/GIANT_TI_instaspin/TI_instaspin_indoor_smart_trainer/motorware/motorware_1_01_
    6199 00000930 D0BE          MOVB      XAR0,#190             ; [CPU_ALU] |145| 
    6200                      .dwpsn  file "D:/GIANT/GIANT_TI_instaspin/TI_instaspin_indoor_smart_trainer/motorware/motorware_1_01_
    6201 00000931 1EC5          MOVL      *+XAR5[0],ACC         ; [CPU_ALU] |144| 
    6202                      .dwpsn  file "D:/GIANT/GIANT_TI_instaspin/TI_instaspin_indoor_smart_trainer/motorware/motorware_1_01_
    6203 00000932 0694          MOVL      ACC,*+XAR4[AR0]       ; [CPU_ALU] |145| 
    6204 00000933 1ED5          MOVL      *+XAR5[2],ACC         ; [CPU_ALU] |145| 
    6205              $C$DW$424       .dwtag  DW_TAG_TI_branch
    6206                      .dwattr $C$DW$424, DW_AT_low_pc(0x00)
    6207                      .dwattr $C$DW$424, DW_AT_TI_return
    6208              
    6209 00000934 0006          LRETR     ; [CPU_ALU] 
    6210                      ; return occurs ; [] 
    6211                      .dwattr $C$DW$419, DW_AT_TI_end_file("D:/GIANT/GIANT_TI_instaspin/TI_instaspin_indoor_smart_trainer/m
    6212                      .dwattr $C$DW$419, DW_AT_TI_end_line(0x94)
    6213                      .dwattr $C$DW$419, DW_AT_TI_end_column(0x01)
    6214                      .dwendentry
    6215                      .dwendtag $C$DW$419
    6216              
    6217 00000935               .sect   ".text"
    6218                      .clink
    6219                      .global _CTRL_getVab_in_pu
    6220              
    6221              $C$DW$425       .dwtag  DW_TAG_subprogram
    6222                      .dwattr $C$DW$425, DW_AT_name("CTRL_getVab_in_pu")
    6223                      .dwattr $C$DW$425, DW_AT_low_pc(_CTRL_getVab_in_pu)
    6224                      .dwattr $C$DW$425, DW_AT_high_pc(0x00)
    6225                      .dwattr $C$DW$425, DW_AT_TI_symbol_name("_CTRL_getVab_in_pu")
    6226                      .dwattr $C$DW$425, DW_AT_external
    6227                      .dwattr $C$DW$425, DW_AT_TI_begin_file("D:/GIANT/GIANT_TI_instaspin/TI_instaspin_indoor_smart_trainer
    6228                      .dwattr $C$DW$425, DW_AT_TI_begin_line(0x82)
    6229                      .dwattr $C$DW$425, DW_AT_TI_begin_column(0x06)
    6230                      .dwattr $C$DW$425, DW_AT_TI_max_frame_size(-2)
    6231                      .dwpsn  file "D:/GIANT/GIANT_TI_instaspin/TI_instaspin_indoor_smart_trainer/motorware/motorware_1_01_
    6232              
    6233                      .dwfde $C$DW$CIE, _CTRL_getVab_in_pu
    6234              $C$DW$426       .dwtag  DW_TAG_formal_parameter
    6235                      .dwattr $C$DW$426, DW_AT_name("handle")
    6236                      .dwattr $C$DW$426, DW_AT_TI_symbol_name("_handle")
    6237                      .dwattr $C$DW$426, DW_AT_type(*$C$DW$T$172)
    6238                      .dwattr $C$DW$426, DW_AT_location[DW_OP_reg12]
    6239              
    6240              $C$DW$427       .dwtag  DW_TAG_formal_parameter
    6241                      .dwattr $C$DW$427, DW_AT_name("pVab_in_pu")
    6242                      .dwattr $C$DW$427, DW_AT_TI_symbol_name("_pVab_in_pu")
    6243                      .dwattr $C$DW$427, DW_AT_type(*$C$DW$T$209)
    6244                      .dwattr $C$DW$427, DW_AT_location[DW_OP_reg14]
    6245              
    6246              
    6247              ;***************************************************************
    6248              ;* FNAME: _CTRL_getVab_in_pu            FR SIZE:   0           *
    6249              ;*                                                             *
    6250              ;* FUNCTION ENVIRONMENT                                        *
TMS320C2000 Assembler PC v22.6.0 Tue Apr 18 11:09:46 2023

Copyright (c) 1996-2018 Texas Instruments Incorporated
C:\Users\User\AppData\Local\Temp\{F169EDD6-E2A2-400A-8386-A823CBD75D49} PAGE  121

    6251              ;*                                                             *
    6252              ;* FUNCTION PROPERTIES                                         *
    6253              ;*                            0 Parameter,  0 Auto,  0 SOE     *
    6254              ;***************************************************************
    6255              
    6256              _CTRL_getVab_in_pu:
    6257              ;* AR4   assigned to _handle
    6258              $C$DW$428       .dwtag  DW_TAG_variable
    6259                      .dwattr $C$DW$428, DW_AT_name("handle")
    6260                      .dwattr $C$DW$428, DW_AT_TI_symbol_name("_handle")
    6261                      .dwattr $C$DW$428, DW_AT_type(*$C$DW$T$185)
    6262                      .dwattr $C$DW$428, DW_AT_location[DW_OP_reg12]
    6263              
    6264              ;* AR5   assigned to _pVab_in_pu
    6265              $C$DW$429       .dwtag  DW_TAG_variable
    6266                      .dwattr $C$DW$429, DW_AT_name("pVab_in_pu")
    6267                      .dwattr $C$DW$429, DW_AT_TI_symbol_name("_pVab_in_pu")
    6268                      .dwattr $C$DW$429, DW_AT_type(*$C$DW$T$211)
    6269                      .dwattr $C$DW$429, DW_AT_location[DW_OP_reg14]
    6270              
    6271                      .dwcfi  cfa_offset, -2
    6272                      .dwcfi  save_reg_to_mem, 26, 0
    6273                      .dwpsn  file "D:/GIANT/GIANT_TI_instaspin/TI_instaspin_indoor_smart_trainer/motorware/motorware_1_01_
    6274 00000935 D0B6          MOVB      XAR0,#182             ; [CPU_ALU] |134| 
    6275 00000936 0694          MOVL      ACC,*+XAR4[AR0]       ; [CPU_ALU] |134| 
    6276                      .dwpsn  file "D:/GIANT/GIANT_TI_instaspin/TI_instaspin_indoor_smart_trainer/motorware/motorware_1_01_
    6277 00000937 D0B8          MOVB      XAR0,#184             ; [CPU_ALU] |135| 
    6278                      .dwpsn  file "D:/GIANT/GIANT_TI_instaspin/TI_instaspin_indoor_smart_trainer/motorware/motorware_1_01_
    6279 00000938 1EC5          MOVL      *+XAR5[0],ACC         ; [CPU_ALU] |134| 
    6280                      .dwpsn  file "D:/GIANT/GIANT_TI_instaspin/TI_instaspin_indoor_smart_trainer/motorware/motorware_1_01_
    6281 00000939 0694          MOVL      ACC,*+XAR4[AR0]       ; [CPU_ALU] |135| 
    6282 0000093a 1ED5          MOVL      *+XAR5[2],ACC         ; [CPU_ALU] |135| 
    6283              $C$DW$430       .dwtag  DW_TAG_TI_branch
    6284                      .dwattr $C$DW$430, DW_AT_low_pc(0x00)
    6285                      .dwattr $C$DW$430, DW_AT_TI_return
    6286              
    6287 0000093b 0006          LRETR     ; [CPU_ALU] 
    6288                      ; return occurs ; [] 
    6289                      .dwattr $C$DW$425, DW_AT_TI_end_file("D:/GIANT/GIANT_TI_instaspin/TI_instaspin_indoor_smart_trainer/m
    6290                      .dwattr $C$DW$425, DW_AT_TI_end_line(0x8a)
    6291                      .dwattr $C$DW$425, DW_AT_TI_end_column(0x01)
    6292                      .dwendentry
    6293                      .dwendtag $C$DW$425
    6294              
    6295 0000093c               .sect   ".text"
    6296                      .clink
    6297                      .global _CTRL_getIdq_ref_pu
    6298              
    6299              $C$DW$431       .dwtag  DW_TAG_subprogram
    6300                      .dwattr $C$DW$431, DW_AT_name("CTRL_getIdq_ref_pu")
    6301                      .dwattr $C$DW$431, DW_AT_low_pc(_CTRL_getIdq_ref_pu)
    6302                      .dwattr $C$DW$431, DW_AT_high_pc(0x00)
    6303                      .dwattr $C$DW$431, DW_AT_TI_symbol_name("_CTRL_getIdq_ref_pu")
    6304                      .dwattr $C$DW$431, DW_AT_external
    6305                      .dwattr $C$DW$431, DW_AT_TI_begin_file("D:/GIANT/GIANT_TI_instaspin/TI_instaspin_indoor_smart_trainer
TMS320C2000 Assembler PC v22.6.0 Tue Apr 18 11:09:46 2023

Copyright (c) 1996-2018 Texas Instruments Incorporated
C:\Users\User\AppData\Local\Temp\{F169EDD6-E2A2-400A-8386-A823CBD75D49} PAGE  122

    6306                      .dwattr $C$DW$431, DW_AT_TI_begin_line(0x6c)
    6307                      .dwattr $C$DW$431, DW_AT_TI_begin_column(0x06)
    6308                      .dwattr $C$DW$431, DW_AT_TI_max_frame_size(-2)
    6309                      .dwpsn  file "D:/GIANT/GIANT_TI_instaspin/TI_instaspin_indoor_smart_trainer/motorware/motorware_1_01_
    6310              
    6311                      .dwfde $C$DW$CIE, _CTRL_getIdq_ref_pu
    6312              $C$DW$432       .dwtag  DW_TAG_formal_parameter
    6313                      .dwattr $C$DW$432, DW_AT_name("handle")
    6314                      .dwattr $C$DW$432, DW_AT_TI_symbol_name("_handle")
    6315                      .dwattr $C$DW$432, DW_AT_type(*$C$DW$T$172)
    6316                      .dwattr $C$DW$432, DW_AT_location[DW_OP_reg12]
    6317              
    6318              $C$DW$433       .dwtag  DW_TAG_formal_parameter
    6319                      .dwattr $C$DW$433, DW_AT_name("pIdq_ref_pu")
    6320                      .dwattr $C$DW$433, DW_AT_TI_symbol_name("_pIdq_ref_pu")
    6321                      .dwattr $C$DW$433, DW_AT_type(*$C$DW$T$209)
    6322                      .dwattr $C$DW$433, DW_AT_location[DW_OP_reg14]
    6323              
    6324              
    6325              ;***************************************************************
    6326              ;* FNAME: _CTRL_getIdq_ref_pu           FR SIZE:   0           *
    6327              ;*                                                             *
    6328              ;* FUNCTION ENVIRONMENT                                        *
    6329              ;*                                                             *
    6330              ;* FUNCTION PROPERTIES                                         *
    6331              ;*                            0 Parameter,  0 Auto,  0 SOE     *
    6332              ;***************************************************************
    6333              
    6334              _CTRL_getIdq_ref_pu:
    6335              ;* AR4   assigned to _handle
    6336              $C$DW$434       .dwtag  DW_TAG_variable
    6337                      .dwattr $C$DW$434, DW_AT_name("handle")
    6338                      .dwattr $C$DW$434, DW_AT_TI_symbol_name("_handle")
    6339                      .dwattr $C$DW$434, DW_AT_type(*$C$DW$T$185)
    6340                      .dwattr $C$DW$434, DW_AT_location[DW_OP_reg12]
    6341              
    6342              ;* AR5   assigned to _pIdq_ref_pu
    6343              $C$DW$435       .dwtag  DW_TAG_variable
    6344                      .dwattr $C$DW$435, DW_AT_name("pIdq_ref_pu")
    6345                      .dwattr $C$DW$435, DW_AT_TI_symbol_name("_pIdq_ref_pu")
    6346                      .dwattr $C$DW$435, DW_AT_type(*$C$DW$T$211)
    6347                      .dwattr $C$DW$435, DW_AT_location[DW_OP_reg14]
    6348              
    6349                      .dwcfi  cfa_offset, -2
    6350                      .dwcfi  save_reg_to_mem, 26, 0
    6351                      .dwpsn  file "D:/GIANT/GIANT_TI_instaspin/TI_instaspin_indoor_smart_trainer/motorware/motorware_1_01_
    6352 0000093c D0E2          MOVB      XAR0,#226             ; [CPU_ALU] |112| 
    6353 0000093d 0694          MOVL      ACC,*+XAR4[AR0]       ; [CPU_ALU] |112| 
    6354                      .dwpsn  file "D:/GIANT/GIANT_TI_instaspin/TI_instaspin_indoor_smart_trainer/motorware/motorware_1_01_
    6355 0000093e D0E4          MOVB      XAR0,#228             ; [CPU_ALU] |113| 
    6356                      .dwpsn  file "D:/GIANT/GIANT_TI_instaspin/TI_instaspin_indoor_smart_trainer/motorware/motorware_1_01_
    6357 0000093f 1EC5          MOVL      *+XAR5[0],ACC         ; [CPU_ALU] |112| 
    6358                      .dwpsn  file "D:/GIANT/GIANT_TI_instaspin/TI_instaspin_indoor_smart_trainer/motorware/motorware_1_01_
    6359 00000940 0694          MOVL      ACC,*+XAR4[AR0]       ; [CPU_ALU] |113| 
    6360 00000941 1ED5          MOVL      *+XAR5[2],ACC         ; [CPU_ALU] |113| 
TMS320C2000 Assembler PC v22.6.0 Tue Apr 18 11:09:46 2023

Copyright (c) 1996-2018 Texas Instruments Incorporated
C:\Users\User\AppData\Local\Temp\{F169EDD6-E2A2-400A-8386-A823CBD75D49} PAGE  123

    6361              $C$DW$436       .dwtag  DW_TAG_TI_branch
    6362                      .dwattr $C$DW$436, DW_AT_low_pc(0x00)
    6363                      .dwattr $C$DW$436, DW_AT_TI_return
    6364              
    6365 00000942 0006          LRETR     ; [CPU_ALU] 
    6366                      ; return occurs ; [] 
    6367                      .dwattr $C$DW$431, DW_AT_TI_end_file("D:/GIANT/GIANT_TI_instaspin/TI_instaspin_indoor_smart_trainer/m
    6368                      .dwattr $C$DW$431, DW_AT_TI_end_line(0x74)
    6369                      .dwattr $C$DW$431, DW_AT_TI_end_column(0x01)
    6370                      .dwendentry
    6371                      .dwendtag $C$DW$431
    6372              
    6373 00000943               .sect   ".text"
    6374                      .clink
    6375                      .global _CTRL_getIdq_in_pu
    6376              
    6377              $C$DW$437       .dwtag  DW_TAG_subprogram
    6378                      .dwattr $C$DW$437, DW_AT_name("CTRL_getIdq_in_pu")
    6379                      .dwattr $C$DW$437, DW_AT_low_pc(_CTRL_getIdq_in_pu)
    6380                      .dwattr $C$DW$437, DW_AT_high_pc(0x00)
    6381                      .dwattr $C$DW$437, DW_AT_TI_symbol_name("_CTRL_getIdq_in_pu")
    6382                      .dwattr $C$DW$437, DW_AT_external
    6383                      .dwattr $C$DW$437, DW_AT_TI_begin_file("D:/GIANT/GIANT_TI_instaspin/TI_instaspin_indoor_smart_trainer
    6384                      .dwattr $C$DW$437, DW_AT_TI_begin_line(0x62)
    6385                      .dwattr $C$DW$437, DW_AT_TI_begin_column(0x06)
    6386                      .dwattr $C$DW$437, DW_AT_TI_max_frame_size(-2)
    6387                      .dwpsn  file "D:/GIANT/GIANT_TI_instaspin/TI_instaspin_indoor_smart_trainer/motorware/motorware_1_01_
    6388              
    6389                      .dwfde $C$DW$CIE, _CTRL_getIdq_in_pu
    6390              $C$DW$438       .dwtag  DW_TAG_formal_parameter
    6391                      .dwattr $C$DW$438, DW_AT_name("handle")
    6392                      .dwattr $C$DW$438, DW_AT_TI_symbol_name("_handle")
    6393                      .dwattr $C$DW$438, DW_AT_type(*$C$DW$T$172)
    6394                      .dwattr $C$DW$438, DW_AT_location[DW_OP_reg12]
    6395              
    6396              $C$DW$439       .dwtag  DW_TAG_formal_parameter
    6397                      .dwattr $C$DW$439, DW_AT_name("pIdq_in_pu")
    6398                      .dwattr $C$DW$439, DW_AT_TI_symbol_name("_pIdq_in_pu")
    6399                      .dwattr $C$DW$439, DW_AT_type(*$C$DW$T$209)
    6400                      .dwattr $C$DW$439, DW_AT_location[DW_OP_reg14]
    6401              
    6402              
    6403              ;***************************************************************
    6404              ;* FNAME: _CTRL_getIdq_in_pu            FR SIZE:   0           *
    6405              ;*                                                             *
    6406              ;* FUNCTION ENVIRONMENT                                        *
    6407              ;*                                                             *
    6408              ;* FUNCTION PROPERTIES                                         *
    6409              ;*                            0 Parameter,  0 Auto,  0 SOE     *
    6410              ;***************************************************************
    6411              
    6412              _CTRL_getIdq_in_pu:
    6413              ;* AR4   assigned to _handle
    6414              $C$DW$440       .dwtag  DW_TAG_variable
    6415                      .dwattr $C$DW$440, DW_AT_name("handle")
TMS320C2000 Assembler PC v22.6.0 Tue Apr 18 11:09:46 2023

Copyright (c) 1996-2018 Texas Instruments Incorporated
C:\Users\User\AppData\Local\Temp\{F169EDD6-E2A2-400A-8386-A823CBD75D49} PAGE  124

    6416                      .dwattr $C$DW$440, DW_AT_TI_symbol_name("_handle")
    6417                      .dwattr $C$DW$440, DW_AT_type(*$C$DW$T$185)
    6418                      .dwattr $C$DW$440, DW_AT_location[DW_OP_reg12]
    6419              
    6420              ;* AR5   assigned to _pIdq_in_pu
    6421              $C$DW$441       .dwtag  DW_TAG_variable
    6422                      .dwattr $C$DW$441, DW_AT_name("pIdq_in_pu")
    6423                      .dwattr $C$DW$441, DW_AT_TI_symbol_name("_pIdq_in_pu")
    6424                      .dwattr $C$DW$441, DW_AT_type(*$C$DW$T$211)
    6425                      .dwattr $C$DW$441, DW_AT_location[DW_OP_reg14]
    6426              
    6427                      .dwcfi  cfa_offset, -2
    6428                      .dwcfi  save_reg_to_mem, 26, 0
    6429                      .dwpsn  file "D:/GIANT/GIANT_TI_instaspin/TI_instaspin_indoor_smart_trainer/motorware/motorware_1_01_
    6430 00000943 D0B2          MOVB      XAR0,#178             ; [CPU_ALU] |102| 
    6431 00000944 0694          MOVL      ACC,*+XAR4[AR0]       ; [CPU_ALU] |102| 
    6432                      .dwpsn  file "D:/GIANT/GIANT_TI_instaspin/TI_instaspin_indoor_smart_trainer/motorware/motorware_1_01_
    6433 00000945 D0B4          MOVB      XAR0,#180             ; [CPU_ALU] |103| 
    6434                      .dwpsn  file "D:/GIANT/GIANT_TI_instaspin/TI_instaspin_indoor_smart_trainer/motorware/motorware_1_01_
    6435 00000946 1EC5          MOVL      *+XAR5[0],ACC         ; [CPU_ALU] |102| 
    6436                      .dwpsn  file "D:/GIANT/GIANT_TI_instaspin/TI_instaspin_indoor_smart_trainer/motorware/motorware_1_01_
    6437 00000947 0694          MOVL      ACC,*+XAR4[AR0]       ; [CPU_ALU] |103| 
    6438 00000948 1ED5          MOVL      *+XAR5[2],ACC         ; [CPU_ALU] |103| 
    6439              $C$DW$442       .dwtag  DW_TAG_TI_branch
    6440                      .dwattr $C$DW$442, DW_AT_low_pc(0x00)
    6441                      .dwattr $C$DW$442, DW_AT_TI_return
    6442              
    6443 00000949 0006          LRETR     ; [CPU_ALU] 
    6444                      ; return occurs ; [] 
    6445                      .dwattr $C$DW$437, DW_AT_TI_end_file("D:/GIANT/GIANT_TI_instaspin/TI_instaspin_indoor_smart_trainer/m
    6446                      .dwattr $C$DW$437, DW_AT_TI_end_line(0x6a)
    6447                      .dwattr $C$DW$437, DW_AT_TI_end_column(0x01)
    6448                      .dwendentry
    6449                      .dwendtag $C$DW$437
    6450              
    6451 0000094a               .sect   ".text"
    6452                      .clink
    6453                      .global _CTRL_getIab_in_pu
    6454              
    6455              $C$DW$443       .dwtag  DW_TAG_subprogram
    6456                      .dwattr $C$DW$443, DW_AT_name("CTRL_getIab_in_pu")
    6457                      .dwattr $C$DW$443, DW_AT_low_pc(_CTRL_getIab_in_pu)
    6458                      .dwattr $C$DW$443, DW_AT_high_pc(0x00)
    6459                      .dwattr $C$DW$443, DW_AT_TI_symbol_name("_CTRL_getIab_in_pu")
    6460                      .dwattr $C$DW$443, DW_AT_external
    6461                      .dwattr $C$DW$443, DW_AT_TI_begin_file("D:/GIANT/GIANT_TI_instaspin/TI_instaspin_indoor_smart_trainer
    6462                      .dwattr $C$DW$443, DW_AT_TI_begin_line(0x58)
    6463                      .dwattr $C$DW$443, DW_AT_TI_begin_column(0x06)
    6464                      .dwattr $C$DW$443, DW_AT_TI_max_frame_size(-2)
    6465                      .dwpsn  file "D:/GIANT/GIANT_TI_instaspin/TI_instaspin_indoor_smart_trainer/motorware/motorware_1_01_
    6466              
    6467                      .dwfde $C$DW$CIE, _CTRL_getIab_in_pu
    6468              $C$DW$444       .dwtag  DW_TAG_formal_parameter
    6469                      .dwattr $C$DW$444, DW_AT_name("handle")
    6470                      .dwattr $C$DW$444, DW_AT_TI_symbol_name("_handle")
TMS320C2000 Assembler PC v22.6.0 Tue Apr 18 11:09:46 2023

Copyright (c) 1996-2018 Texas Instruments Incorporated
C:\Users\User\AppData\Local\Temp\{F169EDD6-E2A2-400A-8386-A823CBD75D49} PAGE  125

    6471                      .dwattr $C$DW$444, DW_AT_type(*$C$DW$T$172)
    6472                      .dwattr $C$DW$444, DW_AT_location[DW_OP_reg12]
    6473              
    6474              $C$DW$445       .dwtag  DW_TAG_formal_parameter
    6475                      .dwattr $C$DW$445, DW_AT_name("pIab_in_pu")
    6476                      .dwattr $C$DW$445, DW_AT_TI_symbol_name("_pIab_in_pu")
    6477                      .dwattr $C$DW$445, DW_AT_type(*$C$DW$T$209)
    6478                      .dwattr $C$DW$445, DW_AT_location[DW_OP_reg14]
    6479              
    6480              
    6481              ;***************************************************************
    6482              ;* FNAME: _CTRL_getIab_in_pu            FR SIZE:   0           *
    6483              ;*                                                             *
    6484              ;* FUNCTION ENVIRONMENT                                        *
    6485              ;*                                                             *
    6486              ;* FUNCTION PROPERTIES                                         *
    6487              ;*                            0 Parameter,  0 Auto,  0 SOE     *
    6488              ;***************************************************************
    6489              
    6490              _CTRL_getIab_in_pu:
    6491              ;* AR4   assigned to _handle
    6492              $C$DW$446       .dwtag  DW_TAG_variable
    6493                      .dwattr $C$DW$446, DW_AT_name("handle")
    6494                      .dwattr $C$DW$446, DW_AT_TI_symbol_name("_handle")
    6495                      .dwattr $C$DW$446, DW_AT_type(*$C$DW$T$185)
    6496                      .dwattr $C$DW$446, DW_AT_location[DW_OP_reg12]
    6497              
    6498              ;* AR5   assigned to _pIab_in_pu
    6499              $C$DW$447       .dwtag  DW_TAG_variable
    6500                      .dwattr $C$DW$447, DW_AT_name("pIab_in_pu")
    6501                      .dwattr $C$DW$447, DW_AT_TI_symbol_name("_pIab_in_pu")
    6502                      .dwattr $C$DW$447, DW_AT_type(*$C$DW$T$211)
    6503                      .dwattr $C$DW$447, DW_AT_location[DW_OP_reg14]
    6504              
    6505                      .dwcfi  cfa_offset, -2
    6506                      .dwcfi  save_reg_to_mem, 26, 0
    6507                      .dwpsn  file "D:/GIANT/GIANT_TI_instaspin/TI_instaspin_indoor_smart_trainer/motorware/motorware_1_01_
    6508 0000094a D0AA          MOVB      XAR0,#170             ; [CPU_ALU] |92| 
    6509 0000094b 0694          MOVL      ACC,*+XAR4[AR0]       ; [CPU_ALU] |92| 
    6510                      .dwpsn  file "D:/GIANT/GIANT_TI_instaspin/TI_instaspin_indoor_smart_trainer/motorware/motorware_1_01_
    6511 0000094c D0AC          MOVB      XAR0,#172             ; [CPU_ALU] |93| 
    6512                      .dwpsn  file "D:/GIANT/GIANT_TI_instaspin/TI_instaspin_indoor_smart_trainer/motorware/motorware_1_01_
    6513 0000094d 1EC5          MOVL      *+XAR5[0],ACC         ; [CPU_ALU] |92| 
    6514                      .dwpsn  file "D:/GIANT/GIANT_TI_instaspin/TI_instaspin_indoor_smart_trainer/motorware/motorware_1_01_
    6515 0000094e 0694          MOVL      ACC,*+XAR4[AR0]       ; [CPU_ALU] |93| 
    6516 0000094f 1ED5          MOVL      *+XAR5[2],ACC         ; [CPU_ALU] |93| 
    6517              $C$DW$448       .dwtag  DW_TAG_TI_branch
    6518                      .dwattr $C$DW$448, DW_AT_low_pc(0x00)
    6519                      .dwattr $C$DW$448, DW_AT_TI_return
    6520              
    6521 00000950 0006          LRETR     ; [CPU_ALU] 
    6522                      ; return occurs ; [] 
    6523                      .dwattr $C$DW$443, DW_AT_TI_end_file("D:/GIANT/GIANT_TI_instaspin/TI_instaspin_indoor_smart_trainer/m
    6524                      .dwattr $C$DW$443, DW_AT_TI_end_line(0x60)
    6525                      .dwattr $C$DW$443, DW_AT_TI_end_column(0x01)
TMS320C2000 Assembler PC v22.6.0 Tue Apr 18 11:09:46 2023

Copyright (c) 1996-2018 Texas Instruments Incorporated
C:\Users\User\AppData\Local\Temp\{F169EDD6-E2A2-400A-8386-A823CBD75D49} PAGE  126

    6526                      .dwendentry
    6527                      .dwendtag $C$DW$443
    6528              
    6529 00000951               .sect   ".text"
    6530                      .clink
    6531                      .global _CTRL_getIab_filt_pu
    6532              
    6533              $C$DW$449       .dwtag  DW_TAG_subprogram
    6534                      .dwattr $C$DW$449, DW_AT_name("CTRL_getIab_filt_pu")
    6535                      .dwattr $C$DW$449, DW_AT_low_pc(_CTRL_getIab_filt_pu)
    6536                      .dwattr $C$DW$449, DW_AT_high_pc(0x00)
    6537                      .dwattr $C$DW$449, DW_AT_TI_symbol_name("_CTRL_getIab_filt_pu")
    6538                      .dwattr $C$DW$449, DW_AT_external
    6539                      .dwattr $C$DW$449, DW_AT_TI_begin_file("D:/GIANT/GIANT_TI_instaspin/TI_instaspin_indoor_smart_trainer
    6540                      .dwattr $C$DW$449, DW_AT_TI_begin_line(0x4e)
    6541                      .dwattr $C$DW$449, DW_AT_TI_begin_column(0x06)
    6542                      .dwattr $C$DW$449, DW_AT_TI_max_frame_size(-2)
    6543                      .dwpsn  file "D:/GIANT/GIANT_TI_instaspin/TI_instaspin_indoor_smart_trainer/motorware/motorware_1_01_
    6544              
    6545                      .dwfde $C$DW$CIE, _CTRL_getIab_filt_pu
    6546              $C$DW$450       .dwtag  DW_TAG_formal_parameter
    6547                      .dwattr $C$DW$450, DW_AT_name("handle")
    6548                      .dwattr $C$DW$450, DW_AT_TI_symbol_name("_handle")
    6549                      .dwattr $C$DW$450, DW_AT_type(*$C$DW$T$172)
    6550                      .dwattr $C$DW$450, DW_AT_location[DW_OP_reg12]
    6551              
    6552              $C$DW$451       .dwtag  DW_TAG_formal_parameter
    6553                      .dwattr $C$DW$451, DW_AT_name("pIab_filt_pu")
    6554                      .dwattr $C$DW$451, DW_AT_TI_symbol_name("_pIab_filt_pu")
    6555                      .dwattr $C$DW$451, DW_AT_type(*$C$DW$T$209)
    6556                      .dwattr $C$DW$451, DW_AT_location[DW_OP_reg14]
    6557              
    6558              
    6559              ;***************************************************************
    6560              ;* FNAME: _CTRL_getIab_filt_pu          FR SIZE:   0           *
    6561              ;*                                                             *
    6562              ;* FUNCTION ENVIRONMENT                                        *
    6563              ;*                                                             *
    6564              ;* FUNCTION PROPERTIES                                         *
    6565              ;*                            0 Parameter,  0 Auto,  0 SOE     *
    6566              ;***************************************************************
    6567              
    6568              _CTRL_getIab_filt_pu:
    6569              ;* AR4   assigned to _handle
    6570              $C$DW$452       .dwtag  DW_TAG_variable
    6571                      .dwattr $C$DW$452, DW_AT_name("handle")
    6572                      .dwattr $C$DW$452, DW_AT_TI_symbol_name("_handle")
    6573                      .dwattr $C$DW$452, DW_AT_type(*$C$DW$T$185)
    6574                      .dwattr $C$DW$452, DW_AT_location[DW_OP_reg12]
    6575              
    6576              ;* AR5   assigned to _pIab_filt_pu
    6577              $C$DW$453       .dwtag  DW_TAG_variable
    6578                      .dwattr $C$DW$453, DW_AT_name("pIab_filt_pu")
    6579                      .dwattr $C$DW$453, DW_AT_TI_symbol_name("_pIab_filt_pu")
    6580                      .dwattr $C$DW$453, DW_AT_type(*$C$DW$T$211)
TMS320C2000 Assembler PC v22.6.0 Tue Apr 18 11:09:46 2023

Copyright (c) 1996-2018 Texas Instruments Incorporated
C:\Users\User\AppData\Local\Temp\{F169EDD6-E2A2-400A-8386-A823CBD75D49} PAGE  127

    6581                      .dwattr $C$DW$453, DW_AT_location[DW_OP_reg14]
    6582              
    6583                      .dwcfi  cfa_offset, -2
    6584                      .dwcfi  save_reg_to_mem, 26, 0
    6585                      .dwpsn  file "D:/GIANT/GIANT_TI_instaspin/TI_instaspin_indoor_smart_trainer/motorware/motorware_1_01_
    6586 00000951 D0AE          MOVB      XAR0,#174             ; [CPU_ALU] |82| 
    6587 00000952 0694          MOVL      ACC,*+XAR4[AR0]       ; [CPU_ALU] |82| 
    6588                      .dwpsn  file "D:/GIANT/GIANT_TI_instaspin/TI_instaspin_indoor_smart_trainer/motorware/motorware_1_01_
    6589 00000953 D0B0          MOVB      XAR0,#176             ; [CPU_ALU] |83| 
    6590                      .dwpsn  file "D:/GIANT/GIANT_TI_instaspin/TI_instaspin_indoor_smart_trainer/motorware/motorware_1_01_
    6591 00000954 1EC5          MOVL      *+XAR5[0],ACC         ; [CPU_ALU] |82| 
    6592                      .dwpsn  file "D:/GIANT/GIANT_TI_instaspin/TI_instaspin_indoor_smart_trainer/motorware/motorware_1_01_
    6593 00000955 0694          MOVL      ACC,*+XAR4[AR0]       ; [CPU_ALU] |83| 
    6594 00000956 1ED5          MOVL      *+XAR5[2],ACC         ; [CPU_ALU] |83| 
    6595              $C$DW$454       .dwtag  DW_TAG_TI_branch
    6596                      .dwattr $C$DW$454, DW_AT_low_pc(0x00)
    6597                      .dwattr $C$DW$454, DW_AT_TI_return
    6598              
    6599 00000957 0006          LRETR     ; [CPU_ALU] 
    6600                      ; return occurs ; [] 
    6601                      .dwattr $C$DW$449, DW_AT_TI_end_file("D:/GIANT/GIANT_TI_instaspin/TI_instaspin_indoor_smart_trainer/m
    6602                      .dwattr $C$DW$449, DW_AT_TI_end_line(0x56)
    6603                      .dwattr $C$DW$449, DW_AT_TI_end_column(0x01)
    6604                      .dwendentry
    6605                      .dwendtag $C$DW$449
    6606              
    6607 00000958               .sect   ".text"
    6608                      .clink
    6609                      .global _CTRL_getGains
    6610              
    6611              $C$DW$455       .dwtag  DW_TAG_subprogram
    6612                      .dwattr $C$DW$455, DW_AT_name("CTRL_getGains")
    6613                      .dwattr $C$DW$455, DW_AT_low_pc(_CTRL_getGains)
    6614                      .dwattr $C$DW$455, DW_AT_high_pc(0x00)
    6615                      .dwattr $C$DW$455, DW_AT_TI_symbol_name("_CTRL_getGains")
    6616                      .dwattr $C$DW$455, DW_AT_external
    6617                      .dwattr $C$DW$455, DW_AT_TI_begin_file("D:/GIANT/GIANT_TI_instaspin/TI_instaspin_indoor_smart_trainer
    6618                      .dwattr $C$DW$455, DW_AT_TI_begin_line(0x43)
    6619                      .dwattr $C$DW$455, DW_AT_TI_begin_column(0x06)
    6620                      .dwattr $C$DW$455, DW_AT_TI_max_frame_size(-2)
    6621                      .dwpsn  file "D:/GIANT/GIANT_TI_instaspin/TI_instaspin_indoor_smart_trainer/motorware/motorware_1_01_
    6622              
    6623                      .dwfde $C$DW$CIE, _CTRL_getGains
    6624              $C$DW$456       .dwtag  DW_TAG_formal_parameter
    6625                      .dwattr $C$DW$456, DW_AT_name("handle")
    6626                      .dwattr $C$DW$456, DW_AT_TI_symbol_name("_handle")
    6627                      .dwattr $C$DW$456, DW_AT_type(*$C$DW$T$172)
    6628                      .dwattr $C$DW$456, DW_AT_location[DW_OP_reg12]
    6629              
    6630              $C$DW$457       .dwtag  DW_TAG_formal_parameter
    6631                      .dwattr $C$DW$457, DW_AT_name("ctrlType")
    6632                      .dwattr $C$DW$457, DW_AT_TI_symbol_name("_ctrlType")
    6633                      .dwattr $C$DW$457, DW_AT_type(*$C$DW$T$182)
    6634                      .dwattr $C$DW$457, DW_AT_location[DW_OP_reg0]
    6635              
TMS320C2000 Assembler PC v22.6.0 Tue Apr 18 11:09:46 2023

Copyright (c) 1996-2018 Texas Instruments Incorporated
C:\Users\User\AppData\Local\Temp\{F169EDD6-E2A2-400A-8386-A823CBD75D49} PAGE  128

    6636              $C$DW$458       .dwtag  DW_TAG_formal_parameter
    6637                      .dwattr $C$DW$458, DW_AT_name("pKp")
    6638                      .dwattr $C$DW$458, DW_AT_TI_symbol_name("_pKp")
    6639                      .dwattr $C$DW$458, DW_AT_type(*$C$DW$T$242)
    6640                      .dwattr $C$DW$458, DW_AT_location[DW_OP_reg14]
    6641              
    6642              $C$DW$459       .dwtag  DW_TAG_formal_parameter
    6643                      .dwattr $C$DW$459, DW_AT_name("pKi")
    6644                      .dwattr $C$DW$459, DW_AT_TI_symbol_name("_pKi")
    6645                      .dwattr $C$DW$459, DW_AT_type(*$C$DW$T$242)
    6646                      .dwattr $C$DW$459, DW_AT_location[DW_OP_breg20 -4]
    6647              
    6648              $C$DW$460       .dwtag  DW_TAG_formal_parameter
    6649                      .dwattr $C$DW$460, DW_AT_name("pKd")
    6650                      .dwattr $C$DW$460, DW_AT_TI_symbol_name("_pKd")
    6651                      .dwattr $C$DW$460, DW_AT_type(*$C$DW$T$242)
    6652                      .dwattr $C$DW$460, DW_AT_location[DW_OP_breg20 -6]
    6653              
    6654              
    6655              ;***************************************************************
    6656              ;* FNAME: _CTRL_getGains                FR SIZE:   0           *
    6657              ;*                                                             *
    6658              ;* FUNCTION ENVIRONMENT                                        *
    6659              ;*                                                             *
    6660              ;* FUNCTION PROPERTIES                                         *
    6661              ;*                            0 Parameter,  0 Auto,  0 SOE     *
    6662              ;***************************************************************
    6663              
    6664              _CTRL_getGains:
    6665              ;* AR4   assigned to _handle
    6666              $C$DW$461       .dwtag  DW_TAG_variable
    6667                      .dwattr $C$DW$461, DW_AT_name("handle")
    6668                      .dwattr $C$DW$461, DW_AT_TI_symbol_name("_handle")
    6669                      .dwattr $C$DW$461, DW_AT_type(*$C$DW$T$185)
    6670                      .dwattr $C$DW$461, DW_AT_location[DW_OP_reg12]
    6671              
    6672              ;* AL    assigned to _ctrlType
    6673              $C$DW$462       .dwtag  DW_TAG_variable
    6674                      .dwattr $C$DW$462, DW_AT_name("ctrlType")
    6675                      .dwattr $C$DW$462, DW_AT_TI_symbol_name("_ctrlType")
    6676                      .dwattr $C$DW$462, DW_AT_type(*$C$DW$T$183)
    6677                      .dwattr $C$DW$462, DW_AT_location[DW_OP_reg0]
    6678              
    6679              ;* AR5   assigned to _pKp
    6680              $C$DW$463       .dwtag  DW_TAG_variable
    6681                      .dwattr $C$DW$463, DW_AT_name("pKp")
    6682                      .dwattr $C$DW$463, DW_AT_TI_symbol_name("_pKp")
    6683                      .dwattr $C$DW$463, DW_AT_type(*$C$DW$T$313)
    6684                      .dwattr $C$DW$463, DW_AT_location[DW_OP_reg14]
    6685              
    6686              ;* AR7   assigned to _pKi
    6687              $C$DW$464       .dwtag  DW_TAG_variable
    6688                      .dwattr $C$DW$464, DW_AT_name("pKi")
    6689                      .dwattr $C$DW$464, DW_AT_TI_symbol_name("_pKi")
    6690                      .dwattr $C$DW$464, DW_AT_type(*$C$DW$T$313)
TMS320C2000 Assembler PC v22.6.0 Tue Apr 18 11:09:46 2023

Copyright (c) 1996-2018 Texas Instruments Incorporated
C:\Users\User\AppData\Local\Temp\{F169EDD6-E2A2-400A-8386-A823CBD75D49} PAGE  129

    6691                      .dwattr $C$DW$464, DW_AT_location[DW_OP_reg18]
    6692              
    6693              ;* AR6   assigned to _pKd
    6694              $C$DW$465       .dwtag  DW_TAG_variable
    6695                      .dwattr $C$DW$465, DW_AT_name("pKd")
    6696                      .dwattr $C$DW$465, DW_AT_TI_symbol_name("_pKd")
    6697                      .dwattr $C$DW$465, DW_AT_type(*$C$DW$T$313)
    6698                      .dwattr $C$DW$465, DW_AT_location[DW_OP_reg16]
    6699              
    6700              ;* PL    assigned to _Kp
    6701              $C$DW$466       .dwtag  DW_TAG_variable
    6702                      .dwattr $C$DW$466, DW_AT_name("Kp")
    6703                      .dwattr $C$DW$466, DW_AT_TI_symbol_name("_Kp")
    6704                      .dwattr $C$DW$466, DW_AT_type(*$C$DW$T$32)
    6705                      .dwattr $C$DW$466, DW_AT_location[DW_OP_reg2]
    6706              
    6707              ;* PL    assigned to _Ki
    6708              $C$DW$467       .dwtag  DW_TAG_variable
    6709                      .dwattr $C$DW$467, DW_AT_name("Ki")
    6710                      .dwattr $C$DW$467, DW_AT_TI_symbol_name("_Ki")
    6711                      .dwattr $C$DW$467, DW_AT_type(*$C$DW$T$32)
    6712                      .dwattr $C$DW$467, DW_AT_location[DW_OP_reg2]
    6713              
    6714              ;* AL    assigned to _Kd
    6715              $C$DW$468       .dwtag  DW_TAG_variable
    6716                      .dwattr $C$DW$468, DW_AT_name("Kd")
    6717                      .dwattr $C$DW$468, DW_AT_TI_symbol_name("_Kd")
    6718                      .dwattr $C$DW$468, DW_AT_type(*$C$DW$T$32)
    6719                      .dwattr $C$DW$468, DW_AT_location[DW_OP_reg0]
    6720              
    6721                      .dwcfi  cfa_offset, -2
    6722                      .dwcfi  save_reg_to_mem, 26, 0
    6723                      .dwpsn  file "D:/GIANT/GIANT_TI_instaspin/TI_instaspin_indoor_smart_trainer/motorware/motorware_1_01_
    6724 00000958 5200          CMPB      AL,#0                 ; [CPU_ALU] |511| 
    6725                      .dwpsn  file "D:/GIANT/GIANT_TI_instaspin/TI_instaspin_indoor_smart_trainer/motorware/motorware_1_01_
    6726 00000959 C446          MOVL      XAR6,*-SP[6]          ; [CPU_ALU] |69| 
    6727 0000095a C544          MOVL      XAR7,*-SP[4]          ; [CPU_ALU] |69| 
    6728                      .dwpsn  file "D:/GIANT/GIANT_TI_instaspin/TI_instaspin_indoor_smart_trainer/motorware/motorware_1_01_
    6729 0000095b 610B          B         $C$L83,EQ             ; [CPU_ALU] |511| 
    6730                      ; branchcc occurs ; [] |511| 
    6731 0000095c 5201          CMPB      AL,#1                 ; [CPU_ALU] |511| 
    6732 0000095d 6003          B         $C$L81,NEQ            ; [CPU_ALU] |511| 
    6733                      ; branchcc occurs ; [] |511| 
    6734 0000095e D0CA          MOVB      XAR0,#202             ; [CPU_ALU] |511| 
    6735 0000095f 6F08          B         $C$L84,UNC            ; [CPU_ALU] |511| 
    6736                      ; branch occurs ; [] |511| 
    6737 00000960       $C$L81:    
    6738 00000960 5202          CMPB      AL,#2                 ; [CPU_ALU] |511| 
    6739 00000961 6003          B         $C$L82,NEQ            ; [CPU_ALU] |511| 
    6740                      ; branchcc occurs ; [] |511| 
    6741 00000962 D0CC          MOVB      XAR0,#204             ; [CPU_ALU] |511| 
    6742 00000963 6F04          B         $C$L84,UNC            ; [CPU_ALU] |511| 
    6743                      ; branch occurs ; [] |511| 
    6744 00000964       $C$L82:    
    6745 00000964 3100          MOV       P,#0                  ; [CPU_ALU] |511| 
TMS320C2000 Assembler PC v22.6.0 Tue Apr 18 11:09:46 2023

Copyright (c) 1996-2018 Texas Instruments Incorporated
C:\Users\User\AppData\Local\Temp\{F169EDD6-E2A2-400A-8386-A823CBD75D49} PAGE  130

    6746 00000965 6F03          B         $C$L85,UNC            ; [CPU_ALU] |511| 
    6747                      ; branch occurs ; [] |511| 
    6748 00000966       $C$L83:    
    6749 00000966 D0CE          MOVB      XAR0,#206             ; [CPU_ALU] |511| 
    6750 00000967       $C$L84:    
    6751 00000967 A394          MOVL      P,*+XAR4[AR0]         ; [CPU_ALU] |511| 
    6752 00000968       $C$L85:    
    6753                      .dwpsn  file "D:/GIANT/GIANT_TI_instaspin/TI_instaspin_indoor_smart_trainer/motorware/motorware_1_01_
    6754 00000968 5200          CMPB      AL,#0                 ; [CPU_ALU] |459| 
    6755                      .dwpsn  file "D:/GIANT/GIANT_TI_instaspin/TI_instaspin_indoor_smart_trainer/motorware/motorware_1_01_
    6756 00000969 A9C5          MOVL      *+XAR5[0],P           ; [CPU_ALU] |71| 
    6757                      .dwpsn  file "D:/GIANT/GIANT_TI_instaspin/TI_instaspin_indoor_smart_trainer/motorware/motorware_1_01_
    6758 0000096a 610B          B         $C$L88,EQ             ; [CPU_ALU] |459| 
    6759                      ; branchcc occurs ; [] |459| 
    6760 0000096b 5201          CMPB      AL,#1                 ; [CPU_ALU] |459| 
    6761 0000096c 6003          B         $C$L86,NEQ            ; [CPU_ALU] |459| 
    6762                      ; branchcc occurs ; [] |459| 
    6763 0000096d D0D0          MOVB      XAR0,#208             ; [CPU_ALU] |459| 
    6764 0000096e 6F08          B         $C$L89,UNC            ; [CPU_ALU] |459| 
    6765                      ; branch occurs ; [] |459| 
    6766 0000096f       $C$L86:    
    6767 0000096f 5202          CMPB      AL,#2                 ; [CPU_ALU] |459| 
    6768 00000970 6003          B         $C$L87,NEQ            ; [CPU_ALU] |459| 
    6769                      ; branchcc occurs ; [] |459| 
    6770 00000971 D0D2          MOVB      XAR0,#210             ; [CPU_ALU] |459| 
    6771 00000972 6F04          B         $C$L89,UNC            ; [CPU_ALU] |459| 
    6772                      ; branch occurs ; [] |459| 
    6773 00000973       $C$L87:    
    6774 00000973 3100          MOV       P,#0                  ; [CPU_ALU] |459| 
    6775 00000974 6F03          B         $C$L90,UNC            ; [CPU_ALU] |459| 
    6776                      ; branch occurs ; [] |459| 
    6777 00000975       $C$L88:    
    6778 00000975 D0D4          MOVB      XAR0,#212             ; [CPU_ALU] |459| 
    6779 00000976       $C$L89:    
    6780 00000976 A394          MOVL      P,*+XAR4[AR0]         ; [CPU_ALU] |459| 
    6781 00000977       $C$L90:    
    6782                      .dwpsn  file "D:/GIANT/GIANT_TI_instaspin/TI_instaspin_indoor_smart_trainer/motorware/motorware_1_01_
    6783 00000977 5200          CMPB      AL,#0                 ; [CPU_ALU] |485| 
    6784                      .dwpsn  file "D:/GIANT/GIANT_TI_instaspin/TI_instaspin_indoor_smart_trainer/motorware/motorware_1_01_
    6785 00000978 A9C7          MOVL      *+XAR7[0],P           ; [CPU_ALU] |72| 
    6786                      .dwpsn  file "D:/GIANT/GIANT_TI_instaspin/TI_instaspin_indoor_smart_trainer/motorware/motorware_1_01_
    6787 00000979 610B          B         $C$L93,EQ             ; [CPU_ALU] |485| 
    6788                      ; branchcc occurs ; [] |485| 
    6789 0000097a 5201          CMPB      AL,#1                 ; [CPU_ALU] |485| 
    6790 0000097b 6003          B         $C$L91,NEQ            ; [CPU_ALU] |485| 
    6791                      ; branchcc occurs ; [] |485| 
    6792 0000097c D0D6          MOVB      XAR0,#214             ; [CPU_ALU] |485| 
    6793 0000097d 6F08          B         $C$L94,UNC            ; [CPU_ALU] |485| 
    6794                      ; branch occurs ; [] |485| 
    6795 0000097e       $C$L91:    
    6796 0000097e 5202          CMPB      AL,#2                 ; [CPU_ALU] |485| 
    6797 0000097f 6003          B         $C$L92,NEQ            ; [CPU_ALU] |485| 
    6798                      ; branchcc occurs ; [] |485| 
    6799 00000980 D0D8          MOVB      XAR0,#216             ; [CPU_ALU] |485| 
    6800 00000981 6F04          B         $C$L94,UNC            ; [CPU_ALU] |485| 
TMS320C2000 Assembler PC v22.6.0 Tue Apr 18 11:09:46 2023

Copyright (c) 1996-2018 Texas Instruments Incorporated
C:\Users\User\AppData\Local\Temp\{F169EDD6-E2A2-400A-8386-A823CBD75D49} PAGE  131

    6801                      ; branch occurs ; [] |485| 
    6802 00000982       $C$L92:    
    6803 00000982 0200          MOVB      ACC,#0                ; [CPU_ALU] |485| 
    6804 00000983 6F03          B         $C$L95,UNC            ; [CPU_ALU] |485| 
    6805                      ; branch occurs ; [] |485| 
    6806 00000984       $C$L93:    
    6807 00000984 D0DA          MOVB      XAR0,#218             ; [CPU_ALU] |485| 
    6808 00000985       $C$L94:    
    6809 00000985 0694          MOVL      ACC,*+XAR4[AR0]       ; [CPU_ALU] |485| 
    6810 00000986       $C$L95:    
    6811                      .dwpsn  file "D:/GIANT/GIANT_TI_instaspin/TI_instaspin_indoor_smart_trainer/motorware/motorware_1_01_
    6812 00000986 1EC6          MOVL      *+XAR6[0],ACC         ; [CPU_ALU] |73| 
    6813              $C$DW$469       .dwtag  DW_TAG_TI_branch
    6814                      .dwattr $C$DW$469, DW_AT_low_pc(0x00)
    6815                      .dwattr $C$DW$469, DW_AT_TI_return
    6816              
    6817 00000987 0006          LRETR     ; [CPU_ALU] 
    6818                      ; return occurs ; [] 
    6819                      .dwattr $C$DW$455, DW_AT_TI_end_file("D:/GIANT/GIANT_TI_instaspin/TI_instaspin_indoor_smart_trainer/m
    6820                      .dwattr $C$DW$455, DW_AT_TI_end_line(0x4c)
    6821                      .dwattr $C$DW$455, DW_AT_TI_end_column(0x01)
    6822                      .dwendentry
    6823                      .dwendtag $C$DW$455
    6824              
    6825 00000988               .sect   ".text"
    6826                      .clink
    6827              
    6828              $C$DW$470       .dwtag  DW_TAG_subprogram
    6829                      .dwattr $C$DW$470, DW_AT_name("CTRL_setSpd_max_pu")
    6830                      .dwattr $C$DW$470, DW_AT_low_pc(_CTRL_setSpd_max_pu)
    6831                      .dwattr $C$DW$470, DW_AT_high_pc(0x00)
    6832                      .dwattr $C$DW$470, DW_AT_TI_symbol_name("_CTRL_setSpd_max_pu")
    6833                      .dwattr $C$DW$470, DW_AT_TI_begin_file("D:/GIANT/GIANT_TI_instaspin/TI_instaspin_indoor_smart_trainer
    6834                      .dwattr $C$DW$470, DW_AT_TI_begin_line(0x6af)
    6835                      .dwattr $C$DW$470, DW_AT_TI_begin_column(0x0d)
    6836                      .dwattr $C$DW$470, DW_AT_TI_max_frame_size(-2)
    6837                      .dwpsn  file "D:/GIANT/GIANT_TI_instaspin/TI_instaspin_indoor_smart_trainer/motorware/motorware_1_01_
    6838              
    6839                      .dwfde $C$DW$CIE, _CTRL_setSpd_max_pu
    6840              $C$DW$471       .dwtag  DW_TAG_formal_parameter
    6841                      .dwattr $C$DW$471, DW_AT_name("handle")
    6842                      .dwattr $C$DW$471, DW_AT_TI_symbol_name("_handle")
    6843                      .dwattr $C$DW$471, DW_AT_type(*$C$DW$T$172)
    6844                      .dwattr $C$DW$471, DW_AT_location[DW_OP_reg12]
    6845              
    6846              $C$DW$472       .dwtag  DW_TAG_formal_parameter
    6847                      .dwattr $C$DW$472, DW_AT_name("maxSpd_pu")
    6848                      .dwattr $C$DW$472, DW_AT_TI_symbol_name("_maxSpd_pu")
    6849                      .dwattr $C$DW$472, DW_AT_type(*$C$DW$T$32)
    6850                      .dwattr $C$DW$472, DW_AT_location[DW_OP_reg0]
    6851              
    6852              
    6853              ;***************************************************************
    6854              ;* FNAME: _CTRL_setSpd_max_pu           FR SIZE:   0           *
    6855              ;*                                                             *
TMS320C2000 Assembler PC v22.6.0 Tue Apr 18 11:09:46 2023

Copyright (c) 1996-2018 Texas Instruments Incorporated
C:\Users\User\AppData\Local\Temp\{F169EDD6-E2A2-400A-8386-A823CBD75D49} PAGE  132

    6856              ;* FUNCTION ENVIRONMENT                                        *
    6857              ;*                                                             *
    6858              ;* FUNCTION PROPERTIES                                         *
    6859              ;*                            0 Parameter,  0 Auto,  0 SOE     *
    6860              ;***************************************************************
    6861              
    6862              _CTRL_setSpd_max_pu:
    6863              ;* AR4   assigned to _handle
    6864              $C$DW$473       .dwtag  DW_TAG_variable
    6865                      .dwattr $C$DW$473, DW_AT_name("handle")
    6866                      .dwattr $C$DW$473, DW_AT_TI_symbol_name("_handle")
    6867                      .dwattr $C$DW$473, DW_AT_type(*$C$DW$T$185)
    6868                      .dwattr $C$DW$473, DW_AT_location[DW_OP_reg12]
    6869              
    6870              ;* AL    assigned to _maxSpd_pu
    6871              $C$DW$474       .dwtag  DW_TAG_variable
    6872                      .dwattr $C$DW$474, DW_AT_name("maxSpd_pu")
    6873                      .dwattr $C$DW$474, DW_AT_TI_symbol_name("_maxSpd_pu")
    6874                      .dwattr $C$DW$474, DW_AT_type(*$C$DW$T$235)
    6875                      .dwattr $C$DW$474, DW_AT_location[DW_OP_reg0]
    6876              
    6877                      .dwcfi  cfa_offset, -2
    6878                      .dwcfi  save_reg_to_mem, 26, 0
    6879                      .dwpsn  file "D:/GIANT/GIANT_TI_instaspin/TI_instaspin_indoor_smart_trainer/motorware/motorware_1_01_
    6880 00000988 D0EA          MOVB      XAR0,#234             ; [CPU_ALU] |1715| 
    6881 00000989 1E94          MOVL      *+XAR4[AR0],ACC       ; [CPU_ALU] |1715| 
    6882              $C$DW$475       .dwtag  DW_TAG_TI_branch
    6883                      .dwattr $C$DW$475, DW_AT_low_pc(0x00)
    6884                      .dwattr $C$DW$475, DW_AT_TI_return
    6885              
    6886 0000098a 0006          LRETR     ; [CPU_ALU] 
    6887                      ; return occurs ; [] 
    6888                      .dwattr $C$DW$470, DW_AT_TI_end_file("D:/GIANT/GIANT_TI_instaspin/TI_instaspin_indoor_smart_trainer/m
    6889                      .dwattr $C$DW$470, DW_AT_TI_end_line(0x6b6)
    6890                      .dwattr $C$DW$470, DW_AT_TI_end_column(0x01)
    6891                      .dwendentry
    6892                      .dwendtag $C$DW$470
    6893              
    6894 0000098b               .sect   ".text"
    6895                      .clink
    6896              
    6897              $C$DW$476       .dwtag  DW_TAG_subprogram
    6898                      .dwattr $C$DW$476, DW_AT_name("CTRL_setIdRated_pu")
    6899                      .dwattr $C$DW$476, DW_AT_low_pc(_CTRL_setIdRated_pu)
    6900                      .dwattr $C$DW$476, DW_AT_high_pc(0x00)
    6901                      .dwattr $C$DW$476, DW_AT_TI_symbol_name("_CTRL_setIdRated_pu")
    6902                      .dwattr $C$DW$476, DW_AT_TI_begin_file("D:/GIANT/GIANT_TI_instaspin/TI_instaspin_indoor_smart_trainer
    6903                      .dwattr $C$DW$476, DW_AT_TI_begin_line(0x577)
    6904                      .dwattr $C$DW$476, DW_AT_TI_begin_column(0x0d)
    6905                      .dwattr $C$DW$476, DW_AT_TI_max_frame_size(-2)
    6906                      .dwpsn  file "D:/GIANT/GIANT_TI_instaspin/TI_instaspin_indoor_smart_trainer/motorware/motorware_1_01_
    6907              
    6908                      .dwfde $C$DW$CIE, _CTRL_setIdRated_pu
    6909              $C$DW$477       .dwtag  DW_TAG_formal_parameter
    6910                      .dwattr $C$DW$477, DW_AT_name("handle")
TMS320C2000 Assembler PC v22.6.0 Tue Apr 18 11:09:46 2023

Copyright (c) 1996-2018 Texas Instruments Incorporated
C:\Users\User\AppData\Local\Temp\{F169EDD6-E2A2-400A-8386-A823CBD75D49} PAGE  133

    6911                      .dwattr $C$DW$477, DW_AT_TI_symbol_name("_handle")
    6912                      .dwattr $C$DW$477, DW_AT_type(*$C$DW$T$172)
    6913                      .dwattr $C$DW$477, DW_AT_location[DW_OP_reg12]
    6914              
    6915              $C$DW$478       .dwtag  DW_TAG_formal_parameter
    6916                      .dwattr $C$DW$478, DW_AT_name("IdRated_pu")
    6917                      .dwattr $C$DW$478, DW_AT_TI_symbol_name("_IdRated_pu")
    6918                      .dwattr $C$DW$478, DW_AT_type(*$C$DW$T$32)
    6919                      .dwattr $C$DW$478, DW_AT_location[DW_OP_reg0]
    6920              
    6921              
    6922              ;***************************************************************
    6923              ;* FNAME: _CTRL_setIdRated_pu           FR SIZE:   0           *
    6924              ;*                                                             *
    6925              ;* FUNCTION ENVIRONMENT                                        *
    6926              ;*                                                             *
    6927              ;* FUNCTION PROPERTIES                                         *
    6928              ;*                            0 Parameter,  0 Auto,  0 SOE     *
    6929              ;***************************************************************
    6930              
    6931              _CTRL_setIdRated_pu:
    6932              ;* AR4   assigned to _handle
    6933              $C$DW$479       .dwtag  DW_TAG_variable
    6934                      .dwattr $C$DW$479, DW_AT_name("handle")
    6935                      .dwattr $C$DW$479, DW_AT_TI_symbol_name("_handle")
    6936                      .dwattr $C$DW$479, DW_AT_type(*$C$DW$T$185)
    6937                      .dwattr $C$DW$479, DW_AT_location[DW_OP_reg12]
    6938              
    6939              ;* AL    assigned to _IdRated_pu
    6940              $C$DW$480       .dwtag  DW_TAG_variable
    6941                      .dwattr $C$DW$480, DW_AT_name("IdRated_pu")
    6942                      .dwattr $C$DW$480, DW_AT_TI_symbol_name("_IdRated_pu")
    6943                      .dwattr $C$DW$480, DW_AT_type(*$C$DW$T$235)
    6944                      .dwattr $C$DW$480, DW_AT_location[DW_OP_reg0]
    6945              
    6946                      .dwcfi  cfa_offset, -2
    6947                      .dwcfi  save_reg_to_mem, 26, 0
    6948                      .dwpsn  file "D:/GIANT/GIANT_TI_instaspin/TI_instaspin_indoor_smart_trainer/motorware/motorware_1_01_
    6949 0000098b D0E6          MOVB      XAR0,#230             ; [CPU_ALU] |1403| 
    6950 0000098c 1E94          MOVL      *+XAR4[AR0],ACC       ; [CPU_ALU] |1403| 
    6951              $C$DW$481       .dwtag  DW_TAG_TI_branch
    6952                      .dwattr $C$DW$481, DW_AT_low_pc(0x00)
    6953                      .dwattr $C$DW$481, DW_AT_TI_return
    6954              
    6955 0000098d 0006          LRETR     ; [CPU_ALU] 
    6956                      ; return occurs ; [] 
    6957                      .dwattr $C$DW$476, DW_AT_TI_end_file("D:/GIANT/GIANT_TI_instaspin/TI_instaspin_indoor_smart_trainer/m
    6958                      .dwattr $C$DW$476, DW_AT_TI_end_line(0x57e)
    6959                      .dwattr $C$DW$476, DW_AT_TI_end_column(0x01)
    6960                      .dwendentry
    6961                      .dwendtag $C$DW$476
    6962              
    6963 0000098e               .sect   ".text"
    6964                      .clink
    6965              
TMS320C2000 Assembler PC v22.6.0 Tue Apr 18 11:09:46 2023

Copyright (c) 1996-2018 Texas Instruments Incorporated
C:\Users\User\AppData\Local\Temp\{F169EDD6-E2A2-400A-8386-A823CBD75D49} PAGE  134

    6966              $C$DW$482       .dwtag  DW_TAG_subprogram
    6967                      .dwattr $C$DW$482, DW_AT_name("CTRL_getSpd_max_pu")
    6968                      .dwattr $C$DW$482, DW_AT_low_pc(_CTRL_getSpd_max_pu)
    6969                      .dwattr $C$DW$482, DW_AT_high_pc(0x00)
    6970                      .dwattr $C$DW$482, DW_AT_TI_symbol_name("_CTRL_getSpd_max_pu")
    6971                      .dwattr $C$DW$482, DW_AT_type(*$C$DW$T$32)
    6972                      .dwattr $C$DW$482, DW_AT_TI_begin_file("D:/GIANT/GIANT_TI_instaspin/TI_instaspin_indoor_smart_trainer
    6973                      .dwattr $C$DW$482, DW_AT_TI_begin_line(0x2be)
    6974                      .dwattr $C$DW$482, DW_AT_TI_begin_column(0x0c)
    6975                      .dwattr $C$DW$482, DW_AT_TI_max_frame_size(-2)
    6976                      .dwpsn  file "D:/GIANT/GIANT_TI_instaspin/TI_instaspin_indoor_smart_trainer/motorware/motorware_1_01_
    6977              
    6978                      .dwfde $C$DW$CIE, _CTRL_getSpd_max_pu
    6979              $C$DW$483       .dwtag  DW_TAG_formal_parameter
    6980                      .dwattr $C$DW$483, DW_AT_name("handle")
    6981                      .dwattr $C$DW$483, DW_AT_TI_symbol_name("_handle")
    6982                      .dwattr $C$DW$483, DW_AT_type(*$C$DW$T$172)
    6983                      .dwattr $C$DW$483, DW_AT_location[DW_OP_reg12]
    6984              
    6985              
    6986              ;***************************************************************
    6987              ;* FNAME: _CTRL_getSpd_max_pu           FR SIZE:   0           *
    6988              ;*                                                             *
    6989              ;* FUNCTION ENVIRONMENT                                        *
    6990              ;*                                                             *
    6991              ;* FUNCTION PROPERTIES                                         *
    6992              ;*                            0 Parameter,  0 Auto,  0 SOE     *
    6993              ;***************************************************************
    6994              
    6995              _CTRL_getSpd_max_pu:
    6996              ;* AR4   assigned to _handle
    6997              $C$DW$484       .dwtag  DW_TAG_variable
    6998                      .dwattr $C$DW$484, DW_AT_name("handle")
    6999                      .dwattr $C$DW$484, DW_AT_TI_symbol_name("_handle")
    7000                      .dwattr $C$DW$484, DW_AT_type(*$C$DW$T$185)
    7001                      .dwattr $C$DW$484, DW_AT_location[DW_OP_reg12]
    7002              
    7003                      .dwcfi  cfa_offset, -2
    7004                      .dwcfi  save_reg_to_mem, 26, 0
    7005                      .dwpsn  file "D:/GIANT/GIANT_TI_instaspin/TI_instaspin_indoor_smart_trainer/motorware/motorware_1_01_
    7006 0000098e D0EA          MOVB      XAR0,#234             ; [CPU_ALU] |706| 
    7007 0000098f 0694          MOVL      ACC,*+XAR4[AR0]       ; [CPU_ALU] |706| 
    7008              $C$DW$485       .dwtag  DW_TAG_TI_branch
    7009                      .dwattr $C$DW$485, DW_AT_low_pc(0x00)
    7010                      .dwattr $C$DW$485, DW_AT_TI_return
    7011              
    7012 00000990 0006          LRETR     ; [CPU_ALU] 
    7013                      ; return occurs ; [] 
    7014                      .dwattr $C$DW$482, DW_AT_TI_end_file("D:/GIANT/GIANT_TI_instaspin/TI_instaspin_indoor_smart_trainer/m
    7015                      .dwattr $C$DW$482, DW_AT_TI_end_line(0x2c3)
    7016                      .dwattr $C$DW$482, DW_AT_TI_end_column(0x01)
    7017                      .dwendentry
    7018                      .dwendtag $C$DW$482
    7019              
    7020 00000991               .sect   ".text"
TMS320C2000 Assembler PC v22.6.0 Tue Apr 18 11:09:46 2023

Copyright (c) 1996-2018 Texas Instruments Incorporated
C:\Users\User\AppData\Local\Temp\{F169EDD6-E2A2-400A-8386-A823CBD75D49} PAGE  135

    7021                      .clink
    7022              
    7023              $C$DW$486       .dwtag  DW_TAG_subprogram
    7024                      .dwattr $C$DW$486, DW_AT_name("CTRL_getIdRated_pu")
    7025                      .dwattr $C$DW$486, DW_AT_low_pc(_CTRL_getIdRated_pu)
    7026                      .dwattr $C$DW$486, DW_AT_high_pc(0x00)
    7027                      .dwattr $C$DW$486, DW_AT_TI_symbol_name("_CTRL_getIdRated_pu")
    7028                      .dwattr $C$DW$486, DW_AT_type(*$C$DW$T$32)
    7029                      .dwattr $C$DW$486, DW_AT_TI_begin_file("D:/GIANT/GIANT_TI_instaspin/TI_instaspin_indoor_smart_trainer
    7030                      .dwattr $C$DW$486, DW_AT_TI_begin_line(0x17e)
    7031                      .dwattr $C$DW$486, DW_AT_TI_begin_column(0x0c)
    7032                      .dwattr $C$DW$486, DW_AT_TI_max_frame_size(-2)
    7033                      .dwpsn  file "D:/GIANT/GIANT_TI_instaspin/TI_instaspin_indoor_smart_trainer/motorware/motorware_1_01_
    7034              
    7035                      .dwfde $C$DW$CIE, _CTRL_getIdRated_pu
    7036              $C$DW$487       .dwtag  DW_TAG_formal_parameter
    7037                      .dwattr $C$DW$487, DW_AT_name("handle")
    7038                      .dwattr $C$DW$487, DW_AT_TI_symbol_name("_handle")
    7039                      .dwattr $C$DW$487, DW_AT_type(*$C$DW$T$172)
    7040                      .dwattr $C$DW$487, DW_AT_location[DW_OP_reg12]
    7041              
    7042              
    7043              ;***************************************************************
    7044              ;* FNAME: _CTRL_getIdRated_pu           FR SIZE:   0           *
    7045              ;*                                                             *
    7046              ;* FUNCTION ENVIRONMENT                                        *
    7047              ;*                                                             *
    7048              ;* FUNCTION PROPERTIES                                         *
    7049              ;*                            0 Parameter,  0 Auto,  0 SOE     *
    7050              ;***************************************************************
    7051              
    7052              _CTRL_getIdRated_pu:
    7053              ;* AR4   assigned to _handle
    7054              $C$DW$488       .dwtag  DW_TAG_variable
    7055                      .dwattr $C$DW$488, DW_AT_name("handle")
    7056                      .dwattr $C$DW$488, DW_AT_TI_symbol_name("_handle")
    7057                      .dwattr $C$DW$488, DW_AT_type(*$C$DW$T$185)
    7058                      .dwattr $C$DW$488, DW_AT_location[DW_OP_reg12]
    7059              
    7060                      .dwcfi  cfa_offset, -2
    7061                      .dwcfi  save_reg_to_mem, 26, 0
    7062                      .dwpsn  file "D:/GIANT/GIANT_TI_instaspin/TI_instaspin_indoor_smart_trainer/motorware/motorware_1_01_
    7063 00000991 D0E6          MOVB      XAR0,#230             ; [CPU_ALU] |386| 
    7064 00000992 0694          MOVL      ACC,*+XAR4[AR0]       ; [CPU_ALU] |386| 
    7065              $C$DW$489       .dwtag  DW_TAG_TI_branch
    7066                      .dwattr $C$DW$489, DW_AT_low_pc(0x00)
    7067                      .dwattr $C$DW$489, DW_AT_TI_return
    7068              
    7069 00000993 0006          LRETR     ; [CPU_ALU] 
    7070                      ; return occurs ; [] 
    7071                      .dwattr $C$DW$486, DW_AT_TI_end_file("D:/GIANT/GIANT_TI_instaspin/TI_instaspin_indoor_smart_trainer/m
    7072                      .dwattr $C$DW$486, DW_AT_TI_end_line(0x183)
    7073                      .dwattr $C$DW$486, DW_AT_TI_end_column(0x01)
    7074                      .dwendentry
    7075                      .dwendtag $C$DW$486
TMS320C2000 Assembler PC v22.6.0 Tue Apr 18 11:09:46 2023

Copyright (c) 1996-2018 Texas Instruments Incorporated
C:\Users\User\AppData\Local\Temp\{F169EDD6-E2A2-400A-8386-A823CBD75D49} PAGE  136

    7076              
    7077              ;***************************************************************
    7078              ;* FLOATING-POINT CONSTANTS                                    *
    7079              ;***************************************************************
    7080 00000000               .sect   ".econst"
    7081                      .align  2
    7082 00000000 0000  $C$FL1: .xldouble       $strtod("0x1p+24")
         00000001 0000 
         00000002 0000 
         00000003 4170 
    7083              ;**************************************************************
    7084              ;* UNDEFINED EXTERNAL REFERENCES                              *
    7085              ;**************************************************************
    7086                      .global _EST_run
    7087                      .global _EST_updateId_ref_pu
    7088                      .global _EST_setId_ref_pu
    7089                      .global _EST_setIq_ref_pu
    7090                      .global _CTRL_setEstParams
    7091                      .global _CTRL_runTraj
    7092                      .global _CTRL_setupCtrl
    7093                      .global _CTRL_setupTraj
    7094                      .global _CTRL_setupEstOnLineState
    7095                      .global _CTRL_setUserMotorParams
    7096                      .global _CTRL_setupEstIdleState
    7097                      .global _EST_setIdle
    7098                      .global _EST_setIdle_all
    7099                      .global _EST_setRs_pu
    7100                      .global _EST_useZeroIq_ref
    7101                      .global _EST_isError
    7102                      .global _EST_doSpeedCtrl
    7103                      .global _EST_doCurrentCtrl
    7104                      .global _EST_getState
    7105                      .global _EST_updateState
    7106                      .global _EST_isOnLine
    7107                      .global _EST_isLockRotor
    7108                      .global _EST_isIdle
    7109                      .global _EST_isMotorIdentified
    7110                      .global __IQ24cosPU
    7111                      .global __IQ24sinPU
    7112                      .global _EST_getFm_pu
    7113                      .global _EST_getAngle_pu
    7114                      .global _EST_getOneOverDcBus_pu
    7115                      .global __IQ24sqrt
    7116                      .global _EST_get_krpm_to_pu_sf
    7117                      .global FD$$MPY
    7118                      .global FS$$TOFD
    7119                      .global UL$$TOFS
    7120                      .global FS$$DIV
    7121                      .global FS$$MPY
    7122                      .global FS$$ADD
    7123                      .global FD$$TOL
    7124              
    7125              ;***************************************************************
    7126              ;* TYPE INFORMATION                                            *
    7127              ;***************************************************************
TMS320C2000 Assembler PC v22.6.0 Tue Apr 18 11:09:46 2023

Copyright (c) 1996-2018 Texas Instruments Incorporated
C:\Users\User\AppData\Local\Temp\{F169EDD6-E2A2-400A-8386-A823CBD75D49} PAGE  137

    7128              
    7129              $C$DW$T$40      .dwtag  DW_TAG_enumeration_type
    7130                      .dwattr $C$DW$T$40, DW_AT_byte_size(0x01)
    7131              $C$DW$490       .dwtag  DW_TAG_enumerator
    7132                      .dwattr $C$DW$490, DW_AT_name("CTRL_State_Error")
    7133                      .dwattr $C$DW$490, DW_AT_const_value(0x00)
    7134              
    7135              $C$DW$491       .dwtag  DW_TAG_enumerator
    7136                      .dwattr $C$DW$491, DW_AT_name("CTRL_State_Idle")
    7137                      .dwattr $C$DW$491, DW_AT_const_value(0x01)
    7138              
    7139              $C$DW$492       .dwtag  DW_TAG_enumerator
    7140                      .dwattr $C$DW$492, DW_AT_name("CTRL_State_OffLine")
    7141                      .dwattr $C$DW$492, DW_AT_const_value(0x02)
    7142              
    7143              $C$DW$493       .dwtag  DW_TAG_enumerator
    7144                      .dwattr $C$DW$493, DW_AT_name("CTRL_State_OnLine")
    7145                      .dwattr $C$DW$493, DW_AT_const_value(0x03)
    7146              
    7147              $C$DW$494       .dwtag  DW_TAG_enumerator
    7148                      .dwattr $C$DW$494, DW_AT_name("CTRL_numStates")
    7149                      .dwattr $C$DW$494, DW_AT_const_value(0x04)
    7150              
    7151                      .dwendtag $C$DW$T$40
    7152              
    7153              $C$DW$T$41      .dwtag  DW_TAG_typedef
    7154                      .dwattr $C$DW$T$41, DW_AT_name("CTRL_State_e")
    7155                      .dwattr $C$DW$T$41, DW_AT_type(*$C$DW$T$40)
    7156                      .dwattr $C$DW$T$41, DW_AT_language(DW_LANG_C)
    7157              
    7158              
    7159              $C$DW$T$42      .dwtag  DW_TAG_enumeration_type
    7160                      .dwattr $C$DW$T$42, DW_AT_byte_size(0x01)
    7161              $C$DW$495       .dwtag  DW_TAG_enumerator
    7162                      .dwattr $C$DW$495, DW_AT_name("CTRL_ErrorCode_NoError")
    7163                      .dwattr $C$DW$495, DW_AT_const_value(0x00)
    7164              
    7165              $C$DW$496       .dwtag  DW_TAG_enumerator
    7166                      .dwattr $C$DW$496, DW_AT_name("CTRL_ErrorCode_IdClip")
    7167                      .dwattr $C$DW$496, DW_AT_const_value(0x01)
    7168              
    7169              $C$DW$497       .dwtag  DW_TAG_enumerator
    7170                      .dwattr $C$DW$497, DW_AT_name("CTRL_ErrorCode_EstError")
    7171                      .dwattr $C$DW$497, DW_AT_const_value(0x02)
    7172              
    7173              $C$DW$498       .dwtag  DW_TAG_enumerator
    7174                      .dwattr $C$DW$498, DW_AT_name("CTRL_numErrorCodes")
    7175                      .dwattr $C$DW$498, DW_AT_const_value(0x03)
    7176              
    7177                      .dwendtag $C$DW$T$42
    7178              
    7179              $C$DW$T$43      .dwtag  DW_TAG_typedef
    7180                      .dwattr $C$DW$T$43, DW_AT_name("CTRL_ErrorCode_e")
    7181                      .dwattr $C$DW$T$43, DW_AT_type(*$C$DW$T$42)
    7182                      .dwattr $C$DW$T$43, DW_AT_language(DW_LANG_C)
TMS320C2000 Assembler PC v22.6.0 Tue Apr 18 11:09:46 2023

Copyright (c) 1996-2018 Texas Instruments Incorporated
C:\Users\User\AppData\Local\Temp\{F169EDD6-E2A2-400A-8386-A823CBD75D49} PAGE  138

    7183              
    7184              
    7185              $C$DW$T$75      .dwtag  DW_TAG_enumeration_type
    7186                      .dwattr $C$DW$T$75, DW_AT_byte_size(0x01)
    7187              $C$DW$499       .dwtag  DW_TAG_enumerator
    7188                      .dwattr $C$DW$499, DW_AT_name("CTRL_TargetProc_2806x")
    7189                      .dwattr $C$DW$499, DW_AT_const_value(0x00)
    7190              
    7191              $C$DW$500       .dwtag  DW_TAG_enumerator
    7192                      .dwattr $C$DW$500, DW_AT_name("CTRL_TargetProc_2805x")
    7193                      .dwattr $C$DW$500, DW_AT_const_value(0x01)
    7194              
    7195              $C$DW$501       .dwtag  DW_TAG_enumerator
    7196                      .dwattr $C$DW$501, DW_AT_name("CTRL_TargetProc_2803x")
    7197                      .dwattr $C$DW$501, DW_AT_const_value(0x02)
    7198              
    7199              $C$DW$502       .dwtag  DW_TAG_enumerator
    7200                      .dwattr $C$DW$502, DW_AT_name("CTRL_TargetProc_2802x")
    7201                      .dwattr $C$DW$502, DW_AT_const_value(0x03)
    7202              
    7203              $C$DW$503       .dwtag  DW_TAG_enumerator
    7204                      .dwattr $C$DW$503, DW_AT_name("CTRL_TargetProc_Unknown")
    7205                      .dwattr $C$DW$503, DW_AT_const_value(0x04)
    7206              
    7207                      .dwendtag $C$DW$T$75
    7208              
    7209              $C$DW$T$76      .dwtag  DW_TAG_typedef
    7210                      .dwattr $C$DW$T$76, DW_AT_name("CTRL_TargetProc_e")
    7211                      .dwattr $C$DW$T$76, DW_AT_type(*$C$DW$T$75)
    7212                      .dwattr $C$DW$T$76, DW_AT_language(DW_LANG_C)
    7213              
    7214              
    7215              $C$DW$T$82      .dwtag  DW_TAG_enumeration_type
    7216                      .dwattr $C$DW$T$82, DW_AT_byte_size(0x01)
    7217              $C$DW$504       .dwtag  DW_TAG_enumerator
    7218                      .dwattr $C$DW$504, DW_AT_name("GPIO_Number_0")
    7219                      .dwattr $C$DW$504, DW_AT_const_value(0x00)
    7220              
    7221              $C$DW$505       .dwtag  DW_TAG_enumerator
    7222                      .dwattr $C$DW$505, DW_AT_name("GPIO_Number_1")
    7223                      .dwattr $C$DW$505, DW_AT_const_value(0x01)
    7224              
    7225              $C$DW$506       .dwtag  DW_TAG_enumerator
    7226                      .dwattr $C$DW$506, DW_AT_name("GPIO_Number_2")
    7227                      .dwattr $C$DW$506, DW_AT_const_value(0x02)
    7228              
    7229              $C$DW$507       .dwtag  DW_TAG_enumerator
    7230                      .dwattr $C$DW$507, DW_AT_name("GPIO_Number_3")
    7231                      .dwattr $C$DW$507, DW_AT_const_value(0x03)
    7232              
    7233              $C$DW$508       .dwtag  DW_TAG_enumerator
    7234                      .dwattr $C$DW$508, DW_AT_name("GPIO_Number_4")
    7235                      .dwattr $C$DW$508, DW_AT_const_value(0x04)
    7236              
    7237              $C$DW$509       .dwtag  DW_TAG_enumerator
TMS320C2000 Assembler PC v22.6.0 Tue Apr 18 11:09:46 2023

Copyright (c) 1996-2018 Texas Instruments Incorporated
C:\Users\User\AppData\Local\Temp\{F169EDD6-E2A2-400A-8386-A823CBD75D49} PAGE  139

    7238                      .dwattr $C$DW$509, DW_AT_name("GPIO_Number_5")
    7239                      .dwattr $C$DW$509, DW_AT_const_value(0x05)
    7240              
    7241              $C$DW$510       .dwtag  DW_TAG_enumerator
    7242                      .dwattr $C$DW$510, DW_AT_name("GPIO_Number_6")
    7243                      .dwattr $C$DW$510, DW_AT_const_value(0x06)
    7244              
    7245              $C$DW$511       .dwtag  DW_TAG_enumerator
    7246                      .dwattr $C$DW$511, DW_AT_name("GPIO_Number_7")
    7247                      .dwattr $C$DW$511, DW_AT_const_value(0x07)
    7248              
    7249              $C$DW$512       .dwtag  DW_TAG_enumerator
    7250                      .dwattr $C$DW$512, DW_AT_name("GPIO_Number_8")
    7251                      .dwattr $C$DW$512, DW_AT_const_value(0x08)
    7252              
    7253              $C$DW$513       .dwtag  DW_TAG_enumerator
    7254                      .dwattr $C$DW$513, DW_AT_name("GPIO_Number_9")
    7255                      .dwattr $C$DW$513, DW_AT_const_value(0x09)
    7256              
    7257              $C$DW$514       .dwtag  DW_TAG_enumerator
    7258                      .dwattr $C$DW$514, DW_AT_name("GPIO_Number_10")
    7259                      .dwattr $C$DW$514, DW_AT_const_value(0x0a)
    7260              
    7261              $C$DW$515       .dwtag  DW_TAG_enumerator
    7262                      .dwattr $C$DW$515, DW_AT_name("GPIO_Number_11")
    7263                      .dwattr $C$DW$515, DW_AT_const_value(0x0b)
    7264              
    7265              $C$DW$516       .dwtag  DW_TAG_enumerator
    7266                      .dwattr $C$DW$516, DW_AT_name("GPIO_Number_12")
    7267                      .dwattr $C$DW$516, DW_AT_const_value(0x0c)
    7268              
    7269              $C$DW$517       .dwtag  DW_TAG_enumerator
    7270                      .dwattr $C$DW$517, DW_AT_name("GPIO_Number_13")
    7271                      .dwattr $C$DW$517, DW_AT_const_value(0x0d)
    7272              
    7273              $C$DW$518       .dwtag  DW_TAG_enumerator
    7274                      .dwattr $C$DW$518, DW_AT_name("GPIO_Number_14")
    7275                      .dwattr $C$DW$518, DW_AT_const_value(0x0e)
    7276              
    7277              $C$DW$519       .dwtag  DW_TAG_enumerator
    7278                      .dwattr $C$DW$519, DW_AT_name("GPIO_Number_15")
    7279                      .dwattr $C$DW$519, DW_AT_const_value(0x0f)
    7280              
    7281              $C$DW$520       .dwtag  DW_TAG_enumerator
    7282                      .dwattr $C$DW$520, DW_AT_name("GPIO_Number_16")
    7283                      .dwattr $C$DW$520, DW_AT_const_value(0x10)
    7284              
    7285              $C$DW$521       .dwtag  DW_TAG_enumerator
    7286                      .dwattr $C$DW$521, DW_AT_name("GPIO_Number_17")
    7287                      .dwattr $C$DW$521, DW_AT_const_value(0x11)
    7288              
    7289              $C$DW$522       .dwtag  DW_TAG_enumerator
    7290                      .dwattr $C$DW$522, DW_AT_name("GPIO_Number_18")
    7291                      .dwattr $C$DW$522, DW_AT_const_value(0x12)
    7292              
TMS320C2000 Assembler PC v22.6.0 Tue Apr 18 11:09:46 2023

Copyright (c) 1996-2018 Texas Instruments Incorporated
C:\Users\User\AppData\Local\Temp\{F169EDD6-E2A2-400A-8386-A823CBD75D49} PAGE  140

    7293              $C$DW$523       .dwtag  DW_TAG_enumerator
    7294                      .dwattr $C$DW$523, DW_AT_name("GPIO_Number_19")
    7295                      .dwattr $C$DW$523, DW_AT_const_value(0x13)
    7296              
    7297              $C$DW$524       .dwtag  DW_TAG_enumerator
    7298                      .dwattr $C$DW$524, DW_AT_name("GPIO_Number_20")
    7299                      .dwattr $C$DW$524, DW_AT_const_value(0x14)
    7300              
    7301              $C$DW$525       .dwtag  DW_TAG_enumerator
    7302                      .dwattr $C$DW$525, DW_AT_name("GPIO_Number_21")
    7303                      .dwattr $C$DW$525, DW_AT_const_value(0x15)
    7304              
    7305              $C$DW$526       .dwtag  DW_TAG_enumerator
    7306                      .dwattr $C$DW$526, DW_AT_name("GPIO_Number_22")
    7307                      .dwattr $C$DW$526, DW_AT_const_value(0x16)
    7308              
    7309              $C$DW$527       .dwtag  DW_TAG_enumerator
    7310                      .dwattr $C$DW$527, DW_AT_name("GPIO_Number_23")
    7311                      .dwattr $C$DW$527, DW_AT_const_value(0x17)
    7312              
    7313              $C$DW$528       .dwtag  DW_TAG_enumerator
    7314                      .dwattr $C$DW$528, DW_AT_name("GPIO_Number_24")
    7315                      .dwattr $C$DW$528, DW_AT_const_value(0x18)
    7316              
    7317              $C$DW$529       .dwtag  DW_TAG_enumerator
    7318                      .dwattr $C$DW$529, DW_AT_name("GPIO_Number_25")
    7319                      .dwattr $C$DW$529, DW_AT_const_value(0x19)
    7320              
    7321              $C$DW$530       .dwtag  DW_TAG_enumerator
    7322                      .dwattr $C$DW$530, DW_AT_name("GPIO_Number_26")
    7323                      .dwattr $C$DW$530, DW_AT_const_value(0x1a)
    7324              
    7325              $C$DW$531       .dwtag  DW_TAG_enumerator
    7326                      .dwattr $C$DW$531, DW_AT_name("GPIO_Number_27")
    7327                      .dwattr $C$DW$531, DW_AT_const_value(0x1b)
    7328              
    7329              $C$DW$532       .dwtag  DW_TAG_enumerator
    7330                      .dwattr $C$DW$532, DW_AT_name("GPIO_Number_28")
    7331                      .dwattr $C$DW$532, DW_AT_const_value(0x1c)
    7332              
    7333              $C$DW$533       .dwtag  DW_TAG_enumerator
    7334                      .dwattr $C$DW$533, DW_AT_name("GPIO_Number_29")
    7335                      .dwattr $C$DW$533, DW_AT_const_value(0x1d)
    7336              
    7337              $C$DW$534       .dwtag  DW_TAG_enumerator
    7338                      .dwattr $C$DW$534, DW_AT_name("GPIO_Number_30")
    7339                      .dwattr $C$DW$534, DW_AT_const_value(0x1e)
    7340              
    7341              $C$DW$535       .dwtag  DW_TAG_enumerator
    7342                      .dwattr $C$DW$535, DW_AT_name("GPIO_Number_31")
    7343                      .dwattr $C$DW$535, DW_AT_const_value(0x1f)
    7344              
    7345              $C$DW$536       .dwtag  DW_TAG_enumerator
    7346                      .dwattr $C$DW$536, DW_AT_name("GPIO_Number_32")
    7347                      .dwattr $C$DW$536, DW_AT_const_value(0x20)
TMS320C2000 Assembler PC v22.6.0 Tue Apr 18 11:09:46 2023

Copyright (c) 1996-2018 Texas Instruments Incorporated
C:\Users\User\AppData\Local\Temp\{F169EDD6-E2A2-400A-8386-A823CBD75D49} PAGE  141

    7348              
    7349              $C$DW$537       .dwtag  DW_TAG_enumerator
    7350                      .dwattr $C$DW$537, DW_AT_name("GPIO_Number_33")
    7351                      .dwattr $C$DW$537, DW_AT_const_value(0x21)
    7352              
    7353              $C$DW$538       .dwtag  DW_TAG_enumerator
    7354                      .dwattr $C$DW$538, DW_AT_name("GPIO_Number_34")
    7355                      .dwattr $C$DW$538, DW_AT_const_value(0x22)
    7356              
    7357              $C$DW$539       .dwtag  DW_TAG_enumerator
    7358                      .dwattr $C$DW$539, DW_AT_name("GPIO_Number_35")
    7359                      .dwattr $C$DW$539, DW_AT_const_value(0x23)
    7360              
    7361              $C$DW$540       .dwtag  DW_TAG_enumerator
    7362                      .dwattr $C$DW$540, DW_AT_name("GPIO_Number_36")
    7363                      .dwattr $C$DW$540, DW_AT_const_value(0x24)
    7364              
    7365              $C$DW$541       .dwtag  DW_TAG_enumerator
    7366                      .dwattr $C$DW$541, DW_AT_name("GPIO_Number_37")
    7367                      .dwattr $C$DW$541, DW_AT_const_value(0x25)
    7368              
    7369              $C$DW$542       .dwtag  DW_TAG_enumerator
    7370                      .dwattr $C$DW$542, DW_AT_name("GPIO_Number_38")
    7371                      .dwattr $C$DW$542, DW_AT_const_value(0x26)
    7372              
    7373              $C$DW$543       .dwtag  DW_TAG_enumerator
    7374                      .dwattr $C$DW$543, DW_AT_name("GPIO_Number_39")
    7375                      .dwattr $C$DW$543, DW_AT_const_value(0x27)
    7376              
    7377              $C$DW$544       .dwtag  DW_TAG_enumerator
    7378                      .dwattr $C$DW$544, DW_AT_name("GPIO_Number_40")
    7379                      .dwattr $C$DW$544, DW_AT_const_value(0x28)
    7380              
    7381              $C$DW$545       .dwtag  DW_TAG_enumerator
    7382                      .dwattr $C$DW$545, DW_AT_name("GPIO_Number_41")
    7383                      .dwattr $C$DW$545, DW_AT_const_value(0x29)
    7384              
    7385              $C$DW$546       .dwtag  DW_TAG_enumerator
    7386                      .dwattr $C$DW$546, DW_AT_name("GPIO_Number_42")
    7387                      .dwattr $C$DW$546, DW_AT_const_value(0x2a)
    7388              
    7389              $C$DW$547       .dwtag  DW_TAG_enumerator
    7390                      .dwattr $C$DW$547, DW_AT_name("GPIO_Number_43")
    7391                      .dwattr $C$DW$547, DW_AT_const_value(0x2b)
    7392              
    7393              $C$DW$548       .dwtag  DW_TAG_enumerator
    7394                      .dwattr $C$DW$548, DW_AT_name("GPIO_Number_44")
    7395                      .dwattr $C$DW$548, DW_AT_const_value(0x2c)
    7396              
    7397              $C$DW$549       .dwtag  DW_TAG_enumerator
    7398                      .dwattr $C$DW$549, DW_AT_name("GPIO_Number_50")
    7399                      .dwattr $C$DW$549, DW_AT_const_value(0x32)
    7400              
    7401              $C$DW$550       .dwtag  DW_TAG_enumerator
    7402                      .dwattr $C$DW$550, DW_AT_name("GPIO_Number_51")
TMS320C2000 Assembler PC v22.6.0 Tue Apr 18 11:09:46 2023

Copyright (c) 1996-2018 Texas Instruments Incorporated
C:\Users\User\AppData\Local\Temp\{F169EDD6-E2A2-400A-8386-A823CBD75D49} PAGE  142

    7403                      .dwattr $C$DW$550, DW_AT_const_value(0x33)
    7404              
    7405              $C$DW$551       .dwtag  DW_TAG_enumerator
    7406                      .dwattr $C$DW$551, DW_AT_name("GPIO_Number_52")
    7407                      .dwattr $C$DW$551, DW_AT_const_value(0x34)
    7408              
    7409              $C$DW$552       .dwtag  DW_TAG_enumerator
    7410                      .dwattr $C$DW$552, DW_AT_name("GPIO_Number_53")
    7411                      .dwattr $C$DW$552, DW_AT_const_value(0x35)
    7412              
    7413              $C$DW$553       .dwtag  DW_TAG_enumerator
    7414                      .dwattr $C$DW$553, DW_AT_name("GPIO_Number_54")
    7415                      .dwattr $C$DW$553, DW_AT_const_value(0x36)
    7416              
    7417              $C$DW$554       .dwtag  DW_TAG_enumerator
    7418                      .dwattr $C$DW$554, DW_AT_name("GPIO_Number_55")
    7419                      .dwattr $C$DW$554, DW_AT_const_value(0x37)
    7420              
    7421              $C$DW$555       .dwtag  DW_TAG_enumerator
    7422                      .dwattr $C$DW$555, DW_AT_name("GPIO_Number_56")
    7423                      .dwattr $C$DW$555, DW_AT_const_value(0x38)
    7424              
    7425              $C$DW$556       .dwtag  DW_TAG_enumerator
    7426                      .dwattr $C$DW$556, DW_AT_name("GPIO_Number_57")
    7427                      .dwattr $C$DW$556, DW_AT_const_value(0x39)
    7428              
    7429              $C$DW$557       .dwtag  DW_TAG_enumerator
    7430                      .dwattr $C$DW$557, DW_AT_name("GPIO_Number_58")
    7431                      .dwattr $C$DW$557, DW_AT_const_value(0x3a)
    7432              
    7433              $C$DW$558       .dwtag  DW_TAG_enumerator
    7434                      .dwattr $C$DW$558, DW_AT_name("GPIO_numGpios")
    7435                      .dwattr $C$DW$558, DW_AT_const_value(0x3b)
    7436              
    7437                      .dwendtag $C$DW$T$82
    7438              
    7439              $C$DW$T$83      .dwtag  DW_TAG_typedef
    7440                      .dwattr $C$DW$T$83, DW_AT_name("GPIO_Number_e")
    7441                      .dwattr $C$DW$T$83, DW_AT_type(*$C$DW$T$82)
    7442                      .dwattr $C$DW$T$83, DW_AT_language(DW_LANG_C)
    7443              
    7444              
    7445              $C$DW$T$134     .dwtag  DW_TAG_enumeration_type
    7446                      .dwattr $C$DW$T$134, DW_AT_byte_size(0x01)
    7447              $C$DW$559       .dwtag  DW_TAG_enumerator
    7448                      .dwattr $C$DW$559, DW_AT_name("MOTOR_Type_Induction")
    7449                      .dwattr $C$DW$559, DW_AT_const_value(0x00)
    7450              
    7451              $C$DW$560       .dwtag  DW_TAG_enumerator
    7452                      .dwattr $C$DW$560, DW_AT_name("MOTOR_Type_Pm")
    7453                      .dwattr $C$DW$560, DW_AT_const_value(0x01)
    7454              
    7455                      .dwendtag $C$DW$T$134
    7456              
    7457              $C$DW$T$135     .dwtag  DW_TAG_typedef
TMS320C2000 Assembler PC v22.6.0 Tue Apr 18 11:09:46 2023

Copyright (c) 1996-2018 Texas Instruments Incorporated
C:\Users\User\AppData\Local\Temp\{F169EDD6-E2A2-400A-8386-A823CBD75D49} PAGE  143

    7458                      .dwattr $C$DW$T$135, DW_AT_name("MOTOR_Type_e")
    7459                      .dwattr $C$DW$T$135, DW_AT_type(*$C$DW$T$134)
    7460                      .dwattr $C$DW$T$135, DW_AT_language(DW_LANG_C)
    7461              
    7462              
    7463              $C$DW$T$166     .dwtag  DW_TAG_enumeration_type
    7464                      .dwattr $C$DW$T$166, DW_AT_byte_size(0x01)
    7465              $C$DW$561       .dwtag  DW_TAG_enumerator
    7466                      .dwattr $C$DW$561, DW_AT_name("USER_ErrorCode_NoError")
    7467                      .dwattr $C$DW$561, DW_AT_const_value(0x00)
    7468              
    7469              $C$DW$562       .dwtag  DW_TAG_enumerator
    7470                      .dwattr $C$DW$562, DW_AT_name("USER_ErrorCode_iqFullScaleCurrent_A_High")
    7471                      .dwattr $C$DW$562, DW_AT_const_value(0x01)
    7472              
    7473              $C$DW$563       .dwtag  DW_TAG_enumerator
    7474                      .dwattr $C$DW$563, DW_AT_name("USER_ErrorCode_iqFullScaleCurrent_A_Low")
    7475                      .dwattr $C$DW$563, DW_AT_const_value(0x02)
    7476              
    7477              $C$DW$564       .dwtag  DW_TAG_enumerator
    7478                      .dwattr $C$DW$564, DW_AT_name("USER_ErrorCode_iqFullScaleVoltage_V_High")
    7479                      .dwattr $C$DW$564, DW_AT_const_value(0x03)
    7480              
    7481              $C$DW$565       .dwtag  DW_TAG_enumerator
    7482                      .dwattr $C$DW$565, DW_AT_name("USER_ErrorCode_iqFullScaleVoltage_V_Low")
    7483                      .dwattr $C$DW$565, DW_AT_const_value(0x04)
    7484              
    7485              $C$DW$566       .dwtag  DW_TAG_enumerator
    7486                      .dwattr $C$DW$566, DW_AT_name("USER_ErrorCode_iqFullScaleFreq_Hz_High")
    7487                      .dwattr $C$DW$566, DW_AT_const_value(0x05)
    7488              
    7489              $C$DW$567       .dwtag  DW_TAG_enumerator
    7490                      .dwattr $C$DW$567, DW_AT_name("USER_ErrorCode_iqFullScaleFreq_Hz_Low")
    7491                      .dwattr $C$DW$567, DW_AT_const_value(0x06)
    7492              
    7493              $C$DW$568       .dwtag  DW_TAG_enumerator
    7494                      .dwattr $C$DW$568, DW_AT_name("USER_ErrorCode_numPwmTicksPerIsrTick_High")
    7495                      .dwattr $C$DW$568, DW_AT_const_value(0x07)
    7496              
    7497              $C$DW$569       .dwtag  DW_TAG_enumerator
    7498                      .dwattr $C$DW$569, DW_AT_name("USER_ErrorCode_numPwmTicksPerIsrTick_Low")
    7499                      .dwattr $C$DW$569, DW_AT_const_value(0x08)
    7500              
    7501              $C$DW$570       .dwtag  DW_TAG_enumerator
    7502                      .dwattr $C$DW$570, DW_AT_name("USER_ErrorCode_numIsrTicksPerCtrlTick_High")
    7503                      .dwattr $C$DW$570, DW_AT_const_value(0x09)
    7504              
    7505              $C$DW$571       .dwtag  DW_TAG_enumerator
    7506                      .dwattr $C$DW$571, DW_AT_name("USER_ErrorCode_numIsrTicksPerCtrlTick_Low")
    7507                      .dwattr $C$DW$571, DW_AT_const_value(0x0a)
    7508              
    7509              $C$DW$572       .dwtag  DW_TAG_enumerator
    7510                      .dwattr $C$DW$572, DW_AT_name("USER_ErrorCode_numCtrlTicksPerCurrentTick_High")
    7511                      .dwattr $C$DW$572, DW_AT_const_value(0x0b)
    7512              
TMS320C2000 Assembler PC v22.6.0 Tue Apr 18 11:09:46 2023

Copyright (c) 1996-2018 Texas Instruments Incorporated
C:\Users\User\AppData\Local\Temp\{F169EDD6-E2A2-400A-8386-A823CBD75D49} PAGE  144

    7513              $C$DW$573       .dwtag  DW_TAG_enumerator
    7514                      .dwattr $C$DW$573, DW_AT_name("USER_ErrorCode_numCtrlTicksPerCurrentTick_Low")
    7515                      .dwattr $C$DW$573, DW_AT_const_value(0x0c)
    7516              
    7517              $C$DW$574       .dwtag  DW_TAG_enumerator
    7518                      .dwattr $C$DW$574, DW_AT_name("USER_ErrorCode_numCtrlTicksPerEstTick_High")
    7519                      .dwattr $C$DW$574, DW_AT_const_value(0x0d)
    7520              
    7521              $C$DW$575       .dwtag  DW_TAG_enumerator
    7522                      .dwattr $C$DW$575, DW_AT_name("USER_ErrorCode_numCtrlTicksPerEstTick_Low")
    7523                      .dwattr $C$DW$575, DW_AT_const_value(0x0e)
    7524              
    7525              $C$DW$576       .dwtag  DW_TAG_enumerator
    7526                      .dwattr $C$DW$576, DW_AT_name("USER_ErrorCode_numCtrlTicksPerSpeedTick_High")
    7527                      .dwattr $C$DW$576, DW_AT_const_value(0x0f)
    7528              
    7529              $C$DW$577       .dwtag  DW_TAG_enumerator
    7530                      .dwattr $C$DW$577, DW_AT_name("USER_ErrorCode_numCtrlTicksPerSpeedTick_Low")
    7531                      .dwattr $C$DW$577, DW_AT_const_value(0x10)
    7532              
    7533              $C$DW$578       .dwtag  DW_TAG_enumerator
    7534                      .dwattr $C$DW$578, DW_AT_name("USER_ErrorCode_numCtrlTicksPerTrajTick_High")
    7535                      .dwattr $C$DW$578, DW_AT_const_value(0x11)
    7536              
    7537              $C$DW$579       .dwtag  DW_TAG_enumerator
    7538                      .dwattr $C$DW$579, DW_AT_name("USER_ErrorCode_numCtrlTicksPerTrajTick_Low")
    7539                      .dwattr $C$DW$579, DW_AT_const_value(0x12)
    7540              
    7541              $C$DW$580       .dwtag  DW_TAG_enumerator
    7542                      .dwattr $C$DW$580, DW_AT_name("USER_ErrorCode_numCurrentSensors_High")
    7543                      .dwattr $C$DW$580, DW_AT_const_value(0x13)
    7544              
    7545              $C$DW$581       .dwtag  DW_TAG_enumerator
    7546                      .dwattr $C$DW$581, DW_AT_name("USER_ErrorCode_numCurrentSensors_Low")
    7547                      .dwattr $C$DW$581, DW_AT_const_value(0x14)
    7548              
    7549              $C$DW$582       .dwtag  DW_TAG_enumerator
    7550                      .dwattr $C$DW$582, DW_AT_name("USER_ErrorCode_numVoltageSensors_High")
    7551                      .dwattr $C$DW$582, DW_AT_const_value(0x15)
    7552              
    7553              $C$DW$583       .dwtag  DW_TAG_enumerator
    7554                      .dwattr $C$DW$583, DW_AT_name("USER_ErrorCode_numVoltageSensors_Low")
    7555                      .dwattr $C$DW$583, DW_AT_const_value(0x16)
    7556              
    7557              $C$DW$584       .dwtag  DW_TAG_enumerator
    7558                      .dwattr $C$DW$584, DW_AT_name("USER_ErrorCode_offsetPole_rps_High")
    7559                      .dwattr $C$DW$584, DW_AT_const_value(0x17)
    7560              
    7561              $C$DW$585       .dwtag  DW_TAG_enumerator
    7562                      .dwattr $C$DW$585, DW_AT_name("USER_ErrorCode_offsetPole_rps_Low")
    7563                      .dwattr $C$DW$585, DW_AT_const_value(0x18)
    7564              
    7565              $C$DW$586       .dwtag  DW_TAG_enumerator
    7566                      .dwattr $C$DW$586, DW_AT_name("USER_ErrorCode_fluxPole_rps_High")
    7567                      .dwattr $C$DW$586, DW_AT_const_value(0x19)
TMS320C2000 Assembler PC v22.6.0 Tue Apr 18 11:09:46 2023

Copyright (c) 1996-2018 Texas Instruments Incorporated
C:\Users\User\AppData\Local\Temp\{F169EDD6-E2A2-400A-8386-A823CBD75D49} PAGE  145

    7568              
    7569              $C$DW$587       .dwtag  DW_TAG_enumerator
    7570                      .dwattr $C$DW$587, DW_AT_name("USER_ErrorCode_fluxPole_rps_Low")
    7571                      .dwattr $C$DW$587, DW_AT_const_value(0x1a)
    7572              
    7573              $C$DW$588       .dwtag  DW_TAG_enumerator
    7574                      .dwattr $C$DW$588, DW_AT_name("USER_ErrorCode_zeroSpeedLimit_High")
    7575                      .dwattr $C$DW$588, DW_AT_const_value(0x1b)
    7576              
    7577              $C$DW$589       .dwtag  DW_TAG_enumerator
    7578                      .dwattr $C$DW$589, DW_AT_name("USER_ErrorCode_zeroSpeedLimit_Low")
    7579                      .dwattr $C$DW$589, DW_AT_const_value(0x1c)
    7580              
    7581              $C$DW$590       .dwtag  DW_TAG_enumerator
    7582                      .dwattr $C$DW$590, DW_AT_name("USER_ErrorCode_forceAngleFreq_Hz_High")
    7583                      .dwattr $C$DW$590, DW_AT_const_value(0x1d)
    7584              
    7585              $C$DW$591       .dwtag  DW_TAG_enumerator
    7586                      .dwattr $C$DW$591, DW_AT_name("USER_ErrorCode_forceAngleFreq_Hz_Low")
    7587                      .dwattr $C$DW$591, DW_AT_const_value(0x1e)
    7588              
    7589              $C$DW$592       .dwtag  DW_TAG_enumerator
    7590                      .dwattr $C$DW$592, DW_AT_name("USER_ErrorCode_maxAccel_Hzps_High")
    7591                      .dwattr $C$DW$592, DW_AT_const_value(0x1f)
    7592              
    7593              $C$DW$593       .dwtag  DW_TAG_enumerator
    7594                      .dwattr $C$DW$593, DW_AT_name("USER_ErrorCode_maxAccel_Hzps_Low")
    7595                      .dwattr $C$DW$593, DW_AT_const_value(0x20)
    7596              
    7597              $C$DW$594       .dwtag  DW_TAG_enumerator
    7598                      .dwattr $C$DW$594, DW_AT_name("USER_ErrorCode_maxAccel_est_Hzps_High")
    7599                      .dwattr $C$DW$594, DW_AT_const_value(0x21)
    7600              
    7601              $C$DW$595       .dwtag  DW_TAG_enumerator
    7602                      .dwattr $C$DW$595, DW_AT_name("USER_ErrorCode_maxAccel_est_Hzps_Low")
    7603                      .dwattr $C$DW$595, DW_AT_const_value(0x22)
    7604              
    7605              $C$DW$596       .dwtag  DW_TAG_enumerator
    7606                      .dwattr $C$DW$596, DW_AT_name("USER_ErrorCode_directionPole_rps_High")
    7607                      .dwattr $C$DW$596, DW_AT_const_value(0x23)
    7608              
    7609              $C$DW$597       .dwtag  DW_TAG_enumerator
    7610                      .dwattr $C$DW$597, DW_AT_name("USER_ErrorCode_directionPole_rps_Low")
    7611                      .dwattr $C$DW$597, DW_AT_const_value(0x24)
    7612              
    7613              $C$DW$598       .dwtag  DW_TAG_enumerator
    7614                      .dwattr $C$DW$598, DW_AT_name("USER_ErrorCode_speedPole_rps_High")
    7615                      .dwattr $C$DW$598, DW_AT_const_value(0x25)
    7616              
    7617              $C$DW$599       .dwtag  DW_TAG_enumerator
    7618                      .dwattr $C$DW$599, DW_AT_name("USER_ErrorCode_speedPole_rps_Low")
    7619                      .dwattr $C$DW$599, DW_AT_const_value(0x26)
    7620              
    7621              $C$DW$600       .dwtag  DW_TAG_enumerator
    7622                      .dwattr $C$DW$600, DW_AT_name("USER_ErrorCode_dcBusPole_rps_High")
TMS320C2000 Assembler PC v22.6.0 Tue Apr 18 11:09:46 2023

Copyright (c) 1996-2018 Texas Instruments Incorporated
C:\Users\User\AppData\Local\Temp\{F169EDD6-E2A2-400A-8386-A823CBD75D49} PAGE  146

    7623                      .dwattr $C$DW$600, DW_AT_const_value(0x27)
    7624              
    7625              $C$DW$601       .dwtag  DW_TAG_enumerator
    7626                      .dwattr $C$DW$601, DW_AT_name("USER_ErrorCode_dcBusPole_rps_Low")
    7627                      .dwattr $C$DW$601, DW_AT_const_value(0x28)
    7628              
    7629              $C$DW$602       .dwtag  DW_TAG_enumerator
    7630                      .dwattr $C$DW$602, DW_AT_name("USER_ErrorCode_fluxFraction_High")
    7631                      .dwattr $C$DW$602, DW_AT_const_value(0x29)
    7632              
    7633              $C$DW$603       .dwtag  DW_TAG_enumerator
    7634                      .dwattr $C$DW$603, DW_AT_name("USER_ErrorCode_fluxFraction_Low")
    7635                      .dwattr $C$DW$603, DW_AT_const_value(0x2a)
    7636              
    7637              $C$DW$604       .dwtag  DW_TAG_enumerator
    7638                      .dwattr $C$DW$604, DW_AT_name("USER_ErrorCode_indEst_speedMaxFraction_High")
    7639                      .dwattr $C$DW$604, DW_AT_const_value(0x2b)
    7640              
    7641              $C$DW$605       .dwtag  DW_TAG_enumerator
    7642                      .dwattr $C$DW$605, DW_AT_name("USER_ErrorCode_indEst_speedMaxFraction_Low")
    7643                      .dwattr $C$DW$605, DW_AT_const_value(0x2c)
    7644              
    7645              $C$DW$606       .dwtag  DW_TAG_enumerator
    7646                      .dwattr $C$DW$606, DW_AT_name("USER_ErrorCode_powerWarpGain_High")
    7647                      .dwattr $C$DW$606, DW_AT_const_value(0x2d)
    7648              
    7649              $C$DW$607       .dwtag  DW_TAG_enumerator
    7650                      .dwattr $C$DW$607, DW_AT_name("USER_ErrorCode_powerWarpGain_Low")
    7651                      .dwattr $C$DW$607, DW_AT_const_value(0x2e)
    7652              
    7653              $C$DW$608       .dwtag  DW_TAG_enumerator
    7654                      .dwattr $C$DW$608, DW_AT_name("USER_ErrorCode_systemFreq_MHz_High")
    7655                      .dwattr $C$DW$608, DW_AT_const_value(0x2f)
    7656              
    7657              $C$DW$609       .dwtag  DW_TAG_enumerator
    7658                      .dwattr $C$DW$609, DW_AT_name("USER_ErrorCode_systemFreq_MHz_Low")
    7659                      .dwattr $C$DW$609, DW_AT_const_value(0x30)
    7660              
    7661              $C$DW$610       .dwtag  DW_TAG_enumerator
    7662                      .dwattr $C$DW$610, DW_AT_name("USER_ErrorCode_pwmFreq_kHz_High")
    7663                      .dwattr $C$DW$610, DW_AT_const_value(0x31)
    7664              
    7665              $C$DW$611       .dwtag  DW_TAG_enumerator
    7666                      .dwattr $C$DW$611, DW_AT_name("USER_ErrorCode_pwmFreq_kHz_Low")
    7667                      .dwattr $C$DW$611, DW_AT_const_value(0x32)
    7668              
    7669              $C$DW$612       .dwtag  DW_TAG_enumerator
    7670                      .dwattr $C$DW$612, DW_AT_name("USER_ErrorCode_voltage_sf_High")
    7671                      .dwattr $C$DW$612, DW_AT_const_value(0x33)
    7672              
    7673              $C$DW$613       .dwtag  DW_TAG_enumerator
    7674                      .dwattr $C$DW$613, DW_AT_name("USER_ErrorCode_voltage_sf_Low")
    7675                      .dwattr $C$DW$613, DW_AT_const_value(0x34)
    7676              
    7677              $C$DW$614       .dwtag  DW_TAG_enumerator
TMS320C2000 Assembler PC v22.6.0 Tue Apr 18 11:09:46 2023

Copyright (c) 1996-2018 Texas Instruments Incorporated
C:\Users\User\AppData\Local\Temp\{F169EDD6-E2A2-400A-8386-A823CBD75D49} PAGE  147

    7678                      .dwattr $C$DW$614, DW_AT_name("USER_ErrorCode_current_sf_High")
    7679                      .dwattr $C$DW$614, DW_AT_const_value(0x35)
    7680              
    7681              $C$DW$615       .dwtag  DW_TAG_enumerator
    7682                      .dwattr $C$DW$615, DW_AT_name("USER_ErrorCode_current_sf_Low")
    7683                      .dwattr $C$DW$615, DW_AT_const_value(0x36)
    7684              
    7685              $C$DW$616       .dwtag  DW_TAG_enumerator
    7686                      .dwattr $C$DW$616, DW_AT_name("USER_ErrorCode_voltageFilterPole_Hz_High")
    7687                      .dwattr $C$DW$616, DW_AT_const_value(0x37)
    7688              
    7689              $C$DW$617       .dwtag  DW_TAG_enumerator
    7690                      .dwattr $C$DW$617, DW_AT_name("USER_ErrorCode_voltageFilterPole_Hz_Low")
    7691                      .dwattr $C$DW$617, DW_AT_const_value(0x38)
    7692              
    7693              $C$DW$618       .dwtag  DW_TAG_enumerator
    7694                      .dwattr $C$DW$618, DW_AT_name("USER_ErrorCode_maxVsMag_pu_High")
    7695                      .dwattr $C$DW$618, DW_AT_const_value(0x39)
    7696              
    7697              $C$DW$619       .dwtag  DW_TAG_enumerator
    7698                      .dwattr $C$DW$619, DW_AT_name("USER_ErrorCode_maxVsMag_pu_Low")
    7699                      .dwattr $C$DW$619, DW_AT_const_value(0x3a)
    7700              
    7701              $C$DW$620       .dwtag  DW_TAG_enumerator
    7702                      .dwattr $C$DW$620, DW_AT_name("USER_ErrorCode_estKappa_High")
    7703                      .dwattr $C$DW$620, DW_AT_const_value(0x3b)
    7704              
    7705              $C$DW$621       .dwtag  DW_TAG_enumerator
    7706                      .dwattr $C$DW$621, DW_AT_name("USER_ErrorCode_estKappa_Low")
    7707                      .dwattr $C$DW$621, DW_AT_const_value(0x3c)
    7708              
    7709              $C$DW$622       .dwtag  DW_TAG_enumerator
    7710                      .dwattr $C$DW$622, DW_AT_name("USER_ErrorCode_motor_type_Unknown")
    7711                      .dwattr $C$DW$622, DW_AT_const_value(0x3d)
    7712              
    7713              $C$DW$623       .dwtag  DW_TAG_enumerator
    7714                      .dwattr $C$DW$623, DW_AT_name("USER_ErrorCode_motor_numPolePairs_High")
    7715                      .dwattr $C$DW$623, DW_AT_const_value(0x3e)
    7716              
    7717              $C$DW$624       .dwtag  DW_TAG_enumerator
    7718                      .dwattr $C$DW$624, DW_AT_name("USER_ErrorCode_motor_numPolePairs_Low")
    7719                      .dwattr $C$DW$624, DW_AT_const_value(0x3f)
    7720              
    7721              $C$DW$625       .dwtag  DW_TAG_enumerator
    7722                      .dwattr $C$DW$625, DW_AT_name("USER_ErrorCode_motor_ratedFlux_High")
    7723                      .dwattr $C$DW$625, DW_AT_const_value(0x40)
    7724              
    7725              $C$DW$626       .dwtag  DW_TAG_enumerator
    7726                      .dwattr $C$DW$626, DW_AT_name("USER_ErrorCode_motor_ratedFlux_Low")
    7727                      .dwattr $C$DW$626, DW_AT_const_value(0x41)
    7728              
    7729              $C$DW$627       .dwtag  DW_TAG_enumerator
    7730                      .dwattr $C$DW$627, DW_AT_name("USER_ErrorCode_motor_Rr_High")
    7731                      .dwattr $C$DW$627, DW_AT_const_value(0x42)
    7732              
TMS320C2000 Assembler PC v22.6.0 Tue Apr 18 11:09:46 2023

Copyright (c) 1996-2018 Texas Instruments Incorporated
C:\Users\User\AppData\Local\Temp\{F169EDD6-E2A2-400A-8386-A823CBD75D49} PAGE  148

    7733              $C$DW$628       .dwtag  DW_TAG_enumerator
    7734                      .dwattr $C$DW$628, DW_AT_name("USER_ErrorCode_motor_Rr_Low")
    7735                      .dwattr $C$DW$628, DW_AT_const_value(0x43)
    7736              
    7737              $C$DW$629       .dwtag  DW_TAG_enumerator
    7738                      .dwattr $C$DW$629, DW_AT_name("USER_ErrorCode_motor_Rs_High")
    7739                      .dwattr $C$DW$629, DW_AT_const_value(0x44)
    7740              
    7741              $C$DW$630       .dwtag  DW_TAG_enumerator
    7742                      .dwattr $C$DW$630, DW_AT_name("USER_ErrorCode_motor_Rs_Low")
    7743                      .dwattr $C$DW$630, DW_AT_const_value(0x45)
    7744              
    7745              $C$DW$631       .dwtag  DW_TAG_enumerator
    7746                      .dwattr $C$DW$631, DW_AT_name("USER_ErrorCode_motor_Ls_d_High")
    7747                      .dwattr $C$DW$631, DW_AT_const_value(0x46)
    7748              
    7749              $C$DW$632       .dwtag  DW_TAG_enumerator
    7750                      .dwattr $C$DW$632, DW_AT_name("USER_ErrorCode_motor_Ls_d_Low")
    7751                      .dwattr $C$DW$632, DW_AT_const_value(0x47)
    7752              
    7753              $C$DW$633       .dwtag  DW_TAG_enumerator
    7754                      .dwattr $C$DW$633, DW_AT_name("USER_ErrorCode_motor_Ls_q_High")
    7755                      .dwattr $C$DW$633, DW_AT_const_value(0x48)
    7756              
    7757              $C$DW$634       .dwtag  DW_TAG_enumerator
    7758                      .dwattr $C$DW$634, DW_AT_name("USER_ErrorCode_motor_Ls_q_Low")
    7759                      .dwattr $C$DW$634, DW_AT_const_value(0x49)
    7760              
    7761              $C$DW$635       .dwtag  DW_TAG_enumerator
    7762                      .dwattr $C$DW$635, DW_AT_name("USER_ErrorCode_maxCurrent_High")
    7763                      .dwattr $C$DW$635, DW_AT_const_value(0x4a)
    7764              
    7765              $C$DW$636       .dwtag  DW_TAG_enumerator
    7766                      .dwattr $C$DW$636, DW_AT_name("USER_ErrorCode_maxCurrent_Low")
    7767                      .dwattr $C$DW$636, DW_AT_const_value(0x4b)
    7768              
    7769              $C$DW$637       .dwtag  DW_TAG_enumerator
    7770                      .dwattr $C$DW$637, DW_AT_name("USER_ErrorCode_maxCurrent_resEst_High")
    7771                      .dwattr $C$DW$637, DW_AT_const_value(0x4c)
    7772              
    7773              $C$DW$638       .dwtag  DW_TAG_enumerator
    7774                      .dwattr $C$DW$638, DW_AT_name("USER_ErrorCode_maxCurrent_resEst_Low")
    7775                      .dwattr $C$DW$638, DW_AT_const_value(0x4d)
    7776              
    7777              $C$DW$639       .dwtag  DW_TAG_enumerator
    7778                      .dwattr $C$DW$639, DW_AT_name("USER_ErrorCode_maxCurrent_indEst_High")
    7779                      .dwattr $C$DW$639, DW_AT_const_value(0x4e)
    7780              
    7781              $C$DW$640       .dwtag  DW_TAG_enumerator
    7782                      .dwattr $C$DW$640, DW_AT_name("USER_ErrorCode_maxCurrent_indEst_Low")
    7783                      .dwattr $C$DW$640, DW_AT_const_value(0x4f)
    7784              
    7785              $C$DW$641       .dwtag  DW_TAG_enumerator
    7786                      .dwattr $C$DW$641, DW_AT_name("USER_ErrorCode_maxCurrentSlope_High")
    7787                      .dwattr $C$DW$641, DW_AT_const_value(0x50)
TMS320C2000 Assembler PC v22.6.0 Tue Apr 18 11:09:46 2023

Copyright (c) 1996-2018 Texas Instruments Incorporated
C:\Users\User\AppData\Local\Temp\{F169EDD6-E2A2-400A-8386-A823CBD75D49} PAGE  149

    7788              
    7789              $C$DW$642       .dwtag  DW_TAG_enumerator
    7790                      .dwattr $C$DW$642, DW_AT_name("USER_ErrorCode_maxCurrentSlope_Low")
    7791                      .dwattr $C$DW$642, DW_AT_const_value(0x51)
    7792              
    7793              $C$DW$643       .dwtag  DW_TAG_enumerator
    7794                      .dwattr $C$DW$643, DW_AT_name("USER_ErrorCode_maxCurrentSlope_powerWarp_High")
    7795                      .dwattr $C$DW$643, DW_AT_const_value(0x52)
    7796              
    7797              $C$DW$644       .dwtag  DW_TAG_enumerator
    7798                      .dwattr $C$DW$644, DW_AT_name("USER_ErrorCode_maxCurrentSlope_powerWarp_Low")
    7799                      .dwattr $C$DW$644, DW_AT_const_value(0x53)
    7800              
    7801              $C$DW$645       .dwtag  DW_TAG_enumerator
    7802                      .dwattr $C$DW$645, DW_AT_name("USER_ErrorCode_IdRated_High")
    7803                      .dwattr $C$DW$645, DW_AT_const_value(0x54)
    7804              
    7805              $C$DW$646       .dwtag  DW_TAG_enumerator
    7806                      .dwattr $C$DW$646, DW_AT_name("USER_ErrorCode_IdRated_Low")
    7807                      .dwattr $C$DW$646, DW_AT_const_value(0x55)
    7808              
    7809              $C$DW$647       .dwtag  DW_TAG_enumerator
    7810                      .dwattr $C$DW$647, DW_AT_name("USER_ErrorCode_IdRatedFraction_indEst_High")
    7811                      .dwattr $C$DW$647, DW_AT_const_value(0x56)
    7812              
    7813              $C$DW$648       .dwtag  DW_TAG_enumerator
    7814                      .dwattr $C$DW$648, DW_AT_name("USER_ErrorCode_IdRatedFraction_indEst_Low")
    7815                      .dwattr $C$DW$648, DW_AT_const_value(0x57)
    7816              
    7817              $C$DW$649       .dwtag  DW_TAG_enumerator
    7818                      .dwattr $C$DW$649, DW_AT_name("USER_ErrorCode_IdRatedFraction_ratedFlux_High")
    7819                      .dwattr $C$DW$649, DW_AT_const_value(0x58)
    7820              
    7821              $C$DW$650       .dwtag  DW_TAG_enumerator
    7822                      .dwattr $C$DW$650, DW_AT_name("USER_ErrorCode_IdRatedFraction_ratedFlux_Low")
    7823                      .dwattr $C$DW$650, DW_AT_const_value(0x59)
    7824              
    7825              $C$DW$651       .dwtag  DW_TAG_enumerator
    7826                      .dwattr $C$DW$651, DW_AT_name("USER_ErrorCode_IdRated_delta_High")
    7827                      .dwattr $C$DW$651, DW_AT_const_value(0x5a)
    7828              
    7829              $C$DW$652       .dwtag  DW_TAG_enumerator
    7830                      .dwattr $C$DW$652, DW_AT_name("USER_ErrorCode_IdRated_delta_Low")
    7831                      .dwattr $C$DW$652, DW_AT_const_value(0x5b)
    7832              
    7833              $C$DW$653       .dwtag  DW_TAG_enumerator
    7834                      .dwattr $C$DW$653, DW_AT_name("USER_ErrorCode_fluxEstFreq_Hz_High")
    7835                      .dwattr $C$DW$653, DW_AT_const_value(0x5c)
    7836              
    7837              $C$DW$654       .dwtag  DW_TAG_enumerator
    7838                      .dwattr $C$DW$654, DW_AT_name("USER_ErrorCode_fluxEstFreq_Hz_Low")
    7839                      .dwattr $C$DW$654, DW_AT_const_value(0x5d)
    7840              
    7841              $C$DW$655       .dwtag  DW_TAG_enumerator
    7842                      .dwattr $C$DW$655, DW_AT_name("USER_ErrorCode_ctrlFreq_Hz_High")
TMS320C2000 Assembler PC v22.6.0 Tue Apr 18 11:09:46 2023

Copyright (c) 1996-2018 Texas Instruments Incorporated
C:\Users\User\AppData\Local\Temp\{F169EDD6-E2A2-400A-8386-A823CBD75D49} PAGE  150

    7843                      .dwattr $C$DW$655, DW_AT_const_value(0x5e)
    7844              
    7845              $C$DW$656       .dwtag  DW_TAG_enumerator
    7846                      .dwattr $C$DW$656, DW_AT_name("USER_ErrorCode_ctrlFreq_Hz_Low")
    7847                      .dwattr $C$DW$656, DW_AT_const_value(0x5f)
    7848              
    7849              $C$DW$657       .dwtag  DW_TAG_enumerator
    7850                      .dwattr $C$DW$657, DW_AT_name("USER_ErrorCode_estFreq_Hz_High")
    7851                      .dwattr $C$DW$657, DW_AT_const_value(0x60)
    7852              
    7853              $C$DW$658       .dwtag  DW_TAG_enumerator
    7854                      .dwattr $C$DW$658, DW_AT_name("USER_ErrorCode_estFreq_Hz_Low")
    7855                      .dwattr $C$DW$658, DW_AT_const_value(0x61)
    7856              
    7857              $C$DW$659       .dwtag  DW_TAG_enumerator
    7858                      .dwattr $C$DW$659, DW_AT_name("USER_ErrorCode_RoverL_estFreq_Hz_High")
    7859                      .dwattr $C$DW$659, DW_AT_const_value(0x62)
    7860              
    7861              $C$DW$660       .dwtag  DW_TAG_enumerator
    7862                      .dwattr $C$DW$660, DW_AT_name("USER_ErrorCode_RoverL_estFreq_Hz_Low")
    7863                      .dwattr $C$DW$660, DW_AT_const_value(0x63)
    7864              
    7865              $C$DW$661       .dwtag  DW_TAG_enumerator
    7866                      .dwattr $C$DW$661, DW_AT_name("USER_ErrorCode_trajFreq_Hz_High")
    7867                      .dwattr $C$DW$661, DW_AT_const_value(0x64)
    7868              
    7869              $C$DW$662       .dwtag  DW_TAG_enumerator
    7870                      .dwattr $C$DW$662, DW_AT_name("USER_ErrorCode_trajFreq_Hz_Low")
    7871                      .dwattr $C$DW$662, DW_AT_const_value(0x65)
    7872              
    7873              $C$DW$663       .dwtag  DW_TAG_enumerator
    7874                      .dwattr $C$DW$663, DW_AT_name("USER_ErrorCode_ctrlPeriod_sec_High")
    7875                      .dwattr $C$DW$663, DW_AT_const_value(0x66)
    7876              
    7877              $C$DW$664       .dwtag  DW_TAG_enumerator
    7878                      .dwattr $C$DW$664, DW_AT_name("USER_ErrorCode_ctrlPeriod_sec_Low")
    7879                      .dwattr $C$DW$664, DW_AT_const_value(0x67)
    7880              
    7881              $C$DW$665       .dwtag  DW_TAG_enumerator
    7882                      .dwattr $C$DW$665, DW_AT_name("USER_ErrorCode_maxNegativeIdCurrent_a_High")
    7883                      .dwattr $C$DW$665, DW_AT_const_value(0x68)
    7884              
    7885              $C$DW$666       .dwtag  DW_TAG_enumerator
    7886                      .dwattr $C$DW$666, DW_AT_name("USER_ErrorCode_maxNegativeIdCurrent_a_Low")
    7887                      .dwattr $C$DW$666, DW_AT_const_value(0x69)
    7888              
    7889              $C$DW$667       .dwtag  DW_TAG_enumerator
    7890                      .dwattr $C$DW$667, DW_AT_name("USER_numErrorCodes")
    7891                      .dwattr $C$DW$667, DW_AT_const_value(0x6a)
    7892              
    7893                      .dwendtag $C$DW$T$166
    7894              
    7895              $C$DW$T$167     .dwtag  DW_TAG_typedef
    7896                      .dwattr $C$DW$T$167, DW_AT_name("USER_ErrorCode_e")
    7897                      .dwattr $C$DW$T$167, DW_AT_type(*$C$DW$T$166)
TMS320C2000 Assembler PC v22.6.0 Tue Apr 18 11:09:46 2023

Copyright (c) 1996-2018 Texas Instruments Incorporated
C:\Users\User\AppData\Local\Temp\{F169EDD6-E2A2-400A-8386-A823CBD75D49} PAGE  151

    7898                      .dwattr $C$DW$T$167, DW_AT_language(DW_LANG_C)
    7899              
    7900              
    7901              $C$DW$T$176     .dwtag  DW_TAG_enumeration_type
    7902                      .dwattr $C$DW$T$176, DW_AT_byte_size(0x01)
    7903              $C$DW$668       .dwtag  DW_TAG_enumerator
    7904                      .dwattr $C$DW$668, DW_AT_name("EST_State_Error")
    7905                      .dwattr $C$DW$668, DW_AT_const_value(0x00)
    7906              
    7907              $C$DW$669       .dwtag  DW_TAG_enumerator
    7908                      .dwattr $C$DW$669, DW_AT_name("EST_State_Idle")
    7909                      .dwattr $C$DW$669, DW_AT_const_value(0x01)
    7910              
    7911              $C$DW$670       .dwtag  DW_TAG_enumerator
    7912                      .dwattr $C$DW$670, DW_AT_name("EST_State_RoverL")
    7913                      .dwattr $C$DW$670, DW_AT_const_value(0x02)
    7914              
    7915              $C$DW$671       .dwtag  DW_TAG_enumerator
    7916                      .dwattr $C$DW$671, DW_AT_name("EST_State_Rs")
    7917                      .dwattr $C$DW$671, DW_AT_const_value(0x03)
    7918              
    7919              $C$DW$672       .dwtag  DW_TAG_enumerator
    7920                      .dwattr $C$DW$672, DW_AT_name("EST_State_RampUp")
    7921                      .dwattr $C$DW$672, DW_AT_const_value(0x04)
    7922              
    7923              $C$DW$673       .dwtag  DW_TAG_enumerator
    7924                      .dwattr $C$DW$673, DW_AT_name("EST_State_IdRated")
    7925                      .dwattr $C$DW$673, DW_AT_const_value(0x05)
    7926              
    7927              $C$DW$674       .dwtag  DW_TAG_enumerator
    7928                      .dwattr $C$DW$674, DW_AT_name("EST_State_RatedFlux_OL")
    7929                      .dwattr $C$DW$674, DW_AT_const_value(0x06)
    7930              
    7931              $C$DW$675       .dwtag  DW_TAG_enumerator
    7932                      .dwattr $C$DW$675, DW_AT_name("EST_State_RatedFlux")
    7933                      .dwattr $C$DW$675, DW_AT_const_value(0x07)
    7934              
    7935              $C$DW$676       .dwtag  DW_TAG_enumerator
    7936                      .dwattr $C$DW$676, DW_AT_name("EST_State_RampDown")
    7937                      .dwattr $C$DW$676, DW_AT_const_value(0x08)
    7938              
    7939              $C$DW$677       .dwtag  DW_TAG_enumerator
    7940                      .dwattr $C$DW$677, DW_AT_name("EST_State_LockRotor")
    7941                      .dwattr $C$DW$677, DW_AT_const_value(0x09)
    7942              
    7943              $C$DW$678       .dwtag  DW_TAG_enumerator
    7944                      .dwattr $C$DW$678, DW_AT_name("EST_State_Ls")
    7945                      .dwattr $C$DW$678, DW_AT_const_value(0x0a)
    7946              
    7947              $C$DW$679       .dwtag  DW_TAG_enumerator
    7948                      .dwattr $C$DW$679, DW_AT_name("EST_State_Rr")
    7949                      .dwattr $C$DW$679, DW_AT_const_value(0x0b)
    7950              
    7951              $C$DW$680       .dwtag  DW_TAG_enumerator
    7952                      .dwattr $C$DW$680, DW_AT_name("EST_State_MotorIdentified")
TMS320C2000 Assembler PC v22.6.0 Tue Apr 18 11:09:46 2023

Copyright (c) 1996-2018 Texas Instruments Incorporated
C:\Users\User\AppData\Local\Temp\{F169EDD6-E2A2-400A-8386-A823CBD75D49} PAGE  152

    7953                      .dwattr $C$DW$680, DW_AT_const_value(0x0c)
    7954              
    7955              $C$DW$681       .dwtag  DW_TAG_enumerator
    7956                      .dwattr $C$DW$681, DW_AT_name("EST_State_OnLine")
    7957                      .dwattr $C$DW$681, DW_AT_const_value(0x0d)
    7958              
    7959              $C$DW$682       .dwtag  DW_TAG_enumerator
    7960                      .dwattr $C$DW$682, DW_AT_name("EST_numStates")
    7961                      .dwattr $C$DW$682, DW_AT_const_value(0x0e)
    7962              
    7963                      .dwendtag $C$DW$T$176
    7964              
    7965              $C$DW$T$177     .dwtag  DW_TAG_typedef
    7966                      .dwattr $C$DW$T$177, DW_AT_name("EST_State_e")
    7967                      .dwattr $C$DW$T$177, DW_AT_type(*$C$DW$T$176)
    7968                      .dwattr $C$DW$T$177, DW_AT_language(DW_LANG_C)
    7969              
    7970              
    7971              $C$DW$T$181     .dwtag  DW_TAG_enumeration_type
    7972                      .dwattr $C$DW$T$181, DW_AT_byte_size(0x01)
    7973              $C$DW$683       .dwtag  DW_TAG_enumerator
    7974                      .dwattr $C$DW$683, DW_AT_name("CTRL_Type_PID_spd")
    7975                      .dwattr $C$DW$683, DW_AT_const_value(0x00)
    7976              
    7977              $C$DW$684       .dwtag  DW_TAG_enumerator
    7978                      .dwattr $C$DW$684, DW_AT_name("CTRL_Type_PID_Id")
    7979                      .dwattr $C$DW$684, DW_AT_const_value(0x01)
    7980              
    7981              $C$DW$685       .dwtag  DW_TAG_enumerator
    7982                      .dwattr $C$DW$685, DW_AT_name("CTRL_Type_PID_Iq")
    7983                      .dwattr $C$DW$685, DW_AT_const_value(0x02)
    7984              
    7985                      .dwendtag $C$DW$T$181
    7986              
    7987              $C$DW$T$182     .dwtag  DW_TAG_typedef
    7988                      .dwattr $C$DW$T$182, DW_AT_name("CTRL_Type_e")
    7989                      .dwattr $C$DW$T$182, DW_AT_type(*$C$DW$T$181)
    7990                      .dwattr $C$DW$T$182, DW_AT_language(DW_LANG_C)
    7991              
    7992              $C$DW$686       .dwtag  DW_TAG_TI_far_type
    7993                      .dwattr $C$DW$686, DW_AT_type(*$C$DW$T$182)
    7994              
    7995              $C$DW$T$183     .dwtag  DW_TAG_const_type
    7996                      .dwattr $C$DW$T$183, DW_AT_type(*$C$DW$686)
    7997              
    7998              
    7999              $C$DW$T$31      .dwtag  DW_TAG_structure_type
    8000                      .dwattr $C$DW$T$31, DW_AT_name("_ADC_Obj_")
    8001                      .dwattr $C$DW$T$31, DW_AT_byte_size(0x6650)
    8002              $C$DW$687       .dwtag  DW_TAG_member
    8003                      .dwattr $C$DW$687, DW_AT_type(*$C$DW$T$25)
    8004                      .dwattr $C$DW$687, DW_AT_name("ADCRESULT")
    8005                      .dwattr $C$DW$687, DW_AT_TI_symbol_name("_ADCRESULT")
    8006                      .dwattr $C$DW$687, DW_AT_data_member_location[DW_OP_plus_uconst 0x0]
    8007                      .dwattr $C$DW$687, DW_AT_accessibility(DW_ACCESS_public)
TMS320C2000 Assembler PC v22.6.0 Tue Apr 18 11:09:46 2023

Copyright (c) 1996-2018 Texas Instruments Incorporated
C:\Users\User\AppData\Local\Temp\{F169EDD6-E2A2-400A-8386-A823CBD75D49} PAGE  153

    8008              
    8009              $C$DW$688       .dwtag  DW_TAG_member
    8010                      .dwattr $C$DW$688, DW_AT_type(*$C$DW$T$26)
    8011                      .dwattr $C$DW$688, DW_AT_name("resvd_1")
    8012                      .dwattr $C$DW$688, DW_AT_TI_symbol_name("_resvd_1")
    8013                      .dwattr $C$DW$688, DW_AT_data_member_location[DW_OP_plus_uconst 0x10]
    8014                      .dwattr $C$DW$688, DW_AT_accessibility(DW_ACCESS_public)
    8015              
    8016              $C$DW$689       .dwtag  DW_TAG_member
    8017                      .dwattr $C$DW$689, DW_AT_type(*$C$DW$T$24)
    8018                      .dwattr $C$DW$689, DW_AT_name("ADCCTL1")
    8019                      .dwattr $C$DW$689, DW_AT_TI_symbol_name("_ADCCTL1")
    8020                      .dwattr $C$DW$689, DW_AT_data_member_location[DW_OP_plus_uconst 0x6600]
    8021                      .dwattr $C$DW$689, DW_AT_accessibility(DW_ACCESS_public)
    8022              
    8023              $C$DW$690       .dwtag  DW_TAG_member
    8024                      .dwattr $C$DW$690, DW_AT_type(*$C$DW$T$24)
    8025                      .dwattr $C$DW$690, DW_AT_name("ADCCTL2")
    8026                      .dwattr $C$DW$690, DW_AT_TI_symbol_name("_ADCCTL2")
    8027                      .dwattr $C$DW$690, DW_AT_data_member_location[DW_OP_plus_uconst 0x6601]
    8028                      .dwattr $C$DW$690, DW_AT_accessibility(DW_ACCESS_public)
    8029              
    8030              $C$DW$691       .dwtag  DW_TAG_member
    8031                      .dwattr $C$DW$691, DW_AT_type(*$C$DW$T$27)
    8032                      .dwattr $C$DW$691, DW_AT_name("rsvd_2")
    8033                      .dwattr $C$DW$691, DW_AT_TI_symbol_name("_rsvd_2")
    8034                      .dwattr $C$DW$691, DW_AT_data_member_location[DW_OP_plus_uconst 0x6602]
    8035                      .dwattr $C$DW$691, DW_AT_accessibility(DW_ACCESS_public)
    8036              
    8037              $C$DW$692       .dwtag  DW_TAG_member
    8038                      .dwattr $C$DW$692, DW_AT_type(*$C$DW$T$24)
    8039                      .dwattr $C$DW$692, DW_AT_name("ADCINTFLG")
    8040                      .dwattr $C$DW$692, DW_AT_TI_symbol_name("_ADCINTFLG")
    8041                      .dwattr $C$DW$692, DW_AT_data_member_location[DW_OP_plus_uconst 0x6604]
    8042                      .dwattr $C$DW$692, DW_AT_accessibility(DW_ACCESS_public)
    8043              
    8044              $C$DW$693       .dwtag  DW_TAG_member
    8045                      .dwattr $C$DW$693, DW_AT_type(*$C$DW$T$24)
    8046                      .dwattr $C$DW$693, DW_AT_name("ADCINTFLGCLR")
    8047                      .dwattr $C$DW$693, DW_AT_TI_symbol_name("_ADCINTFLGCLR")
    8048                      .dwattr $C$DW$693, DW_AT_data_member_location[DW_OP_plus_uconst 0x6605]
    8049                      .dwattr $C$DW$693, DW_AT_accessibility(DW_ACCESS_public)
    8050              
    8051              $C$DW$694       .dwtag  DW_TAG_member
    8052                      .dwattr $C$DW$694, DW_AT_type(*$C$DW$T$24)
    8053                      .dwattr $C$DW$694, DW_AT_name("ADCINTOVF")
    8054                      .dwattr $C$DW$694, DW_AT_TI_symbol_name("_ADCINTOVF")
    8055                      .dwattr $C$DW$694, DW_AT_data_member_location[DW_OP_plus_uconst 0x6606]
    8056                      .dwattr $C$DW$694, DW_AT_accessibility(DW_ACCESS_public)
    8057              
    8058              $C$DW$695       .dwtag  DW_TAG_member
    8059                      .dwattr $C$DW$695, DW_AT_type(*$C$DW$T$24)
    8060                      .dwattr $C$DW$695, DW_AT_name("ADCINTOVFCLR")
    8061                      .dwattr $C$DW$695, DW_AT_TI_symbol_name("_ADCINTOVFCLR")
    8062                      .dwattr $C$DW$695, DW_AT_data_member_location[DW_OP_plus_uconst 0x6607]
TMS320C2000 Assembler PC v22.6.0 Tue Apr 18 11:09:46 2023

Copyright (c) 1996-2018 Texas Instruments Incorporated
C:\Users\User\AppData\Local\Temp\{F169EDD6-E2A2-400A-8386-A823CBD75D49} PAGE  154

    8063                      .dwattr $C$DW$695, DW_AT_accessibility(DW_ACCESS_public)
    8064              
    8065              $C$DW$696       .dwtag  DW_TAG_member
    8066                      .dwattr $C$DW$696, DW_AT_type(*$C$DW$T$28)
    8067                      .dwattr $C$DW$696, DW_AT_name("INTSELxNy")
    8068                      .dwattr $C$DW$696, DW_AT_TI_symbol_name("_INTSELxNy")
    8069                      .dwattr $C$DW$696, DW_AT_data_member_location[DW_OP_plus_uconst 0x6608]
    8070                      .dwattr $C$DW$696, DW_AT_accessibility(DW_ACCESS_public)
    8071              
    8072              $C$DW$697       .dwtag  DW_TAG_member
    8073                      .dwattr $C$DW$697, DW_AT_type(*$C$DW$T$29)
    8074                      .dwattr $C$DW$697, DW_AT_name("rsvd_3")
    8075                      .dwattr $C$DW$697, DW_AT_TI_symbol_name("_rsvd_3")
    8076                      .dwattr $C$DW$697, DW_AT_data_member_location[DW_OP_plus_uconst 0x660d]
    8077                      .dwattr $C$DW$697, DW_AT_accessibility(DW_ACCESS_public)
    8078              
    8079              $C$DW$698       .dwtag  DW_TAG_member
    8080                      .dwattr $C$DW$698, DW_AT_type(*$C$DW$T$24)
    8081                      .dwattr $C$DW$698, DW_AT_name("SOCPRICTRL")
    8082                      .dwattr $C$DW$698, DW_AT_TI_symbol_name("_SOCPRICTRL")
    8083                      .dwattr $C$DW$698, DW_AT_data_member_location[DW_OP_plus_uconst 0x6610]
    8084                      .dwattr $C$DW$698, DW_AT_accessibility(DW_ACCESS_public)
    8085              
    8086              $C$DW$699       .dwtag  DW_TAG_member
    8087                      .dwattr $C$DW$699, DW_AT_type(*$C$DW$T$24)
    8088                      .dwattr $C$DW$699, DW_AT_name("rsvd_4")
    8089                      .dwattr $C$DW$699, DW_AT_TI_symbol_name("_rsvd_4")
    8090                      .dwattr $C$DW$699, DW_AT_data_member_location[DW_OP_plus_uconst 0x6611]
    8091                      .dwattr $C$DW$699, DW_AT_accessibility(DW_ACCESS_public)
    8092              
    8093              $C$DW$700       .dwtag  DW_TAG_member
    8094                      .dwattr $C$DW$700, DW_AT_type(*$C$DW$T$24)
    8095                      .dwattr $C$DW$700, DW_AT_name("ADCSAMPLEMODE")
    8096                      .dwattr $C$DW$700, DW_AT_TI_symbol_name("_ADCSAMPLEMODE")
    8097                      .dwattr $C$DW$700, DW_AT_data_member_location[DW_OP_plus_uconst 0x6612]
    8098                      .dwattr $C$DW$700, DW_AT_accessibility(DW_ACCESS_public)
    8099              
    8100              $C$DW$701       .dwtag  DW_TAG_member
    8101                      .dwattr $C$DW$701, DW_AT_type(*$C$DW$T$24)
    8102                      .dwattr $C$DW$701, DW_AT_name("rsvd_5")
    8103                      .dwattr $C$DW$701, DW_AT_TI_symbol_name("_rsvd_5")
    8104                      .dwattr $C$DW$701, DW_AT_data_member_location[DW_OP_plus_uconst 0x6613]
    8105                      .dwattr $C$DW$701, DW_AT_accessibility(DW_ACCESS_public)
    8106              
    8107              $C$DW$702       .dwtag  DW_TAG_member
    8108                      .dwattr $C$DW$702, DW_AT_type(*$C$DW$T$24)
    8109                      .dwattr $C$DW$702, DW_AT_name("ADCINTSOCSEL1")
    8110                      .dwattr $C$DW$702, DW_AT_TI_symbol_name("_ADCINTSOCSEL1")
    8111                      .dwattr $C$DW$702, DW_AT_data_member_location[DW_OP_plus_uconst 0x6614]
    8112                      .dwattr $C$DW$702, DW_AT_accessibility(DW_ACCESS_public)
    8113              
    8114              $C$DW$703       .dwtag  DW_TAG_member
    8115                      .dwattr $C$DW$703, DW_AT_type(*$C$DW$T$24)
    8116                      .dwattr $C$DW$703, DW_AT_name("ADCINTSOCSEL2")
    8117                      .dwattr $C$DW$703, DW_AT_TI_symbol_name("_ADCINTSOCSEL2")
TMS320C2000 Assembler PC v22.6.0 Tue Apr 18 11:09:46 2023

Copyright (c) 1996-2018 Texas Instruments Incorporated
C:\Users\User\AppData\Local\Temp\{F169EDD6-E2A2-400A-8386-A823CBD75D49} PAGE  155

    8118                      .dwattr $C$DW$703, DW_AT_data_member_location[DW_OP_plus_uconst 0x6615]
    8119                      .dwattr $C$DW$703, DW_AT_accessibility(DW_ACCESS_public)
    8120              
    8121              $C$DW$704       .dwtag  DW_TAG_member
    8122                      .dwattr $C$DW$704, DW_AT_type(*$C$DW$T$27)
    8123                      .dwattr $C$DW$704, DW_AT_name("rsvd_6")
    8124                      .dwattr $C$DW$704, DW_AT_TI_symbol_name("_rsvd_6")
    8125                      .dwattr $C$DW$704, DW_AT_data_member_location[DW_OP_plus_uconst 0x6616]
    8126                      .dwattr $C$DW$704, DW_AT_accessibility(DW_ACCESS_public)
    8127              
    8128              $C$DW$705       .dwtag  DW_TAG_member
    8129                      .dwattr $C$DW$705, DW_AT_type(*$C$DW$T$24)
    8130                      .dwattr $C$DW$705, DW_AT_name("ADCSOCFLG1")
    8131                      .dwattr $C$DW$705, DW_AT_TI_symbol_name("_ADCSOCFLG1")
    8132                      .dwattr $C$DW$705, DW_AT_data_member_location[DW_OP_plus_uconst 0x6618]
    8133                      .dwattr $C$DW$705, DW_AT_accessibility(DW_ACCESS_public)
    8134              
    8135              $C$DW$706       .dwtag  DW_TAG_member
    8136                      .dwattr $C$DW$706, DW_AT_type(*$C$DW$T$24)
    8137                      .dwattr $C$DW$706, DW_AT_name("rsvd_7")
    8138                      .dwattr $C$DW$706, DW_AT_TI_symbol_name("_rsvd_7")
    8139                      .dwattr $C$DW$706, DW_AT_data_member_location[DW_OP_plus_uconst 0x6619]
    8140                      .dwattr $C$DW$706, DW_AT_accessibility(DW_ACCESS_public)
    8141              
    8142              $C$DW$707       .dwtag  DW_TAG_member
    8143                      .dwattr $C$DW$707, DW_AT_type(*$C$DW$T$24)
    8144                      .dwattr $C$DW$707, DW_AT_name("ADCSOCFRC1")
    8145                      .dwattr $C$DW$707, DW_AT_TI_symbol_name("_ADCSOCFRC1")
    8146                      .dwattr $C$DW$707, DW_AT_data_member_location[DW_OP_plus_uconst 0x661a]
    8147                      .dwattr $C$DW$707, DW_AT_accessibility(DW_ACCESS_public)
    8148              
    8149              $C$DW$708       .dwtag  DW_TAG_member
    8150                      .dwattr $C$DW$708, DW_AT_type(*$C$DW$T$24)
    8151                      .dwattr $C$DW$708, DW_AT_name("rsvd_8")
    8152                      .dwattr $C$DW$708, DW_AT_TI_symbol_name("_rsvd_8")
    8153                      .dwattr $C$DW$708, DW_AT_data_member_location[DW_OP_plus_uconst 0x661b]
    8154                      .dwattr $C$DW$708, DW_AT_accessibility(DW_ACCESS_public)
    8155              
    8156              $C$DW$709       .dwtag  DW_TAG_member
    8157                      .dwattr $C$DW$709, DW_AT_type(*$C$DW$T$24)
    8158                      .dwattr $C$DW$709, DW_AT_name("ADCSOCOVF1")
    8159                      .dwattr $C$DW$709, DW_AT_TI_symbol_name("_ADCSOCOVF1")
    8160                      .dwattr $C$DW$709, DW_AT_data_member_location[DW_OP_plus_uconst 0x661c]
    8161                      .dwattr $C$DW$709, DW_AT_accessibility(DW_ACCESS_public)
    8162              
    8163              $C$DW$710       .dwtag  DW_TAG_member
    8164                      .dwattr $C$DW$710, DW_AT_type(*$C$DW$T$24)
    8165                      .dwattr $C$DW$710, DW_AT_name("rsvd_9")
    8166                      .dwattr $C$DW$710, DW_AT_TI_symbol_name("_rsvd_9")
    8167                      .dwattr $C$DW$710, DW_AT_data_member_location[DW_OP_plus_uconst 0x661d]
    8168                      .dwattr $C$DW$710, DW_AT_accessibility(DW_ACCESS_public)
    8169              
    8170              $C$DW$711       .dwtag  DW_TAG_member
    8171                      .dwattr $C$DW$711, DW_AT_type(*$C$DW$T$24)
    8172                      .dwattr $C$DW$711, DW_AT_name("ADCSOCOVFCLR1")
TMS320C2000 Assembler PC v22.6.0 Tue Apr 18 11:09:46 2023

Copyright (c) 1996-2018 Texas Instruments Incorporated
C:\Users\User\AppData\Local\Temp\{F169EDD6-E2A2-400A-8386-A823CBD75D49} PAGE  156

    8173                      .dwattr $C$DW$711, DW_AT_TI_symbol_name("_ADCSOCOVFCLR1")
    8174                      .dwattr $C$DW$711, DW_AT_data_member_location[DW_OP_plus_uconst 0x661e]
    8175                      .dwattr $C$DW$711, DW_AT_accessibility(DW_ACCESS_public)
    8176              
    8177              $C$DW$712       .dwtag  DW_TAG_member
    8178                      .dwattr $C$DW$712, DW_AT_type(*$C$DW$T$24)
    8179                      .dwattr $C$DW$712, DW_AT_name("rsvd_10")
    8180                      .dwattr $C$DW$712, DW_AT_TI_symbol_name("_rsvd_10")
    8181                      .dwattr $C$DW$712, DW_AT_data_member_location[DW_OP_plus_uconst 0x661f]
    8182                      .dwattr $C$DW$712, DW_AT_accessibility(DW_ACCESS_public)
    8183              
    8184              $C$DW$713       .dwtag  DW_TAG_member
    8185                      .dwattr $C$DW$713, DW_AT_type(*$C$DW$T$25)
    8186                      .dwattr $C$DW$713, DW_AT_name("ADCSOCxCTL")
    8187                      .dwattr $C$DW$713, DW_AT_TI_symbol_name("_ADCSOCxCTL")
    8188                      .dwattr $C$DW$713, DW_AT_data_member_location[DW_OP_plus_uconst 0x6620]
    8189                      .dwattr $C$DW$713, DW_AT_accessibility(DW_ACCESS_public)
    8190              
    8191              $C$DW$714       .dwtag  DW_TAG_member
    8192                      .dwattr $C$DW$714, DW_AT_type(*$C$DW$T$25)
    8193                      .dwattr $C$DW$714, DW_AT_name("rsvd_11")
    8194                      .dwattr $C$DW$714, DW_AT_TI_symbol_name("_rsvd_11")
    8195                      .dwattr $C$DW$714, DW_AT_data_member_location[DW_OP_plus_uconst 0x6630]
    8196                      .dwattr $C$DW$714, DW_AT_accessibility(DW_ACCESS_public)
    8197              
    8198              $C$DW$715       .dwtag  DW_TAG_member
    8199                      .dwattr $C$DW$715, DW_AT_type(*$C$DW$T$24)
    8200                      .dwattr $C$DW$715, DW_AT_name("ADCREFTRIM")
    8201                      .dwattr $C$DW$715, DW_AT_TI_symbol_name("_ADCREFTRIM")
    8202                      .dwattr $C$DW$715, DW_AT_data_member_location[DW_OP_plus_uconst 0x6640]
    8203                      .dwattr $C$DW$715, DW_AT_accessibility(DW_ACCESS_public)
    8204              
    8205              $C$DW$716       .dwtag  DW_TAG_member
    8206                      .dwattr $C$DW$716, DW_AT_type(*$C$DW$T$24)
    8207                      .dwattr $C$DW$716, DW_AT_name("ADCOFFTRIM")
    8208                      .dwattr $C$DW$716, DW_AT_TI_symbol_name("_ADCOFFTRIM")
    8209                      .dwattr $C$DW$716, DW_AT_data_member_location[DW_OP_plus_uconst 0x6641]
    8210                      .dwattr $C$DW$716, DW_AT_accessibility(DW_ACCESS_public)
    8211              
    8212              $C$DW$717       .dwtag  DW_TAG_member
    8213                      .dwattr $C$DW$717, DW_AT_type(*$C$DW$T$30)
    8214                      .dwattr $C$DW$717, DW_AT_name("resvd_12")
    8215                      .dwattr $C$DW$717, DW_AT_TI_symbol_name("_resvd_12")
    8216                      .dwattr $C$DW$717, DW_AT_data_member_location[DW_OP_plus_uconst 0x6642]
    8217                      .dwattr $C$DW$717, DW_AT_accessibility(DW_ACCESS_public)
    8218              
    8219              $C$DW$718       .dwtag  DW_TAG_member
    8220                      .dwattr $C$DW$718, DW_AT_type(*$C$DW$T$24)
    8221                      .dwattr $C$DW$718, DW_AT_name("ADCREV")
    8222                      .dwattr $C$DW$718, DW_AT_TI_symbol_name("_ADCREV")
    8223                      .dwattr $C$DW$718, DW_AT_data_member_location[DW_OP_plus_uconst 0x664f]
    8224                      .dwattr $C$DW$718, DW_AT_accessibility(DW_ACCESS_public)
    8225              
    8226                      .dwendtag $C$DW$T$31
    8227              
TMS320C2000 Assembler PC v22.6.0 Tue Apr 18 11:09:46 2023

Copyright (c) 1996-2018 Texas Instruments Incorporated
C:\Users\User\AppData\Local\Temp\{F169EDD6-E2A2-400A-8386-A823CBD75D49} PAGE  157

    8228              $C$DW$T$94      .dwtag  DW_TAG_pointer_type
    8229                      .dwattr $C$DW$T$94, DW_AT_type(*$C$DW$T$31)
    8230                      .dwattr $C$DW$T$94, DW_AT_address_class(0x20)
    8231              
    8232              $C$DW$T$95      .dwtag  DW_TAG_typedef
    8233                      .dwattr $C$DW$T$95, DW_AT_name("ADC_Handle")
    8234                      .dwattr $C$DW$T$95, DW_AT_type(*$C$DW$T$94)
    8235                      .dwattr $C$DW$T$95, DW_AT_language(DW_LANG_C)
    8236              
    8237              
    8238              $C$DW$T$35      .dwtag  DW_TAG_structure_type
    8239                      .dwattr $C$DW$T$35, DW_AT_name("_CLARKE_Obj_")
    8240                      .dwattr $C$DW$T$35, DW_AT_byte_size(0x06)
    8241              $C$DW$719       .dwtag  DW_TAG_member
    8242                      .dwattr $C$DW$719, DW_AT_type(*$C$DW$T$32)
    8243                      .dwattr $C$DW$719, DW_AT_name("alpha_sf")
    8244                      .dwattr $C$DW$719, DW_AT_TI_symbol_name("_alpha_sf")
    8245                      .dwattr $C$DW$719, DW_AT_data_member_location[DW_OP_plus_uconst 0x0]
    8246                      .dwattr $C$DW$719, DW_AT_accessibility(DW_ACCESS_public)
    8247              
    8248              $C$DW$720       .dwtag  DW_TAG_member
    8249                      .dwattr $C$DW$720, DW_AT_type(*$C$DW$T$32)
    8250                      .dwattr $C$DW$720, DW_AT_name("beta_sf")
    8251                      .dwattr $C$DW$720, DW_AT_TI_symbol_name("_beta_sf")
    8252                      .dwattr $C$DW$720, DW_AT_data_member_location[DW_OP_plus_uconst 0x2]
    8253                      .dwattr $C$DW$720, DW_AT_accessibility(DW_ACCESS_public)
    8254              
    8255              $C$DW$721       .dwtag  DW_TAG_member
    8256                      .dwattr $C$DW$721, DW_AT_type(*$C$DW$T$34)
    8257                      .dwattr $C$DW$721, DW_AT_name("numSensors")
    8258                      .dwattr $C$DW$721, DW_AT_TI_symbol_name("_numSensors")
    8259                      .dwattr $C$DW$721, DW_AT_data_member_location[DW_OP_plus_uconst 0x4]
    8260                      .dwattr $C$DW$721, DW_AT_accessibility(DW_ACCESS_public)
    8261              
    8262                      .dwendtag $C$DW$T$35
    8263              
    8264              $C$DW$T$46      .dwtag  DW_TAG_typedef
    8265                      .dwattr $C$DW$T$46, DW_AT_name("CLARKE_Obj")
    8266                      .dwattr $C$DW$T$46, DW_AT_type(*$C$DW$T$35)
    8267                      .dwattr $C$DW$T$46, DW_AT_language(DW_LANG_C)
    8268              
    8269              $C$DW$T$44      .dwtag  DW_TAG_pointer_type
    8270                      .dwattr $C$DW$T$44, DW_AT_type(*$C$DW$T$35)
    8271                      .dwattr $C$DW$T$44, DW_AT_address_class(0x20)
    8272              
    8273              $C$DW$T$45      .dwtag  DW_TAG_typedef
    8274                      .dwattr $C$DW$T$45, DW_AT_name("CLARKE_Handle")
    8275                      .dwattr $C$DW$T$45, DW_AT_type(*$C$DW$T$44)
    8276                      .dwattr $C$DW$T$45, DW_AT_language(DW_LANG_C)
    8277              
    8278              
    8279              $C$DW$T$37      .dwtag  DW_TAG_structure_type
    8280                      .dwattr $C$DW$T$37, DW_AT_name("_CLK_Obj_")
    8281                      .dwattr $C$DW$T$37, DW_AT_byte_size(0x11)
    8282              $C$DW$722       .dwtag  DW_TAG_member
TMS320C2000 Assembler PC v22.6.0 Tue Apr 18 11:09:46 2023

Copyright (c) 1996-2018 Texas Instruments Incorporated
C:\Users\User\AppData\Local\Temp\{F169EDD6-E2A2-400A-8386-A823CBD75D49} PAGE  158

    8283                      .dwattr $C$DW$722, DW_AT_type(*$C$DW$T$24)
    8284                      .dwattr $C$DW$722, DW_AT_name("XCLK")
    8285                      .dwattr $C$DW$722, DW_AT_TI_symbol_name("_XCLK")
    8286                      .dwattr $C$DW$722, DW_AT_data_member_location[DW_OP_plus_uconst 0x0]
    8287                      .dwattr $C$DW$722, DW_AT_accessibility(DW_ACCESS_public)
    8288              
    8289              $C$DW$723       .dwtag  DW_TAG_member
    8290                      .dwattr $C$DW$723, DW_AT_type(*$C$DW$T$24)
    8291                      .dwattr $C$DW$723, DW_AT_name("rsvd_1")
    8292                      .dwattr $C$DW$723, DW_AT_TI_symbol_name("_rsvd_1")
    8293                      .dwattr $C$DW$723, DW_AT_data_member_location[DW_OP_plus_uconst 0x1]
    8294                      .dwattr $C$DW$723, DW_AT_accessibility(DW_ACCESS_public)
    8295              
    8296              $C$DW$724       .dwtag  DW_TAG_member
    8297                      .dwattr $C$DW$724, DW_AT_type(*$C$DW$T$24)
    8298                      .dwattr $C$DW$724, DW_AT_name("CLKCTL")
    8299                      .dwattr $C$DW$724, DW_AT_TI_symbol_name("_CLKCTL")
    8300                      .dwattr $C$DW$724, DW_AT_data_member_location[DW_OP_plus_uconst 0x2]
    8301                      .dwattr $C$DW$724, DW_AT_accessibility(DW_ACCESS_public)
    8302              
    8303              $C$DW$725       .dwtag  DW_TAG_member
    8304                      .dwattr $C$DW$725, DW_AT_type(*$C$DW$T$36)
    8305                      .dwattr $C$DW$725, DW_AT_name("rsvd_2")
    8306                      .dwattr $C$DW$725, DW_AT_TI_symbol_name("_rsvd_2")
    8307                      .dwattr $C$DW$725, DW_AT_data_member_location[DW_OP_plus_uconst 0x3]
    8308                      .dwattr $C$DW$725, DW_AT_accessibility(DW_ACCESS_public)
    8309              
    8310              $C$DW$726       .dwtag  DW_TAG_member
    8311                      .dwattr $C$DW$726, DW_AT_type(*$C$DW$T$24)
    8312                      .dwattr $C$DW$726, DW_AT_name("LOSPCP")
    8313                      .dwattr $C$DW$726, DW_AT_TI_symbol_name("_LOSPCP")
    8314                      .dwattr $C$DW$726, DW_AT_data_member_location[DW_OP_plus_uconst 0xb]
    8315                      .dwattr $C$DW$726, DW_AT_accessibility(DW_ACCESS_public)
    8316              
    8317              $C$DW$727       .dwtag  DW_TAG_member
    8318                      .dwattr $C$DW$727, DW_AT_type(*$C$DW$T$24)
    8319                      .dwattr $C$DW$727, DW_AT_name("PCLKCR0")
    8320                      .dwattr $C$DW$727, DW_AT_TI_symbol_name("_PCLKCR0")
    8321                      .dwattr $C$DW$727, DW_AT_data_member_location[DW_OP_plus_uconst 0xc]
    8322                      .dwattr $C$DW$727, DW_AT_accessibility(DW_ACCESS_public)
    8323              
    8324              $C$DW$728       .dwtag  DW_TAG_member
    8325                      .dwattr $C$DW$728, DW_AT_type(*$C$DW$T$24)
    8326                      .dwattr $C$DW$728, DW_AT_name("PCLKCR1")
    8327                      .dwattr $C$DW$728, DW_AT_TI_symbol_name("_PCLKCR1")
    8328                      .dwattr $C$DW$728, DW_AT_data_member_location[DW_OP_plus_uconst 0xd]
    8329                      .dwattr $C$DW$728, DW_AT_accessibility(DW_ACCESS_public)
    8330              
    8331              $C$DW$729       .dwtag  DW_TAG_member
    8332                      .dwattr $C$DW$729, DW_AT_type(*$C$DW$T$27)
    8333                      .dwattr $C$DW$729, DW_AT_name("rsvd_3")
    8334                      .dwattr $C$DW$729, DW_AT_TI_symbol_name("_rsvd_3")
    8335                      .dwattr $C$DW$729, DW_AT_data_member_location[DW_OP_plus_uconst 0xe]
    8336                      .dwattr $C$DW$729, DW_AT_accessibility(DW_ACCESS_public)
    8337              
TMS320C2000 Assembler PC v22.6.0 Tue Apr 18 11:09:46 2023

Copyright (c) 1996-2018 Texas Instruments Incorporated
C:\Users\User\AppData\Local\Temp\{F169EDD6-E2A2-400A-8386-A823CBD75D49} PAGE  159

    8338              $C$DW$730       .dwtag  DW_TAG_member
    8339                      .dwattr $C$DW$730, DW_AT_type(*$C$DW$T$24)
    8340                      .dwattr $C$DW$730, DW_AT_name("PCLKCR3")
    8341                      .dwattr $C$DW$730, DW_AT_TI_symbol_name("_PCLKCR3")
    8342                      .dwattr $C$DW$730, DW_AT_data_member_location[DW_OP_plus_uconst 0x10]
    8343                      .dwattr $C$DW$730, DW_AT_accessibility(DW_ACCESS_public)
    8344              
    8345                      .dwendtag $C$DW$T$37
    8346              
    8347              $C$DW$T$96      .dwtag  DW_TAG_pointer_type
    8348                      .dwattr $C$DW$T$96, DW_AT_type(*$C$DW$T$37)
    8349                      .dwattr $C$DW$T$96, DW_AT_address_class(0x20)
    8350              
    8351              $C$DW$T$97      .dwtag  DW_TAG_typedef
    8352                      .dwattr $C$DW$T$97, DW_AT_name("CLK_Handle")
    8353                      .dwattr $C$DW$T$97, DW_AT_type(*$C$DW$T$96)
    8354                      .dwattr $C$DW$T$97, DW_AT_language(DW_LANG_C)
    8355              
    8356              
    8357              $C$DW$T$38      .dwtag  DW_TAG_structure_type
    8358                      .dwattr $C$DW$T$38, DW_AT_name("_CPU_Obj_")
    8359                      .dwattr $C$DW$T$38, DW_AT_byte_size(0x01)
    8360              $C$DW$731       .dwtag  DW_TAG_member
    8361                      .dwattr $C$DW$731, DW_AT_type(*$C$DW$T$34)
    8362                      .dwattr $C$DW$731, DW_AT_name("tmp")
    8363                      .dwattr $C$DW$731, DW_AT_TI_symbol_name("_tmp")
    8364                      .dwattr $C$DW$731, DW_AT_data_member_location[DW_OP_plus_uconst 0x0]
    8365                      .dwattr $C$DW$731, DW_AT_accessibility(DW_ACCESS_public)
    8366              
    8367                      .dwendtag $C$DW$T$38
    8368              
    8369              $C$DW$T$98      .dwtag  DW_TAG_pointer_type
    8370                      .dwattr $C$DW$T$98, DW_AT_type(*$C$DW$T$38)
    8371                      .dwattr $C$DW$T$98, DW_AT_address_class(0x20)
    8372              
    8373              $C$DW$T$99      .dwtag  DW_TAG_typedef
    8374                      .dwattr $C$DW$T$99, DW_AT_name("CPU_Handle")
    8375                      .dwattr $C$DW$T$99, DW_AT_type(*$C$DW$T$98)
    8376                      .dwattr $C$DW$T$99, DW_AT_language(DW_LANG_C)
    8377              
    8378              
    8379              $C$DW$T$74      .dwtag  DW_TAG_structure_type
    8380                      .dwattr $C$DW$T$74, DW_AT_name("_CTRL_Obj_")
    8381                      .dwattr $C$DW$T$74, DW_AT_byte_size(0x10a)
    8382              $C$DW$732       .dwtag  DW_TAG_member
    8383                      .dwattr $C$DW$732, DW_AT_type(*$C$DW$T$39)
    8384                      .dwattr $C$DW$732, DW_AT_name("version")
    8385                      .dwattr $C$DW$732, DW_AT_TI_symbol_name("_version")
    8386                      .dwattr $C$DW$732, DW_AT_data_member_location[DW_OP_plus_uconst 0x0]
    8387                      .dwattr $C$DW$732, DW_AT_accessibility(DW_ACCESS_public)
    8388              
    8389              $C$DW$733       .dwtag  DW_TAG_member
    8390                      .dwattr $C$DW$733, DW_AT_type(*$C$DW$T$41)
    8391                      .dwattr $C$DW$733, DW_AT_name("state")
    8392                      .dwattr $C$DW$733, DW_AT_TI_symbol_name("_state")
TMS320C2000 Assembler PC v22.6.0 Tue Apr 18 11:09:46 2023

Copyright (c) 1996-2018 Texas Instruments Incorporated
C:\Users\User\AppData\Local\Temp\{F169EDD6-E2A2-400A-8386-A823CBD75D49} PAGE  160

    8393                      .dwattr $C$DW$733, DW_AT_data_member_location[DW_OP_plus_uconst 0x4]
    8394                      .dwattr $C$DW$733, DW_AT_accessibility(DW_ACCESS_public)
    8395              
    8396              $C$DW$734       .dwtag  DW_TAG_member
    8397                      .dwattr $C$DW$734, DW_AT_type(*$C$DW$T$41)
    8398                      .dwattr $C$DW$734, DW_AT_name("prevState")
    8399                      .dwattr $C$DW$734, DW_AT_TI_symbol_name("_prevState")
    8400                      .dwattr $C$DW$734, DW_AT_data_member_location[DW_OP_plus_uconst 0x5]
    8401                      .dwattr $C$DW$734, DW_AT_accessibility(DW_ACCESS_public)
    8402              
    8403              $C$DW$735       .dwtag  DW_TAG_member
    8404                      .dwattr $C$DW$735, DW_AT_type(*$C$DW$T$43)
    8405                      .dwattr $C$DW$735, DW_AT_name("errorCode")
    8406                      .dwattr $C$DW$735, DW_AT_TI_symbol_name("_errorCode")
    8407                      .dwattr $C$DW$735, DW_AT_data_member_location[DW_OP_plus_uconst 0x6]
    8408                      .dwattr $C$DW$735, DW_AT_accessibility(DW_ACCESS_public)
    8409              
    8410              $C$DW$736       .dwtag  DW_TAG_member
    8411                      .dwattr $C$DW$736, DW_AT_type(*$C$DW$T$45)
    8412                      .dwattr $C$DW$736, DW_AT_name("clarkeHandle_I")
    8413                      .dwattr $C$DW$736, DW_AT_TI_symbol_name("_clarkeHandle_I")
    8414                      .dwattr $C$DW$736, DW_AT_data_member_location[DW_OP_plus_uconst 0x8]
    8415                      .dwattr $C$DW$736, DW_AT_accessibility(DW_ACCESS_public)
    8416              
    8417              $C$DW$737       .dwtag  DW_TAG_member
    8418                      .dwattr $C$DW$737, DW_AT_type(*$C$DW$T$46)
    8419                      .dwattr $C$DW$737, DW_AT_name("clarke_I")
    8420                      .dwattr $C$DW$737, DW_AT_TI_symbol_name("_clarke_I")
    8421                      .dwattr $C$DW$737, DW_AT_data_member_location[DW_OP_plus_uconst 0xa]
    8422                      .dwattr $C$DW$737, DW_AT_accessibility(DW_ACCESS_public)
    8423              
    8424              $C$DW$738       .dwtag  DW_TAG_member
    8425                      .dwattr $C$DW$738, DW_AT_type(*$C$DW$T$45)
    8426                      .dwattr $C$DW$738, DW_AT_name("clarkeHandle_V")
    8427                      .dwattr $C$DW$738, DW_AT_TI_symbol_name("_clarkeHandle_V")
    8428                      .dwattr $C$DW$738, DW_AT_data_member_location[DW_OP_plus_uconst 0x10]
    8429                      .dwattr $C$DW$738, DW_AT_accessibility(DW_ACCESS_public)
    8430              
    8431              $C$DW$739       .dwtag  DW_TAG_member
    8432                      .dwattr $C$DW$739, DW_AT_type(*$C$DW$T$46)
    8433                      .dwattr $C$DW$739, DW_AT_name("clarke_V")
    8434                      .dwattr $C$DW$739, DW_AT_TI_symbol_name("_clarke_V")
    8435                      .dwattr $C$DW$739, DW_AT_data_member_location[DW_OP_plus_uconst 0x12]
    8436                      .dwattr $C$DW$739, DW_AT_accessibility(DW_ACCESS_public)
    8437              
    8438              $C$DW$740       .dwtag  DW_TAG_member
    8439                      .dwattr $C$DW$740, DW_AT_type(*$C$DW$T$48)
    8440                      .dwattr $C$DW$740, DW_AT_name("estHandle")
    8441                      .dwattr $C$DW$740, DW_AT_TI_symbol_name("_estHandle")
    8442                      .dwattr $C$DW$740, DW_AT_data_member_location[DW_OP_plus_uconst 0x18]
    8443                      .dwattr $C$DW$740, DW_AT_accessibility(DW_ACCESS_public)
    8444              
    8445              $C$DW$741       .dwtag  DW_TAG_member
    8446                      .dwattr $C$DW$741, DW_AT_type(*$C$DW$T$50)
    8447                      .dwattr $C$DW$741, DW_AT_name("parkHandle")
TMS320C2000 Assembler PC v22.6.0 Tue Apr 18 11:09:46 2023

Copyright (c) 1996-2018 Texas Instruments Incorporated
C:\Users\User\AppData\Local\Temp\{F169EDD6-E2A2-400A-8386-A823CBD75D49} PAGE  161

    8448                      .dwattr $C$DW$741, DW_AT_TI_symbol_name("_parkHandle")
    8449                      .dwattr $C$DW$741, DW_AT_data_member_location[DW_OP_plus_uconst 0x1a]
    8450                      .dwattr $C$DW$741, DW_AT_accessibility(DW_ACCESS_public)
    8451              
    8452              $C$DW$742       .dwtag  DW_TAG_member
    8453                      .dwattr $C$DW$742, DW_AT_type(*$C$DW$T$51)
    8454                      .dwattr $C$DW$742, DW_AT_name("park")
    8455                      .dwattr $C$DW$742, DW_AT_TI_symbol_name("_park")
    8456                      .dwattr $C$DW$742, DW_AT_data_member_location[DW_OP_plus_uconst 0x1c]
    8457                      .dwattr $C$DW$742, DW_AT_accessibility(DW_ACCESS_public)
    8458              
    8459              $C$DW$743       .dwtag  DW_TAG_member
    8460                      .dwattr $C$DW$743, DW_AT_type(*$C$DW$T$53)
    8461                      .dwattr $C$DW$743, DW_AT_name("pidHandle_Id")
    8462                      .dwattr $C$DW$743, DW_AT_TI_symbol_name("_pidHandle_Id")
    8463                      .dwattr $C$DW$743, DW_AT_data_member_location[DW_OP_plus_uconst 0x20]
    8464                      .dwattr $C$DW$743, DW_AT_accessibility(DW_ACCESS_public)
    8465              
    8466              $C$DW$744       .dwtag  DW_TAG_member
    8467                      .dwattr $C$DW$744, DW_AT_type(*$C$DW$T$54)
    8468                      .dwattr $C$DW$744, DW_AT_name("pid_Id")
    8469                      .dwattr $C$DW$744, DW_AT_TI_symbol_name("_pid_Id")
    8470                      .dwattr $C$DW$744, DW_AT_data_member_location[DW_OP_plus_uconst 0x22]
    8471                      .dwattr $C$DW$744, DW_AT_accessibility(DW_ACCESS_public)
    8472              
    8473              $C$DW$745       .dwtag  DW_TAG_member
    8474                      .dwattr $C$DW$745, DW_AT_type(*$C$DW$T$53)
    8475                      .dwattr $C$DW$745, DW_AT_name("pidHandle_Iq")
    8476                      .dwattr $C$DW$745, DW_AT_TI_symbol_name("_pidHandle_Iq")
    8477                      .dwattr $C$DW$745, DW_AT_data_member_location[DW_OP_plus_uconst 0x32]
    8478                      .dwattr $C$DW$745, DW_AT_accessibility(DW_ACCESS_public)
    8479              
    8480              $C$DW$746       .dwtag  DW_TAG_member
    8481                      .dwattr $C$DW$746, DW_AT_type(*$C$DW$T$54)
    8482                      .dwattr $C$DW$746, DW_AT_name("pid_Iq")
    8483                      .dwattr $C$DW$746, DW_AT_TI_symbol_name("_pid_Iq")
    8484                      .dwattr $C$DW$746, DW_AT_data_member_location[DW_OP_plus_uconst 0x34]
    8485                      .dwattr $C$DW$746, DW_AT_accessibility(DW_ACCESS_public)
    8486              
    8487              $C$DW$747       .dwtag  DW_TAG_member
    8488                      .dwattr $C$DW$747, DW_AT_type(*$C$DW$T$53)
    8489                      .dwattr $C$DW$747, DW_AT_name("pidHandle_spd")
    8490                      .dwattr $C$DW$747, DW_AT_TI_symbol_name("_pidHandle_spd")
    8491                      .dwattr $C$DW$747, DW_AT_data_member_location[DW_OP_plus_uconst 0x44]
    8492                      .dwattr $C$DW$747, DW_AT_accessibility(DW_ACCESS_public)
    8493              
    8494              $C$DW$748       .dwtag  DW_TAG_member
    8495                      .dwattr $C$DW$748, DW_AT_type(*$C$DW$T$54)
    8496                      .dwattr $C$DW$748, DW_AT_name("pid_spd")
    8497                      .dwattr $C$DW$748, DW_AT_TI_symbol_name("_pid_spd")
    8498                      .dwattr $C$DW$748, DW_AT_data_member_location[DW_OP_plus_uconst 0x46]
    8499                      .dwattr $C$DW$748, DW_AT_accessibility(DW_ACCESS_public)
    8500              
    8501              $C$DW$749       .dwtag  DW_TAG_member
    8502                      .dwattr $C$DW$749, DW_AT_type(*$C$DW$T$56)
TMS320C2000 Assembler PC v22.6.0 Tue Apr 18 11:09:46 2023

Copyright (c) 1996-2018 Texas Instruments Incorporated
C:\Users\User\AppData\Local\Temp\{F169EDD6-E2A2-400A-8386-A823CBD75D49} PAGE  162

    8503                      .dwattr $C$DW$749, DW_AT_name("iparkHandle")
    8504                      .dwattr $C$DW$749, DW_AT_TI_symbol_name("_iparkHandle")
    8505                      .dwattr $C$DW$749, DW_AT_data_member_location[DW_OP_plus_uconst 0x56]
    8506                      .dwattr $C$DW$749, DW_AT_accessibility(DW_ACCESS_public)
    8507              
    8508              $C$DW$750       .dwtag  DW_TAG_member
    8509                      .dwattr $C$DW$750, DW_AT_type(*$C$DW$T$57)
    8510                      .dwattr $C$DW$750, DW_AT_name("ipark")
    8511                      .dwattr $C$DW$750, DW_AT_TI_symbol_name("_ipark")
    8512                      .dwattr $C$DW$750, DW_AT_data_member_location[DW_OP_plus_uconst 0x58]
    8513                      .dwattr $C$DW$750, DW_AT_accessibility(DW_ACCESS_public)
    8514              
    8515              $C$DW$751       .dwtag  DW_TAG_member
    8516                      .dwattr $C$DW$751, DW_AT_type(*$C$DW$T$59)
    8517                      .dwattr $C$DW$751, DW_AT_name("svgenHandle")
    8518                      .dwattr $C$DW$751, DW_AT_TI_symbol_name("_svgenHandle")
    8519                      .dwattr $C$DW$751, DW_AT_data_member_location[DW_OP_plus_uconst 0x5c]
    8520                      .dwattr $C$DW$751, DW_AT_accessibility(DW_ACCESS_public)
    8521              
    8522              $C$DW$752       .dwtag  DW_TAG_member
    8523                      .dwattr $C$DW$752, DW_AT_type(*$C$DW$T$60)
    8524                      .dwattr $C$DW$752, DW_AT_name("svgen")
    8525                      .dwattr $C$DW$752, DW_AT_TI_symbol_name("_svgen")
    8526                      .dwattr $C$DW$752, DW_AT_data_member_location[DW_OP_plus_uconst 0x5e]
    8527                      .dwattr $C$DW$752, DW_AT_accessibility(DW_ACCESS_public)
    8528              
    8529              $C$DW$753       .dwtag  DW_TAG_member
    8530                      .dwattr $C$DW$753, DW_AT_type(*$C$DW$T$62)
    8531                      .dwattr $C$DW$753, DW_AT_name("trajHandle_Id")
    8532                      .dwattr $C$DW$753, DW_AT_TI_symbol_name("_trajHandle_Id")
    8533                      .dwattr $C$DW$753, DW_AT_data_member_location[DW_OP_plus_uconst 0x60]
    8534                      .dwattr $C$DW$753, DW_AT_accessibility(DW_ACCESS_public)
    8535              
    8536              $C$DW$754       .dwtag  DW_TAG_member
    8537                      .dwattr $C$DW$754, DW_AT_type(*$C$DW$T$63)
    8538                      .dwattr $C$DW$754, DW_AT_name("traj_Id")
    8539                      .dwattr $C$DW$754, DW_AT_TI_symbol_name("_traj_Id")
    8540                      .dwattr $C$DW$754, DW_AT_data_member_location[DW_OP_plus_uconst 0x62]
    8541                      .dwattr $C$DW$754, DW_AT_accessibility(DW_ACCESS_public)
    8542              
    8543              $C$DW$755       .dwtag  DW_TAG_member
    8544                      .dwattr $C$DW$755, DW_AT_type(*$C$DW$T$62)
    8545                      .dwattr $C$DW$755, DW_AT_name("trajHandle_spd")
    8546                      .dwattr $C$DW$755, DW_AT_TI_symbol_name("_trajHandle_spd")
    8547                      .dwattr $C$DW$755, DW_AT_data_member_location[DW_OP_plus_uconst 0x6c]
    8548                      .dwattr $C$DW$755, DW_AT_accessibility(DW_ACCESS_public)
    8549              
    8550              $C$DW$756       .dwtag  DW_TAG_member
    8551                      .dwattr $C$DW$756, DW_AT_type(*$C$DW$T$63)
    8552                      .dwattr $C$DW$756, DW_AT_name("traj_spd")
    8553                      .dwattr $C$DW$756, DW_AT_TI_symbol_name("_traj_spd")
    8554                      .dwattr $C$DW$756, DW_AT_data_member_location[DW_OP_plus_uconst 0x6e]
    8555                      .dwattr $C$DW$756, DW_AT_accessibility(DW_ACCESS_public)
    8556              
    8557              $C$DW$757       .dwtag  DW_TAG_member
TMS320C2000 Assembler PC v22.6.0 Tue Apr 18 11:09:46 2023

Copyright (c) 1996-2018 Texas Instruments Incorporated
C:\Users\User\AppData\Local\Temp\{F169EDD6-E2A2-400A-8386-A823CBD75D49} PAGE  163

    8558                      .dwattr $C$DW$757, DW_AT_type(*$C$DW$T$62)
    8559                      .dwattr $C$DW$757, DW_AT_name("trajHandle_spdMax")
    8560                      .dwattr $C$DW$757, DW_AT_TI_symbol_name("_trajHandle_spdMax")
    8561                      .dwattr $C$DW$757, DW_AT_data_member_location[DW_OP_plus_uconst 0x78]
    8562                      .dwattr $C$DW$757, DW_AT_accessibility(DW_ACCESS_public)
    8563              
    8564              $C$DW$758       .dwtag  DW_TAG_member
    8565                      .dwattr $C$DW$758, DW_AT_type(*$C$DW$T$63)
    8566                      .dwattr $C$DW$758, DW_AT_name("traj_spdMax")
    8567                      .dwattr $C$DW$758, DW_AT_TI_symbol_name("_traj_spdMax")
    8568                      .dwattr $C$DW$758, DW_AT_data_member_location[DW_OP_plus_uconst 0x7a]
    8569                      .dwattr $C$DW$758, DW_AT_accessibility(DW_ACCESS_public)
    8570              
    8571              $C$DW$759       .dwtag  DW_TAG_member
    8572                      .dwattr $C$DW$759, DW_AT_type(*$C$DW$T$64)
    8573                      .dwattr $C$DW$759, DW_AT_name("motorParams")
    8574                      .dwattr $C$DW$759, DW_AT_TI_symbol_name("_motorParams")
    8575                      .dwattr $C$DW$759, DW_AT_data_member_location[DW_OP_plus_uconst 0x84]
    8576                      .dwattr $C$DW$759, DW_AT_accessibility(DW_ACCESS_public)
    8577              
    8578              $C$DW$760       .dwtag  DW_TAG_member
    8579                      .dwattr $C$DW$760, DW_AT_type(*$C$DW$T$68)
    8580                      .dwattr $C$DW$760, DW_AT_name("waitTimes")
    8581                      .dwattr $C$DW$760, DW_AT_TI_symbol_name("_waitTimes")
    8582                      .dwattr $C$DW$760, DW_AT_data_member_location[DW_OP_plus_uconst 0x92]
    8583                      .dwattr $C$DW$760, DW_AT_accessibility(DW_ACCESS_public)
    8584              
    8585              $C$DW$761       .dwtag  DW_TAG_member
    8586                      .dwattr $C$DW$761, DW_AT_type(*$C$DW$T$67)
    8587                      .dwattr $C$DW$761, DW_AT_name("counter_state")
    8588                      .dwattr $C$DW$761, DW_AT_TI_symbol_name("_counter_state")
    8589                      .dwattr $C$DW$761, DW_AT_data_member_location[DW_OP_plus_uconst 0x9a]
    8590                      .dwattr $C$DW$761, DW_AT_accessibility(DW_ACCESS_public)
    8591              
    8592              $C$DW$762       .dwtag  DW_TAG_member
    8593                      .dwattr $C$DW$762, DW_AT_type(*$C$DW$T$70)
    8594                      .dwattr $C$DW$762, DW_AT_name("numIsrTicksPerCtrlTick")
    8595                      .dwattr $C$DW$762, DW_AT_TI_symbol_name("_numIsrTicksPerCtrlTick")
    8596                      .dwattr $C$DW$762, DW_AT_data_member_location[DW_OP_plus_uconst 0x9c]
    8597                      .dwattr $C$DW$762, DW_AT_accessibility(DW_ACCESS_public)
    8598              
    8599              $C$DW$763       .dwtag  DW_TAG_member
    8600                      .dwattr $C$DW$763, DW_AT_type(*$C$DW$T$70)
    8601                      .dwattr $C$DW$763, DW_AT_name("numCtrlTicksPerCurrentTick")
    8602                      .dwattr $C$DW$763, DW_AT_TI_symbol_name("_numCtrlTicksPerCurrentTick")
    8603                      .dwattr $C$DW$763, DW_AT_data_member_location[DW_OP_plus_uconst 0x9d]
    8604                      .dwattr $C$DW$763, DW_AT_accessibility(DW_ACCESS_public)
    8605              
    8606              $C$DW$764       .dwtag  DW_TAG_member
    8607                      .dwattr $C$DW$764, DW_AT_type(*$C$DW$T$70)
    8608                      .dwattr $C$DW$764, DW_AT_name("numCtrlTicksPerSpeedTick")
    8609                      .dwattr $C$DW$764, DW_AT_TI_symbol_name("_numCtrlTicksPerSpeedTick")
    8610                      .dwattr $C$DW$764, DW_AT_data_member_location[DW_OP_plus_uconst 0x9e]
    8611                      .dwattr $C$DW$764, DW_AT_accessibility(DW_ACCESS_public)
    8612              
TMS320C2000 Assembler PC v22.6.0 Tue Apr 18 11:09:46 2023

Copyright (c) 1996-2018 Texas Instruments Incorporated
C:\Users\User\AppData\Local\Temp\{F169EDD6-E2A2-400A-8386-A823CBD75D49} PAGE  164

    8613              $C$DW$765       .dwtag  DW_TAG_member
    8614                      .dwattr $C$DW$765, DW_AT_type(*$C$DW$T$70)
    8615                      .dwattr $C$DW$765, DW_AT_name("numCtrlTicksPerTrajTick")
    8616                      .dwattr $C$DW$765, DW_AT_TI_symbol_name("_numCtrlTicksPerTrajTick")
    8617                      .dwattr $C$DW$765, DW_AT_data_member_location[DW_OP_plus_uconst 0x9f]
    8618                      .dwattr $C$DW$765, DW_AT_accessibility(DW_ACCESS_public)
    8619              
    8620              $C$DW$766       .dwtag  DW_TAG_member
    8621                      .dwattr $C$DW$766, DW_AT_type(*$C$DW$T$67)
    8622                      .dwattr $C$DW$766, DW_AT_name("ctrlFreq_Hz")
    8623                      .dwattr $C$DW$766, DW_AT_TI_symbol_name("_ctrlFreq_Hz")
    8624                      .dwattr $C$DW$766, DW_AT_data_member_location[DW_OP_plus_uconst 0xa0]
    8625                      .dwattr $C$DW$766, DW_AT_accessibility(DW_ACCESS_public)
    8626              
    8627              $C$DW$767       .dwtag  DW_TAG_member
    8628                      .dwattr $C$DW$767, DW_AT_type(*$C$DW$T$67)
    8629                      .dwattr $C$DW$767, DW_AT_name("trajFreq_Hz")
    8630                      .dwattr $C$DW$767, DW_AT_TI_symbol_name("_trajFreq_Hz")
    8631                      .dwattr $C$DW$767, DW_AT_data_member_location[DW_OP_plus_uconst 0xa2]
    8632                      .dwattr $C$DW$767, DW_AT_accessibility(DW_ACCESS_public)
    8633              
    8634              $C$DW$768       .dwtag  DW_TAG_member
    8635                      .dwattr $C$DW$768, DW_AT_type(*$C$DW$T$32)
    8636                      .dwattr $C$DW$768, DW_AT_name("trajPeriod_sec")
    8637                      .dwattr $C$DW$768, DW_AT_TI_symbol_name("_trajPeriod_sec")
    8638                      .dwattr $C$DW$768, DW_AT_data_member_location[DW_OP_plus_uconst 0xa4]
    8639                      .dwattr $C$DW$768, DW_AT_accessibility(DW_ACCESS_public)
    8640              
    8641              $C$DW$769       .dwtag  DW_TAG_member
    8642                      .dwattr $C$DW$769, DW_AT_type(*$C$DW$T$71)
    8643                      .dwattr $C$DW$769, DW_AT_name("ctrlPeriod_sec")
    8644                      .dwattr $C$DW$769, DW_AT_TI_symbol_name("_ctrlPeriod_sec")
    8645                      .dwattr $C$DW$769, DW_AT_data_member_location[DW_OP_plus_uconst 0xa6]
    8646                      .dwattr $C$DW$769, DW_AT_accessibility(DW_ACCESS_public)
    8647              
    8648              $C$DW$770       .dwtag  DW_TAG_member
    8649                      .dwattr $C$DW$770, DW_AT_type(*$C$DW$T$32)
    8650                      .dwattr $C$DW$770, DW_AT_name("maxVsMag_pu")
    8651                      .dwattr $C$DW$770, DW_AT_TI_symbol_name("_maxVsMag_pu")
    8652                      .dwattr $C$DW$770, DW_AT_data_member_location[DW_OP_plus_uconst 0xa8]
    8653                      .dwattr $C$DW$770, DW_AT_accessibility(DW_ACCESS_public)
    8654              
    8655              $C$DW$771       .dwtag  DW_TAG_member
    8656                      .dwattr $C$DW$771, DW_AT_type(*$C$DW$T$72)
    8657                      .dwattr $C$DW$771, DW_AT_name("Iab_in")
    8658                      .dwattr $C$DW$771, DW_AT_TI_symbol_name("_Iab_in")
    8659                      .dwattr $C$DW$771, DW_AT_data_member_location[DW_OP_plus_uconst 0xaa]
    8660                      .dwattr $C$DW$771, DW_AT_accessibility(DW_ACCESS_public)
    8661              
    8662              $C$DW$772       .dwtag  DW_TAG_member
    8663                      .dwattr $C$DW$772, DW_AT_type(*$C$DW$T$72)
    8664                      .dwattr $C$DW$772, DW_AT_name("Iab_filt")
    8665                      .dwattr $C$DW$772, DW_AT_TI_symbol_name("_Iab_filt")
    8666                      .dwattr $C$DW$772, DW_AT_data_member_location[DW_OP_plus_uconst 0xae]
    8667                      .dwattr $C$DW$772, DW_AT_accessibility(DW_ACCESS_public)
TMS320C2000 Assembler PC v22.6.0 Tue Apr 18 11:09:46 2023

Copyright (c) 1996-2018 Texas Instruments Incorporated
C:\Users\User\AppData\Local\Temp\{F169EDD6-E2A2-400A-8386-A823CBD75D49} PAGE  165

    8668              
    8669              $C$DW$773       .dwtag  DW_TAG_member
    8670                      .dwattr $C$DW$773, DW_AT_type(*$C$DW$T$72)
    8671                      .dwattr $C$DW$773, DW_AT_name("Idq_in")
    8672                      .dwattr $C$DW$773, DW_AT_TI_symbol_name("_Idq_in")
    8673                      .dwattr $C$DW$773, DW_AT_data_member_location[DW_OP_plus_uconst 0xb2]
    8674                      .dwattr $C$DW$773, DW_AT_accessibility(DW_ACCESS_public)
    8675              
    8676              $C$DW$774       .dwtag  DW_TAG_member
    8677                      .dwattr $C$DW$774, DW_AT_type(*$C$DW$T$72)
    8678                      .dwattr $C$DW$774, DW_AT_name("Vab_in")
    8679                      .dwattr $C$DW$774, DW_AT_TI_symbol_name("_Vab_in")
    8680                      .dwattr $C$DW$774, DW_AT_data_member_location[DW_OP_plus_uconst 0xb6]
    8681                      .dwattr $C$DW$774, DW_AT_accessibility(DW_ACCESS_public)
    8682              
    8683              $C$DW$775       .dwtag  DW_TAG_member
    8684                      .dwattr $C$DW$775, DW_AT_type(*$C$DW$T$32)
    8685                      .dwattr $C$DW$775, DW_AT_name("spd_out")
    8686                      .dwattr $C$DW$775, DW_AT_TI_symbol_name("_spd_out")
    8687                      .dwattr $C$DW$775, DW_AT_data_member_location[DW_OP_plus_uconst 0xba]
    8688                      .dwattr $C$DW$775, DW_AT_accessibility(DW_ACCESS_public)
    8689              
    8690              $C$DW$776       .dwtag  DW_TAG_member
    8691                      .dwattr $C$DW$776, DW_AT_type(*$C$DW$T$72)
    8692                      .dwattr $C$DW$776, DW_AT_name("Vab_out")
    8693                      .dwattr $C$DW$776, DW_AT_TI_symbol_name("_Vab_out")
    8694                      .dwattr $C$DW$776, DW_AT_data_member_location[DW_OP_plus_uconst 0xbc]
    8695                      .dwattr $C$DW$776, DW_AT_accessibility(DW_ACCESS_public)
    8696              
    8697              $C$DW$777       .dwtag  DW_TAG_member
    8698                      .dwattr $C$DW$777, DW_AT_type(*$C$DW$T$72)
    8699                      .dwattr $C$DW$777, DW_AT_name("Vdq_out")
    8700                      .dwattr $C$DW$777, DW_AT_TI_symbol_name("_Vdq_out")
    8701                      .dwattr $C$DW$777, DW_AT_data_member_location[DW_OP_plus_uconst 0xc0]
    8702                      .dwattr $C$DW$777, DW_AT_accessibility(DW_ACCESS_public)
    8703              
    8704              $C$DW$778       .dwtag  DW_TAG_member
    8705                      .dwattr $C$DW$778, DW_AT_type(*$C$DW$T$71)
    8706                      .dwattr $C$DW$778, DW_AT_name("Rhf")
    8707                      .dwattr $C$DW$778, DW_AT_TI_symbol_name("_Rhf")
    8708                      .dwattr $C$DW$778, DW_AT_data_member_location[DW_OP_plus_uconst 0xc4]
    8709                      .dwattr $C$DW$778, DW_AT_accessibility(DW_ACCESS_public)
    8710              
    8711              $C$DW$779       .dwtag  DW_TAG_member
    8712                      .dwattr $C$DW$779, DW_AT_type(*$C$DW$T$71)
    8713                      .dwattr $C$DW$779, DW_AT_name("Lhf")
    8714                      .dwattr $C$DW$779, DW_AT_TI_symbol_name("_Lhf")
    8715                      .dwattr $C$DW$779, DW_AT_data_member_location[DW_OP_plus_uconst 0xc6]
    8716                      .dwattr $C$DW$779, DW_AT_accessibility(DW_ACCESS_public)
    8717              
    8718              $C$DW$780       .dwtag  DW_TAG_member
    8719                      .dwattr $C$DW$780, DW_AT_type(*$C$DW$T$71)
    8720                      .dwattr $C$DW$780, DW_AT_name("RoverL")
    8721                      .dwattr $C$DW$780, DW_AT_TI_symbol_name("_RoverL")
    8722                      .dwattr $C$DW$780, DW_AT_data_member_location[DW_OP_plus_uconst 0xc8]
TMS320C2000 Assembler PC v22.6.0 Tue Apr 18 11:09:46 2023

Copyright (c) 1996-2018 Texas Instruments Incorporated
C:\Users\User\AppData\Local\Temp\{F169EDD6-E2A2-400A-8386-A823CBD75D49} PAGE  166

    8723                      .dwattr $C$DW$780, DW_AT_accessibility(DW_ACCESS_public)
    8724              
    8725              $C$DW$781       .dwtag  DW_TAG_member
    8726                      .dwattr $C$DW$781, DW_AT_type(*$C$DW$T$32)
    8727                      .dwattr $C$DW$781, DW_AT_name("Kp_Id")
    8728                      .dwattr $C$DW$781, DW_AT_TI_symbol_name("_Kp_Id")
    8729                      .dwattr $C$DW$781, DW_AT_data_member_location[DW_OP_plus_uconst 0xca]
    8730                      .dwattr $C$DW$781, DW_AT_accessibility(DW_ACCESS_public)
    8731              
    8732              $C$DW$782       .dwtag  DW_TAG_member
    8733                      .dwattr $C$DW$782, DW_AT_type(*$C$DW$T$32)
    8734                      .dwattr $C$DW$782, DW_AT_name("Kp_Iq")
    8735                      .dwattr $C$DW$782, DW_AT_TI_symbol_name("_Kp_Iq")
    8736                      .dwattr $C$DW$782, DW_AT_data_member_location[DW_OP_plus_uconst 0xcc]
    8737                      .dwattr $C$DW$782, DW_AT_accessibility(DW_ACCESS_public)
    8738              
    8739              $C$DW$783       .dwtag  DW_TAG_member
    8740                      .dwattr $C$DW$783, DW_AT_type(*$C$DW$T$32)
    8741                      .dwattr $C$DW$783, DW_AT_name("Kp_spd")
    8742                      .dwattr $C$DW$783, DW_AT_TI_symbol_name("_Kp_spd")
    8743                      .dwattr $C$DW$783, DW_AT_data_member_location[DW_OP_plus_uconst 0xce]
    8744                      .dwattr $C$DW$783, DW_AT_accessibility(DW_ACCESS_public)
    8745              
    8746              $C$DW$784       .dwtag  DW_TAG_member
    8747                      .dwattr $C$DW$784, DW_AT_type(*$C$DW$T$32)
    8748                      .dwattr $C$DW$784, DW_AT_name("Ki_Id")
    8749                      .dwattr $C$DW$784, DW_AT_TI_symbol_name("_Ki_Id")
    8750                      .dwattr $C$DW$784, DW_AT_data_member_location[DW_OP_plus_uconst 0xd0]
    8751                      .dwattr $C$DW$784, DW_AT_accessibility(DW_ACCESS_public)
    8752              
    8753              $C$DW$785       .dwtag  DW_TAG_member
    8754                      .dwattr $C$DW$785, DW_AT_type(*$C$DW$T$32)
    8755                      .dwattr $C$DW$785, DW_AT_name("Ki_Iq")
    8756                      .dwattr $C$DW$785, DW_AT_TI_symbol_name("_Ki_Iq")
    8757                      .dwattr $C$DW$785, DW_AT_data_member_location[DW_OP_plus_uconst 0xd2]
    8758                      .dwattr $C$DW$785, DW_AT_accessibility(DW_ACCESS_public)
    8759              
    8760              $C$DW$786       .dwtag  DW_TAG_member
    8761                      .dwattr $C$DW$786, DW_AT_type(*$C$DW$T$32)
    8762                      .dwattr $C$DW$786, DW_AT_name("Ki_spd")
    8763                      .dwattr $C$DW$786, DW_AT_TI_symbol_name("_Ki_spd")
    8764                      .dwattr $C$DW$786, DW_AT_data_member_location[DW_OP_plus_uconst 0xd4]
    8765                      .dwattr $C$DW$786, DW_AT_accessibility(DW_ACCESS_public)
    8766              
    8767              $C$DW$787       .dwtag  DW_TAG_member
    8768                      .dwattr $C$DW$787, DW_AT_type(*$C$DW$T$32)
    8769                      .dwattr $C$DW$787, DW_AT_name("Kd_Id")
    8770                      .dwattr $C$DW$787, DW_AT_TI_symbol_name("_Kd_Id")
    8771                      .dwattr $C$DW$787, DW_AT_data_member_location[DW_OP_plus_uconst 0xd6]
    8772                      .dwattr $C$DW$787, DW_AT_accessibility(DW_ACCESS_public)
    8773              
    8774              $C$DW$788       .dwtag  DW_TAG_member
    8775                      .dwattr $C$DW$788, DW_AT_type(*$C$DW$T$32)
    8776                      .dwattr $C$DW$788, DW_AT_name("Kd_Iq")
    8777                      .dwattr $C$DW$788, DW_AT_TI_symbol_name("_Kd_Iq")
TMS320C2000 Assembler PC v22.6.0 Tue Apr 18 11:09:46 2023

Copyright (c) 1996-2018 Texas Instruments Incorporated
C:\Users\User\AppData\Local\Temp\{F169EDD6-E2A2-400A-8386-A823CBD75D49} PAGE  167

    8778                      .dwattr $C$DW$788, DW_AT_data_member_location[DW_OP_plus_uconst 0xd8]
    8779                      .dwattr $C$DW$788, DW_AT_accessibility(DW_ACCESS_public)
    8780              
    8781              $C$DW$789       .dwtag  DW_TAG_member
    8782                      .dwattr $C$DW$789, DW_AT_type(*$C$DW$T$32)
    8783                      .dwattr $C$DW$789, DW_AT_name("Kd_spd")
    8784                      .dwattr $C$DW$789, DW_AT_TI_symbol_name("_Kd_spd")
    8785                      .dwattr $C$DW$789, DW_AT_data_member_location[DW_OP_plus_uconst 0xda]
    8786                      .dwattr $C$DW$789, DW_AT_accessibility(DW_ACCESS_public)
    8787              
    8788              $C$DW$790       .dwtag  DW_TAG_member
    8789                      .dwattr $C$DW$790, DW_AT_type(*$C$DW$T$32)
    8790                      .dwattr $C$DW$790, DW_AT_name("Ui_Id")
    8791                      .dwattr $C$DW$790, DW_AT_TI_symbol_name("_Ui_Id")
    8792                      .dwattr $C$DW$790, DW_AT_data_member_location[DW_OP_plus_uconst 0xdc]
    8793                      .dwattr $C$DW$790, DW_AT_accessibility(DW_ACCESS_public)
    8794              
    8795              $C$DW$791       .dwtag  DW_TAG_member
    8796                      .dwattr $C$DW$791, DW_AT_type(*$C$DW$T$32)
    8797                      .dwattr $C$DW$791, DW_AT_name("Ui_Iq")
    8798                      .dwattr $C$DW$791, DW_AT_TI_symbol_name("_Ui_Iq")
    8799                      .dwattr $C$DW$791, DW_AT_data_member_location[DW_OP_plus_uconst 0xde]
    8800                      .dwattr $C$DW$791, DW_AT_accessibility(DW_ACCESS_public)
    8801              
    8802              $C$DW$792       .dwtag  DW_TAG_member
    8803                      .dwattr $C$DW$792, DW_AT_type(*$C$DW$T$32)
    8804                      .dwattr $C$DW$792, DW_AT_name("Ui_spd")
    8805                      .dwattr $C$DW$792, DW_AT_TI_symbol_name("_Ui_spd")
    8806                      .dwattr $C$DW$792, DW_AT_data_member_location[DW_OP_plus_uconst 0xe0]
    8807                      .dwattr $C$DW$792, DW_AT_accessibility(DW_ACCESS_public)
    8808              
    8809              $C$DW$793       .dwtag  DW_TAG_member
    8810                      .dwattr $C$DW$793, DW_AT_type(*$C$DW$T$72)
    8811                      .dwattr $C$DW$793, DW_AT_name("Idq_ref")
    8812                      .dwattr $C$DW$793, DW_AT_TI_symbol_name("_Idq_ref")
    8813                      .dwattr $C$DW$793, DW_AT_data_member_location[DW_OP_plus_uconst 0xe2]
    8814                      .dwattr $C$DW$793, DW_AT_accessibility(DW_ACCESS_public)
    8815              
    8816              $C$DW$794       .dwtag  DW_TAG_member
    8817                      .dwattr $C$DW$794, DW_AT_type(*$C$DW$T$32)
    8818                      .dwattr $C$DW$794, DW_AT_name("IdRated")
    8819                      .dwattr $C$DW$794, DW_AT_TI_symbol_name("_IdRated")
    8820                      .dwattr $C$DW$794, DW_AT_data_member_location[DW_OP_plus_uconst 0xe6]
    8821                      .dwattr $C$DW$794, DW_AT_accessibility(DW_ACCESS_public)
    8822              
    8823              $C$DW$795       .dwtag  DW_TAG_member
    8824                      .dwattr $C$DW$795, DW_AT_type(*$C$DW$T$32)
    8825                      .dwattr $C$DW$795, DW_AT_name("spd_ref")
    8826                      .dwattr $C$DW$795, DW_AT_TI_symbol_name("_spd_ref")
    8827                      .dwattr $C$DW$795, DW_AT_data_member_location[DW_OP_plus_uconst 0xe8]
    8828                      .dwattr $C$DW$795, DW_AT_accessibility(DW_ACCESS_public)
    8829              
    8830              $C$DW$796       .dwtag  DW_TAG_member
    8831                      .dwattr $C$DW$796, DW_AT_type(*$C$DW$T$32)
    8832                      .dwattr $C$DW$796, DW_AT_name("spd_max")
TMS320C2000 Assembler PC v22.6.0 Tue Apr 18 11:09:46 2023

Copyright (c) 1996-2018 Texas Instruments Incorporated
C:\Users\User\AppData\Local\Temp\{F169EDD6-E2A2-400A-8386-A823CBD75D49} PAGE  168

    8833                      .dwattr $C$DW$796, DW_AT_TI_symbol_name("_spd_max")
    8834                      .dwattr $C$DW$796, DW_AT_data_member_location[DW_OP_plus_uconst 0xea]
    8835                      .dwattr $C$DW$796, DW_AT_accessibility(DW_ACCESS_public)
    8836              
    8837              $C$DW$797       .dwtag  DW_TAG_member
    8838                      .dwattr $C$DW$797, DW_AT_type(*$C$DW$T$70)
    8839                      .dwattr $C$DW$797, DW_AT_name("counter_current")
    8840                      .dwattr $C$DW$797, DW_AT_TI_symbol_name("_counter_current")
    8841                      .dwattr $C$DW$797, DW_AT_data_member_location[DW_OP_plus_uconst 0xec]
    8842                      .dwattr $C$DW$797, DW_AT_accessibility(DW_ACCESS_public)
    8843              
    8844              $C$DW$798       .dwtag  DW_TAG_member
    8845                      .dwattr $C$DW$798, DW_AT_type(*$C$DW$T$70)
    8846                      .dwattr $C$DW$798, DW_AT_name("counter_isr")
    8847                      .dwattr $C$DW$798, DW_AT_TI_symbol_name("_counter_isr")
    8848                      .dwattr $C$DW$798, DW_AT_data_member_location[DW_OP_plus_uconst 0xed]
    8849                      .dwattr $C$DW$798, DW_AT_accessibility(DW_ACCESS_public)
    8850              
    8851              $C$DW$799       .dwtag  DW_TAG_member
    8852                      .dwattr $C$DW$799, DW_AT_type(*$C$DW$T$70)
    8853                      .dwattr $C$DW$799, DW_AT_name("counter_speed")
    8854                      .dwattr $C$DW$799, DW_AT_TI_symbol_name("_counter_speed")
    8855                      .dwattr $C$DW$799, DW_AT_data_member_location[DW_OP_plus_uconst 0xee]
    8856                      .dwattr $C$DW$799, DW_AT_accessibility(DW_ACCESS_public)
    8857              
    8858              $C$DW$800       .dwtag  DW_TAG_member
    8859                      .dwattr $C$DW$800, DW_AT_type(*$C$DW$T$70)
    8860                      .dwattr $C$DW$800, DW_AT_name("counter_traj")
    8861                      .dwattr $C$DW$800, DW_AT_TI_symbol_name("_counter_traj")
    8862                      .dwattr $C$DW$800, DW_AT_data_member_location[DW_OP_plus_uconst 0xef]
    8863                      .dwattr $C$DW$800, DW_AT_accessibility(DW_ACCESS_public)
    8864              
    8865              $C$DW$801       .dwtag  DW_TAG_member
    8866                      .dwattr $C$DW$801, DW_AT_type(*$C$DW$T$73)
    8867                      .dwattr $C$DW$801, DW_AT_name("flag_enableCtrl")
    8868                      .dwattr $C$DW$801, DW_AT_TI_symbol_name("_flag_enableCtrl")
    8869                      .dwattr $C$DW$801, DW_AT_data_member_location[DW_OP_plus_uconst 0xf0]
    8870                      .dwattr $C$DW$801, DW_AT_accessibility(DW_ACCESS_public)
    8871              
    8872              $C$DW$802       .dwtag  DW_TAG_member
    8873                      .dwattr $C$DW$802, DW_AT_type(*$C$DW$T$73)
    8874                      .dwattr $C$DW$802, DW_AT_name("flag_enableDcBusComp")
    8875                      .dwattr $C$DW$802, DW_AT_TI_symbol_name("_flag_enableDcBusComp")
    8876                      .dwattr $C$DW$802, DW_AT_data_member_location[DW_OP_plus_uconst 0xf1]
    8877                      .dwattr $C$DW$802, DW_AT_accessibility(DW_ACCESS_public)
    8878              
    8879              $C$DW$803       .dwtag  DW_TAG_member
    8880                      .dwattr $C$DW$803, DW_AT_type(*$C$DW$T$73)
    8881                      .dwattr $C$DW$803, DW_AT_name("flag_enablePowerWarp")
    8882                      .dwattr $C$DW$803, DW_AT_TI_symbol_name("_flag_enablePowerWarp")
    8883                      .dwattr $C$DW$803, DW_AT_data_member_location[DW_OP_plus_uconst 0xf2]
    8884                      .dwattr $C$DW$803, DW_AT_accessibility(DW_ACCESS_public)
    8885              
    8886              $C$DW$804       .dwtag  DW_TAG_member
    8887                      .dwattr $C$DW$804, DW_AT_type(*$C$DW$T$73)
TMS320C2000 Assembler PC v22.6.0 Tue Apr 18 11:09:46 2023

Copyright (c) 1996-2018 Texas Instruments Incorporated
C:\Users\User\AppData\Local\Temp\{F169EDD6-E2A2-400A-8386-A823CBD75D49} PAGE  169

    8888                      .dwattr $C$DW$804, DW_AT_name("flag_enableOffset")
    8889                      .dwattr $C$DW$804, DW_AT_TI_symbol_name("_flag_enableOffset")
    8890                      .dwattr $C$DW$804, DW_AT_data_member_location[DW_OP_plus_uconst 0xf3]
    8891                      .dwattr $C$DW$804, DW_AT_accessibility(DW_ACCESS_public)
    8892              
    8893              $C$DW$805       .dwtag  DW_TAG_member
    8894                      .dwattr $C$DW$805, DW_AT_type(*$C$DW$T$73)
    8895                      .dwattr $C$DW$805, DW_AT_name("flag_enableSpeedCtrl")
    8896                      .dwattr $C$DW$805, DW_AT_TI_symbol_name("_flag_enableSpeedCtrl")
    8897                      .dwattr $C$DW$805, DW_AT_data_member_location[DW_OP_plus_uconst 0xf4]
    8898                      .dwattr $C$DW$805, DW_AT_accessibility(DW_ACCESS_public)
    8899              
    8900              $C$DW$806       .dwtag  DW_TAG_member
    8901                      .dwattr $C$DW$806, DW_AT_type(*$C$DW$T$73)
    8902                      .dwattr $C$DW$806, DW_AT_name("flag_enableUserMotorParams")
    8903                      .dwattr $C$DW$806, DW_AT_TI_symbol_name("_flag_enableUserMotorParams")
    8904                      .dwattr $C$DW$806, DW_AT_data_member_location[DW_OP_plus_uconst 0xf5]
    8905                      .dwattr $C$DW$806, DW_AT_accessibility(DW_ACCESS_public)
    8906              
    8907              $C$DW$807       .dwtag  DW_TAG_member
    8908                      .dwattr $C$DW$807, DW_AT_type(*$C$DW$T$72)
    8909                      .dwattr $C$DW$807, DW_AT_name("Idq_offset_pu")
    8910                      .dwattr $C$DW$807, DW_AT_TI_symbol_name("_Idq_offset_pu")
    8911                      .dwattr $C$DW$807, DW_AT_data_member_location[DW_OP_plus_uconst 0xf6]
    8912                      .dwattr $C$DW$807, DW_AT_accessibility(DW_ACCESS_public)
    8913              
    8914              $C$DW$808       .dwtag  DW_TAG_member
    8915                      .dwattr $C$DW$808, DW_AT_type(*$C$DW$T$72)
    8916                      .dwattr $C$DW$808, DW_AT_name("Vdq_offset_pu")
    8917                      .dwattr $C$DW$808, DW_AT_TI_symbol_name("_Vdq_offset_pu")
    8918                      .dwattr $C$DW$808, DW_AT_data_member_location[DW_OP_plus_uconst 0xfa]
    8919                      .dwattr $C$DW$808, DW_AT_accessibility(DW_ACCESS_public)
    8920              
    8921              $C$DW$809       .dwtag  DW_TAG_member
    8922                      .dwattr $C$DW$809, DW_AT_type(*$C$DW$T$32)
    8923                      .dwattr $C$DW$809, DW_AT_name("angle_pu")
    8924                      .dwattr $C$DW$809, DW_AT_TI_symbol_name("_angle_pu")
    8925                      .dwattr $C$DW$809, DW_AT_data_member_location[DW_OP_plus_uconst 0xfe]
    8926                      .dwattr $C$DW$809, DW_AT_accessibility(DW_ACCESS_public)
    8927              
    8928              $C$DW$810       .dwtag  DW_TAG_member
    8929                      .dwattr $C$DW$810, DW_AT_type(*$C$DW$T$32)
    8930                      .dwattr $C$DW$810, DW_AT_name("speed_ref_pu")
    8931                      .dwattr $C$DW$810, DW_AT_TI_symbol_name("_speed_ref_pu")
    8932                      .dwattr $C$DW$810, DW_AT_data_member_location[DW_OP_plus_uconst 0x100]
    8933                      .dwattr $C$DW$810, DW_AT_accessibility(DW_ACCESS_public)
    8934              
    8935              $C$DW$811       .dwtag  DW_TAG_member
    8936                      .dwattr $C$DW$811, DW_AT_type(*$C$DW$T$32)
    8937                      .dwattr $C$DW$811, DW_AT_name("speed_fb_pu")
    8938                      .dwattr $C$DW$811, DW_AT_TI_symbol_name("_speed_fb_pu")
    8939                      .dwattr $C$DW$811, DW_AT_data_member_location[DW_OP_plus_uconst 0x102]
    8940                      .dwattr $C$DW$811, DW_AT_accessibility(DW_ACCESS_public)
    8941              
    8942              $C$DW$812       .dwtag  DW_TAG_member
TMS320C2000 Assembler PC v22.6.0 Tue Apr 18 11:09:46 2023

Copyright (c) 1996-2018 Texas Instruments Incorporated
C:\Users\User\AppData\Local\Temp\{F169EDD6-E2A2-400A-8386-A823CBD75D49} PAGE  170

    8943                      .dwattr $C$DW$812, DW_AT_type(*$C$DW$T$32)
    8944                      .dwattr $C$DW$812, DW_AT_name("speed_outMax_pu")
    8945                      .dwattr $C$DW$812, DW_AT_TI_symbol_name("_speed_outMax_pu")
    8946                      .dwattr $C$DW$812, DW_AT_data_member_location[DW_OP_plus_uconst 0x104]
    8947                      .dwattr $C$DW$812, DW_AT_accessibility(DW_ACCESS_public)
    8948              
    8949              $C$DW$813       .dwtag  DW_TAG_member
    8950                      .dwattr $C$DW$813, DW_AT_type(*$C$DW$T$73)
    8951                      .dwattr $C$DW$813, DW_AT_name("flag_enableCurrentCtrl")
    8952                      .dwattr $C$DW$813, DW_AT_TI_symbol_name("_flag_enableCurrentCtrl")
    8953                      .dwattr $C$DW$813, DW_AT_data_member_location[DW_OP_plus_uconst 0x106]
    8954                      .dwattr $C$DW$813, DW_AT_accessibility(DW_ACCESS_public)
    8955              
    8956              $C$DW$814       .dwtag  DW_TAG_member
    8957                      .dwattr $C$DW$814, DW_AT_type(*$C$DW$T$32)
    8958                      .dwattr $C$DW$814, DW_AT_name("torque_head_comm")
    8959                      .dwattr $C$DW$814, DW_AT_TI_symbol_name("_torque_head_comm")
    8960                      .dwattr $C$DW$814, DW_AT_data_member_location[DW_OP_plus_uconst 0x108]
    8961                      .dwattr $C$DW$814, DW_AT_accessibility(DW_ACCESS_public)
    8962              
    8963                      .dwendtag $C$DW$T$74
    8964              
    8965              $C$DW$T$184     .dwtag  DW_TAG_typedef
    8966                      .dwattr $C$DW$T$184, DW_AT_name("CTRL_Obj")
    8967                      .dwattr $C$DW$T$184, DW_AT_type(*$C$DW$T$74)
    8968                      .dwattr $C$DW$T$184, DW_AT_language(DW_LANG_C)
    8969              
    8970              $C$DW$T$171     .dwtag  DW_TAG_pointer_type
    8971                      .dwattr $C$DW$T$171, DW_AT_type(*$C$DW$T$74)
    8972                      .dwattr $C$DW$T$171, DW_AT_address_class(0x20)
    8973              
    8974              $C$DW$T$172     .dwtag  DW_TAG_typedef
    8975                      .dwattr $C$DW$T$172, DW_AT_name("CTRL_Handle")
    8976                      .dwattr $C$DW$T$172, DW_AT_type(*$C$DW$T$171)
    8977                      .dwattr $C$DW$T$172, DW_AT_language(DW_LANG_C)
    8978              
    8979              $C$DW$815       .dwtag  DW_TAG_TI_far_type
    8980                      .dwattr $C$DW$815, DW_AT_type(*$C$DW$T$172)
    8981              
    8982              $C$DW$T$185     .dwtag  DW_TAG_const_type
    8983                      .dwattr $C$DW$T$185, DW_AT_type(*$C$DW$815)
    8984              
    8985              
    8986              $C$DW$T$77      .dwtag  DW_TAG_structure_type
    8987                      .dwattr $C$DW$T$77, DW_AT_name("_CTRL_Version_")
    8988                      .dwattr $C$DW$T$77, DW_AT_byte_size(0x04)
    8989              $C$DW$816       .dwtag  DW_TAG_member
    8990                      .dwattr $C$DW$816, DW_AT_type(*$C$DW$T$23)
    8991                      .dwattr $C$DW$816, DW_AT_name("rsvd")
    8992                      .dwattr $C$DW$816, DW_AT_TI_symbol_name("_rsvd")
    8993                      .dwattr $C$DW$816, DW_AT_data_member_location[DW_OP_plus_uconst 0x0]
    8994                      .dwattr $C$DW$816, DW_AT_accessibility(DW_ACCESS_public)
    8995              
    8996              $C$DW$817       .dwtag  DW_TAG_member
    8997                      .dwattr $C$DW$817, DW_AT_type(*$C$DW$T$76)
TMS320C2000 Assembler PC v22.6.0 Tue Apr 18 11:09:46 2023

Copyright (c) 1996-2018 Texas Instruments Incorporated
C:\Users\User\AppData\Local\Temp\{F169EDD6-E2A2-400A-8386-A823CBD75D49} PAGE  171

    8998                      .dwattr $C$DW$817, DW_AT_name("targetProc")
    8999                      .dwattr $C$DW$817, DW_AT_TI_symbol_name("_targetProc")
    9000                      .dwattr $C$DW$817, DW_AT_data_member_location[DW_OP_plus_uconst 0x1]
    9001                      .dwattr $C$DW$817, DW_AT_accessibility(DW_ACCESS_public)
    9002              
    9003              $C$DW$818       .dwtag  DW_TAG_member
    9004                      .dwattr $C$DW$818, DW_AT_type(*$C$DW$T$23)
    9005                      .dwattr $C$DW$818, DW_AT_name("major")
    9006                      .dwattr $C$DW$818, DW_AT_TI_symbol_name("_major")
    9007                      .dwattr $C$DW$818, DW_AT_data_member_location[DW_OP_plus_uconst 0x2]
    9008                      .dwattr $C$DW$818, DW_AT_accessibility(DW_ACCESS_public)
    9009              
    9010              $C$DW$819       .dwtag  DW_TAG_member
    9011                      .dwattr $C$DW$819, DW_AT_type(*$C$DW$T$23)
    9012                      .dwattr $C$DW$819, DW_AT_name("minor")
    9013                      .dwattr $C$DW$819, DW_AT_TI_symbol_name("_minor")
    9014                      .dwattr $C$DW$819, DW_AT_data_member_location[DW_OP_plus_uconst 0x3]
    9015                      .dwattr $C$DW$819, DW_AT_accessibility(DW_ACCESS_public)
    9016              
    9017                      .dwendtag $C$DW$T$77
    9018              
    9019              $C$DW$T$39      .dwtag  DW_TAG_typedef
    9020                      .dwattr $C$DW$T$39, DW_AT_name("CTRL_Version")
    9021                      .dwattr $C$DW$T$39, DW_AT_type(*$C$DW$T$77)
    9022                      .dwattr $C$DW$T$39, DW_AT_language(DW_LANG_C)
    9023              
    9024              
    9025              $C$DW$T$84      .dwtag  DW_TAG_structure_type
    9026                      .dwattr $C$DW$T$84, DW_AT_name("_DRV8301_Obj_")
    9027                      .dwattr $C$DW$T$84, DW_AT_byte_size(0x08)
    9028              $C$DW$820       .dwtag  DW_TAG_member
    9029                      .dwattr $C$DW$820, DW_AT_type(*$C$DW$T$79)
    9030                      .dwattr $C$DW$820, DW_AT_name("spiHandle")
    9031                      .dwattr $C$DW$820, DW_AT_TI_symbol_name("_spiHandle")
    9032                      .dwattr $C$DW$820, DW_AT_data_member_location[DW_OP_plus_uconst 0x0]
    9033                      .dwattr $C$DW$820, DW_AT_accessibility(DW_ACCESS_public)
    9034              
    9035              $C$DW$821       .dwtag  DW_TAG_member
    9036                      .dwattr $C$DW$821, DW_AT_type(*$C$DW$T$81)
    9037                      .dwattr $C$DW$821, DW_AT_name("gpioHandle")
    9038                      .dwattr $C$DW$821, DW_AT_TI_symbol_name("_gpioHandle")
    9039                      .dwattr $C$DW$821, DW_AT_data_member_location[DW_OP_plus_uconst 0x2]
    9040                      .dwattr $C$DW$821, DW_AT_accessibility(DW_ACCESS_public)
    9041              
    9042              $C$DW$822       .dwtag  DW_TAG_member
    9043                      .dwattr $C$DW$822, DW_AT_type(*$C$DW$T$83)
    9044                      .dwattr $C$DW$822, DW_AT_name("gpioNumber")
    9045                      .dwattr $C$DW$822, DW_AT_TI_symbol_name("_gpioNumber")
    9046                      .dwattr $C$DW$822, DW_AT_data_member_location[DW_OP_plus_uconst 0x4]
    9047                      .dwattr $C$DW$822, DW_AT_accessibility(DW_ACCESS_public)
    9048              
    9049              $C$DW$823       .dwtag  DW_TAG_member
    9050                      .dwattr $C$DW$823, DW_AT_type(*$C$DW$T$73)
    9051                      .dwattr $C$DW$823, DW_AT_name("RxTimeOut")
    9052                      .dwattr $C$DW$823, DW_AT_TI_symbol_name("_RxTimeOut")
TMS320C2000 Assembler PC v22.6.0 Tue Apr 18 11:09:46 2023

Copyright (c) 1996-2018 Texas Instruments Incorporated
C:\Users\User\AppData\Local\Temp\{F169EDD6-E2A2-400A-8386-A823CBD75D49} PAGE  172

    9053                      .dwattr $C$DW$823, DW_AT_data_member_location[DW_OP_plus_uconst 0x5]
    9054                      .dwattr $C$DW$823, DW_AT_accessibility(DW_ACCESS_public)
    9055              
    9056              $C$DW$824       .dwtag  DW_TAG_member
    9057                      .dwattr $C$DW$824, DW_AT_type(*$C$DW$T$73)
    9058                      .dwattr $C$DW$824, DW_AT_name("enableTimeOut")
    9059                      .dwattr $C$DW$824, DW_AT_TI_symbol_name("_enableTimeOut")
    9060                      .dwattr $C$DW$824, DW_AT_data_member_location[DW_OP_plus_uconst 0x6]
    9061                      .dwattr $C$DW$824, DW_AT_accessibility(DW_ACCESS_public)
    9062              
    9063                      .dwendtag $C$DW$T$84
    9064              
    9065              $C$DW$T$126     .dwtag  DW_TAG_typedef
    9066                      .dwattr $C$DW$T$126, DW_AT_name("DRV8301_Obj")
    9067                      .dwattr $C$DW$T$126, DW_AT_type(*$C$DW$T$84)
    9068                      .dwattr $C$DW$T$126, DW_AT_language(DW_LANG_C)
    9069              
    9070              $C$DW$T$124     .dwtag  DW_TAG_pointer_type
    9071                      .dwattr $C$DW$T$124, DW_AT_type(*$C$DW$T$84)
    9072                      .dwattr $C$DW$T$124, DW_AT_address_class(0x20)
    9073              
    9074              $C$DW$T$125     .dwtag  DW_TAG_typedef
    9075                      .dwattr $C$DW$T$125, DW_AT_name("DRV8301_Handle")
    9076                      .dwattr $C$DW$T$125, DW_AT_type(*$C$DW$T$124)
    9077                      .dwattr $C$DW$T$125, DW_AT_language(DW_LANG_C)
    9078              
    9079              
    9080              $C$DW$T$19      .dwtag  DW_TAG_structure_type
    9081                      .dwattr $C$DW$T$19, DW_AT_name("_EST_Obj_")
    9082                      .dwattr $C$DW$T$19, DW_AT_declaration
    9083                      .dwendtag $C$DW$T$19
    9084              
    9085              $C$DW$T$47      .dwtag  DW_TAG_pointer_type
    9086                      .dwattr $C$DW$T$47, DW_AT_type(*$C$DW$T$19)
    9087                      .dwattr $C$DW$T$47, DW_AT_address_class(0x20)
    9088              
    9089              $C$DW$T$48      .dwtag  DW_TAG_typedef
    9090                      .dwattr $C$DW$T$48, DW_AT_name("EST_Handle")
    9091                      .dwattr $C$DW$T$48, DW_AT_type(*$C$DW$T$47)
    9092                      .dwattr $C$DW$T$48, DW_AT_language(DW_LANG_C)
    9093              
    9094              
    9095              $C$DW$T$85      .dwtag  DW_TAG_structure_type
    9096                      .dwattr $C$DW$T$85, DW_AT_name("_FILTER_FO_")
    9097                      .dwattr $C$DW$T$85, DW_AT_byte_size(0x0a)
    9098              $C$DW$825       .dwtag  DW_TAG_member
    9099                      .dwattr $C$DW$825, DW_AT_type(*$C$DW$T$32)
    9100                      .dwattr $C$DW$825, DW_AT_name("a1")
    9101                      .dwattr $C$DW$825, DW_AT_TI_symbol_name("_a1")
    9102                      .dwattr $C$DW$825, DW_AT_data_member_location[DW_OP_plus_uconst 0x0]
    9103                      .dwattr $C$DW$825, DW_AT_accessibility(DW_ACCESS_public)
    9104              
    9105              $C$DW$826       .dwtag  DW_TAG_member
    9106                      .dwattr $C$DW$826, DW_AT_type(*$C$DW$T$32)
    9107                      .dwattr $C$DW$826, DW_AT_name("b0")
TMS320C2000 Assembler PC v22.6.0 Tue Apr 18 11:09:46 2023

Copyright (c) 1996-2018 Texas Instruments Incorporated
C:\Users\User\AppData\Local\Temp\{F169EDD6-E2A2-400A-8386-A823CBD75D49} PAGE  173

    9108                      .dwattr $C$DW$826, DW_AT_TI_symbol_name("_b0")
    9109                      .dwattr $C$DW$826, DW_AT_data_member_location[DW_OP_plus_uconst 0x2]
    9110                      .dwattr $C$DW$826, DW_AT_accessibility(DW_ACCESS_public)
    9111              
    9112              $C$DW$827       .dwtag  DW_TAG_member
    9113                      .dwattr $C$DW$827, DW_AT_type(*$C$DW$T$32)
    9114                      .dwattr $C$DW$827, DW_AT_name("b1")
    9115                      .dwattr $C$DW$827, DW_AT_TI_symbol_name("_b1")
    9116                      .dwattr $C$DW$827, DW_AT_data_member_location[DW_OP_plus_uconst 0x4]
    9117                      .dwattr $C$DW$827, DW_AT_accessibility(DW_ACCESS_public)
    9118              
    9119              $C$DW$828       .dwtag  DW_TAG_member
    9120                      .dwattr $C$DW$828, DW_AT_type(*$C$DW$T$32)
    9121                      .dwattr $C$DW$828, DW_AT_name("x1")
    9122                      .dwattr $C$DW$828, DW_AT_TI_symbol_name("_x1")
    9123                      .dwattr $C$DW$828, DW_AT_data_member_location[DW_OP_plus_uconst 0x6]
    9124                      .dwattr $C$DW$828, DW_AT_accessibility(DW_ACCESS_public)
    9125              
    9126              $C$DW$829       .dwtag  DW_TAG_member
    9127                      .dwattr $C$DW$829, DW_AT_type(*$C$DW$T$32)
    9128                      .dwattr $C$DW$829, DW_AT_name("y1")
    9129                      .dwattr $C$DW$829, DW_AT_TI_symbol_name("_y1")
    9130                      .dwattr $C$DW$829, DW_AT_data_member_location[DW_OP_plus_uconst 0x8]
    9131                      .dwattr $C$DW$829, DW_AT_accessibility(DW_ACCESS_public)
    9132              
    9133                      .dwendtag $C$DW$T$85
    9134              
    9135              $C$DW$T$137     .dwtag  DW_TAG_typedef
    9136                      .dwattr $C$DW$T$137, DW_AT_name("FILTER_FO_Obj")
    9137                      .dwattr $C$DW$T$137, DW_AT_type(*$C$DW$T$85)
    9138                      .dwattr $C$DW$T$137, DW_AT_language(DW_LANG_C)
    9139              
    9140              $C$DW$T$187     .dwtag  DW_TAG_pointer_type
    9141                      .dwattr $C$DW$T$187, DW_AT_type(*$C$DW$T$137)
    9142                      .dwattr $C$DW$T$187, DW_AT_address_class(0x20)
    9143              
    9144              
    9145              $C$DW$T$20      .dwtag  DW_TAG_structure_type
    9146                      .dwattr $C$DW$T$20, DW_AT_name("_FILTER_FO_Obj_")
    9147                      .dwattr $C$DW$T$20, DW_AT_declaration
    9148                      .dwendtag $C$DW$T$20
    9149              
    9150              $C$DW$T$138     .dwtag  DW_TAG_pointer_type
    9151                      .dwattr $C$DW$T$138, DW_AT_type(*$C$DW$T$20)
    9152                      .dwattr $C$DW$T$138, DW_AT_address_class(0x20)
    9153              
    9154              $C$DW$T$139     .dwtag  DW_TAG_typedef
    9155                      .dwattr $C$DW$T$139, DW_AT_name("FILTER_FO_Handle")
    9156                      .dwattr $C$DW$T$139, DW_AT_type(*$C$DW$T$138)
    9157                      .dwattr $C$DW$T$139, DW_AT_language(DW_LANG_C)
    9158              
    9159              
    9160              $C$DW$T$86      .dwtag  DW_TAG_structure_type
    9161                      .dwattr $C$DW$T$86, DW_AT_name("_FLASH_Obj_")
    9162                      .dwattr $C$DW$T$86, DW_AT_byte_size(0x08)
TMS320C2000 Assembler PC v22.6.0 Tue Apr 18 11:09:46 2023

Copyright (c) 1996-2018 Texas Instruments Incorporated
C:\Users\User\AppData\Local\Temp\{F169EDD6-E2A2-400A-8386-A823CBD75D49} PAGE  174

    9163              $C$DW$830       .dwtag  DW_TAG_member
    9164                      .dwattr $C$DW$830, DW_AT_type(*$C$DW$T$24)
    9165                      .dwattr $C$DW$830, DW_AT_name("FOPT")
    9166                      .dwattr $C$DW$830, DW_AT_TI_symbol_name("_FOPT")
    9167                      .dwattr $C$DW$830, DW_AT_data_member_location[DW_OP_plus_uconst 0x0]
    9168                      .dwattr $C$DW$830, DW_AT_accessibility(DW_ACCESS_public)
    9169              
    9170              $C$DW$831       .dwtag  DW_TAG_member
    9171                      .dwattr $C$DW$831, DW_AT_type(*$C$DW$T$24)
    9172                      .dwattr $C$DW$831, DW_AT_name("rsvd_1")
    9173                      .dwattr $C$DW$831, DW_AT_TI_symbol_name("_rsvd_1")
    9174                      .dwattr $C$DW$831, DW_AT_data_member_location[DW_OP_plus_uconst 0x1]
    9175                      .dwattr $C$DW$831, DW_AT_accessibility(DW_ACCESS_public)
    9176              
    9177              $C$DW$832       .dwtag  DW_TAG_member
    9178                      .dwattr $C$DW$832, DW_AT_type(*$C$DW$T$24)
    9179                      .dwattr $C$DW$832, DW_AT_name("FPWR")
    9180                      .dwattr $C$DW$832, DW_AT_TI_symbol_name("_FPWR")
    9181                      .dwattr $C$DW$832, DW_AT_data_member_location[DW_OP_plus_uconst 0x2]
    9182                      .dwattr $C$DW$832, DW_AT_accessibility(DW_ACCESS_public)
    9183              
    9184              $C$DW$833       .dwtag  DW_TAG_member
    9185                      .dwattr $C$DW$833, DW_AT_type(*$C$DW$T$24)
    9186                      .dwattr $C$DW$833, DW_AT_name("FSTATUS")
    9187                      .dwattr $C$DW$833, DW_AT_TI_symbol_name("_FSTATUS")
    9188                      .dwattr $C$DW$833, DW_AT_data_member_location[DW_OP_plus_uconst 0x3]
    9189                      .dwattr $C$DW$833, DW_AT_accessibility(DW_ACCESS_public)
    9190              
    9191              $C$DW$834       .dwtag  DW_TAG_member
    9192                      .dwattr $C$DW$834, DW_AT_type(*$C$DW$T$24)
    9193                      .dwattr $C$DW$834, DW_AT_name("FSTDBYWAIT")
    9194                      .dwattr $C$DW$834, DW_AT_TI_symbol_name("_FSTDBYWAIT")
    9195                      .dwattr $C$DW$834, DW_AT_data_member_location[DW_OP_plus_uconst 0x4]
    9196                      .dwattr $C$DW$834, DW_AT_accessibility(DW_ACCESS_public)
    9197              
    9198              $C$DW$835       .dwtag  DW_TAG_member
    9199                      .dwattr $C$DW$835, DW_AT_type(*$C$DW$T$24)
    9200                      .dwattr $C$DW$835, DW_AT_name("FACTIVEWAIT")
    9201                      .dwattr $C$DW$835, DW_AT_TI_symbol_name("_FACTIVEWAIT")
    9202                      .dwattr $C$DW$835, DW_AT_data_member_location[DW_OP_plus_uconst 0x5]
    9203                      .dwattr $C$DW$835, DW_AT_accessibility(DW_ACCESS_public)
    9204              
    9205              $C$DW$836       .dwtag  DW_TAG_member
    9206                      .dwattr $C$DW$836, DW_AT_type(*$C$DW$T$24)
    9207                      .dwattr $C$DW$836, DW_AT_name("FBANKWAIT")
    9208                      .dwattr $C$DW$836, DW_AT_TI_symbol_name("_FBANKWAIT")
    9209                      .dwattr $C$DW$836, DW_AT_data_member_location[DW_OP_plus_uconst 0x6]
    9210                      .dwattr $C$DW$836, DW_AT_accessibility(DW_ACCESS_public)
    9211              
    9212              $C$DW$837       .dwtag  DW_TAG_member
    9213                      .dwattr $C$DW$837, DW_AT_type(*$C$DW$T$24)
    9214                      .dwattr $C$DW$837, DW_AT_name("FOTPWAIT")
    9215                      .dwattr $C$DW$837, DW_AT_TI_symbol_name("_FOTPWAIT")
    9216                      .dwattr $C$DW$837, DW_AT_data_member_location[DW_OP_plus_uconst 0x7]
    9217                      .dwattr $C$DW$837, DW_AT_accessibility(DW_ACCESS_public)
TMS320C2000 Assembler PC v22.6.0 Tue Apr 18 11:09:46 2023

Copyright (c) 1996-2018 Texas Instruments Incorporated
C:\Users\User\AppData\Local\Temp\{F169EDD6-E2A2-400A-8386-A823CBD75D49} PAGE  175

    9218              
    9219                      .dwendtag $C$DW$T$86
    9220              
    9221              $C$DW$T$100     .dwtag  DW_TAG_pointer_type
    9222                      .dwattr $C$DW$T$100, DW_AT_type(*$C$DW$T$86)
    9223                      .dwattr $C$DW$T$100, DW_AT_address_class(0x20)
    9224              
    9225              $C$DW$T$101     .dwtag  DW_TAG_typedef
    9226                      .dwattr $C$DW$T$101, DW_AT_name("FLASH_Handle")
    9227                      .dwattr $C$DW$T$101, DW_AT_type(*$C$DW$T$100)
    9228                      .dwattr $C$DW$T$101, DW_AT_language(DW_LANG_C)
    9229              
    9230              
    9231              $C$DW$T$91      .dwtag  DW_TAG_structure_type
    9232                      .dwattr $C$DW$T$91, DW_AT_name("_GPIO_Obj_")
    9233                      .dwattr $C$DW$T$91, DW_AT_byte_size(0x6a)
    9234              $C$DW$838       .dwtag  DW_TAG_member
    9235                      .dwattr $C$DW$838, DW_AT_type(*$C$DW$T$88)
    9236                      .dwattr $C$DW$838, DW_AT_name("GPACTRL")
    9237                      .dwattr $C$DW$838, DW_AT_TI_symbol_name("_GPACTRL")
    9238                      .dwattr $C$DW$838, DW_AT_data_member_location[DW_OP_plus_uconst 0x0]
    9239                      .dwattr $C$DW$838, DW_AT_accessibility(DW_ACCESS_public)
    9240              
    9241              $C$DW$839       .dwtag  DW_TAG_member
    9242                      .dwattr $C$DW$839, DW_AT_type(*$C$DW$T$88)
    9243                      .dwattr $C$DW$839, DW_AT_name("GPAQSEL1")
    9244                      .dwattr $C$DW$839, DW_AT_TI_symbol_name("_GPAQSEL1")
    9245                      .dwattr $C$DW$839, DW_AT_data_member_location[DW_OP_plus_uconst 0x2]
    9246                      .dwattr $C$DW$839, DW_AT_accessibility(DW_ACCESS_public)
    9247              
    9248              $C$DW$840       .dwtag  DW_TAG_member
    9249                      .dwattr $C$DW$840, DW_AT_type(*$C$DW$T$88)
    9250                      .dwattr $C$DW$840, DW_AT_name("GPAQSEL2")
    9251                      .dwattr $C$DW$840, DW_AT_TI_symbol_name("_GPAQSEL2")
    9252                      .dwattr $C$DW$840, DW_AT_data_member_location[DW_OP_plus_uconst 0x4]
    9253                      .dwattr $C$DW$840, DW_AT_accessibility(DW_ACCESS_public)
    9254              
    9255              $C$DW$841       .dwtag  DW_TAG_member
    9256                      .dwattr $C$DW$841, DW_AT_type(*$C$DW$T$88)
    9257                      .dwattr $C$DW$841, DW_AT_name("GPAMUX1")
    9258                      .dwattr $C$DW$841, DW_AT_TI_symbol_name("_GPAMUX1")
    9259                      .dwattr $C$DW$841, DW_AT_data_member_location[DW_OP_plus_uconst 0x6]
    9260                      .dwattr $C$DW$841, DW_AT_accessibility(DW_ACCESS_public)
    9261              
    9262              $C$DW$842       .dwtag  DW_TAG_member
    9263                      .dwattr $C$DW$842, DW_AT_type(*$C$DW$T$88)
    9264                      .dwattr $C$DW$842, DW_AT_name("GPAMUX2")
    9265                      .dwattr $C$DW$842, DW_AT_TI_symbol_name("_GPAMUX2")
    9266                      .dwattr $C$DW$842, DW_AT_data_member_location[DW_OP_plus_uconst 0x8]
    9267                      .dwattr $C$DW$842, DW_AT_accessibility(DW_ACCESS_public)
    9268              
    9269              $C$DW$843       .dwtag  DW_TAG_member
    9270                      .dwattr $C$DW$843, DW_AT_type(*$C$DW$T$88)
    9271                      .dwattr $C$DW$843, DW_AT_name("GPADIR")
    9272                      .dwattr $C$DW$843, DW_AT_TI_symbol_name("_GPADIR")
TMS320C2000 Assembler PC v22.6.0 Tue Apr 18 11:09:46 2023

Copyright (c) 1996-2018 Texas Instruments Incorporated
C:\Users\User\AppData\Local\Temp\{F169EDD6-E2A2-400A-8386-A823CBD75D49} PAGE  176

    9273                      .dwattr $C$DW$843, DW_AT_data_member_location[DW_OP_plus_uconst 0xa]
    9274                      .dwattr $C$DW$843, DW_AT_accessibility(DW_ACCESS_public)
    9275              
    9276              $C$DW$844       .dwtag  DW_TAG_member
    9277                      .dwattr $C$DW$844, DW_AT_type(*$C$DW$T$88)
    9278                      .dwattr $C$DW$844, DW_AT_name("GPAPUD")
    9279                      .dwattr $C$DW$844, DW_AT_TI_symbol_name("_GPAPUD")
    9280                      .dwattr $C$DW$844, DW_AT_data_member_location[DW_OP_plus_uconst 0xc]
    9281                      .dwattr $C$DW$844, DW_AT_accessibility(DW_ACCESS_public)
    9282              
    9283              $C$DW$845       .dwtag  DW_TAG_member
    9284                      .dwattr $C$DW$845, DW_AT_type(*$C$DW$T$27)
    9285                      .dwattr $C$DW$845, DW_AT_name("rsvd_1")
    9286                      .dwattr $C$DW$845, DW_AT_TI_symbol_name("_rsvd_1")
    9287                      .dwattr $C$DW$845, DW_AT_data_member_location[DW_OP_plus_uconst 0xe]
    9288                      .dwattr $C$DW$845, DW_AT_accessibility(DW_ACCESS_public)
    9289              
    9290              $C$DW$846       .dwtag  DW_TAG_member
    9291                      .dwattr $C$DW$846, DW_AT_type(*$C$DW$T$88)
    9292                      .dwattr $C$DW$846, DW_AT_name("GPBCTRL")
    9293                      .dwattr $C$DW$846, DW_AT_TI_symbol_name("_GPBCTRL")
    9294                      .dwattr $C$DW$846, DW_AT_data_member_location[DW_OP_plus_uconst 0x10]
    9295                      .dwattr $C$DW$846, DW_AT_accessibility(DW_ACCESS_public)
    9296              
    9297              $C$DW$847       .dwtag  DW_TAG_member
    9298                      .dwattr $C$DW$847, DW_AT_type(*$C$DW$T$88)
    9299                      .dwattr $C$DW$847, DW_AT_name("GPBQSEL1")
    9300                      .dwattr $C$DW$847, DW_AT_TI_symbol_name("_GPBQSEL1")
    9301                      .dwattr $C$DW$847, DW_AT_data_member_location[DW_OP_plus_uconst 0x12]
    9302                      .dwattr $C$DW$847, DW_AT_accessibility(DW_ACCESS_public)
    9303              
    9304              $C$DW$848       .dwtag  DW_TAG_member
    9305                      .dwattr $C$DW$848, DW_AT_type(*$C$DW$T$88)
    9306                      .dwattr $C$DW$848, DW_AT_name("GPBQSEL2")
    9307                      .dwattr $C$DW$848, DW_AT_TI_symbol_name("_GPBQSEL2")
    9308                      .dwattr $C$DW$848, DW_AT_data_member_location[DW_OP_plus_uconst 0x14]
    9309                      .dwattr $C$DW$848, DW_AT_accessibility(DW_ACCESS_public)
    9310              
    9311              $C$DW$849       .dwtag  DW_TAG_member
    9312                      .dwattr $C$DW$849, DW_AT_type(*$C$DW$T$88)
    9313                      .dwattr $C$DW$849, DW_AT_name("GPBMUX1")
    9314                      .dwattr $C$DW$849, DW_AT_TI_symbol_name("_GPBMUX1")
    9315                      .dwattr $C$DW$849, DW_AT_data_member_location[DW_OP_plus_uconst 0x16]
    9316                      .dwattr $C$DW$849, DW_AT_accessibility(DW_ACCESS_public)
    9317              
    9318              $C$DW$850       .dwtag  DW_TAG_member
    9319                      .dwattr $C$DW$850, DW_AT_type(*$C$DW$T$88)
    9320                      .dwattr $C$DW$850, DW_AT_name("GPBMUX2")
    9321                      .dwattr $C$DW$850, DW_AT_TI_symbol_name("_GPBMUX2")
    9322                      .dwattr $C$DW$850, DW_AT_data_member_location[DW_OP_plus_uconst 0x18]
    9323                      .dwattr $C$DW$850, DW_AT_accessibility(DW_ACCESS_public)
    9324              
    9325              $C$DW$851       .dwtag  DW_TAG_member
    9326                      .dwattr $C$DW$851, DW_AT_type(*$C$DW$T$88)
    9327                      .dwattr $C$DW$851, DW_AT_name("GPBDIR")
TMS320C2000 Assembler PC v22.6.0 Tue Apr 18 11:09:46 2023

Copyright (c) 1996-2018 Texas Instruments Incorporated
C:\Users\User\AppData\Local\Temp\{F169EDD6-E2A2-400A-8386-A823CBD75D49} PAGE  177

    9328                      .dwattr $C$DW$851, DW_AT_TI_symbol_name("_GPBDIR")
    9329                      .dwattr $C$DW$851, DW_AT_data_member_location[DW_OP_plus_uconst 0x1a]
    9330                      .dwattr $C$DW$851, DW_AT_accessibility(DW_ACCESS_public)
    9331              
    9332              $C$DW$852       .dwtag  DW_TAG_member
    9333                      .dwattr $C$DW$852, DW_AT_type(*$C$DW$T$88)
    9334                      .dwattr $C$DW$852, DW_AT_name("GPBPUD")
    9335                      .dwattr $C$DW$852, DW_AT_TI_symbol_name("_GPBPUD")
    9336                      .dwattr $C$DW$852, DW_AT_data_member_location[DW_OP_plus_uconst 0x1c]
    9337                      .dwattr $C$DW$852, DW_AT_accessibility(DW_ACCESS_public)
    9338              
    9339              $C$DW$853       .dwtag  DW_TAG_member
    9340                      .dwattr $C$DW$853, DW_AT_type(*$C$DW$T$89)
    9341                      .dwattr $C$DW$853, DW_AT_name("rsvd_4")
    9342                      .dwattr $C$DW$853, DW_AT_TI_symbol_name("_rsvd_4")
    9343                      .dwattr $C$DW$853, DW_AT_data_member_location[DW_OP_plus_uconst 0x1e]
    9344                      .dwattr $C$DW$853, DW_AT_accessibility(DW_ACCESS_public)
    9345              
    9346              $C$DW$854       .dwtag  DW_TAG_member
    9347                      .dwattr $C$DW$854, DW_AT_type(*$C$DW$T$88)
    9348                      .dwattr $C$DW$854, DW_AT_name("AIOMUX1")
    9349                      .dwattr $C$DW$854, DW_AT_TI_symbol_name("_AIOMUX1")
    9350                      .dwattr $C$DW$854, DW_AT_data_member_location[DW_OP_plus_uconst 0x36]
    9351                      .dwattr $C$DW$854, DW_AT_accessibility(DW_ACCESS_public)
    9352              
    9353              $C$DW$855       .dwtag  DW_TAG_member
    9354                      .dwattr $C$DW$855, DW_AT_type(*$C$DW$T$27)
    9355                      .dwattr $C$DW$855, DW_AT_name("rsvd_5")
    9356                      .dwattr $C$DW$855, DW_AT_TI_symbol_name("_rsvd_5")
    9357                      .dwattr $C$DW$855, DW_AT_data_member_location[DW_OP_plus_uconst 0x38]
    9358                      .dwattr $C$DW$855, DW_AT_accessibility(DW_ACCESS_public)
    9359              
    9360              $C$DW$856       .dwtag  DW_TAG_member
    9361                      .dwattr $C$DW$856, DW_AT_type(*$C$DW$T$88)
    9362                      .dwattr $C$DW$856, DW_AT_name("AIODIR")
    9363                      .dwattr $C$DW$856, DW_AT_TI_symbol_name("_AIODIR")
    9364                      .dwattr $C$DW$856, DW_AT_data_member_location[DW_OP_plus_uconst 0x3a]
    9365                      .dwattr $C$DW$856, DW_AT_accessibility(DW_ACCESS_public)
    9366              
    9367              $C$DW$857       .dwtag  DW_TAG_member
    9368                      .dwattr $C$DW$857, DW_AT_type(*$C$DW$T$90)
    9369                      .dwattr $C$DW$857, DW_AT_name("rsvd_6")
    9370                      .dwattr $C$DW$857, DW_AT_TI_symbol_name("_rsvd_6")
    9371                      .dwattr $C$DW$857, DW_AT_data_member_location[DW_OP_plus_uconst 0x3c]
    9372                      .dwattr $C$DW$857, DW_AT_accessibility(DW_ACCESS_public)
    9373              
    9374              $C$DW$858       .dwtag  DW_TAG_member
    9375                      .dwattr $C$DW$858, DW_AT_type(*$C$DW$T$88)
    9376                      .dwattr $C$DW$858, DW_AT_name("GPADAT")
    9377                      .dwattr $C$DW$858, DW_AT_TI_symbol_name("_GPADAT")
    9378                      .dwattr $C$DW$858, DW_AT_data_member_location[DW_OP_plus_uconst 0x40]
    9379                      .dwattr $C$DW$858, DW_AT_accessibility(DW_ACCESS_public)
    9380              
    9381              $C$DW$859       .dwtag  DW_TAG_member
    9382                      .dwattr $C$DW$859, DW_AT_type(*$C$DW$T$88)
TMS320C2000 Assembler PC v22.6.0 Tue Apr 18 11:09:46 2023

Copyright (c) 1996-2018 Texas Instruments Incorporated
C:\Users\User\AppData\Local\Temp\{F169EDD6-E2A2-400A-8386-A823CBD75D49} PAGE  178

    9383                      .dwattr $C$DW$859, DW_AT_name("GPASET")
    9384                      .dwattr $C$DW$859, DW_AT_TI_symbol_name("_GPASET")
    9385                      .dwattr $C$DW$859, DW_AT_data_member_location[DW_OP_plus_uconst 0x42]
    9386                      .dwattr $C$DW$859, DW_AT_accessibility(DW_ACCESS_public)
    9387              
    9388              $C$DW$860       .dwtag  DW_TAG_member
    9389                      .dwattr $C$DW$860, DW_AT_type(*$C$DW$T$88)
    9390                      .dwattr $C$DW$860, DW_AT_name("GPACLEAR")
    9391                      .dwattr $C$DW$860, DW_AT_TI_symbol_name("_GPACLEAR")
    9392                      .dwattr $C$DW$860, DW_AT_data_member_location[DW_OP_plus_uconst 0x44]
    9393                      .dwattr $C$DW$860, DW_AT_accessibility(DW_ACCESS_public)
    9394              
    9395              $C$DW$861       .dwtag  DW_TAG_member
    9396                      .dwattr $C$DW$861, DW_AT_type(*$C$DW$T$88)
    9397                      .dwattr $C$DW$861, DW_AT_name("GPATOGGLE")
    9398                      .dwattr $C$DW$861, DW_AT_TI_symbol_name("_GPATOGGLE")
    9399                      .dwattr $C$DW$861, DW_AT_data_member_location[DW_OP_plus_uconst 0x46]
    9400                      .dwattr $C$DW$861, DW_AT_accessibility(DW_ACCESS_public)
    9401              
    9402              $C$DW$862       .dwtag  DW_TAG_member
    9403                      .dwattr $C$DW$862, DW_AT_type(*$C$DW$T$88)
    9404                      .dwattr $C$DW$862, DW_AT_name("GPBDAT")
    9405                      .dwattr $C$DW$862, DW_AT_TI_symbol_name("_GPBDAT")
    9406                      .dwattr $C$DW$862, DW_AT_data_member_location[DW_OP_plus_uconst 0x48]
    9407                      .dwattr $C$DW$862, DW_AT_accessibility(DW_ACCESS_public)
    9408              
    9409              $C$DW$863       .dwtag  DW_TAG_member
    9410                      .dwattr $C$DW$863, DW_AT_type(*$C$DW$T$88)
    9411                      .dwattr $C$DW$863, DW_AT_name("GPBSET")
    9412                      .dwattr $C$DW$863, DW_AT_TI_symbol_name("_GPBSET")
    9413                      .dwattr $C$DW$863, DW_AT_data_member_location[DW_OP_plus_uconst 0x4a]
    9414                      .dwattr $C$DW$863, DW_AT_accessibility(DW_ACCESS_public)
    9415              
    9416              $C$DW$864       .dwtag  DW_TAG_member
    9417                      .dwattr $C$DW$864, DW_AT_type(*$C$DW$T$88)
    9418                      .dwattr $C$DW$864, DW_AT_name("GPBCLEAR")
    9419                      .dwattr $C$DW$864, DW_AT_TI_symbol_name("_GPBCLEAR")
    9420                      .dwattr $C$DW$864, DW_AT_data_member_location[DW_OP_plus_uconst 0x4c]
    9421                      .dwattr $C$DW$864, DW_AT_accessibility(DW_ACCESS_public)
    9422              
    9423              $C$DW$865       .dwtag  DW_TAG_member
    9424                      .dwattr $C$DW$865, DW_AT_type(*$C$DW$T$88)
    9425                      .dwattr $C$DW$865, DW_AT_name("GPBTOGGLE")
    9426                      .dwattr $C$DW$865, DW_AT_TI_symbol_name("_GPBTOGGLE")
    9427                      .dwattr $C$DW$865, DW_AT_data_member_location[DW_OP_plus_uconst 0x4e]
    9428                      .dwattr $C$DW$865, DW_AT_accessibility(DW_ACCESS_public)
    9429              
    9430              $C$DW$866       .dwtag  DW_TAG_member
    9431                      .dwattr $C$DW$866, DW_AT_type(*$C$DW$T$36)
    9432                      .dwattr $C$DW$866, DW_AT_name("rsvd_7")
    9433                      .dwattr $C$DW$866, DW_AT_TI_symbol_name("_rsvd_7")
    9434                      .dwattr $C$DW$866, DW_AT_data_member_location[DW_OP_plus_uconst 0x50]
    9435                      .dwattr $C$DW$866, DW_AT_accessibility(DW_ACCESS_public)
    9436              
    9437              $C$DW$867       .dwtag  DW_TAG_member
TMS320C2000 Assembler PC v22.6.0 Tue Apr 18 11:09:46 2023

Copyright (c) 1996-2018 Texas Instruments Incorporated
C:\Users\User\AppData\Local\Temp\{F169EDD6-E2A2-400A-8386-A823CBD75D49} PAGE  179

    9438                      .dwattr $C$DW$867, DW_AT_type(*$C$DW$T$88)
    9439                      .dwattr $C$DW$867, DW_AT_name("AIODAT")
    9440                      .dwattr $C$DW$867, DW_AT_TI_symbol_name("_AIODAT")
    9441                      .dwattr $C$DW$867, DW_AT_data_member_location[DW_OP_plus_uconst 0x58]
    9442                      .dwattr $C$DW$867, DW_AT_accessibility(DW_ACCESS_public)
    9443              
    9444              $C$DW$868       .dwtag  DW_TAG_member
    9445                      .dwattr $C$DW$868, DW_AT_type(*$C$DW$T$88)
    9446                      .dwattr $C$DW$868, DW_AT_name("AIOSET")
    9447                      .dwattr $C$DW$868, DW_AT_TI_symbol_name("_AIOSET")
    9448                      .dwattr $C$DW$868, DW_AT_data_member_location[DW_OP_plus_uconst 0x5a]
    9449                      .dwattr $C$DW$868, DW_AT_accessibility(DW_ACCESS_public)
    9450              
    9451              $C$DW$869       .dwtag  DW_TAG_member
    9452                      .dwattr $C$DW$869, DW_AT_type(*$C$DW$T$88)
    9453                      .dwattr $C$DW$869, DW_AT_name("AIOCLEAR")
    9454                      .dwattr $C$DW$869, DW_AT_TI_symbol_name("_AIOCLEAR")
    9455                      .dwattr $C$DW$869, DW_AT_data_member_location[DW_OP_plus_uconst 0x5c]
    9456                      .dwattr $C$DW$869, DW_AT_accessibility(DW_ACCESS_public)
    9457              
    9458              $C$DW$870       .dwtag  DW_TAG_member
    9459                      .dwattr $C$DW$870, DW_AT_type(*$C$DW$T$88)
    9460                      .dwattr $C$DW$870, DW_AT_name("AIOTOGGLE")
    9461                      .dwattr $C$DW$870, DW_AT_TI_symbol_name("_AIOTOGGLE")
    9462                      .dwattr $C$DW$870, DW_AT_data_member_location[DW_OP_plus_uconst 0x5e]
    9463                      .dwattr $C$DW$870, DW_AT_accessibility(DW_ACCESS_public)
    9464              
    9465              $C$DW$871       .dwtag  DW_TAG_member
    9466                      .dwattr $C$DW$871, DW_AT_type(*$C$DW$T$29)
    9467                      .dwattr $C$DW$871, DW_AT_name("GPIOXINTnSEL")
    9468                      .dwattr $C$DW$871, DW_AT_TI_symbol_name("_GPIOXINTnSEL")
    9469                      .dwattr $C$DW$871, DW_AT_data_member_location[DW_OP_plus_uconst 0x60]
    9470                      .dwattr $C$DW$871, DW_AT_accessibility(DW_ACCESS_public)
    9471              
    9472              $C$DW$872       .dwtag  DW_TAG_member
    9473                      .dwattr $C$DW$872, DW_AT_type(*$C$DW$T$28)
    9474                      .dwattr $C$DW$872, DW_AT_name("rsvd_8")
    9475                      .dwattr $C$DW$872, DW_AT_TI_symbol_name("_rsvd_8")
    9476                      .dwattr $C$DW$872, DW_AT_data_member_location[DW_OP_plus_uconst 0x63]
    9477                      .dwattr $C$DW$872, DW_AT_accessibility(DW_ACCESS_public)
    9478              
    9479              $C$DW$873       .dwtag  DW_TAG_member
    9480                      .dwattr $C$DW$873, DW_AT_type(*$C$DW$T$88)
    9481                      .dwattr $C$DW$873, DW_AT_name("GPIOLPMSEL")
    9482                      .dwattr $C$DW$873, DW_AT_TI_symbol_name("_GPIOLPMSEL")
    9483                      .dwattr $C$DW$873, DW_AT_data_member_location[DW_OP_plus_uconst 0x68]
    9484                      .dwattr $C$DW$873, DW_AT_accessibility(DW_ACCESS_public)
    9485              
    9486                      .dwendtag $C$DW$T$91
    9487              
    9488              $C$DW$T$80      .dwtag  DW_TAG_pointer_type
    9489                      .dwattr $C$DW$T$80, DW_AT_type(*$C$DW$T$91)
    9490                      .dwattr $C$DW$T$80, DW_AT_address_class(0x20)
    9491              
    9492              $C$DW$T$81      .dwtag  DW_TAG_typedef
TMS320C2000 Assembler PC v22.6.0 Tue Apr 18 11:09:46 2023

Copyright (c) 1996-2018 Texas Instruments Incorporated
C:\Users\User\AppData\Local\Temp\{F169EDD6-E2A2-400A-8386-A823CBD75D49} PAGE  180

    9493                      .dwattr $C$DW$T$81, DW_AT_name("GPIO_Handle")
    9494                      .dwattr $C$DW$T$81, DW_AT_type(*$C$DW$T$80)
    9495                      .dwattr $C$DW$T$81, DW_AT_language(DW_LANG_C)
    9496              
    9497              
    9498              $C$DW$T$93      .dwtag  DW_TAG_structure_type
    9499                      .dwattr $C$DW$T$93, DW_AT_name("_HAL_AdcData_t_")
    9500                      .dwattr $C$DW$T$93, DW_AT_byte_size(0x0e)
    9501              $C$DW$874       .dwtag  DW_TAG_member
    9502                      .dwattr $C$DW$874, DW_AT_type(*$C$DW$T$92)
    9503                      .dwattr $C$DW$874, DW_AT_name("I")
    9504                      .dwattr $C$DW$874, DW_AT_TI_symbol_name("_I")
    9505                      .dwattr $C$DW$874, DW_AT_data_member_location[DW_OP_plus_uconst 0x0]
    9506                      .dwattr $C$DW$874, DW_AT_accessibility(DW_ACCESS_public)
    9507              
    9508              $C$DW$875       .dwtag  DW_TAG_member
    9509                      .dwattr $C$DW$875, DW_AT_type(*$C$DW$T$92)
    9510                      .dwattr $C$DW$875, DW_AT_name("V")
    9511                      .dwattr $C$DW$875, DW_AT_TI_symbol_name("_V")
    9512                      .dwattr $C$DW$875, DW_AT_data_member_location[DW_OP_plus_uconst 0x6]
    9513                      .dwattr $C$DW$875, DW_AT_accessibility(DW_ACCESS_public)
    9514              
    9515              $C$DW$876       .dwtag  DW_TAG_member
    9516                      .dwattr $C$DW$876, DW_AT_type(*$C$DW$T$32)
    9517                      .dwattr $C$DW$876, DW_AT_name("dcBus")
    9518                      .dwattr $C$DW$876, DW_AT_TI_symbol_name("_dcBus")
    9519                      .dwattr $C$DW$876, DW_AT_data_member_location[DW_OP_plus_uconst 0xc]
    9520                      .dwattr $C$DW$876, DW_AT_accessibility(DW_ACCESS_public)
    9521              
    9522                      .dwendtag $C$DW$T$93
    9523              
    9524              $C$DW$T$123     .dwtag  DW_TAG_typedef
    9525                      .dwattr $C$DW$T$123, DW_AT_name("HAL_AdcData_t")
    9526                      .dwattr $C$DW$T$123, DW_AT_type(*$C$DW$T$93)
    9527                      .dwattr $C$DW$T$123, DW_AT_language(DW_LANG_C)
    9528              
    9529              $C$DW$877       .dwtag  DW_TAG_TI_far_type
    9530                      .dwattr $C$DW$877, DW_AT_type(*$C$DW$T$123)
    9531              
    9532              $C$DW$T$189     .dwtag  DW_TAG_const_type
    9533                      .dwattr $C$DW$T$189, DW_AT_type(*$C$DW$877)
    9534              
    9535              $C$DW$T$190     .dwtag  DW_TAG_pointer_type
    9536                      .dwattr $C$DW$T$190, DW_AT_type(*$C$DW$T$189)
    9537                      .dwattr $C$DW$T$190, DW_AT_address_class(0x20)
    9538              
    9539              $C$DW$878       .dwtag  DW_TAG_TI_far_type
    9540                      .dwattr $C$DW$878, DW_AT_type(*$C$DW$T$190)
    9541              
    9542              $C$DW$T$191     .dwtag  DW_TAG_const_type
    9543                      .dwattr $C$DW$T$191, DW_AT_type(*$C$DW$878)
    9544              
    9545              
    9546              $C$DW$T$127     .dwtag  DW_TAG_structure_type
    9547                      .dwattr $C$DW$T$127, DW_AT_name("_HAL_Obj_")
TMS320C2000 Assembler PC v22.6.0 Tue Apr 18 11:09:46 2023

Copyright (c) 1996-2018 Texas Instruments Incorporated
C:\Users\User\AppData\Local\Temp\{F169EDD6-E2A2-400A-8386-A823CBD75D49} PAGE  181

    9548                      .dwattr $C$DW$T$127, DW_AT_byte_size(0xa8)
    9549              $C$DW$879       .dwtag  DW_TAG_member
    9550                      .dwattr $C$DW$879, DW_AT_type(*$C$DW$T$95)
    9551                      .dwattr $C$DW$879, DW_AT_name("adcHandle")
    9552                      .dwattr $C$DW$879, DW_AT_TI_symbol_name("_adcHandle")
    9553                      .dwattr $C$DW$879, DW_AT_data_member_location[DW_OP_plus_uconst 0x0]
    9554                      .dwattr $C$DW$879, DW_AT_accessibility(DW_ACCESS_public)
    9555              
    9556              $C$DW$880       .dwtag  DW_TAG_member
    9557                      .dwattr $C$DW$880, DW_AT_type(*$C$DW$T$97)
    9558                      .dwattr $C$DW$880, DW_AT_name("clkHandle")
    9559                      .dwattr $C$DW$880, DW_AT_TI_symbol_name("_clkHandle")
    9560                      .dwattr $C$DW$880, DW_AT_data_member_location[DW_OP_plus_uconst 0x2]
    9561                      .dwattr $C$DW$880, DW_AT_accessibility(DW_ACCESS_public)
    9562              
    9563              $C$DW$881       .dwtag  DW_TAG_member
    9564                      .dwattr $C$DW$881, DW_AT_type(*$C$DW$T$99)
    9565                      .dwattr $C$DW$881, DW_AT_name("cpuHandle")
    9566                      .dwattr $C$DW$881, DW_AT_TI_symbol_name("_cpuHandle")
    9567                      .dwattr $C$DW$881, DW_AT_data_member_location[DW_OP_plus_uconst 0x4]
    9568                      .dwattr $C$DW$881, DW_AT_accessibility(DW_ACCESS_public)
    9569              
    9570              $C$DW$882       .dwtag  DW_TAG_member
    9571                      .dwattr $C$DW$882, DW_AT_type(*$C$DW$T$101)
    9572                      .dwattr $C$DW$882, DW_AT_name("flashHandle")
    9573                      .dwattr $C$DW$882, DW_AT_TI_symbol_name("_flashHandle")
    9574                      .dwattr $C$DW$882, DW_AT_data_member_location[DW_OP_plus_uconst 0x6]
    9575                      .dwattr $C$DW$882, DW_AT_accessibility(DW_ACCESS_public)
    9576              
    9577              $C$DW$883       .dwtag  DW_TAG_member
    9578                      .dwattr $C$DW$883, DW_AT_type(*$C$DW$T$81)
    9579                      .dwattr $C$DW$883, DW_AT_name("gpioHandle")
    9580                      .dwattr $C$DW$883, DW_AT_TI_symbol_name("_gpioHandle")
    9581                      .dwattr $C$DW$883, DW_AT_data_member_location[DW_OP_plus_uconst 0x8]
    9582                      .dwattr $C$DW$883, DW_AT_accessibility(DW_ACCESS_public)
    9583              
    9584              $C$DW$884       .dwtag  DW_TAG_member
    9585                      .dwattr $C$DW$884, DW_AT_type(*$C$DW$T$104)
    9586                      .dwattr $C$DW$884, DW_AT_name("offsetHandle_I")
    9587                      .dwattr $C$DW$884, DW_AT_TI_symbol_name("_offsetHandle_I")
    9588                      .dwattr $C$DW$884, DW_AT_data_member_location[DW_OP_plus_uconst 0xa]
    9589                      .dwattr $C$DW$884, DW_AT_accessibility(DW_ACCESS_public)
    9590              
    9591              $C$DW$885       .dwtag  DW_TAG_member
    9592                      .dwattr $C$DW$885, DW_AT_type(*$C$DW$T$106)
    9593                      .dwattr $C$DW$885, DW_AT_name("offset_I")
    9594                      .dwattr $C$DW$885, DW_AT_TI_symbol_name("_offset_I")
    9595                      .dwattr $C$DW$885, DW_AT_data_member_location[DW_OP_plus_uconst 0x10]
    9596                      .dwattr $C$DW$885, DW_AT_accessibility(DW_ACCESS_public)
    9597              
    9598              $C$DW$886       .dwtag  DW_TAG_member
    9599                      .dwattr $C$DW$886, DW_AT_type(*$C$DW$T$104)
    9600                      .dwattr $C$DW$886, DW_AT_name("offsetHandle_V")
    9601                      .dwattr $C$DW$886, DW_AT_TI_symbol_name("_offsetHandle_V")
    9602                      .dwattr $C$DW$886, DW_AT_data_member_location[DW_OP_plus_uconst 0x3a]
TMS320C2000 Assembler PC v22.6.0 Tue Apr 18 11:09:46 2023

Copyright (c) 1996-2018 Texas Instruments Incorporated
C:\Users\User\AppData\Local\Temp\{F169EDD6-E2A2-400A-8386-A823CBD75D49} PAGE  182

    9603                      .dwattr $C$DW$886, DW_AT_accessibility(DW_ACCESS_public)
    9604              
    9605              $C$DW$887       .dwtag  DW_TAG_member
    9606                      .dwattr $C$DW$887, DW_AT_type(*$C$DW$T$106)
    9607                      .dwattr $C$DW$887, DW_AT_name("offset_V")
    9608                      .dwattr $C$DW$887, DW_AT_TI_symbol_name("_offset_V")
    9609                      .dwattr $C$DW$887, DW_AT_data_member_location[DW_OP_plus_uconst 0x40]
    9610                      .dwattr $C$DW$887, DW_AT_accessibility(DW_ACCESS_public)
    9611              
    9612              $C$DW$888       .dwtag  DW_TAG_member
    9613                      .dwattr $C$DW$888, DW_AT_type(*$C$DW$T$108)
    9614                      .dwattr $C$DW$888, DW_AT_name("oscHandle")
    9615                      .dwattr $C$DW$888, DW_AT_TI_symbol_name("_oscHandle")
    9616                      .dwattr $C$DW$888, DW_AT_data_member_location[DW_OP_plus_uconst 0x6a]
    9617                      .dwattr $C$DW$888, DW_AT_accessibility(DW_ACCESS_public)
    9618              
    9619              $C$DW$889       .dwtag  DW_TAG_member
    9620                      .dwattr $C$DW$889, DW_AT_type(*$C$DW$T$110)
    9621                      .dwattr $C$DW$889, DW_AT_name("pieHandle")
    9622                      .dwattr $C$DW$889, DW_AT_TI_symbol_name("_pieHandle")
    9623                      .dwattr $C$DW$889, DW_AT_data_member_location[DW_OP_plus_uconst 0x6c]
    9624                      .dwattr $C$DW$889, DW_AT_accessibility(DW_ACCESS_public)
    9625              
    9626              $C$DW$890       .dwtag  DW_TAG_member
    9627                      .dwattr $C$DW$890, DW_AT_type(*$C$DW$T$112)
    9628                      .dwattr $C$DW$890, DW_AT_name("pllHandle")
    9629                      .dwattr $C$DW$890, DW_AT_TI_symbol_name("_pllHandle")
    9630                      .dwattr $C$DW$890, DW_AT_data_member_location[DW_OP_plus_uconst 0x6e]
    9631                      .dwattr $C$DW$890, DW_AT_accessibility(DW_ACCESS_public)
    9632              
    9633              $C$DW$891       .dwtag  DW_TAG_member
    9634                      .dwattr $C$DW$891, DW_AT_type(*$C$DW$T$115)
    9635                      .dwattr $C$DW$891, DW_AT_name("pwmHandle")
    9636                      .dwattr $C$DW$891, DW_AT_TI_symbol_name("_pwmHandle")
    9637                      .dwattr $C$DW$891, DW_AT_data_member_location[DW_OP_plus_uconst 0x70]
    9638                      .dwattr $C$DW$891, DW_AT_accessibility(DW_ACCESS_public)
    9639              
    9640              $C$DW$892       .dwtag  DW_TAG_member
    9641                      .dwattr $C$DW$892, DW_AT_type(*$C$DW$T$115)
    9642                      .dwattr $C$DW$892, DW_AT_name("pwmDacHandle")
    9643                      .dwattr $C$DW$892, DW_AT_TI_symbol_name("_pwmDacHandle")
    9644                      .dwattr $C$DW$892, DW_AT_data_member_location[DW_OP_plus_uconst 0x76]
    9645                      .dwattr $C$DW$892, DW_AT_accessibility(DW_ACCESS_public)
    9646              
    9647              $C$DW$893       .dwtag  DW_TAG_member
    9648                      .dwattr $C$DW$893, DW_AT_type(*$C$DW$T$117)
    9649                      .dwattr $C$DW$893, DW_AT_name("pwrHandle")
    9650                      .dwattr $C$DW$893, DW_AT_TI_symbol_name("_pwrHandle")
    9651                      .dwattr $C$DW$893, DW_AT_data_member_location[DW_OP_plus_uconst 0x7c]
    9652                      .dwattr $C$DW$893, DW_AT_accessibility(DW_ACCESS_public)
    9653              
    9654              $C$DW$894       .dwtag  DW_TAG_member
    9655                      .dwattr $C$DW$894, DW_AT_type(*$C$DW$T$120)
    9656                      .dwattr $C$DW$894, DW_AT_name("timerHandle")
    9657                      .dwattr $C$DW$894, DW_AT_TI_symbol_name("_timerHandle")
TMS320C2000 Assembler PC v22.6.0 Tue Apr 18 11:09:46 2023

Copyright (c) 1996-2018 Texas Instruments Incorporated
C:\Users\User\AppData\Local\Temp\{F169EDD6-E2A2-400A-8386-A823CBD75D49} PAGE  183

    9658                      .dwattr $C$DW$894, DW_AT_data_member_location[DW_OP_plus_uconst 0x7e]
    9659                      .dwattr $C$DW$894, DW_AT_accessibility(DW_ACCESS_public)
    9660              
    9661              $C$DW$895       .dwtag  DW_TAG_member
    9662                      .dwattr $C$DW$895, DW_AT_type(*$C$DW$T$122)
    9663                      .dwattr $C$DW$895, DW_AT_name("wdogHandle")
    9664                      .dwattr $C$DW$895, DW_AT_TI_symbol_name("_wdogHandle")
    9665                      .dwattr $C$DW$895, DW_AT_data_member_location[DW_OP_plus_uconst 0x84]
    9666                      .dwattr $C$DW$895, DW_AT_accessibility(DW_ACCESS_public)
    9667              
    9668              $C$DW$896       .dwtag  DW_TAG_member
    9669                      .dwattr $C$DW$896, DW_AT_type(*$C$DW$T$123)
    9670                      .dwattr $C$DW$896, DW_AT_name("adcBias")
    9671                      .dwattr $C$DW$896, DW_AT_TI_symbol_name("_adcBias")
    9672                      .dwattr $C$DW$896, DW_AT_data_member_location[DW_OP_plus_uconst 0x86]
    9673                      .dwattr $C$DW$896, DW_AT_accessibility(DW_ACCESS_public)
    9674              
    9675              $C$DW$897       .dwtag  DW_TAG_member
    9676                      .dwattr $C$DW$897, DW_AT_type(*$C$DW$T$32)
    9677                      .dwattr $C$DW$897, DW_AT_name("current_sf")
    9678                      .dwattr $C$DW$897, DW_AT_TI_symbol_name("_current_sf")
    9679                      .dwattr $C$DW$897, DW_AT_data_member_location[DW_OP_plus_uconst 0x94]
    9680                      .dwattr $C$DW$897, DW_AT_accessibility(DW_ACCESS_public)
    9681              
    9682              $C$DW$898       .dwtag  DW_TAG_member
    9683                      .dwattr $C$DW$898, DW_AT_type(*$C$DW$T$32)
    9684                      .dwattr $C$DW$898, DW_AT_name("voltage_sf")
    9685                      .dwattr $C$DW$898, DW_AT_TI_symbol_name("_voltage_sf")
    9686                      .dwattr $C$DW$898, DW_AT_data_member_location[DW_OP_plus_uconst 0x96]
    9687                      .dwattr $C$DW$898, DW_AT_accessibility(DW_ACCESS_public)
    9688              
    9689              $C$DW$899       .dwtag  DW_TAG_member
    9690                      .dwattr $C$DW$899, DW_AT_type(*$C$DW$T$34)
    9691                      .dwattr $C$DW$899, DW_AT_name("numCurrentSensors")
    9692                      .dwattr $C$DW$899, DW_AT_TI_symbol_name("_numCurrentSensors")
    9693                      .dwattr $C$DW$899, DW_AT_data_member_location[DW_OP_plus_uconst 0x98]
    9694                      .dwattr $C$DW$899, DW_AT_accessibility(DW_ACCESS_public)
    9695              
    9696              $C$DW$900       .dwtag  DW_TAG_member
    9697                      .dwattr $C$DW$900, DW_AT_type(*$C$DW$T$34)
    9698                      .dwattr $C$DW$900, DW_AT_name("numVoltageSensors")
    9699                      .dwattr $C$DW$900, DW_AT_TI_symbol_name("_numVoltageSensors")
    9700                      .dwattr $C$DW$900, DW_AT_data_member_location[DW_OP_plus_uconst 0x99]
    9701                      .dwattr $C$DW$900, DW_AT_accessibility(DW_ACCESS_public)
    9702              
    9703              $C$DW$901       .dwtag  DW_TAG_member
    9704                      .dwattr $C$DW$901, DW_AT_type(*$C$DW$T$79)
    9705                      .dwattr $C$DW$901, DW_AT_name("spiAHandle")
    9706                      .dwattr $C$DW$901, DW_AT_TI_symbol_name("_spiAHandle")
    9707                      .dwattr $C$DW$901, DW_AT_data_member_location[DW_OP_plus_uconst 0x9a]
    9708                      .dwattr $C$DW$901, DW_AT_accessibility(DW_ACCESS_public)
    9709              
    9710              $C$DW$902       .dwtag  DW_TAG_member
    9711                      .dwattr $C$DW$902, DW_AT_type(*$C$DW$T$79)
    9712                      .dwattr $C$DW$902, DW_AT_name("spiBHandle")
TMS320C2000 Assembler PC v22.6.0 Tue Apr 18 11:09:46 2023

Copyright (c) 1996-2018 Texas Instruments Incorporated
C:\Users\User\AppData\Local\Temp\{F169EDD6-E2A2-400A-8386-A823CBD75D49} PAGE  184

    9713                      .dwattr $C$DW$902, DW_AT_TI_symbol_name("_spiBHandle")
    9714                      .dwattr $C$DW$902, DW_AT_data_member_location[DW_OP_plus_uconst 0x9c]
    9715                      .dwattr $C$DW$902, DW_AT_accessibility(DW_ACCESS_public)
    9716              
    9717              $C$DW$903       .dwtag  DW_TAG_member
    9718                      .dwattr $C$DW$903, DW_AT_type(*$C$DW$T$125)
    9719                      .dwattr $C$DW$903, DW_AT_name("drv8301Handle")
    9720                      .dwattr $C$DW$903, DW_AT_TI_symbol_name("_drv8301Handle")
    9721                      .dwattr $C$DW$903, DW_AT_data_member_location[DW_OP_plus_uconst 0x9e]
    9722                      .dwattr $C$DW$903, DW_AT_accessibility(DW_ACCESS_public)
    9723              
    9724              $C$DW$904       .dwtag  DW_TAG_member
    9725                      .dwattr $C$DW$904, DW_AT_type(*$C$DW$T$126)
    9726                      .dwattr $C$DW$904, DW_AT_name("drv8301")
    9727                      .dwattr $C$DW$904, DW_AT_TI_symbol_name("_drv8301")
    9728                      .dwattr $C$DW$904, DW_AT_data_member_location[DW_OP_plus_uconst 0xa0]
    9729                      .dwattr $C$DW$904, DW_AT_accessibility(DW_ACCESS_public)
    9730              
    9731                      .dwendtag $C$DW$T$127
    9732              
    9733              $C$DW$T$196     .dwtag  DW_TAG_typedef
    9734                      .dwattr $C$DW$T$196, DW_AT_name("HAL_Obj")
    9735                      .dwattr $C$DW$T$196, DW_AT_type(*$C$DW$T$127)
    9736                      .dwattr $C$DW$T$196, DW_AT_language(DW_LANG_C)
    9737              
    9738              $C$DW$T$197     .dwtag  DW_TAG_pointer_type
    9739                      .dwattr $C$DW$T$197, DW_AT_type(*$C$DW$T$127)
    9740                      .dwattr $C$DW$T$197, DW_AT_address_class(0x20)
    9741              
    9742              $C$DW$T$198     .dwtag  DW_TAG_typedef
    9743                      .dwattr $C$DW$T$198, DW_AT_name("HAL_Handle")
    9744                      .dwattr $C$DW$T$198, DW_AT_type(*$C$DW$T$197)
    9745                      .dwattr $C$DW$T$198, DW_AT_language(DW_LANG_C)
    9746              
    9747              $C$DW$905       .dwtag  DW_TAG_TI_far_type
    9748                      .dwattr $C$DW$905, DW_AT_type(*$C$DW$T$198)
    9749              
    9750              $C$DW$T$199     .dwtag  DW_TAG_const_type
    9751                      .dwattr $C$DW$T$199, DW_AT_type(*$C$DW$905)
    9752              
    9753              
    9754              $C$DW$T$128     .dwtag  DW_TAG_structure_type
    9755                      .dwattr $C$DW$T$128, DW_AT_name("_HAL_PwmData_t_")
    9756                      .dwattr $C$DW$T$128, DW_AT_byte_size(0x06)
    9757              $C$DW$906       .dwtag  DW_TAG_member
    9758                      .dwattr $C$DW$906, DW_AT_type(*$C$DW$T$92)
    9759                      .dwattr $C$DW$906, DW_AT_name("Tabc")
    9760                      .dwattr $C$DW$906, DW_AT_TI_symbol_name("_Tabc")
    9761                      .dwattr $C$DW$906, DW_AT_data_member_location[DW_OP_plus_uconst 0x0]
    9762                      .dwattr $C$DW$906, DW_AT_accessibility(DW_ACCESS_public)
    9763              
    9764                      .dwendtag $C$DW$T$128
    9765              
    9766              $C$DW$T$201     .dwtag  DW_TAG_typedef
    9767                      .dwattr $C$DW$T$201, DW_AT_name("HAL_PwmData_t")
TMS320C2000 Assembler PC v22.6.0 Tue Apr 18 11:09:46 2023

Copyright (c) 1996-2018 Texas Instruments Incorporated
C:\Users\User\AppData\Local\Temp\{F169EDD6-E2A2-400A-8386-A823CBD75D49} PAGE  185

    9768                      .dwattr $C$DW$T$201, DW_AT_type(*$C$DW$T$128)
    9769                      .dwattr $C$DW$T$201, DW_AT_language(DW_LANG_C)
    9770              
    9771              $C$DW$T$202     .dwtag  DW_TAG_pointer_type
    9772                      .dwattr $C$DW$T$202, DW_AT_type(*$C$DW$T$201)
    9773                      .dwattr $C$DW$T$202, DW_AT_address_class(0x20)
    9774              
    9775              $C$DW$907       .dwtag  DW_TAG_TI_far_type
    9776                      .dwattr $C$DW$907, DW_AT_type(*$C$DW$T$202)
    9777              
    9778              $C$DW$T$203     .dwtag  DW_TAG_const_type
    9779                      .dwattr $C$DW$T$203, DW_AT_type(*$C$DW$907)
    9780              
    9781              
    9782              $C$DW$T$129     .dwtag  DW_TAG_structure_type
    9783                      .dwattr $C$DW$T$129, DW_AT_name("_IPARK_Obj_")
    9784                      .dwattr $C$DW$T$129, DW_AT_byte_size(0x04)
    9785              $C$DW$908       .dwtag  DW_TAG_member
    9786                      .dwattr $C$DW$908, DW_AT_type(*$C$DW$T$32)
    9787                      .dwattr $C$DW$908, DW_AT_name("sinTh")
    9788                      .dwattr $C$DW$908, DW_AT_TI_symbol_name("_sinTh")
    9789                      .dwattr $C$DW$908, DW_AT_data_member_location[DW_OP_plus_uconst 0x0]
    9790                      .dwattr $C$DW$908, DW_AT_accessibility(DW_ACCESS_public)
    9791              
    9792              $C$DW$909       .dwtag  DW_TAG_member
    9793                      .dwattr $C$DW$909, DW_AT_type(*$C$DW$T$32)
    9794                      .dwattr $C$DW$909, DW_AT_name("cosTh")
    9795                      .dwattr $C$DW$909, DW_AT_TI_symbol_name("_cosTh")
    9796                      .dwattr $C$DW$909, DW_AT_data_member_location[DW_OP_plus_uconst 0x2]
    9797                      .dwattr $C$DW$909, DW_AT_accessibility(DW_ACCESS_public)
    9798              
    9799                      .dwendtag $C$DW$T$129
    9800              
    9801              $C$DW$T$57      .dwtag  DW_TAG_typedef
    9802                      .dwattr $C$DW$T$57, DW_AT_name("IPARK_Obj")
    9803                      .dwattr $C$DW$T$57, DW_AT_type(*$C$DW$T$129)
    9804                      .dwattr $C$DW$T$57, DW_AT_language(DW_LANG_C)
    9805              
    9806              $C$DW$T$55      .dwtag  DW_TAG_pointer_type
    9807                      .dwattr $C$DW$T$55, DW_AT_type(*$C$DW$T$129)
    9808                      .dwattr $C$DW$T$55, DW_AT_address_class(0x20)
    9809              
    9810              $C$DW$T$56      .dwtag  DW_TAG_typedef
    9811                      .dwattr $C$DW$T$56, DW_AT_name("IPARK_Handle")
    9812                      .dwattr $C$DW$T$56, DW_AT_type(*$C$DW$T$55)
    9813                      .dwattr $C$DW$T$56, DW_AT_language(DW_LANG_C)
    9814              
    9815              
    9816              $C$DW$T$131     .dwtag  DW_TAG_structure_type
    9817                      .dwattr $C$DW$T$131, DW_AT_name("_MATH_vec2_")
    9818                      .dwattr $C$DW$T$131, DW_AT_byte_size(0x04)
    9819              $C$DW$910       .dwtag  DW_TAG_member
    9820                      .dwattr $C$DW$910, DW_AT_type(*$C$DW$T$130)
    9821                      .dwattr $C$DW$910, DW_AT_name("value")
    9822                      .dwattr $C$DW$910, DW_AT_TI_symbol_name("_value")
TMS320C2000 Assembler PC v22.6.0 Tue Apr 18 11:09:46 2023

Copyright (c) 1996-2018 Texas Instruments Incorporated
C:\Users\User\AppData\Local\Temp\{F169EDD6-E2A2-400A-8386-A823CBD75D49} PAGE  186

    9823                      .dwattr $C$DW$910, DW_AT_data_member_location[DW_OP_plus_uconst 0x0]
    9824                      .dwattr $C$DW$910, DW_AT_accessibility(DW_ACCESS_public)
    9825              
    9826                      .dwendtag $C$DW$T$131
    9827              
    9828              $C$DW$T$72      .dwtag  DW_TAG_typedef
    9829                      .dwattr $C$DW$T$72, DW_AT_name("MATH_vec2")
    9830                      .dwattr $C$DW$T$72, DW_AT_type(*$C$DW$T$131)
    9831                      .dwattr $C$DW$T$72, DW_AT_language(DW_LANG_C)
    9832              
    9833              $C$DW$911       .dwtag  DW_TAG_TI_far_type
    9834                      .dwattr $C$DW$911, DW_AT_type(*$C$DW$T$72)
    9835              
    9836              $C$DW$T$206     .dwtag  DW_TAG_const_type
    9837                      .dwattr $C$DW$T$206, DW_AT_type(*$C$DW$911)
    9838              
    9839              $C$DW$T$207     .dwtag  DW_TAG_pointer_type
    9840                      .dwattr $C$DW$T$207, DW_AT_type(*$C$DW$T$206)
    9841                      .dwattr $C$DW$T$207, DW_AT_address_class(0x20)
    9842              
    9843              $C$DW$912       .dwtag  DW_TAG_TI_far_type
    9844                      .dwattr $C$DW$912, DW_AT_type(*$C$DW$T$207)
    9845              
    9846              $C$DW$T$208     .dwtag  DW_TAG_const_type
    9847                      .dwattr $C$DW$T$208, DW_AT_type(*$C$DW$912)
    9848              
    9849              $C$DW$T$209     .dwtag  DW_TAG_pointer_type
    9850                      .dwattr $C$DW$T$209, DW_AT_type(*$C$DW$T$72)
    9851                      .dwattr $C$DW$T$209, DW_AT_address_class(0x20)
    9852              
    9853              $C$DW$913       .dwtag  DW_TAG_TI_far_type
    9854                      .dwattr $C$DW$913, DW_AT_type(*$C$DW$T$209)
    9855              
    9856              $C$DW$T$211     .dwtag  DW_TAG_const_type
    9857                      .dwattr $C$DW$T$211, DW_AT_type(*$C$DW$913)
    9858              
    9859              
    9860              $C$DW$T$133     .dwtag  DW_TAG_structure_type
    9861                      .dwattr $C$DW$T$133, DW_AT_name("_MATH_vec3_")
    9862                      .dwattr $C$DW$T$133, DW_AT_byte_size(0x06)
    9863              $C$DW$914       .dwtag  DW_TAG_member
    9864                      .dwattr $C$DW$914, DW_AT_type(*$C$DW$T$132)
    9865                      .dwattr $C$DW$914, DW_AT_name("value")
    9866                      .dwattr $C$DW$914, DW_AT_TI_symbol_name("_value")
    9867                      .dwattr $C$DW$914, DW_AT_data_member_location[DW_OP_plus_uconst 0x0]
    9868                      .dwattr $C$DW$914, DW_AT_accessibility(DW_ACCESS_public)
    9869              
    9870                      .dwendtag $C$DW$T$133
    9871              
    9872              $C$DW$T$92      .dwtag  DW_TAG_typedef
    9873                      .dwattr $C$DW$T$92, DW_AT_name("MATH_vec3")
    9874                      .dwattr $C$DW$T$92, DW_AT_type(*$C$DW$T$133)
    9875                      .dwattr $C$DW$T$92, DW_AT_language(DW_LANG_C)
    9876              
    9877              $C$DW$915       .dwtag  DW_TAG_TI_far_type
TMS320C2000 Assembler PC v22.6.0 Tue Apr 18 11:09:46 2023

Copyright (c) 1996-2018 Texas Instruments Incorporated
C:\Users\User\AppData\Local\Temp\{F169EDD6-E2A2-400A-8386-A823CBD75D49} PAGE  187

    9878                      .dwattr $C$DW$915, DW_AT_type(*$C$DW$T$92)
    9879              
    9880              $C$DW$T$217     .dwtag  DW_TAG_const_type
    9881                      .dwattr $C$DW$T$217, DW_AT_type(*$C$DW$915)
    9882              
    9883              $C$DW$T$218     .dwtag  DW_TAG_pointer_type
    9884                      .dwattr $C$DW$T$218, DW_AT_type(*$C$DW$T$217)
    9885                      .dwattr $C$DW$T$218, DW_AT_address_class(0x20)
    9886              
    9887              $C$DW$T$219     .dwtag  DW_TAG_pointer_type
    9888                      .dwattr $C$DW$T$219, DW_AT_type(*$C$DW$T$92)
    9889                      .dwattr $C$DW$T$219, DW_AT_address_class(0x20)
    9890              
    9891              
    9892              $C$DW$T$136     .dwtag  DW_TAG_structure_type
    9893                      .dwattr $C$DW$T$136, DW_AT_name("_MOTOR_Params_")
    9894                      .dwattr $C$DW$T$136, DW_AT_byte_size(0x0e)
    9895              $C$DW$916       .dwtag  DW_TAG_member
    9896                      .dwattr $C$DW$916, DW_AT_type(*$C$DW$T$135)
    9897                      .dwattr $C$DW$916, DW_AT_name("type")
    9898                      .dwattr $C$DW$916, DW_AT_TI_symbol_name("_type")
    9899                      .dwattr $C$DW$916, DW_AT_data_member_location[DW_OP_plus_uconst 0x0]
    9900                      .dwattr $C$DW$916, DW_AT_accessibility(DW_ACCESS_public)
    9901              
    9902              $C$DW$917       .dwtag  DW_TAG_member
    9903                      .dwattr $C$DW$917, DW_AT_type(*$C$DW$T$70)
    9904                      .dwattr $C$DW$917, DW_AT_name("numPolePairs")
    9905                      .dwattr $C$DW$917, DW_AT_TI_symbol_name("_numPolePairs")
    9906                      .dwattr $C$DW$917, DW_AT_data_member_location[DW_OP_plus_uconst 0x1]
    9907                      .dwattr $C$DW$917, DW_AT_accessibility(DW_ACCESS_public)
    9908              
    9909              $C$DW$918       .dwtag  DW_TAG_member
    9910                      .dwattr $C$DW$918, DW_AT_type(*$C$DW$T$71)
    9911                      .dwattr $C$DW$918, DW_AT_name("Lr_H")
    9912                      .dwattr $C$DW$918, DW_AT_TI_symbol_name("_Lr_H")
    9913                      .dwattr $C$DW$918, DW_AT_data_member_location[DW_OP_plus_uconst 0x2]
    9914                      .dwattr $C$DW$918, DW_AT_accessibility(DW_ACCESS_public)
    9915              
    9916              $C$DW$919       .dwtag  DW_TAG_member
    9917                      .dwattr $C$DW$919, DW_AT_type(*$C$DW$T$71)
    9918                      .dwattr $C$DW$919, DW_AT_name("Ls_d_H")
    9919                      .dwattr $C$DW$919, DW_AT_TI_symbol_name("_Ls_d_H")
    9920                      .dwattr $C$DW$919, DW_AT_data_member_location[DW_OP_plus_uconst 0x4]
    9921                      .dwattr $C$DW$919, DW_AT_accessibility(DW_ACCESS_public)
    9922              
    9923              $C$DW$920       .dwtag  DW_TAG_member
    9924                      .dwattr $C$DW$920, DW_AT_type(*$C$DW$T$71)
    9925                      .dwattr $C$DW$920, DW_AT_name("Ls_q_H")
    9926                      .dwattr $C$DW$920, DW_AT_TI_symbol_name("_Ls_q_H")
    9927                      .dwattr $C$DW$920, DW_AT_data_member_location[DW_OP_plus_uconst 0x6]
    9928                      .dwattr $C$DW$920, DW_AT_accessibility(DW_ACCESS_public)
    9929              
    9930              $C$DW$921       .dwtag  DW_TAG_member
    9931                      .dwattr $C$DW$921, DW_AT_type(*$C$DW$T$71)
    9932                      .dwattr $C$DW$921, DW_AT_name("Rr_Ohm")
TMS320C2000 Assembler PC v22.6.0 Tue Apr 18 11:09:46 2023

Copyright (c) 1996-2018 Texas Instruments Incorporated
C:\Users\User\AppData\Local\Temp\{F169EDD6-E2A2-400A-8386-A823CBD75D49} PAGE  188

    9933                      .dwattr $C$DW$921, DW_AT_TI_symbol_name("_Rr_Ohm")
    9934                      .dwattr $C$DW$921, DW_AT_data_member_location[DW_OP_plus_uconst 0x8]
    9935                      .dwattr $C$DW$921, DW_AT_accessibility(DW_ACCESS_public)
    9936              
    9937              $C$DW$922       .dwtag  DW_TAG_member
    9938                      .dwattr $C$DW$922, DW_AT_type(*$C$DW$T$71)
    9939                      .dwattr $C$DW$922, DW_AT_name("Rs_Ohm")
    9940                      .dwattr $C$DW$922, DW_AT_TI_symbol_name("_Rs_Ohm")
    9941                      .dwattr $C$DW$922, DW_AT_data_member_location[DW_OP_plus_uconst 0xa]
    9942                      .dwattr $C$DW$922, DW_AT_accessibility(DW_ACCESS_public)
    9943              
    9944              $C$DW$923       .dwtag  DW_TAG_member
    9945                      .dwattr $C$DW$923, DW_AT_type(*$C$DW$T$71)
    9946                      .dwattr $C$DW$923, DW_AT_name("ratedFlux_VpHz")
    9947                      .dwattr $C$DW$923, DW_AT_TI_symbol_name("_ratedFlux_VpHz")
    9948                      .dwattr $C$DW$923, DW_AT_data_member_location[DW_OP_plus_uconst 0xc]
    9949                      .dwattr $C$DW$923, DW_AT_accessibility(DW_ACCESS_public)
    9950              
    9951                      .dwendtag $C$DW$T$136
    9952              
    9953              $C$DW$T$64      .dwtag  DW_TAG_typedef
    9954                      .dwattr $C$DW$T$64, DW_AT_name("MOTOR_Params")
    9955                      .dwattr $C$DW$T$64, DW_AT_type(*$C$DW$T$136)
    9956                      .dwattr $C$DW$T$64, DW_AT_language(DW_LANG_C)
    9957              
    9958              
    9959              $C$DW$T$140     .dwtag  DW_TAG_structure_type
    9960                      .dwattr $C$DW$T$140, DW_AT_name("_OFFSET_")
    9961                      .dwattr $C$DW$T$140, DW_AT_byte_size(0x0e)
    9962              $C$DW$924       .dwtag  DW_TAG_member
    9963                      .dwattr $C$DW$924, DW_AT_type(*$C$DW$T$32)
    9964                      .dwattr $C$DW$924, DW_AT_name("value")
    9965                      .dwattr $C$DW$924, DW_AT_TI_symbol_name("_value")
    9966                      .dwattr $C$DW$924, DW_AT_data_member_location[DW_OP_plus_uconst 0x0]
    9967                      .dwattr $C$DW$924, DW_AT_accessibility(DW_ACCESS_public)
    9968              
    9969              $C$DW$925       .dwtag  DW_TAG_member
    9970                      .dwattr $C$DW$925, DW_AT_type(*$C$DW$T$137)
    9971                      .dwattr $C$DW$925, DW_AT_name("filter")
    9972                      .dwattr $C$DW$925, DW_AT_TI_symbol_name("_filter")
    9973                      .dwattr $C$DW$925, DW_AT_data_member_location[DW_OP_plus_uconst 0x2]
    9974                      .dwattr $C$DW$925, DW_AT_accessibility(DW_ACCESS_public)
    9975              
    9976              $C$DW$926       .dwtag  DW_TAG_member
    9977                      .dwattr $C$DW$926, DW_AT_type(*$C$DW$T$139)
    9978                      .dwattr $C$DW$926, DW_AT_name("filterHandle")
    9979                      .dwattr $C$DW$926, DW_AT_TI_symbol_name("_filterHandle")
    9980                      .dwattr $C$DW$926, DW_AT_data_member_location[DW_OP_plus_uconst 0xc]
    9981                      .dwattr $C$DW$926, DW_AT_accessibility(DW_ACCESS_public)
    9982              
    9983                      .dwendtag $C$DW$T$140
    9984              
    9985              $C$DW$T$105     .dwtag  DW_TAG_typedef
    9986                      .dwattr $C$DW$T$105, DW_AT_name("OFFSET_Obj")
    9987                      .dwattr $C$DW$T$105, DW_AT_type(*$C$DW$T$140)
TMS320C2000 Assembler PC v22.6.0 Tue Apr 18 11:09:46 2023

Copyright (c) 1996-2018 Texas Instruments Incorporated
C:\Users\User\AppData\Local\Temp\{F169EDD6-E2A2-400A-8386-A823CBD75D49} PAGE  189

    9988                      .dwattr $C$DW$T$105, DW_AT_language(DW_LANG_C)
    9989              
    9990              
    9991              $C$DW$T$106     .dwtag  DW_TAG_array_type
    9992                      .dwattr $C$DW$T$106, DW_AT_type(*$C$DW$T$105)
    9993                      .dwattr $C$DW$T$106, DW_AT_language(DW_LANG_C)
    9994                      .dwattr $C$DW$T$106, DW_AT_byte_size(0x2a)
    9995              $C$DW$927       .dwtag  DW_TAG_subrange_type
    9996                      .dwattr $C$DW$927, DW_AT_upper_bound(0x02)
    9997              
    9998                      .dwendtag $C$DW$T$106
    9999              
   10000              $C$DW$T$223     .dwtag  DW_TAG_pointer_type
   10001                      .dwattr $C$DW$T$223, DW_AT_type(*$C$DW$T$105)
   10002                      .dwattr $C$DW$T$223, DW_AT_address_class(0x20)
   10003              
   10004              
   10005              $C$DW$T$21      .dwtag  DW_TAG_structure_type
   10006                      .dwattr $C$DW$T$21, DW_AT_name("_OFFSET_Obj_")
   10007                      .dwattr $C$DW$T$21, DW_AT_declaration
   10008                      .dwendtag $C$DW$T$21
   10009              
   10010              $C$DW$T$102     .dwtag  DW_TAG_pointer_type
   10011                      .dwattr $C$DW$T$102, DW_AT_type(*$C$DW$T$21)
   10012                      .dwattr $C$DW$T$102, DW_AT_address_class(0x20)
   10013              
   10014              $C$DW$T$103     .dwtag  DW_TAG_typedef
   10015                      .dwattr $C$DW$T$103, DW_AT_name("OFFSET_Handle")
   10016                      .dwattr $C$DW$T$103, DW_AT_type(*$C$DW$T$102)
   10017                      .dwattr $C$DW$T$103, DW_AT_language(DW_LANG_C)
   10018              
   10019              
   10020              $C$DW$T$104     .dwtag  DW_TAG_array_type
   10021                      .dwattr $C$DW$T$104, DW_AT_type(*$C$DW$T$103)
   10022                      .dwattr $C$DW$T$104, DW_AT_language(DW_LANG_C)
   10023                      .dwattr $C$DW$T$104, DW_AT_byte_size(0x06)
   10024              $C$DW$928       .dwtag  DW_TAG_subrange_type
   10025                      .dwattr $C$DW$928, DW_AT_upper_bound(0x02)
   10026              
   10027                      .dwendtag $C$DW$T$104
   10028              
   10029              
   10030              $C$DW$T$141     .dwtag  DW_TAG_structure_type
   10031                      .dwattr $C$DW$T$141, DW_AT_name("_OSC_Obj_")
   10032                      .dwattr $C$DW$T$141, DW_AT_byte_size(0x03)
   10033              $C$DW$929       .dwtag  DW_TAG_member
   10034                      .dwattr $C$DW$929, DW_AT_type(*$C$DW$T$24)
   10035                      .dwattr $C$DW$929, DW_AT_name("INTOSC1TRIM")
   10036                      .dwattr $C$DW$929, DW_AT_TI_symbol_name("_INTOSC1TRIM")
   10037                      .dwattr $C$DW$929, DW_AT_data_member_location[DW_OP_plus_uconst 0x0]
   10038                      .dwattr $C$DW$929, DW_AT_accessibility(DW_ACCESS_public)
   10039              
   10040              $C$DW$930       .dwtag  DW_TAG_member
   10041                      .dwattr $C$DW$930, DW_AT_type(*$C$DW$T$24)
   10042                      .dwattr $C$DW$930, DW_AT_name("rsvd_1")
TMS320C2000 Assembler PC v22.6.0 Tue Apr 18 11:09:46 2023

Copyright (c) 1996-2018 Texas Instruments Incorporated
C:\Users\User\AppData\Local\Temp\{F169EDD6-E2A2-400A-8386-A823CBD75D49} PAGE  190

   10043                      .dwattr $C$DW$930, DW_AT_TI_symbol_name("_rsvd_1")
   10044                      .dwattr $C$DW$930, DW_AT_data_member_location[DW_OP_plus_uconst 0x1]
   10045                      .dwattr $C$DW$930, DW_AT_accessibility(DW_ACCESS_public)
   10046              
   10047              $C$DW$931       .dwtag  DW_TAG_member
   10048                      .dwattr $C$DW$931, DW_AT_type(*$C$DW$T$24)
   10049                      .dwattr $C$DW$931, DW_AT_name("INTOSC2TRIM")
   10050                      .dwattr $C$DW$931, DW_AT_TI_symbol_name("_INTOSC2TRIM")
   10051                      .dwattr $C$DW$931, DW_AT_data_member_location[DW_OP_plus_uconst 0x2]
   10052                      .dwattr $C$DW$931, DW_AT_accessibility(DW_ACCESS_public)
   10053              
   10054                      .dwendtag $C$DW$T$141
   10055              
   10056              $C$DW$T$107     .dwtag  DW_TAG_pointer_type
   10057                      .dwattr $C$DW$T$107, DW_AT_type(*$C$DW$T$141)
   10058                      .dwattr $C$DW$T$107, DW_AT_address_class(0x20)
   10059              
   10060              $C$DW$T$108     .dwtag  DW_TAG_typedef
   10061                      .dwattr $C$DW$T$108, DW_AT_name("OSC_Handle")
   10062                      .dwattr $C$DW$T$108, DW_AT_type(*$C$DW$T$107)
   10063                      .dwattr $C$DW$T$108, DW_AT_language(DW_LANG_C)
   10064              
   10065              
   10066              $C$DW$T$142     .dwtag  DW_TAG_structure_type
   10067                      .dwattr $C$DW$T$142, DW_AT_name("_PARK_Obj_")
   10068                      .dwattr $C$DW$T$142, DW_AT_byte_size(0x04)
   10069              $C$DW$932       .dwtag  DW_TAG_member
   10070                      .dwattr $C$DW$932, DW_AT_type(*$C$DW$T$32)
   10071                      .dwattr $C$DW$932, DW_AT_name("sinTh")
   10072                      .dwattr $C$DW$932, DW_AT_TI_symbol_name("_sinTh")
   10073                      .dwattr $C$DW$932, DW_AT_data_member_location[DW_OP_plus_uconst 0x0]
   10074                      .dwattr $C$DW$932, DW_AT_accessibility(DW_ACCESS_public)
   10075              
   10076              $C$DW$933       .dwtag  DW_TAG_member
   10077                      .dwattr $C$DW$933, DW_AT_type(*$C$DW$T$32)
   10078                      .dwattr $C$DW$933, DW_AT_name("cosTh")
   10079                      .dwattr $C$DW$933, DW_AT_TI_symbol_name("_cosTh")
   10080                      .dwattr $C$DW$933, DW_AT_data_member_location[DW_OP_plus_uconst 0x2]
   10081                      .dwattr $C$DW$933, DW_AT_accessibility(DW_ACCESS_public)
   10082              
   10083                      .dwendtag $C$DW$T$142
   10084              
   10085              $C$DW$T$51      .dwtag  DW_TAG_typedef
   10086                      .dwattr $C$DW$T$51, DW_AT_name("PARK_Obj")
   10087                      .dwattr $C$DW$T$51, DW_AT_type(*$C$DW$T$142)
   10088                      .dwattr $C$DW$T$51, DW_AT_language(DW_LANG_C)
   10089              
   10090              $C$DW$T$49      .dwtag  DW_TAG_pointer_type
   10091                      .dwattr $C$DW$T$49, DW_AT_type(*$C$DW$T$142)
   10092                      .dwattr $C$DW$T$49, DW_AT_address_class(0x20)
   10093              
   10094              $C$DW$T$50      .dwtag  DW_TAG_typedef
   10095                      .dwattr $C$DW$T$50, DW_AT_name("PARK_Handle")
   10096                      .dwattr $C$DW$T$50, DW_AT_type(*$C$DW$T$49)
   10097                      .dwattr $C$DW$T$50, DW_AT_language(DW_LANG_C)
TMS320C2000 Assembler PC v22.6.0 Tue Apr 18 11:09:46 2023

Copyright (c) 1996-2018 Texas Instruments Incorporated
C:\Users\User\AppData\Local\Temp\{F169EDD6-E2A2-400A-8386-A823CBD75D49} PAGE  191

   10098              
   10099              
   10100              $C$DW$T$143     .dwtag  DW_TAG_structure_type
   10101                      .dwattr $C$DW$T$143, DW_AT_name("_PID_Obj_")
   10102                      .dwattr $C$DW$T$143, DW_AT_byte_size(0x10)
   10103              $C$DW$934       .dwtag  DW_TAG_member
   10104                      .dwattr $C$DW$934, DW_AT_type(*$C$DW$T$32)
   10105                      .dwattr $C$DW$934, DW_AT_name("Kp")
   10106                      .dwattr $C$DW$934, DW_AT_TI_symbol_name("_Kp")
   10107                      .dwattr $C$DW$934, DW_AT_data_member_location[DW_OP_plus_uconst 0x0]
   10108                      .dwattr $C$DW$934, DW_AT_accessibility(DW_ACCESS_public)
   10109              
   10110              $C$DW$935       .dwtag  DW_TAG_member
   10111                      .dwattr $C$DW$935, DW_AT_type(*$C$DW$T$32)
   10112                      .dwattr $C$DW$935, DW_AT_name("Ki")
   10113                      .dwattr $C$DW$935, DW_AT_TI_symbol_name("_Ki")
   10114                      .dwattr $C$DW$935, DW_AT_data_member_location[DW_OP_plus_uconst 0x2]
   10115                      .dwattr $C$DW$935, DW_AT_accessibility(DW_ACCESS_public)
   10116              
   10117              $C$DW$936       .dwtag  DW_TAG_member
   10118                      .dwattr $C$DW$936, DW_AT_type(*$C$DW$T$32)
   10119                      .dwattr $C$DW$936, DW_AT_name("Kd")
   10120                      .dwattr $C$DW$936, DW_AT_TI_symbol_name("_Kd")
   10121                      .dwattr $C$DW$936, DW_AT_data_member_location[DW_OP_plus_uconst 0x4]
   10122                      .dwattr $C$DW$936, DW_AT_accessibility(DW_ACCESS_public)
   10123              
   10124              $C$DW$937       .dwtag  DW_TAG_member
   10125                      .dwattr $C$DW$937, DW_AT_type(*$C$DW$T$32)
   10126                      .dwattr $C$DW$937, DW_AT_name("Ui")
   10127                      .dwattr $C$DW$937, DW_AT_TI_symbol_name("_Ui")
   10128                      .dwattr $C$DW$937, DW_AT_data_member_location[DW_OP_plus_uconst 0x6]
   10129                      .dwattr $C$DW$937, DW_AT_accessibility(DW_ACCESS_public)
   10130              
   10131              $C$DW$938       .dwtag  DW_TAG_member
   10132                      .dwattr $C$DW$938, DW_AT_type(*$C$DW$T$32)
   10133                      .dwattr $C$DW$938, DW_AT_name("refValue")
   10134                      .dwattr $C$DW$938, DW_AT_TI_symbol_name("_refValue")
   10135                      .dwattr $C$DW$938, DW_AT_data_member_location[DW_OP_plus_uconst 0x8]
   10136                      .dwattr $C$DW$938, DW_AT_accessibility(DW_ACCESS_public)
   10137              
   10138              $C$DW$939       .dwtag  DW_TAG_member
   10139                      .dwattr $C$DW$939, DW_AT_type(*$C$DW$T$32)
   10140                      .dwattr $C$DW$939, DW_AT_name("fbackValue")
   10141                      .dwattr $C$DW$939, DW_AT_TI_symbol_name("_fbackValue")
   10142                      .dwattr $C$DW$939, DW_AT_data_member_location[DW_OP_plus_uconst 0xa]
   10143                      .dwattr $C$DW$939, DW_AT_accessibility(DW_ACCESS_public)
   10144              
   10145              $C$DW$940       .dwtag  DW_TAG_member
   10146                      .dwattr $C$DW$940, DW_AT_type(*$C$DW$T$32)
   10147                      .dwattr $C$DW$940, DW_AT_name("outMin")
   10148                      .dwattr $C$DW$940, DW_AT_TI_symbol_name("_outMin")
   10149                      .dwattr $C$DW$940, DW_AT_data_member_location[DW_OP_plus_uconst 0xc]
   10150                      .dwattr $C$DW$940, DW_AT_accessibility(DW_ACCESS_public)
   10151              
   10152              $C$DW$941       .dwtag  DW_TAG_member
TMS320C2000 Assembler PC v22.6.0 Tue Apr 18 11:09:46 2023

Copyright (c) 1996-2018 Texas Instruments Incorporated
C:\Users\User\AppData\Local\Temp\{F169EDD6-E2A2-400A-8386-A823CBD75D49} PAGE  192

   10153                      .dwattr $C$DW$941, DW_AT_type(*$C$DW$T$32)
   10154                      .dwattr $C$DW$941, DW_AT_name("outMax")
   10155                      .dwattr $C$DW$941, DW_AT_TI_symbol_name("_outMax")
   10156                      .dwattr $C$DW$941, DW_AT_data_member_location[DW_OP_plus_uconst 0xe]
   10157                      .dwattr $C$DW$941, DW_AT_accessibility(DW_ACCESS_public)
   10158              
   10159                      .dwendtag $C$DW$T$143
   10160              
   10161              $C$DW$T$54      .dwtag  DW_TAG_typedef
   10162                      .dwattr $C$DW$T$54, DW_AT_name("PID_Obj")
   10163                      .dwattr $C$DW$T$54, DW_AT_type(*$C$DW$T$143)
   10164                      .dwattr $C$DW$T$54, DW_AT_language(DW_LANG_C)
   10165              
   10166              $C$DW$T$52      .dwtag  DW_TAG_pointer_type
   10167                      .dwattr $C$DW$T$52, DW_AT_type(*$C$DW$T$143)
   10168                      .dwattr $C$DW$T$52, DW_AT_address_class(0x20)
   10169              
   10170              $C$DW$T$53      .dwtag  DW_TAG_typedef
   10171                      .dwattr $C$DW$T$53, DW_AT_name("PID_Handle")
   10172                      .dwattr $C$DW$T$53, DW_AT_type(*$C$DW$T$52)
   10173                      .dwattr $C$DW$T$53, DW_AT_language(DW_LANG_C)
   10174              
   10175              
   10176              $C$DW$T$144     .dwtag  DW_TAG_structure_type
   10177                      .dwattr $C$DW$T$144, DW_AT_name("_PIE_IERIFR_t")
   10178                      .dwattr $C$DW$T$144, DW_AT_byte_size(0x02)
   10179              $C$DW$942       .dwtag  DW_TAG_member
   10180                      .dwattr $C$DW$942, DW_AT_type(*$C$DW$T$24)
   10181                      .dwattr $C$DW$942, DW_AT_name("IER")
   10182                      .dwattr $C$DW$942, DW_AT_TI_symbol_name("_IER")
   10183                      .dwattr $C$DW$942, DW_AT_data_member_location[DW_OP_plus_uconst 0x0]
   10184                      .dwattr $C$DW$942, DW_AT_accessibility(DW_ACCESS_public)
   10185              
   10186              $C$DW$943       .dwtag  DW_TAG_member
   10187                      .dwattr $C$DW$943, DW_AT_type(*$C$DW$T$24)
   10188                      .dwattr $C$DW$943, DW_AT_name("IFR")
   10189                      .dwattr $C$DW$943, DW_AT_TI_symbol_name("_IFR")
   10190                      .dwattr $C$DW$943, DW_AT_data_member_location[DW_OP_plus_uconst 0x1]
   10191                      .dwattr $C$DW$943, DW_AT_accessibility(DW_ACCESS_public)
   10192              
   10193                      .dwendtag $C$DW$T$144
   10194              
   10195              $C$DW$T$145     .dwtag  DW_TAG_typedef
   10196                      .dwattr $C$DW$T$145, DW_AT_name("PIE_IERIFR_t")
   10197                      .dwattr $C$DW$T$145, DW_AT_type(*$C$DW$T$144)
   10198                      .dwattr $C$DW$T$145, DW_AT_language(DW_LANG_C)
   10199              
   10200              $C$DW$944       .dwtag  DW_TAG_TI_far_type
   10201                      .dwattr $C$DW$944, DW_AT_type(*$C$DW$T$145)
   10202              
   10203              $C$DW$T$146     .dwtag  DW_TAG_volatile_type
   10204                      .dwattr $C$DW$T$146, DW_AT_type(*$C$DW$944)
   10205              
   10206              
   10207              $C$DW$T$147     .dwtag  DW_TAG_array_type
TMS320C2000 Assembler PC v22.6.0 Tue Apr 18 11:09:46 2023

Copyright (c) 1996-2018 Texas Instruments Incorporated
C:\Users\User\AppData\Local\Temp\{F169EDD6-E2A2-400A-8386-A823CBD75D49} PAGE  193

   10208                      .dwattr $C$DW$T$147, DW_AT_type(*$C$DW$T$146)
   10209                      .dwattr $C$DW$T$147, DW_AT_language(DW_LANG_C)
   10210                      .dwattr $C$DW$T$147, DW_AT_byte_size(0x18)
   10211              $C$DW$945       .dwtag  DW_TAG_subrange_type
   10212                      .dwattr $C$DW$945, DW_AT_upper_bound(0x0b)
   10213              
   10214                      .dwendtag $C$DW$T$147
   10215              
   10216              
   10217              $C$DW$T$154     .dwtag  DW_TAG_structure_type
   10218                      .dwattr $C$DW$T$154, DW_AT_name("_PIE_Obj_")
   10219                      .dwattr $C$DW$T$154, DW_AT_byte_size(0x639c)
   10220              $C$DW$946       .dwtag  DW_TAG_member
   10221                      .dwattr $C$DW$946, DW_AT_type(*$C$DW$T$24)
   10222                      .dwattr $C$DW$946, DW_AT_name("PIECTRL")
   10223                      .dwattr $C$DW$946, DW_AT_TI_symbol_name("_PIECTRL")
   10224                      .dwattr $C$DW$946, DW_AT_data_member_location[DW_OP_plus_uconst 0x0]
   10225                      .dwattr $C$DW$946, DW_AT_accessibility(DW_ACCESS_public)
   10226              
   10227              $C$DW$947       .dwtag  DW_TAG_member
   10228                      .dwattr $C$DW$947, DW_AT_type(*$C$DW$T$24)
   10229                      .dwattr $C$DW$947, DW_AT_name("PIEACK")
   10230                      .dwattr $C$DW$947, DW_AT_TI_symbol_name("_PIEACK")
   10231                      .dwattr $C$DW$947, DW_AT_data_member_location[DW_OP_plus_uconst 0x1]
   10232                      .dwattr $C$DW$947, DW_AT_accessibility(DW_ACCESS_public)
   10233              
   10234              $C$DW$948       .dwtag  DW_TAG_member
   10235                      .dwattr $C$DW$948, DW_AT_type(*$C$DW$T$147)
   10236                      .dwattr $C$DW$948, DW_AT_name("PIEIER_PIEIFR")
   10237                      .dwattr $C$DW$948, DW_AT_TI_symbol_name("_PIEIER_PIEIFR")
   10238                      .dwattr $C$DW$948, DW_AT_data_member_location[DW_OP_plus_uconst 0x2]
   10239                      .dwattr $C$DW$948, DW_AT_accessibility(DW_ACCESS_public)
   10240              
   10241              $C$DW$949       .dwtag  DW_TAG_member
   10242                      .dwattr $C$DW$949, DW_AT_type(*$C$DW$T$148)
   10243                      .dwattr $C$DW$949, DW_AT_name("rsvd_1")
   10244                      .dwattr $C$DW$949, DW_AT_TI_symbol_name("_rsvd_1")
   10245                      .dwattr $C$DW$949, DW_AT_data_member_location[DW_OP_plus_uconst 0x1a]
   10246                      .dwattr $C$DW$949, DW_AT_accessibility(DW_ACCESS_public)
   10247              
   10248              $C$DW$950       .dwtag  DW_TAG_member
   10249                      .dwattr $C$DW$950, DW_AT_type(*$C$DW$T$152)
   10250                      .dwattr $C$DW$950, DW_AT_name("Reset")
   10251                      .dwattr $C$DW$950, DW_AT_TI_symbol_name("_Reset")
   10252                      .dwattr $C$DW$950, DW_AT_data_member_location[DW_OP_plus_uconst 0x20]
   10253                      .dwattr $C$DW$950, DW_AT_accessibility(DW_ACCESS_public)
   10254              
   10255              $C$DW$951       .dwtag  DW_TAG_member
   10256                      .dwattr $C$DW$951, DW_AT_type(*$C$DW$T$152)
   10257                      .dwattr $C$DW$951, DW_AT_name("INT1")
   10258                      .dwattr $C$DW$951, DW_AT_TI_symbol_name("_INT1")
   10259                      .dwattr $C$DW$951, DW_AT_data_member_location[DW_OP_plus_uconst 0x22]
   10260                      .dwattr $C$DW$951, DW_AT_accessibility(DW_ACCESS_public)
   10261              
   10262              $C$DW$952       .dwtag  DW_TAG_member
TMS320C2000 Assembler PC v22.6.0 Tue Apr 18 11:09:46 2023

Copyright (c) 1996-2018 Texas Instruments Incorporated
C:\Users\User\AppData\Local\Temp\{F169EDD6-E2A2-400A-8386-A823CBD75D49} PAGE  194

   10263                      .dwattr $C$DW$952, DW_AT_type(*$C$DW$T$152)
   10264                      .dwattr $C$DW$952, DW_AT_name("INT2")
   10265                      .dwattr $C$DW$952, DW_AT_TI_symbol_name("_INT2")
   10266                      .dwattr $C$DW$952, DW_AT_data_member_location[DW_OP_plus_uconst 0x24]
   10267                      .dwattr $C$DW$952, DW_AT_accessibility(DW_ACCESS_public)
   10268              
   10269              $C$DW$953       .dwtag  DW_TAG_member
   10270                      .dwattr $C$DW$953, DW_AT_type(*$C$DW$T$152)
   10271                      .dwattr $C$DW$953, DW_AT_name("INT3")
   10272                      .dwattr $C$DW$953, DW_AT_TI_symbol_name("_INT3")
   10273                      .dwattr $C$DW$953, DW_AT_data_member_location[DW_OP_plus_uconst 0x26]
   10274                      .dwattr $C$DW$953, DW_AT_accessibility(DW_ACCESS_public)
   10275              
   10276              $C$DW$954       .dwtag  DW_TAG_member
   10277                      .dwattr $C$DW$954, DW_AT_type(*$C$DW$T$152)
   10278                      .dwattr $C$DW$954, DW_AT_name("INT4")
   10279                      .dwattr $C$DW$954, DW_AT_TI_symbol_name("_INT4")
   10280                      .dwattr $C$DW$954, DW_AT_data_member_location[DW_OP_plus_uconst 0x28]
   10281                      .dwattr $C$DW$954, DW_AT_accessibility(DW_ACCESS_public)
   10282              
   10283              $C$DW$955       .dwtag  DW_TAG_member
   10284                      .dwattr $C$DW$955, DW_AT_type(*$C$DW$T$152)
   10285                      .dwattr $C$DW$955, DW_AT_name("INT5")
   10286                      .dwattr $C$DW$955, DW_AT_TI_symbol_name("_INT5")
   10287                      .dwattr $C$DW$955, DW_AT_data_member_location[DW_OP_plus_uconst 0x2a]
   10288                      .dwattr $C$DW$955, DW_AT_accessibility(DW_ACCESS_public)
   10289              
   10290              $C$DW$956       .dwtag  DW_TAG_member
   10291                      .dwattr $C$DW$956, DW_AT_type(*$C$DW$T$152)
   10292                      .dwattr $C$DW$956, DW_AT_name("INT6")
   10293                      .dwattr $C$DW$956, DW_AT_TI_symbol_name("_INT6")
   10294                      .dwattr $C$DW$956, DW_AT_data_member_location[DW_OP_plus_uconst 0x2c]
   10295                      .dwattr $C$DW$956, DW_AT_accessibility(DW_ACCESS_public)
   10296              
   10297              $C$DW$957       .dwtag  DW_TAG_member
   10298                      .dwattr $C$DW$957, DW_AT_type(*$C$DW$T$152)
   10299                      .dwattr $C$DW$957, DW_AT_name("INT7")
   10300                      .dwattr $C$DW$957, DW_AT_TI_symbol_name("_INT7")
   10301                      .dwattr $C$DW$957, DW_AT_data_member_location[DW_OP_plus_uconst 0x2e]
   10302                      .dwattr $C$DW$957, DW_AT_accessibility(DW_ACCESS_public)
   10303              
   10304              $C$DW$958       .dwtag  DW_TAG_member
   10305                      .dwattr $C$DW$958, DW_AT_type(*$C$DW$T$152)
   10306                      .dwattr $C$DW$958, DW_AT_name("INT8")
   10307                      .dwattr $C$DW$958, DW_AT_TI_symbol_name("_INT8")
   10308                      .dwattr $C$DW$958, DW_AT_data_member_location[DW_OP_plus_uconst 0x30]
   10309                      .dwattr $C$DW$958, DW_AT_accessibility(DW_ACCESS_public)
   10310              
   10311              $C$DW$959       .dwtag  DW_TAG_member
   10312                      .dwattr $C$DW$959, DW_AT_type(*$C$DW$T$152)
   10313                      .dwattr $C$DW$959, DW_AT_name("INT9")
   10314                      .dwattr $C$DW$959, DW_AT_TI_symbol_name("_INT9")
   10315                      .dwattr $C$DW$959, DW_AT_data_member_location[DW_OP_plus_uconst 0x32]
   10316                      .dwattr $C$DW$959, DW_AT_accessibility(DW_ACCESS_public)
   10317              
TMS320C2000 Assembler PC v22.6.0 Tue Apr 18 11:09:46 2023

Copyright (c) 1996-2018 Texas Instruments Incorporated
C:\Users\User\AppData\Local\Temp\{F169EDD6-E2A2-400A-8386-A823CBD75D49} PAGE  195

   10318              $C$DW$960       .dwtag  DW_TAG_member
   10319                      .dwattr $C$DW$960, DW_AT_type(*$C$DW$T$152)
   10320                      .dwattr $C$DW$960, DW_AT_name("INT10")
   10321                      .dwattr $C$DW$960, DW_AT_TI_symbol_name("_INT10")
   10322                      .dwattr $C$DW$960, DW_AT_data_member_location[DW_OP_plus_uconst 0x34]
   10323                      .dwattr $C$DW$960, DW_AT_accessibility(DW_ACCESS_public)
   10324              
   10325              $C$DW$961       .dwtag  DW_TAG_member
   10326                      .dwattr $C$DW$961, DW_AT_type(*$C$DW$T$152)
   10327                      .dwattr $C$DW$961, DW_AT_name("INT11")
   10328                      .dwattr $C$DW$961, DW_AT_TI_symbol_name("_INT11")
   10329                      .dwattr $C$DW$961, DW_AT_data_member_location[DW_OP_plus_uconst 0x36]
   10330                      .dwattr $C$DW$961, DW_AT_accessibility(DW_ACCESS_public)
   10331              
   10332              $C$DW$962       .dwtag  DW_TAG_member
   10333                      .dwattr $C$DW$962, DW_AT_type(*$C$DW$T$152)
   10334                      .dwattr $C$DW$962, DW_AT_name("INT12")
   10335                      .dwattr $C$DW$962, DW_AT_TI_symbol_name("_INT12")
   10336                      .dwattr $C$DW$962, DW_AT_data_member_location[DW_OP_plus_uconst 0x38]
   10337                      .dwattr $C$DW$962, DW_AT_accessibility(DW_ACCESS_public)
   10338              
   10339              $C$DW$963       .dwtag  DW_TAG_member
   10340                      .dwattr $C$DW$963, DW_AT_type(*$C$DW$T$152)
   10341                      .dwattr $C$DW$963, DW_AT_name("TINT1")
   10342                      .dwattr $C$DW$963, DW_AT_TI_symbol_name("_TINT1")
   10343                      .dwattr $C$DW$963, DW_AT_data_member_location[DW_OP_plus_uconst 0x3a]
   10344                      .dwattr $C$DW$963, DW_AT_accessibility(DW_ACCESS_public)
   10345              
   10346              $C$DW$964       .dwtag  DW_TAG_member
   10347                      .dwattr $C$DW$964, DW_AT_type(*$C$DW$T$152)
   10348                      .dwattr $C$DW$964, DW_AT_name("TINT2")
   10349                      .dwattr $C$DW$964, DW_AT_TI_symbol_name("_TINT2")
   10350                      .dwattr $C$DW$964, DW_AT_data_member_location[DW_OP_plus_uconst 0x3c]
   10351                      .dwattr $C$DW$964, DW_AT_accessibility(DW_ACCESS_public)
   10352              
   10353              $C$DW$965       .dwtag  DW_TAG_member
   10354                      .dwattr $C$DW$965, DW_AT_type(*$C$DW$T$152)
   10355                      .dwattr $C$DW$965, DW_AT_name("DATALOG")
   10356                      .dwattr $C$DW$965, DW_AT_TI_symbol_name("_DATALOG")
   10357                      .dwattr $C$DW$965, DW_AT_data_member_location[DW_OP_plus_uconst 0x3e]
   10358                      .dwattr $C$DW$965, DW_AT_accessibility(DW_ACCESS_public)
   10359              
   10360              $C$DW$966       .dwtag  DW_TAG_member
   10361                      .dwattr $C$DW$966, DW_AT_type(*$C$DW$T$152)
   10362                      .dwattr $C$DW$966, DW_AT_name("RTOSINT")
   10363                      .dwattr $C$DW$966, DW_AT_TI_symbol_name("_RTOSINT")
   10364                      .dwattr $C$DW$966, DW_AT_data_member_location[DW_OP_plus_uconst 0x40]
   10365                      .dwattr $C$DW$966, DW_AT_accessibility(DW_ACCESS_public)
   10366              
   10367              $C$DW$967       .dwtag  DW_TAG_member
   10368                      .dwattr $C$DW$967, DW_AT_type(*$C$DW$T$152)
   10369                      .dwattr $C$DW$967, DW_AT_name("EMUINT")
   10370                      .dwattr $C$DW$967, DW_AT_TI_symbol_name("_EMUINT")
   10371                      .dwattr $C$DW$967, DW_AT_data_member_location[DW_OP_plus_uconst 0x42]
   10372                      .dwattr $C$DW$967, DW_AT_accessibility(DW_ACCESS_public)
TMS320C2000 Assembler PC v22.6.0 Tue Apr 18 11:09:46 2023

Copyright (c) 1996-2018 Texas Instruments Incorporated
C:\Users\User\AppData\Local\Temp\{F169EDD6-E2A2-400A-8386-A823CBD75D49} PAGE  196

   10373              
   10374              $C$DW$968       .dwtag  DW_TAG_member
   10375                      .dwattr $C$DW$968, DW_AT_type(*$C$DW$T$152)
   10376                      .dwattr $C$DW$968, DW_AT_name("NMI")
   10377                      .dwattr $C$DW$968, DW_AT_TI_symbol_name("_NMI")
   10378                      .dwattr $C$DW$968, DW_AT_data_member_location[DW_OP_plus_uconst 0x44]
   10379                      .dwattr $C$DW$968, DW_AT_accessibility(DW_ACCESS_public)
   10380              
   10381              $C$DW$969       .dwtag  DW_TAG_member
   10382                      .dwattr $C$DW$969, DW_AT_type(*$C$DW$T$152)
   10383                      .dwattr $C$DW$969, DW_AT_name("ILLEGAL")
   10384                      .dwattr $C$DW$969, DW_AT_TI_symbol_name("_ILLEGAL")
   10385                      .dwattr $C$DW$969, DW_AT_data_member_location[DW_OP_plus_uconst 0x46]
   10386                      .dwattr $C$DW$969, DW_AT_accessibility(DW_ACCESS_public)
   10387              
   10388              $C$DW$970       .dwtag  DW_TAG_member
   10389                      .dwattr $C$DW$970, DW_AT_type(*$C$DW$T$152)
   10390                      .dwattr $C$DW$970, DW_AT_name("USER1")
   10391                      .dwattr $C$DW$970, DW_AT_TI_symbol_name("_USER1")
   10392                      .dwattr $C$DW$970, DW_AT_data_member_location[DW_OP_plus_uconst 0x48]
   10393                      .dwattr $C$DW$970, DW_AT_accessibility(DW_ACCESS_public)
   10394              
   10395              $C$DW$971       .dwtag  DW_TAG_member
   10396                      .dwattr $C$DW$971, DW_AT_type(*$C$DW$T$152)
   10397                      .dwattr $C$DW$971, DW_AT_name("USER2")
   10398                      .dwattr $C$DW$971, DW_AT_TI_symbol_name("_USER2")
   10399                      .dwattr $C$DW$971, DW_AT_data_member_location[DW_OP_plus_uconst 0x4a]
   10400                      .dwattr $C$DW$971, DW_AT_accessibility(DW_ACCESS_public)
   10401              
   10402              $C$DW$972       .dwtag  DW_TAG_member
   10403                      .dwattr $C$DW$972, DW_AT_type(*$C$DW$T$152)
   10404                      .dwattr $C$DW$972, DW_AT_name("USER3")
   10405                      .dwattr $C$DW$972, DW_AT_TI_symbol_name("_USER3")
   10406                      .dwattr $C$DW$972, DW_AT_data_member_location[DW_OP_plus_uconst 0x4c]
   10407                      .dwattr $C$DW$972, DW_AT_accessibility(DW_ACCESS_public)
   10408              
   10409              $C$DW$973       .dwtag  DW_TAG_member
   10410                      .dwattr $C$DW$973, DW_AT_type(*$C$DW$T$152)
   10411                      .dwattr $C$DW$973, DW_AT_name("USER4")
   10412                      .dwattr $C$DW$973, DW_AT_TI_symbol_name("_USER4")
   10413                      .dwattr $C$DW$973, DW_AT_data_member_location[DW_OP_plus_uconst 0x4e]
   10414                      .dwattr $C$DW$973, DW_AT_accessibility(DW_ACCESS_public)
   10415              
   10416              $C$DW$974       .dwtag  DW_TAG_member
   10417                      .dwattr $C$DW$974, DW_AT_type(*$C$DW$T$152)
   10418                      .dwattr $C$DW$974, DW_AT_name("USER5")
   10419                      .dwattr $C$DW$974, DW_AT_TI_symbol_name("_USER5")
   10420                      .dwattr $C$DW$974, DW_AT_data_member_location[DW_OP_plus_uconst 0x50]
   10421                      .dwattr $C$DW$974, DW_AT_accessibility(DW_ACCESS_public)
   10422              
   10423              $C$DW$975       .dwtag  DW_TAG_member
   10424                      .dwattr $C$DW$975, DW_AT_type(*$C$DW$T$152)
   10425                      .dwattr $C$DW$975, DW_AT_name("USER6")
   10426                      .dwattr $C$DW$975, DW_AT_TI_symbol_name("_USER6")
   10427                      .dwattr $C$DW$975, DW_AT_data_member_location[DW_OP_plus_uconst 0x52]
TMS320C2000 Assembler PC v22.6.0 Tue Apr 18 11:09:46 2023

Copyright (c) 1996-2018 Texas Instruments Incorporated
C:\Users\User\AppData\Local\Temp\{F169EDD6-E2A2-400A-8386-A823CBD75D49} PAGE  197

   10428                      .dwattr $C$DW$975, DW_AT_accessibility(DW_ACCESS_public)
   10429              
   10430              $C$DW$976       .dwtag  DW_TAG_member
   10431                      .dwattr $C$DW$976, DW_AT_type(*$C$DW$T$152)
   10432                      .dwattr $C$DW$976, DW_AT_name("USER7")
   10433                      .dwattr $C$DW$976, DW_AT_TI_symbol_name("_USER7")
   10434                      .dwattr $C$DW$976, DW_AT_data_member_location[DW_OP_plus_uconst 0x54]
   10435                      .dwattr $C$DW$976, DW_AT_accessibility(DW_ACCESS_public)
   10436              
   10437              $C$DW$977       .dwtag  DW_TAG_member
   10438                      .dwattr $C$DW$977, DW_AT_type(*$C$DW$T$152)
   10439                      .dwattr $C$DW$977, DW_AT_name("USER8")
   10440                      .dwattr $C$DW$977, DW_AT_TI_symbol_name("_USER8")
   10441                      .dwattr $C$DW$977, DW_AT_data_member_location[DW_OP_plus_uconst 0x56]
   10442                      .dwattr $C$DW$977, DW_AT_accessibility(DW_ACCESS_public)
   10443              
   10444              $C$DW$978       .dwtag  DW_TAG_member
   10445                      .dwattr $C$DW$978, DW_AT_type(*$C$DW$T$152)
   10446                      .dwattr $C$DW$978, DW_AT_name("USER9")
   10447                      .dwattr $C$DW$978, DW_AT_TI_symbol_name("_USER9")
   10448                      .dwattr $C$DW$978, DW_AT_data_member_location[DW_OP_plus_uconst 0x58]
   10449                      .dwattr $C$DW$978, DW_AT_accessibility(DW_ACCESS_public)
   10450              
   10451              $C$DW$979       .dwtag  DW_TAG_member
   10452                      .dwattr $C$DW$979, DW_AT_type(*$C$DW$T$152)
   10453                      .dwattr $C$DW$979, DW_AT_name("USER10")
   10454                      .dwattr $C$DW$979, DW_AT_TI_symbol_name("_USER10")
   10455                      .dwattr $C$DW$979, DW_AT_data_member_location[DW_OP_plus_uconst 0x5a]
   10456                      .dwattr $C$DW$979, DW_AT_accessibility(DW_ACCESS_public)
   10457              
   10458              $C$DW$980       .dwtag  DW_TAG_member
   10459                      .dwattr $C$DW$980, DW_AT_type(*$C$DW$T$152)
   10460                      .dwattr $C$DW$980, DW_AT_name("USER11")
   10461                      .dwattr $C$DW$980, DW_AT_TI_symbol_name("_USER11")
   10462                      .dwattr $C$DW$980, DW_AT_data_member_location[DW_OP_plus_uconst 0x5c]
   10463                      .dwattr $C$DW$980, DW_AT_accessibility(DW_ACCESS_public)
   10464              
   10465              $C$DW$981       .dwtag  DW_TAG_member
   10466                      .dwattr $C$DW$981, DW_AT_type(*$C$DW$T$152)
   10467                      .dwattr $C$DW$981, DW_AT_name("USER12")
   10468                      .dwattr $C$DW$981, DW_AT_TI_symbol_name("_USER12")
   10469                      .dwattr $C$DW$981, DW_AT_data_member_location[DW_OP_plus_uconst 0x5e]
   10470                      .dwattr $C$DW$981, DW_AT_accessibility(DW_ACCESS_public)
   10471              
   10472              $C$DW$982       .dwtag  DW_TAG_member
   10473                      .dwattr $C$DW$982, DW_AT_type(*$C$DW$T$152)
   10474                      .dwattr $C$DW$982, DW_AT_name("ADCINT1_HP")
   10475                      .dwattr $C$DW$982, DW_AT_TI_symbol_name("_ADCINT1_HP")
   10476                      .dwattr $C$DW$982, DW_AT_data_member_location[DW_OP_plus_uconst 0x60]
   10477                      .dwattr $C$DW$982, DW_AT_accessibility(DW_ACCESS_public)
   10478              
   10479              $C$DW$983       .dwtag  DW_TAG_member
   10480                      .dwattr $C$DW$983, DW_AT_type(*$C$DW$T$152)
   10481                      .dwattr $C$DW$983, DW_AT_name("ADCINT2_HP")
   10482                      .dwattr $C$DW$983, DW_AT_TI_symbol_name("_ADCINT2_HP")
TMS320C2000 Assembler PC v22.6.0 Tue Apr 18 11:09:46 2023

Copyright (c) 1996-2018 Texas Instruments Incorporated
C:\Users\User\AppData\Local\Temp\{F169EDD6-E2A2-400A-8386-A823CBD75D49} PAGE  198

   10483                      .dwattr $C$DW$983, DW_AT_data_member_location[DW_OP_plus_uconst 0x62]
   10484                      .dwattr $C$DW$983, DW_AT_accessibility(DW_ACCESS_public)
   10485              
   10486              $C$DW$984       .dwtag  DW_TAG_member
   10487                      .dwattr $C$DW$984, DW_AT_type(*$C$DW$T$152)
   10488                      .dwattr $C$DW$984, DW_AT_name("rsvd1_3")
   10489                      .dwattr $C$DW$984, DW_AT_TI_symbol_name("_rsvd1_3")
   10490                      .dwattr $C$DW$984, DW_AT_data_member_location[DW_OP_plus_uconst 0x64]
   10491                      .dwattr $C$DW$984, DW_AT_accessibility(DW_ACCESS_public)
   10492              
   10493              $C$DW$985       .dwtag  DW_TAG_member
   10494                      .dwattr $C$DW$985, DW_AT_type(*$C$DW$T$152)
   10495                      .dwattr $C$DW$985, DW_AT_name("XINT1")
   10496                      .dwattr $C$DW$985, DW_AT_TI_symbol_name("_XINT1")
   10497                      .dwattr $C$DW$985, DW_AT_data_member_location[DW_OP_plus_uconst 0x66]
   10498                      .dwattr $C$DW$985, DW_AT_accessibility(DW_ACCESS_public)
   10499              
   10500              $C$DW$986       .dwtag  DW_TAG_member
   10501                      .dwattr $C$DW$986, DW_AT_type(*$C$DW$T$152)
   10502                      .dwattr $C$DW$986, DW_AT_name("XINT2")
   10503                      .dwattr $C$DW$986, DW_AT_TI_symbol_name("_XINT2")
   10504                      .dwattr $C$DW$986, DW_AT_data_member_location[DW_OP_plus_uconst 0x68]
   10505                      .dwattr $C$DW$986, DW_AT_accessibility(DW_ACCESS_public)
   10506              
   10507              $C$DW$987       .dwtag  DW_TAG_member
   10508                      .dwattr $C$DW$987, DW_AT_type(*$C$DW$T$152)
   10509                      .dwattr $C$DW$987, DW_AT_name("ADCINT9")
   10510                      .dwattr $C$DW$987, DW_AT_TI_symbol_name("_ADCINT9")
   10511                      .dwattr $C$DW$987, DW_AT_data_member_location[DW_OP_plus_uconst 0x6a]
   10512                      .dwattr $C$DW$987, DW_AT_accessibility(DW_ACCESS_public)
   10513              
   10514              $C$DW$988       .dwtag  DW_TAG_member
   10515                      .dwattr $C$DW$988, DW_AT_type(*$C$DW$T$152)
   10516                      .dwattr $C$DW$988, DW_AT_name("TINT0")
   10517                      .dwattr $C$DW$988, DW_AT_TI_symbol_name("_TINT0")
   10518                      .dwattr $C$DW$988, DW_AT_data_member_location[DW_OP_plus_uconst 0x6c]
   10519                      .dwattr $C$DW$988, DW_AT_accessibility(DW_ACCESS_public)
   10520              
   10521              $C$DW$989       .dwtag  DW_TAG_member
   10522                      .dwattr $C$DW$989, DW_AT_type(*$C$DW$T$152)
   10523                      .dwattr $C$DW$989, DW_AT_name("WAKEINT")
   10524                      .dwattr $C$DW$989, DW_AT_TI_symbol_name("_WAKEINT")
   10525                      .dwattr $C$DW$989, DW_AT_data_member_location[DW_OP_plus_uconst 0x6e]
   10526                      .dwattr $C$DW$989, DW_AT_accessibility(DW_ACCESS_public)
   10527              
   10528              $C$DW$990       .dwtag  DW_TAG_member
   10529                      .dwattr $C$DW$990, DW_AT_type(*$C$DW$T$152)
   10530                      .dwattr $C$DW$990, DW_AT_name("EPWM1_TZINT")
   10531                      .dwattr $C$DW$990, DW_AT_TI_symbol_name("_EPWM1_TZINT")
   10532                      .dwattr $C$DW$990, DW_AT_data_member_location[DW_OP_plus_uconst 0x70]
   10533                      .dwattr $C$DW$990, DW_AT_accessibility(DW_ACCESS_public)
   10534              
   10535              $C$DW$991       .dwtag  DW_TAG_member
   10536                      .dwattr $C$DW$991, DW_AT_type(*$C$DW$T$152)
   10537                      .dwattr $C$DW$991, DW_AT_name("EPWM2_TZINT")
TMS320C2000 Assembler PC v22.6.0 Tue Apr 18 11:09:46 2023

Copyright (c) 1996-2018 Texas Instruments Incorporated
C:\Users\User\AppData\Local\Temp\{F169EDD6-E2A2-400A-8386-A823CBD75D49} PAGE  199

   10538                      .dwattr $C$DW$991, DW_AT_TI_symbol_name("_EPWM2_TZINT")
   10539                      .dwattr $C$DW$991, DW_AT_data_member_location[DW_OP_plus_uconst 0x72]
   10540                      .dwattr $C$DW$991, DW_AT_accessibility(DW_ACCESS_public)
   10541              
   10542              $C$DW$992       .dwtag  DW_TAG_member
   10543                      .dwattr $C$DW$992, DW_AT_type(*$C$DW$T$152)
   10544                      .dwattr $C$DW$992, DW_AT_name("EPWM3_TZINT")
   10545                      .dwattr $C$DW$992, DW_AT_TI_symbol_name("_EPWM3_TZINT")
   10546                      .dwattr $C$DW$992, DW_AT_data_member_location[DW_OP_plus_uconst 0x74]
   10547                      .dwattr $C$DW$992, DW_AT_accessibility(DW_ACCESS_public)
   10548              
   10549              $C$DW$993       .dwtag  DW_TAG_member
   10550                      .dwattr $C$DW$993, DW_AT_type(*$C$DW$T$152)
   10551                      .dwattr $C$DW$993, DW_AT_name("EPWM4_TZINT")
   10552                      .dwattr $C$DW$993, DW_AT_TI_symbol_name("_EPWM4_TZINT")
   10553                      .dwattr $C$DW$993, DW_AT_data_member_location[DW_OP_plus_uconst 0x76]
   10554                      .dwattr $C$DW$993, DW_AT_accessibility(DW_ACCESS_public)
   10555              
   10556              $C$DW$994       .dwtag  DW_TAG_member
   10557                      .dwattr $C$DW$994, DW_AT_type(*$C$DW$T$152)
   10558                      .dwattr $C$DW$994, DW_AT_name("EPWM5_TZINT")
   10559                      .dwattr $C$DW$994, DW_AT_TI_symbol_name("_EPWM5_TZINT")
   10560                      .dwattr $C$DW$994, DW_AT_data_member_location[DW_OP_plus_uconst 0x78]
   10561                      .dwattr $C$DW$994, DW_AT_accessibility(DW_ACCESS_public)
   10562              
   10563              $C$DW$995       .dwtag  DW_TAG_member
   10564                      .dwattr $C$DW$995, DW_AT_type(*$C$DW$T$152)
   10565                      .dwattr $C$DW$995, DW_AT_name("EPWM6_TZINT")
   10566                      .dwattr $C$DW$995, DW_AT_TI_symbol_name("_EPWM6_TZINT")
   10567                      .dwattr $C$DW$995, DW_AT_data_member_location[DW_OP_plus_uconst 0x7a]
   10568                      .dwattr $C$DW$995, DW_AT_accessibility(DW_ACCESS_public)
   10569              
   10570              $C$DW$996       .dwtag  DW_TAG_member
   10571                      .dwattr $C$DW$996, DW_AT_type(*$C$DW$T$152)
   10572                      .dwattr $C$DW$996, DW_AT_name("EPWM7_TZINT")
   10573                      .dwattr $C$DW$996, DW_AT_TI_symbol_name("_EPWM7_TZINT")
   10574                      .dwattr $C$DW$996, DW_AT_data_member_location[DW_OP_plus_uconst 0x7c]
   10575                      .dwattr $C$DW$996, DW_AT_accessibility(DW_ACCESS_public)
   10576              
   10577              $C$DW$997       .dwtag  DW_TAG_member
   10578                      .dwattr $C$DW$997, DW_AT_type(*$C$DW$T$152)
   10579                      .dwattr $C$DW$997, DW_AT_name("EPWM8_TZINT")
   10580                      .dwattr $C$DW$997, DW_AT_TI_symbol_name("_EPWM8_TZINT")
   10581                      .dwattr $C$DW$997, DW_AT_data_member_location[DW_OP_plus_uconst 0x7e]
   10582                      .dwattr $C$DW$997, DW_AT_accessibility(DW_ACCESS_public)
   10583              
   10584              $C$DW$998       .dwtag  DW_TAG_member
   10585                      .dwattr $C$DW$998, DW_AT_type(*$C$DW$T$152)
   10586                      .dwattr $C$DW$998, DW_AT_name("EPWM1_INT")
   10587                      .dwattr $C$DW$998, DW_AT_TI_symbol_name("_EPWM1_INT")
   10588                      .dwattr $C$DW$998, DW_AT_data_member_location[DW_OP_plus_uconst 0x80]
   10589                      .dwattr $C$DW$998, DW_AT_accessibility(DW_ACCESS_public)
   10590              
   10591              $C$DW$999       .dwtag  DW_TAG_member
   10592                      .dwattr $C$DW$999, DW_AT_type(*$C$DW$T$152)
TMS320C2000 Assembler PC v22.6.0 Tue Apr 18 11:09:46 2023

Copyright (c) 1996-2018 Texas Instruments Incorporated
C:\Users\User\AppData\Local\Temp\{F169EDD6-E2A2-400A-8386-A823CBD75D49} PAGE  200

   10593                      .dwattr $C$DW$999, DW_AT_name("EPWM2_INT")
   10594                      .dwattr $C$DW$999, DW_AT_TI_symbol_name("_EPWM2_INT")
   10595                      .dwattr $C$DW$999, DW_AT_data_member_location[DW_OP_plus_uconst 0x82]
   10596                      .dwattr $C$DW$999, DW_AT_accessibility(DW_ACCESS_public)
   10597              
   10598              $C$DW$1000      .dwtag  DW_TAG_member
   10599                      .dwattr $C$DW$1000, DW_AT_type(*$C$DW$T$152)
   10600                      .dwattr $C$DW$1000, DW_AT_name("EPWM3_INT")
   10601                      .dwattr $C$DW$1000, DW_AT_TI_symbol_name("_EPWM3_INT")
   10602                      .dwattr $C$DW$1000, DW_AT_data_member_location[DW_OP_plus_uconst 0x84]
   10603                      .dwattr $C$DW$1000, DW_AT_accessibility(DW_ACCESS_public)
   10604              
   10605              $C$DW$1001      .dwtag  DW_TAG_member
   10606                      .dwattr $C$DW$1001, DW_AT_type(*$C$DW$T$152)
   10607                      .dwattr $C$DW$1001, DW_AT_name("EPWM4_INT")
   10608                      .dwattr $C$DW$1001, DW_AT_TI_symbol_name("_EPWM4_INT")
   10609                      .dwattr $C$DW$1001, DW_AT_data_member_location[DW_OP_plus_uconst 0x86]
   10610                      .dwattr $C$DW$1001, DW_AT_accessibility(DW_ACCESS_public)
   10611              
   10612              $C$DW$1002      .dwtag  DW_TAG_member
   10613                      .dwattr $C$DW$1002, DW_AT_type(*$C$DW$T$152)
   10614                      .dwattr $C$DW$1002, DW_AT_name("EPWM5_INT")
   10615                      .dwattr $C$DW$1002, DW_AT_TI_symbol_name("_EPWM5_INT")
   10616                      .dwattr $C$DW$1002, DW_AT_data_member_location[DW_OP_plus_uconst 0x88]
   10617                      .dwattr $C$DW$1002, DW_AT_accessibility(DW_ACCESS_public)
   10618              
   10619              $C$DW$1003      .dwtag  DW_TAG_member
   10620                      .dwattr $C$DW$1003, DW_AT_type(*$C$DW$T$152)
   10621                      .dwattr $C$DW$1003, DW_AT_name("EPWM6_INT")
   10622                      .dwattr $C$DW$1003, DW_AT_TI_symbol_name("_EPWM6_INT")
   10623                      .dwattr $C$DW$1003, DW_AT_data_member_location[DW_OP_plus_uconst 0x8a]
   10624                      .dwattr $C$DW$1003, DW_AT_accessibility(DW_ACCESS_public)
   10625              
   10626              $C$DW$1004      .dwtag  DW_TAG_member
   10627                      .dwattr $C$DW$1004, DW_AT_type(*$C$DW$T$152)
   10628                      .dwattr $C$DW$1004, DW_AT_name("EPWM7_INT")
   10629                      .dwattr $C$DW$1004, DW_AT_TI_symbol_name("_EPWM7_INT")
   10630                      .dwattr $C$DW$1004, DW_AT_data_member_location[DW_OP_plus_uconst 0x8c]
   10631                      .dwattr $C$DW$1004, DW_AT_accessibility(DW_ACCESS_public)
   10632              
   10633              $C$DW$1005      .dwtag  DW_TAG_member
   10634                      .dwattr $C$DW$1005, DW_AT_type(*$C$DW$T$152)
   10635                      .dwattr $C$DW$1005, DW_AT_name("EPWM8_INT")
   10636                      .dwattr $C$DW$1005, DW_AT_TI_symbol_name("_EPWM8_INT")
   10637                      .dwattr $C$DW$1005, DW_AT_data_member_location[DW_OP_plus_uconst 0x8e]
   10638                      .dwattr $C$DW$1005, DW_AT_accessibility(DW_ACCESS_public)
   10639              
   10640              $C$DW$1006      .dwtag  DW_TAG_member
   10641                      .dwattr $C$DW$1006, DW_AT_type(*$C$DW$T$152)
   10642                      .dwattr $C$DW$1006, DW_AT_name("ECAP1_INT")
   10643                      .dwattr $C$DW$1006, DW_AT_TI_symbol_name("_ECAP1_INT")
   10644                      .dwattr $C$DW$1006, DW_AT_data_member_location[DW_OP_plus_uconst 0x90]
   10645                      .dwattr $C$DW$1006, DW_AT_accessibility(DW_ACCESS_public)
   10646              
   10647              $C$DW$1007      .dwtag  DW_TAG_member
TMS320C2000 Assembler PC v22.6.0 Tue Apr 18 11:09:46 2023

Copyright (c) 1996-2018 Texas Instruments Incorporated
C:\Users\User\AppData\Local\Temp\{F169EDD6-E2A2-400A-8386-A823CBD75D49} PAGE  201

   10648                      .dwattr $C$DW$1007, DW_AT_type(*$C$DW$T$152)
   10649                      .dwattr $C$DW$1007, DW_AT_name("ECAP2_INT")
   10650                      .dwattr $C$DW$1007, DW_AT_TI_symbol_name("_ECAP2_INT")
   10651                      .dwattr $C$DW$1007, DW_AT_data_member_location[DW_OP_plus_uconst 0x92]
   10652                      .dwattr $C$DW$1007, DW_AT_accessibility(DW_ACCESS_public)
   10653              
   10654              $C$DW$1008      .dwtag  DW_TAG_member
   10655                      .dwattr $C$DW$1008, DW_AT_type(*$C$DW$T$152)
   10656                      .dwattr $C$DW$1008, DW_AT_name("ECAP3_INT")
   10657                      .dwattr $C$DW$1008, DW_AT_TI_symbol_name("_ECAP3_INT")
   10658                      .dwattr $C$DW$1008, DW_AT_data_member_location[DW_OP_plus_uconst 0x94]
   10659                      .dwattr $C$DW$1008, DW_AT_accessibility(DW_ACCESS_public)
   10660              
   10661              $C$DW$1009      .dwtag  DW_TAG_member
   10662                      .dwattr $C$DW$1009, DW_AT_type(*$C$DW$T$152)
   10663                      .dwattr $C$DW$1009, DW_AT_name("rsvd4_4")
   10664                      .dwattr $C$DW$1009, DW_AT_TI_symbol_name("_rsvd4_4")
   10665                      .dwattr $C$DW$1009, DW_AT_data_member_location[DW_OP_plus_uconst 0x96]
   10666                      .dwattr $C$DW$1009, DW_AT_accessibility(DW_ACCESS_public)
   10667              
   10668              $C$DW$1010      .dwtag  DW_TAG_member
   10669                      .dwattr $C$DW$1010, DW_AT_type(*$C$DW$T$152)
   10670                      .dwattr $C$DW$1010, DW_AT_name("rsvd4_5")
   10671                      .dwattr $C$DW$1010, DW_AT_TI_symbol_name("_rsvd4_5")
   10672                      .dwattr $C$DW$1010, DW_AT_data_member_location[DW_OP_plus_uconst 0x98]
   10673                      .dwattr $C$DW$1010, DW_AT_accessibility(DW_ACCESS_public)
   10674              
   10675              $C$DW$1011      .dwtag  DW_TAG_member
   10676                      .dwattr $C$DW$1011, DW_AT_type(*$C$DW$T$152)
   10677                      .dwattr $C$DW$1011, DW_AT_name("rsvd4_6")
   10678                      .dwattr $C$DW$1011, DW_AT_TI_symbol_name("_rsvd4_6")
   10679                      .dwattr $C$DW$1011, DW_AT_data_member_location[DW_OP_plus_uconst 0x9a]
   10680                      .dwattr $C$DW$1011, DW_AT_accessibility(DW_ACCESS_public)
   10681              
   10682              $C$DW$1012      .dwtag  DW_TAG_member
   10683                      .dwattr $C$DW$1012, DW_AT_type(*$C$DW$T$152)
   10684                      .dwattr $C$DW$1012, DW_AT_name("HRCAP1_INT")
   10685                      .dwattr $C$DW$1012, DW_AT_TI_symbol_name("_HRCAP1_INT")
   10686                      .dwattr $C$DW$1012, DW_AT_data_member_location[DW_OP_plus_uconst 0x9c]
   10687                      .dwattr $C$DW$1012, DW_AT_accessibility(DW_ACCESS_public)
   10688              
   10689              $C$DW$1013      .dwtag  DW_TAG_member
   10690                      .dwattr $C$DW$1013, DW_AT_type(*$C$DW$T$152)
   10691                      .dwattr $C$DW$1013, DW_AT_name("HRCAP2_INT")
   10692                      .dwattr $C$DW$1013, DW_AT_TI_symbol_name("_HRCAP2_INT")
   10693                      .dwattr $C$DW$1013, DW_AT_data_member_location[DW_OP_plus_uconst 0x9e]
   10694                      .dwattr $C$DW$1013, DW_AT_accessibility(DW_ACCESS_public)
   10695              
   10696              $C$DW$1014      .dwtag  DW_TAG_member
   10697                      .dwattr $C$DW$1014, DW_AT_type(*$C$DW$T$152)
   10698                      .dwattr $C$DW$1014, DW_AT_name("EQEP1_INT")
   10699                      .dwattr $C$DW$1014, DW_AT_TI_symbol_name("_EQEP1_INT")
   10700                      .dwattr $C$DW$1014, DW_AT_data_member_location[DW_OP_plus_uconst 0xa0]
   10701                      .dwattr $C$DW$1014, DW_AT_accessibility(DW_ACCESS_public)
   10702              
TMS320C2000 Assembler PC v22.6.0 Tue Apr 18 11:09:46 2023

Copyright (c) 1996-2018 Texas Instruments Incorporated
C:\Users\User\AppData\Local\Temp\{F169EDD6-E2A2-400A-8386-A823CBD75D49} PAGE  202

   10703              $C$DW$1015      .dwtag  DW_TAG_member
   10704                      .dwattr $C$DW$1015, DW_AT_type(*$C$DW$T$152)
   10705                      .dwattr $C$DW$1015, DW_AT_name("EQEP2_INT")
   10706                      .dwattr $C$DW$1015, DW_AT_TI_symbol_name("_EQEP2_INT")
   10707                      .dwattr $C$DW$1015, DW_AT_data_member_location[DW_OP_plus_uconst 0xa2]
   10708                      .dwattr $C$DW$1015, DW_AT_accessibility(DW_ACCESS_public)
   10709              
   10710              $C$DW$1016      .dwtag  DW_TAG_member
   10711                      .dwattr $C$DW$1016, DW_AT_type(*$C$DW$T$152)
   10712                      .dwattr $C$DW$1016, DW_AT_name("rsvd5_3")
   10713                      .dwattr $C$DW$1016, DW_AT_TI_symbol_name("_rsvd5_3")
   10714                      .dwattr $C$DW$1016, DW_AT_data_member_location[DW_OP_plus_uconst 0xa4]
   10715                      .dwattr $C$DW$1016, DW_AT_accessibility(DW_ACCESS_public)
   10716              
   10717              $C$DW$1017      .dwtag  DW_TAG_member
   10718                      .dwattr $C$DW$1017, DW_AT_type(*$C$DW$T$152)
   10719                      .dwattr $C$DW$1017, DW_AT_name("HRCAP3_INT")
   10720                      .dwattr $C$DW$1017, DW_AT_TI_symbol_name("_HRCAP3_INT")
   10721                      .dwattr $C$DW$1017, DW_AT_data_member_location[DW_OP_plus_uconst 0xa6]
   10722                      .dwattr $C$DW$1017, DW_AT_accessibility(DW_ACCESS_public)
   10723              
   10724              $C$DW$1018      .dwtag  DW_TAG_member
   10725                      .dwattr $C$DW$1018, DW_AT_type(*$C$DW$T$152)
   10726                      .dwattr $C$DW$1018, DW_AT_name("HRCAP4_INT")
   10727                      .dwattr $C$DW$1018, DW_AT_TI_symbol_name("_HRCAP4_INT")
   10728                      .dwattr $C$DW$1018, DW_AT_data_member_location[DW_OP_plus_uconst 0xa8]
   10729                      .dwattr $C$DW$1018, DW_AT_accessibility(DW_ACCESS_public)
   10730              
   10731              $C$DW$1019      .dwtag  DW_TAG_member
   10732                      .dwattr $C$DW$1019, DW_AT_type(*$C$DW$T$152)
   10733                      .dwattr $C$DW$1019, DW_AT_name("rsvd5_6")
   10734                      .dwattr $C$DW$1019, DW_AT_TI_symbol_name("_rsvd5_6")
   10735                      .dwattr $C$DW$1019, DW_AT_data_member_location[DW_OP_plus_uconst 0xaa]
   10736                      .dwattr $C$DW$1019, DW_AT_accessibility(DW_ACCESS_public)
   10737              
   10738              $C$DW$1020      .dwtag  DW_TAG_member
   10739                      .dwattr $C$DW$1020, DW_AT_type(*$C$DW$T$152)
   10740                      .dwattr $C$DW$1020, DW_AT_name("rsvd5_7")
   10741                      .dwattr $C$DW$1020, DW_AT_TI_symbol_name("_rsvd5_7")
   10742                      .dwattr $C$DW$1020, DW_AT_data_member_location[DW_OP_plus_uconst 0xac]
   10743                      .dwattr $C$DW$1020, DW_AT_accessibility(DW_ACCESS_public)
   10744              
   10745              $C$DW$1021      .dwtag  DW_TAG_member
   10746                      .dwattr $C$DW$1021, DW_AT_type(*$C$DW$T$152)
   10747                      .dwattr $C$DW$1021, DW_AT_name("USB0_INT")
   10748                      .dwattr $C$DW$1021, DW_AT_TI_symbol_name("_USB0_INT")
   10749                      .dwattr $C$DW$1021, DW_AT_data_member_location[DW_OP_plus_uconst 0xae]
   10750                      .dwattr $C$DW$1021, DW_AT_accessibility(DW_ACCESS_public)
   10751              
   10752              $C$DW$1022      .dwtag  DW_TAG_member
   10753                      .dwattr $C$DW$1022, DW_AT_type(*$C$DW$T$152)
   10754                      .dwattr $C$DW$1022, DW_AT_name("SPIRXINTA")
   10755                      .dwattr $C$DW$1022, DW_AT_TI_symbol_name("_SPIRXINTA")
   10756                      .dwattr $C$DW$1022, DW_AT_data_member_location[DW_OP_plus_uconst 0xb0]
   10757                      .dwattr $C$DW$1022, DW_AT_accessibility(DW_ACCESS_public)
TMS320C2000 Assembler PC v22.6.0 Tue Apr 18 11:09:46 2023

Copyright (c) 1996-2018 Texas Instruments Incorporated
C:\Users\User\AppData\Local\Temp\{F169EDD6-E2A2-400A-8386-A823CBD75D49} PAGE  203

   10758              
   10759              $C$DW$1023      .dwtag  DW_TAG_member
   10760                      .dwattr $C$DW$1023, DW_AT_type(*$C$DW$T$152)
   10761                      .dwattr $C$DW$1023, DW_AT_name("SPITXINTA")
   10762                      .dwattr $C$DW$1023, DW_AT_TI_symbol_name("_SPITXINTA")
   10763                      .dwattr $C$DW$1023, DW_AT_data_member_location[DW_OP_plus_uconst 0xb2]
   10764                      .dwattr $C$DW$1023, DW_AT_accessibility(DW_ACCESS_public)
   10765              
   10766              $C$DW$1024      .dwtag  DW_TAG_member
   10767                      .dwattr $C$DW$1024, DW_AT_type(*$C$DW$T$152)
   10768                      .dwattr $C$DW$1024, DW_AT_name("SPIRXINTB")
   10769                      .dwattr $C$DW$1024, DW_AT_TI_symbol_name("_SPIRXINTB")
   10770                      .dwattr $C$DW$1024, DW_AT_data_member_location[DW_OP_plus_uconst 0xb4]
   10771                      .dwattr $C$DW$1024, DW_AT_accessibility(DW_ACCESS_public)
   10772              
   10773              $C$DW$1025      .dwtag  DW_TAG_member
   10774                      .dwattr $C$DW$1025, DW_AT_type(*$C$DW$T$152)
   10775                      .dwattr $C$DW$1025, DW_AT_name("SPITXINTB")
   10776                      .dwattr $C$DW$1025, DW_AT_TI_symbol_name("_SPITXINTB")
   10777                      .dwattr $C$DW$1025, DW_AT_data_member_location[DW_OP_plus_uconst 0xb6]
   10778                      .dwattr $C$DW$1025, DW_AT_accessibility(DW_ACCESS_public)
   10779              
   10780              $C$DW$1026      .dwtag  DW_TAG_member
   10781                      .dwattr $C$DW$1026, DW_AT_type(*$C$DW$T$152)
   10782                      .dwattr $C$DW$1026, DW_AT_name("MCBSPARX")
   10783                      .dwattr $C$DW$1026, DW_AT_TI_symbol_name("_MCBSPARX")
   10784                      .dwattr $C$DW$1026, DW_AT_data_member_location[DW_OP_plus_uconst 0xb8]
   10785                      .dwattr $C$DW$1026, DW_AT_accessibility(DW_ACCESS_public)
   10786              
   10787              $C$DW$1027      .dwtag  DW_TAG_member
   10788                      .dwattr $C$DW$1027, DW_AT_type(*$C$DW$T$152)
   10789                      .dwattr $C$DW$1027, DW_AT_name("MCBSPATX")
   10790                      .dwattr $C$DW$1027, DW_AT_TI_symbol_name("_MCBSPATX")
   10791                      .dwattr $C$DW$1027, DW_AT_data_member_location[DW_OP_plus_uconst 0xba]
   10792                      .dwattr $C$DW$1027, DW_AT_accessibility(DW_ACCESS_public)
   10793              
   10794              $C$DW$1028      .dwtag  DW_TAG_member
   10795                      .dwattr $C$DW$1028, DW_AT_type(*$C$DW$T$152)
   10796                      .dwattr $C$DW$1028, DW_AT_name("rsvd6_7")
   10797                      .dwattr $C$DW$1028, DW_AT_TI_symbol_name("_rsvd6_7")
   10798                      .dwattr $C$DW$1028, DW_AT_data_member_location[DW_OP_plus_uconst 0xbc]
   10799                      .dwattr $C$DW$1028, DW_AT_accessibility(DW_ACCESS_public)
   10800              
   10801              $C$DW$1029      .dwtag  DW_TAG_member
   10802                      .dwattr $C$DW$1029, DW_AT_type(*$C$DW$T$152)
   10803                      .dwattr $C$DW$1029, DW_AT_name("rsvd6_8")
   10804                      .dwattr $C$DW$1029, DW_AT_TI_symbol_name("_rsvd6_8")
   10805                      .dwattr $C$DW$1029, DW_AT_data_member_location[DW_OP_plus_uconst 0xbe]
   10806                      .dwattr $C$DW$1029, DW_AT_accessibility(DW_ACCESS_public)
   10807              
   10808              $C$DW$1030      .dwtag  DW_TAG_member
   10809                      .dwattr $C$DW$1030, DW_AT_type(*$C$DW$T$152)
   10810                      .dwattr $C$DW$1030, DW_AT_name("DMACH1_INT")
   10811                      .dwattr $C$DW$1030, DW_AT_TI_symbol_name("_DMACH1_INT")
   10812                      .dwattr $C$DW$1030, DW_AT_data_member_location[DW_OP_plus_uconst 0xc0]
TMS320C2000 Assembler PC v22.6.0 Tue Apr 18 11:09:46 2023

Copyright (c) 1996-2018 Texas Instruments Incorporated
C:\Users\User\AppData\Local\Temp\{F169EDD6-E2A2-400A-8386-A823CBD75D49} PAGE  204

   10813                      .dwattr $C$DW$1030, DW_AT_accessibility(DW_ACCESS_public)
   10814              
   10815              $C$DW$1031      .dwtag  DW_TAG_member
   10816                      .dwattr $C$DW$1031, DW_AT_type(*$C$DW$T$152)
   10817                      .dwattr $C$DW$1031, DW_AT_name("DMACH2_INT")
   10818                      .dwattr $C$DW$1031, DW_AT_TI_symbol_name("_DMACH2_INT")
   10819                      .dwattr $C$DW$1031, DW_AT_data_member_location[DW_OP_plus_uconst 0xc2]
   10820                      .dwattr $C$DW$1031, DW_AT_accessibility(DW_ACCESS_public)
   10821              
   10822              $C$DW$1032      .dwtag  DW_TAG_member
   10823                      .dwattr $C$DW$1032, DW_AT_type(*$C$DW$T$152)
   10824                      .dwattr $C$DW$1032, DW_AT_name("DMACH3_INT")
   10825                      .dwattr $C$DW$1032, DW_AT_TI_symbol_name("_DMACH3_INT")
   10826                      .dwattr $C$DW$1032, DW_AT_data_member_location[DW_OP_plus_uconst 0xc4]
   10827                      .dwattr $C$DW$1032, DW_AT_accessibility(DW_ACCESS_public)
   10828              
   10829              $C$DW$1033      .dwtag  DW_TAG_member
   10830                      .dwattr $C$DW$1033, DW_AT_type(*$C$DW$T$152)
   10831                      .dwattr $C$DW$1033, DW_AT_name("DMACH4_INT")
   10832                      .dwattr $C$DW$1033, DW_AT_TI_symbol_name("_DMACH4_INT")
   10833                      .dwattr $C$DW$1033, DW_AT_data_member_location[DW_OP_plus_uconst 0xc6]
   10834                      .dwattr $C$DW$1033, DW_AT_accessibility(DW_ACCESS_public)
   10835              
   10836              $C$DW$1034      .dwtag  DW_TAG_member
   10837                      .dwattr $C$DW$1034, DW_AT_type(*$C$DW$T$152)
   10838                      .dwattr $C$DW$1034, DW_AT_name("DMACH5_INT")
   10839                      .dwattr $C$DW$1034, DW_AT_TI_symbol_name("_DMACH5_INT")
   10840                      .dwattr $C$DW$1034, DW_AT_data_member_location[DW_OP_plus_uconst 0xc8]
   10841                      .dwattr $C$DW$1034, DW_AT_accessibility(DW_ACCESS_public)
   10842              
   10843              $C$DW$1035      .dwtag  DW_TAG_member
   10844                      .dwattr $C$DW$1035, DW_AT_type(*$C$DW$T$152)
   10845                      .dwattr $C$DW$1035, DW_AT_name("DMACH6_INT")
   10846                      .dwattr $C$DW$1035, DW_AT_TI_symbol_name("_DMACH6_INT")
   10847                      .dwattr $C$DW$1035, DW_AT_data_member_location[DW_OP_plus_uconst 0xca]
   10848                      .dwattr $C$DW$1035, DW_AT_accessibility(DW_ACCESS_public)
   10849              
   10850              $C$DW$1036      .dwtag  DW_TAG_member
   10851                      .dwattr $C$DW$1036, DW_AT_type(*$C$DW$T$152)
   10852                      .dwattr $C$DW$1036, DW_AT_name("rsvd7_7")
   10853                      .dwattr $C$DW$1036, DW_AT_TI_symbol_name("_rsvd7_7")
   10854                      .dwattr $C$DW$1036, DW_AT_data_member_location[DW_OP_plus_uconst 0xcc]
   10855                      .dwattr $C$DW$1036, DW_AT_accessibility(DW_ACCESS_public)
   10856              
   10857              $C$DW$1037      .dwtag  DW_TAG_member
   10858                      .dwattr $C$DW$1037, DW_AT_type(*$C$DW$T$152)
   10859                      .dwattr $C$DW$1037, DW_AT_name("rsvd7_8")
   10860                      .dwattr $C$DW$1037, DW_AT_TI_symbol_name("_rsvd7_8")
   10861                      .dwattr $C$DW$1037, DW_AT_data_member_location[DW_OP_plus_uconst 0xce]
   10862                      .dwattr $C$DW$1037, DW_AT_accessibility(DW_ACCESS_public)
   10863              
   10864              $C$DW$1038      .dwtag  DW_TAG_member
   10865                      .dwattr $C$DW$1038, DW_AT_type(*$C$DW$T$152)
   10866                      .dwattr $C$DW$1038, DW_AT_name("I2CINT1A")
   10867                      .dwattr $C$DW$1038, DW_AT_TI_symbol_name("_I2CINT1A")
TMS320C2000 Assembler PC v22.6.0 Tue Apr 18 11:09:46 2023

Copyright (c) 1996-2018 Texas Instruments Incorporated
C:\Users\User\AppData\Local\Temp\{F169EDD6-E2A2-400A-8386-A823CBD75D49} PAGE  205

   10868                      .dwattr $C$DW$1038, DW_AT_data_member_location[DW_OP_plus_uconst 0xd0]
   10869                      .dwattr $C$DW$1038, DW_AT_accessibility(DW_ACCESS_public)
   10870              
   10871              $C$DW$1039      .dwtag  DW_TAG_member
   10872                      .dwattr $C$DW$1039, DW_AT_type(*$C$DW$T$152)
   10873                      .dwattr $C$DW$1039, DW_AT_name("I2CINT2A")
   10874                      .dwattr $C$DW$1039, DW_AT_TI_symbol_name("_I2CINT2A")
   10875                      .dwattr $C$DW$1039, DW_AT_data_member_location[DW_OP_plus_uconst 0xd2]
   10876                      .dwattr $C$DW$1039, DW_AT_accessibility(DW_ACCESS_public)
   10877              
   10878              $C$DW$1040      .dwtag  DW_TAG_member
   10879                      .dwattr $C$DW$1040, DW_AT_type(*$C$DW$T$152)
   10880                      .dwattr $C$DW$1040, DW_AT_name("rsvd8_3")
   10881                      .dwattr $C$DW$1040, DW_AT_TI_symbol_name("_rsvd8_3")
   10882                      .dwattr $C$DW$1040, DW_AT_data_member_location[DW_OP_plus_uconst 0xd4]
   10883                      .dwattr $C$DW$1040, DW_AT_accessibility(DW_ACCESS_public)
   10884              
   10885              $C$DW$1041      .dwtag  DW_TAG_member
   10886                      .dwattr $C$DW$1041, DW_AT_type(*$C$DW$T$152)
   10887                      .dwattr $C$DW$1041, DW_AT_name("rsvd8_4")
   10888                      .dwattr $C$DW$1041, DW_AT_TI_symbol_name("_rsvd8_4")
   10889                      .dwattr $C$DW$1041, DW_AT_data_member_location[DW_OP_plus_uconst 0xd6]
   10890                      .dwattr $C$DW$1041, DW_AT_accessibility(DW_ACCESS_public)
   10891              
   10892              $C$DW$1042      .dwtag  DW_TAG_member
   10893                      .dwattr $C$DW$1042, DW_AT_type(*$C$DW$T$152)
   10894                      .dwattr $C$DW$1042, DW_AT_name("rsvd8_5")
   10895                      .dwattr $C$DW$1042, DW_AT_TI_symbol_name("_rsvd8_5")
   10896                      .dwattr $C$DW$1042, DW_AT_data_member_location[DW_OP_plus_uconst 0xd8]
   10897                      .dwattr $C$DW$1042, DW_AT_accessibility(DW_ACCESS_public)
   10898              
   10899              $C$DW$1043      .dwtag  DW_TAG_member
   10900                      .dwattr $C$DW$1043, DW_AT_type(*$C$DW$T$152)
   10901                      .dwattr $C$DW$1043, DW_AT_name("rsvd8_6")
   10902                      .dwattr $C$DW$1043, DW_AT_TI_symbol_name("_rsvd8_6")
   10903                      .dwattr $C$DW$1043, DW_AT_data_member_location[DW_OP_plus_uconst 0xda]
   10904                      .dwattr $C$DW$1043, DW_AT_accessibility(DW_ACCESS_public)
   10905              
   10906              $C$DW$1044      .dwtag  DW_TAG_member
   10907                      .dwattr $C$DW$1044, DW_AT_type(*$C$DW$T$152)
   10908                      .dwattr $C$DW$1044, DW_AT_name("rsvd8_7")
   10909                      .dwattr $C$DW$1044, DW_AT_TI_symbol_name("_rsvd8_7")
   10910                      .dwattr $C$DW$1044, DW_AT_data_member_location[DW_OP_plus_uconst 0xdc]
   10911                      .dwattr $C$DW$1044, DW_AT_accessibility(DW_ACCESS_public)
   10912              
   10913              $C$DW$1045      .dwtag  DW_TAG_member
   10914                      .dwattr $C$DW$1045, DW_AT_type(*$C$DW$T$152)
   10915                      .dwattr $C$DW$1045, DW_AT_name("rsvd8_8")
   10916                      .dwattr $C$DW$1045, DW_AT_TI_symbol_name("_rsvd8_8")
   10917                      .dwattr $C$DW$1045, DW_AT_data_member_location[DW_OP_plus_uconst 0xde]
   10918                      .dwattr $C$DW$1045, DW_AT_accessibility(DW_ACCESS_public)
   10919              
   10920              $C$DW$1046      .dwtag  DW_TAG_member
   10921                      .dwattr $C$DW$1046, DW_AT_type(*$C$DW$T$152)
   10922                      .dwattr $C$DW$1046, DW_AT_name("SCIRXINTA")
TMS320C2000 Assembler PC v22.6.0 Tue Apr 18 11:09:46 2023

Copyright (c) 1996-2018 Texas Instruments Incorporated
C:\Users\User\AppData\Local\Temp\{F169EDD6-E2A2-400A-8386-A823CBD75D49} PAGE  206

   10923                      .dwattr $C$DW$1046, DW_AT_TI_symbol_name("_SCIRXINTA")
   10924                      .dwattr $C$DW$1046, DW_AT_data_member_location[DW_OP_plus_uconst 0xe0]
   10925                      .dwattr $C$DW$1046, DW_AT_accessibility(DW_ACCESS_public)
   10926              
   10927              $C$DW$1047      .dwtag  DW_TAG_member
   10928                      .dwattr $C$DW$1047, DW_AT_type(*$C$DW$T$152)
   10929                      .dwattr $C$DW$1047, DW_AT_name("SCITXINTA")
   10930                      .dwattr $C$DW$1047, DW_AT_TI_symbol_name("_SCITXINTA")
   10931                      .dwattr $C$DW$1047, DW_AT_data_member_location[DW_OP_plus_uconst 0xe2]
   10932                      .dwattr $C$DW$1047, DW_AT_accessibility(DW_ACCESS_public)
   10933              
   10934              $C$DW$1048      .dwtag  DW_TAG_member
   10935                      .dwattr $C$DW$1048, DW_AT_type(*$C$DW$T$152)
   10936                      .dwattr $C$DW$1048, DW_AT_name("SCIRXINTB")
   10937                      .dwattr $C$DW$1048, DW_AT_TI_symbol_name("_SCIRXINTB")
   10938                      .dwattr $C$DW$1048, DW_AT_data_member_location[DW_OP_plus_uconst 0xe4]
   10939                      .dwattr $C$DW$1048, DW_AT_accessibility(DW_ACCESS_public)
   10940              
   10941              $C$DW$1049      .dwtag  DW_TAG_member
   10942                      .dwattr $C$DW$1049, DW_AT_type(*$C$DW$T$152)
   10943                      .dwattr $C$DW$1049, DW_AT_name("SCITXINTB")
   10944                      .dwattr $C$DW$1049, DW_AT_TI_symbol_name("_SCITXINTB")
   10945                      .dwattr $C$DW$1049, DW_AT_data_member_location[DW_OP_plus_uconst 0xe6]
   10946                      .dwattr $C$DW$1049, DW_AT_accessibility(DW_ACCESS_public)
   10947              
   10948              $C$DW$1050      .dwtag  DW_TAG_member
   10949                      .dwattr $C$DW$1050, DW_AT_type(*$C$DW$T$152)
   10950                      .dwattr $C$DW$1050, DW_AT_name("ECAN0INT")
   10951                      .dwattr $C$DW$1050, DW_AT_TI_symbol_name("_ECAN0INT")
   10952                      .dwattr $C$DW$1050, DW_AT_data_member_location[DW_OP_plus_uconst 0xe8]
   10953                      .dwattr $C$DW$1050, DW_AT_accessibility(DW_ACCESS_public)
   10954              
   10955              $C$DW$1051      .dwtag  DW_TAG_member
   10956                      .dwattr $C$DW$1051, DW_AT_type(*$C$DW$T$152)
   10957                      .dwattr $C$DW$1051, DW_AT_name("ECAN1INT")
   10958                      .dwattr $C$DW$1051, DW_AT_TI_symbol_name("_ECAN1INT")
   10959                      .dwattr $C$DW$1051, DW_AT_data_member_location[DW_OP_plus_uconst 0xea]
   10960                      .dwattr $C$DW$1051, DW_AT_accessibility(DW_ACCESS_public)
   10961              
   10962              $C$DW$1052      .dwtag  DW_TAG_member
   10963                      .dwattr $C$DW$1052, DW_AT_type(*$C$DW$T$152)
   10964                      .dwattr $C$DW$1052, DW_AT_name("rsvd9_7")
   10965                      .dwattr $C$DW$1052, DW_AT_TI_symbol_name("_rsvd9_7")
   10966                      .dwattr $C$DW$1052, DW_AT_data_member_location[DW_OP_plus_uconst 0xec]
   10967                      .dwattr $C$DW$1052, DW_AT_accessibility(DW_ACCESS_public)
   10968              
   10969              $C$DW$1053      .dwtag  DW_TAG_member
   10970                      .dwattr $C$DW$1053, DW_AT_type(*$C$DW$T$152)
   10971                      .dwattr $C$DW$1053, DW_AT_name("rsvd9_8")
   10972                      .dwattr $C$DW$1053, DW_AT_TI_symbol_name("_rsvd9_8")
   10973                      .dwattr $C$DW$1053, DW_AT_data_member_location[DW_OP_plus_uconst 0xee]
   10974                      .dwattr $C$DW$1053, DW_AT_accessibility(DW_ACCESS_public)
   10975              
   10976              $C$DW$1054      .dwtag  DW_TAG_member
   10977                      .dwattr $C$DW$1054, DW_AT_type(*$C$DW$T$152)
TMS320C2000 Assembler PC v22.6.0 Tue Apr 18 11:09:46 2023

Copyright (c) 1996-2018 Texas Instruments Incorporated
C:\Users\User\AppData\Local\Temp\{F169EDD6-E2A2-400A-8386-A823CBD75D49} PAGE  207

   10978                      .dwattr $C$DW$1054, DW_AT_name("ADCINT1")
   10979                      .dwattr $C$DW$1054, DW_AT_TI_symbol_name("_ADCINT1")
   10980                      .dwattr $C$DW$1054, DW_AT_data_member_location[DW_OP_plus_uconst 0xf0]
   10981                      .dwattr $C$DW$1054, DW_AT_accessibility(DW_ACCESS_public)
   10982              
   10983              $C$DW$1055      .dwtag  DW_TAG_member
   10984                      .dwattr $C$DW$1055, DW_AT_type(*$C$DW$T$152)
   10985                      .dwattr $C$DW$1055, DW_AT_name("ADCINT2")
   10986                      .dwattr $C$DW$1055, DW_AT_TI_symbol_name("_ADCINT2")
   10987                      .dwattr $C$DW$1055, DW_AT_data_member_location[DW_OP_plus_uconst 0xf2]
   10988                      .dwattr $C$DW$1055, DW_AT_accessibility(DW_ACCESS_public)
   10989              
   10990              $C$DW$1056      .dwtag  DW_TAG_member
   10991                      .dwattr $C$DW$1056, DW_AT_type(*$C$DW$T$152)
   10992                      .dwattr $C$DW$1056, DW_AT_name("ADCINT3")
   10993                      .dwattr $C$DW$1056, DW_AT_TI_symbol_name("_ADCINT3")
   10994                      .dwattr $C$DW$1056, DW_AT_data_member_location[DW_OP_plus_uconst 0xf4]
   10995                      .dwattr $C$DW$1056, DW_AT_accessibility(DW_ACCESS_public)
   10996              
   10997              $C$DW$1057      .dwtag  DW_TAG_member
   10998                      .dwattr $C$DW$1057, DW_AT_type(*$C$DW$T$152)
   10999                      .dwattr $C$DW$1057, DW_AT_name("ADCINT4")
   11000                      .dwattr $C$DW$1057, DW_AT_TI_symbol_name("_ADCINT4")
   11001                      .dwattr $C$DW$1057, DW_AT_data_member_location[DW_OP_plus_uconst 0xf6]
   11002                      .dwattr $C$DW$1057, DW_AT_accessibility(DW_ACCESS_public)
   11003              
   11004              $C$DW$1058      .dwtag  DW_TAG_member
   11005                      .dwattr $C$DW$1058, DW_AT_type(*$C$DW$T$152)
   11006                      .dwattr $C$DW$1058, DW_AT_name("ADCINT5")
   11007                      .dwattr $C$DW$1058, DW_AT_TI_symbol_name("_ADCINT5")
   11008                      .dwattr $C$DW$1058, DW_AT_data_member_location[DW_OP_plus_uconst 0xf8]
   11009                      .dwattr $C$DW$1058, DW_AT_accessibility(DW_ACCESS_public)
   11010              
   11011              $C$DW$1059      .dwtag  DW_TAG_member
   11012                      .dwattr $C$DW$1059, DW_AT_type(*$C$DW$T$152)
   11013                      .dwattr $C$DW$1059, DW_AT_name("ADCINT6")
   11014                      .dwattr $C$DW$1059, DW_AT_TI_symbol_name("_ADCINT6")
   11015                      .dwattr $C$DW$1059, DW_AT_data_member_location[DW_OP_plus_uconst 0xfa]
   11016                      .dwattr $C$DW$1059, DW_AT_accessibility(DW_ACCESS_public)
   11017              
   11018              $C$DW$1060      .dwtag  DW_TAG_member
   11019                      .dwattr $C$DW$1060, DW_AT_type(*$C$DW$T$152)
   11020                      .dwattr $C$DW$1060, DW_AT_name("ADCINT7")
   11021                      .dwattr $C$DW$1060, DW_AT_TI_symbol_name("_ADCINT7")
   11022                      .dwattr $C$DW$1060, DW_AT_data_member_location[DW_OP_plus_uconst 0xfc]
   11023                      .dwattr $C$DW$1060, DW_AT_accessibility(DW_ACCESS_public)
   11024              
   11025              $C$DW$1061      .dwtag  DW_TAG_member
   11026                      .dwattr $C$DW$1061, DW_AT_type(*$C$DW$T$152)
   11027                      .dwattr $C$DW$1061, DW_AT_name("ADCINT8")
   11028                      .dwattr $C$DW$1061, DW_AT_TI_symbol_name("_ADCINT8")
   11029                      .dwattr $C$DW$1061, DW_AT_data_member_location[DW_OP_plus_uconst 0xfe]
   11030                      .dwattr $C$DW$1061, DW_AT_accessibility(DW_ACCESS_public)
   11031              
   11032              $C$DW$1062      .dwtag  DW_TAG_member
TMS320C2000 Assembler PC v22.6.0 Tue Apr 18 11:09:46 2023

Copyright (c) 1996-2018 Texas Instruments Incorporated
C:\Users\User\AppData\Local\Temp\{F169EDD6-E2A2-400A-8386-A823CBD75D49} PAGE  208

   11033                      .dwattr $C$DW$1062, DW_AT_type(*$C$DW$T$152)
   11034                      .dwattr $C$DW$1062, DW_AT_name("CLAINT1")
   11035                      .dwattr $C$DW$1062, DW_AT_TI_symbol_name("_CLAINT1")
   11036                      .dwattr $C$DW$1062, DW_AT_data_member_location[DW_OP_plus_uconst 0x100]
   11037                      .dwattr $C$DW$1062, DW_AT_accessibility(DW_ACCESS_public)
   11038              
   11039              $C$DW$1063      .dwtag  DW_TAG_member
   11040                      .dwattr $C$DW$1063, DW_AT_type(*$C$DW$T$152)
   11041                      .dwattr $C$DW$1063, DW_AT_name("CLAINT2")
   11042                      .dwattr $C$DW$1063, DW_AT_TI_symbol_name("_CLAINT2")
   11043                      .dwattr $C$DW$1063, DW_AT_data_member_location[DW_OP_plus_uconst 0x102]
   11044                      .dwattr $C$DW$1063, DW_AT_accessibility(DW_ACCESS_public)
   11045              
   11046              $C$DW$1064      .dwtag  DW_TAG_member
   11047                      .dwattr $C$DW$1064, DW_AT_type(*$C$DW$T$152)
   11048                      .dwattr $C$DW$1064, DW_AT_name("CLAINT3")
   11049                      .dwattr $C$DW$1064, DW_AT_TI_symbol_name("_CLAINT3")
   11050                      .dwattr $C$DW$1064, DW_AT_data_member_location[DW_OP_plus_uconst 0x104]
   11051                      .dwattr $C$DW$1064, DW_AT_accessibility(DW_ACCESS_public)
   11052              
   11053              $C$DW$1065      .dwtag  DW_TAG_member
   11054                      .dwattr $C$DW$1065, DW_AT_type(*$C$DW$T$152)
   11055                      .dwattr $C$DW$1065, DW_AT_name("CLAINT4")
   11056                      .dwattr $C$DW$1065, DW_AT_TI_symbol_name("_CLAINT4")
   11057                      .dwattr $C$DW$1065, DW_AT_data_member_location[DW_OP_plus_uconst 0x106]
   11058                      .dwattr $C$DW$1065, DW_AT_accessibility(DW_ACCESS_public)
   11059              
   11060              $C$DW$1066      .dwtag  DW_TAG_member
   11061                      .dwattr $C$DW$1066, DW_AT_type(*$C$DW$T$152)
   11062                      .dwattr $C$DW$1066, DW_AT_name("CLAINT5")
   11063                      .dwattr $C$DW$1066, DW_AT_TI_symbol_name("_CLAINT5")
   11064                      .dwattr $C$DW$1066, DW_AT_data_member_location[DW_OP_plus_uconst 0x108]
   11065                      .dwattr $C$DW$1066, DW_AT_accessibility(DW_ACCESS_public)
   11066              
   11067              $C$DW$1067      .dwtag  DW_TAG_member
   11068                      .dwattr $C$DW$1067, DW_AT_type(*$C$DW$T$152)
   11069                      .dwattr $C$DW$1067, DW_AT_name("CLAINT6")
   11070                      .dwattr $C$DW$1067, DW_AT_TI_symbol_name("_CLAINT6")
   11071                      .dwattr $C$DW$1067, DW_AT_data_member_location[DW_OP_plus_uconst 0x10a]
   11072                      .dwattr $C$DW$1067, DW_AT_accessibility(DW_ACCESS_public)
   11073              
   11074              $C$DW$1068      .dwtag  DW_TAG_member
   11075                      .dwattr $C$DW$1068, DW_AT_type(*$C$DW$T$152)
   11076                      .dwattr $C$DW$1068, DW_AT_name("CLAINT7")
   11077                      .dwattr $C$DW$1068, DW_AT_TI_symbol_name("_CLAINT7")
   11078                      .dwattr $C$DW$1068, DW_AT_data_member_location[DW_OP_plus_uconst 0x10c]
   11079                      .dwattr $C$DW$1068, DW_AT_accessibility(DW_ACCESS_public)
   11080              
   11081              $C$DW$1069      .dwtag  DW_TAG_member
   11082                      .dwattr $C$DW$1069, DW_AT_type(*$C$DW$T$152)
   11083                      .dwattr $C$DW$1069, DW_AT_name("CLAINT8")
   11084                      .dwattr $C$DW$1069, DW_AT_TI_symbol_name("_CLAINT8")
   11085                      .dwattr $C$DW$1069, DW_AT_data_member_location[DW_OP_plus_uconst 0x10e]
   11086                      .dwattr $C$DW$1069, DW_AT_accessibility(DW_ACCESS_public)
   11087              
TMS320C2000 Assembler PC v22.6.0 Tue Apr 18 11:09:46 2023

Copyright (c) 1996-2018 Texas Instruments Incorporated
C:\Users\User\AppData\Local\Temp\{F169EDD6-E2A2-400A-8386-A823CBD75D49} PAGE  209

   11088              $C$DW$1070      .dwtag  DW_TAG_member
   11089                      .dwattr $C$DW$1070, DW_AT_type(*$C$DW$T$152)
   11090                      .dwattr $C$DW$1070, DW_AT_name("XINT3")
   11091                      .dwattr $C$DW$1070, DW_AT_TI_symbol_name("_XINT3")
   11092                      .dwattr $C$DW$1070, DW_AT_data_member_location[DW_OP_plus_uconst 0x110]
   11093                      .dwattr $C$DW$1070, DW_AT_accessibility(DW_ACCESS_public)
   11094              
   11095              $C$DW$1071      .dwtag  DW_TAG_member
   11096                      .dwattr $C$DW$1071, DW_AT_type(*$C$DW$T$152)
   11097                      .dwattr $C$DW$1071, DW_AT_name("rsvd12_2")
   11098                      .dwattr $C$DW$1071, DW_AT_TI_symbol_name("_rsvd12_2")
   11099                      .dwattr $C$DW$1071, DW_AT_data_member_location[DW_OP_plus_uconst 0x112]
   11100                      .dwattr $C$DW$1071, DW_AT_accessibility(DW_ACCESS_public)
   11101              
   11102              $C$DW$1072      .dwtag  DW_TAG_member
   11103                      .dwattr $C$DW$1072, DW_AT_type(*$C$DW$T$152)
   11104                      .dwattr $C$DW$1072, DW_AT_name("rsvd12_3")
   11105                      .dwattr $C$DW$1072, DW_AT_TI_symbol_name("_rsvd12_3")
   11106                      .dwattr $C$DW$1072, DW_AT_data_member_location[DW_OP_plus_uconst 0x114]
   11107                      .dwattr $C$DW$1072, DW_AT_accessibility(DW_ACCESS_public)
   11108              
   11109              $C$DW$1073      .dwtag  DW_TAG_member
   11110                      .dwattr $C$DW$1073, DW_AT_type(*$C$DW$T$152)
   11111                      .dwattr $C$DW$1073, DW_AT_name("rsvd12_4")
   11112                      .dwattr $C$DW$1073, DW_AT_TI_symbol_name("_rsvd12_4")
   11113                      .dwattr $C$DW$1073, DW_AT_data_member_location[DW_OP_plus_uconst 0x116]
   11114                      .dwattr $C$DW$1073, DW_AT_accessibility(DW_ACCESS_public)
   11115              
   11116              $C$DW$1074      .dwtag  DW_TAG_member
   11117                      .dwattr $C$DW$1074, DW_AT_type(*$C$DW$T$152)
   11118                      .dwattr $C$DW$1074, DW_AT_name("rsvd12_5")
   11119                      .dwattr $C$DW$1074, DW_AT_TI_symbol_name("_rsvd12_5")
   11120                      .dwattr $C$DW$1074, DW_AT_data_member_location[DW_OP_plus_uconst 0x118]
   11121                      .dwattr $C$DW$1074, DW_AT_accessibility(DW_ACCESS_public)
   11122              
   11123              $C$DW$1075      .dwtag  DW_TAG_member
   11124                      .dwattr $C$DW$1075, DW_AT_type(*$C$DW$T$152)
   11125                      .dwattr $C$DW$1075, DW_AT_name("rsvd12_6")
   11126                      .dwattr $C$DW$1075, DW_AT_TI_symbol_name("_rsvd12_6")
   11127                      .dwattr $C$DW$1075, DW_AT_data_member_location[DW_OP_plus_uconst 0x11a]
   11128                      .dwattr $C$DW$1075, DW_AT_accessibility(DW_ACCESS_public)
   11129              
   11130              $C$DW$1076      .dwtag  DW_TAG_member
   11131                      .dwattr $C$DW$1076, DW_AT_type(*$C$DW$T$152)
   11132                      .dwattr $C$DW$1076, DW_AT_name("CLAINT_LVF")
   11133                      .dwattr $C$DW$1076, DW_AT_TI_symbol_name("_CLAINT_LVF")
   11134                      .dwattr $C$DW$1076, DW_AT_data_member_location[DW_OP_plus_uconst 0x11c]
   11135                      .dwattr $C$DW$1076, DW_AT_accessibility(DW_ACCESS_public)
   11136              
   11137              $C$DW$1077      .dwtag  DW_TAG_member
   11138                      .dwattr $C$DW$1077, DW_AT_type(*$C$DW$T$152)
   11139                      .dwattr $C$DW$1077, DW_AT_name("CLAINT_LUF")
   11140                      .dwattr $C$DW$1077, DW_AT_TI_symbol_name("_CLAINT_LUF")
   11141                      .dwattr $C$DW$1077, DW_AT_data_member_location[DW_OP_plus_uconst 0x11e]
   11142                      .dwattr $C$DW$1077, DW_AT_accessibility(DW_ACCESS_public)
TMS320C2000 Assembler PC v22.6.0 Tue Apr 18 11:09:46 2023

Copyright (c) 1996-2018 Texas Instruments Incorporated
C:\Users\User\AppData\Local\Temp\{F169EDD6-E2A2-400A-8386-A823CBD75D49} PAGE  210

   11143              
   11144              $C$DW$1078      .dwtag  DW_TAG_member
   11145                      .dwattr $C$DW$1078, DW_AT_type(*$C$DW$T$153)
   11146                      .dwattr $C$DW$1078, DW_AT_name("rsvd13")
   11147                      .dwattr $C$DW$1078, DW_AT_TI_symbol_name("_rsvd13")
   11148                      .dwattr $C$DW$1078, DW_AT_data_member_location[DW_OP_plus_uconst 0x120]
   11149                      .dwattr $C$DW$1078, DW_AT_accessibility(DW_ACCESS_public)
   11150              
   11151              $C$DW$1079      .dwtag  DW_TAG_member
   11152                      .dwattr $C$DW$1079, DW_AT_type(*$C$DW$T$29)
   11153                      .dwattr $C$DW$1079, DW_AT_name("XINTnCR")
   11154                      .dwattr $C$DW$1079, DW_AT_TI_symbol_name("_XINTnCR")
   11155                      .dwattr $C$DW$1079, DW_AT_data_member_location[DW_OP_plus_uconst 0x6390]
   11156                      .dwattr $C$DW$1079, DW_AT_accessibility(DW_ACCESS_public)
   11157              
   11158              $C$DW$1080      .dwtag  DW_TAG_member
   11159                      .dwattr $C$DW$1080, DW_AT_type(*$C$DW$T$28)
   11160                      .dwattr $C$DW$1080, DW_AT_name("rsvd14")
   11161                      .dwattr $C$DW$1080, DW_AT_TI_symbol_name("_rsvd14")
   11162                      .dwattr $C$DW$1080, DW_AT_data_member_location[DW_OP_plus_uconst 0x6393]
   11163                      .dwattr $C$DW$1080, DW_AT_accessibility(DW_ACCESS_public)
   11164              
   11165              $C$DW$1081      .dwtag  DW_TAG_member
   11166                      .dwattr $C$DW$1081, DW_AT_type(*$C$DW$T$29)
   11167                      .dwattr $C$DW$1081, DW_AT_name("XINTnCTR")
   11168                      .dwattr $C$DW$1081, DW_AT_TI_symbol_name("_XINTnCTR")
   11169                      .dwattr $C$DW$1081, DW_AT_data_member_location[DW_OP_plus_uconst 0x6398]
   11170                      .dwattr $C$DW$1081, DW_AT_accessibility(DW_ACCESS_public)
   11171              
   11172                      .dwendtag $C$DW$T$154
   11173              
   11174              $C$DW$T$109     .dwtag  DW_TAG_pointer_type
   11175                      .dwattr $C$DW$T$109, DW_AT_type(*$C$DW$T$154)
   11176                      .dwattr $C$DW$T$109, DW_AT_address_class(0x20)
   11177              
   11178              $C$DW$T$110     .dwtag  DW_TAG_typedef
   11179                      .dwattr $C$DW$T$110, DW_AT_name("PIE_Handle")
   11180                      .dwattr $C$DW$T$110, DW_AT_type(*$C$DW$T$109)
   11181                      .dwattr $C$DW$T$110, DW_AT_language(DW_LANG_C)
   11182              
   11183              
   11184              $C$DW$T$155     .dwtag  DW_TAG_structure_type
   11185                      .dwattr $C$DW$T$155, DW_AT_name("_PLL_Obj_")
   11186                      .dwattr $C$DW$T$155, DW_AT_byte_size(0x11)
   11187              $C$DW$1082      .dwtag  DW_TAG_member
   11188                      .dwattr $C$DW$1082, DW_AT_type(*$C$DW$T$24)
   11189                      .dwattr $C$DW$1082, DW_AT_name("PLLSTS")
   11190                      .dwattr $C$DW$1082, DW_AT_TI_symbol_name("_PLLSTS")
   11191                      .dwattr $C$DW$1082, DW_AT_data_member_location[DW_OP_plus_uconst 0x0]
   11192                      .dwattr $C$DW$1082, DW_AT_accessibility(DW_ACCESS_public)
   11193              
   11194              $C$DW$1083      .dwtag  DW_TAG_member
   11195                      .dwattr $C$DW$1083, DW_AT_type(*$C$DW$T$24)
   11196                      .dwattr $C$DW$1083, DW_AT_name("rsvd_1")
   11197                      .dwattr $C$DW$1083, DW_AT_TI_symbol_name("_rsvd_1")
TMS320C2000 Assembler PC v22.6.0 Tue Apr 18 11:09:46 2023

Copyright (c) 1996-2018 Texas Instruments Incorporated
C:\Users\User\AppData\Local\Temp\{F169EDD6-E2A2-400A-8386-A823CBD75D49} PAGE  211

   11198                      .dwattr $C$DW$1083, DW_AT_data_member_location[DW_OP_plus_uconst 0x1]
   11199                      .dwattr $C$DW$1083, DW_AT_accessibility(DW_ACCESS_public)
   11200              
   11201              $C$DW$1084      .dwtag  DW_TAG_member
   11202                      .dwattr $C$DW$1084, DW_AT_type(*$C$DW$T$24)
   11203                      .dwattr $C$DW$1084, DW_AT_name("PLLLOCKPRD")
   11204                      .dwattr $C$DW$1084, DW_AT_TI_symbol_name("_PLLLOCKPRD")
   11205                      .dwattr $C$DW$1084, DW_AT_data_member_location[DW_OP_plus_uconst 0x2]
   11206                      .dwattr $C$DW$1084, DW_AT_accessibility(DW_ACCESS_public)
   11207              
   11208              $C$DW$1085      .dwtag  DW_TAG_member
   11209                      .dwattr $C$DW$1085, DW_AT_type(*$C$DW$T$30)
   11210                      .dwattr $C$DW$1085, DW_AT_name("rsvd_2")
   11211                      .dwattr $C$DW$1085, DW_AT_TI_symbol_name("_rsvd_2")
   11212                      .dwattr $C$DW$1085, DW_AT_data_member_location[DW_OP_plus_uconst 0x3]
   11213                      .dwattr $C$DW$1085, DW_AT_accessibility(DW_ACCESS_public)
   11214              
   11215              $C$DW$1086      .dwtag  DW_TAG_member
   11216                      .dwattr $C$DW$1086, DW_AT_type(*$C$DW$T$24)
   11217                      .dwattr $C$DW$1086, DW_AT_name("PLLCR")
   11218                      .dwattr $C$DW$1086, DW_AT_TI_symbol_name("_PLLCR")
   11219                      .dwattr $C$DW$1086, DW_AT_data_member_location[DW_OP_plus_uconst 0x10]
   11220                      .dwattr $C$DW$1086, DW_AT_accessibility(DW_ACCESS_public)
   11221              
   11222                      .dwendtag $C$DW$T$155
   11223              
   11224              $C$DW$T$111     .dwtag  DW_TAG_pointer_type
   11225                      .dwattr $C$DW$T$111, DW_AT_type(*$C$DW$T$155)
   11226                      .dwattr $C$DW$T$111, DW_AT_address_class(0x20)
   11227              
   11228              $C$DW$T$112     .dwtag  DW_TAG_typedef
   11229                      .dwattr $C$DW$T$112, DW_AT_name("PLL_Handle")
   11230                      .dwattr $C$DW$T$112, DW_AT_type(*$C$DW$T$111)
   11231                      .dwattr $C$DW$T$112, DW_AT_language(DW_LANG_C)
   11232              
   11233              
   11234              $C$DW$T$156     .dwtag  DW_TAG_structure_type
   11235                      .dwattr $C$DW$T$156, DW_AT_name("_PWM_Obj_")
   11236                      .dwattr $C$DW$T$156, DW_AT_byte_size(0x3a)
   11237              $C$DW$1087      .dwtag  DW_TAG_member
   11238                      .dwattr $C$DW$1087, DW_AT_type(*$C$DW$T$24)
   11239                      .dwattr $C$DW$1087, DW_AT_name("TBCTL")
   11240                      .dwattr $C$DW$1087, DW_AT_TI_symbol_name("_TBCTL")
   11241                      .dwattr $C$DW$1087, DW_AT_data_member_location[DW_OP_plus_uconst 0x0]
   11242                      .dwattr $C$DW$1087, DW_AT_accessibility(DW_ACCESS_public)
   11243              
   11244              $C$DW$1088      .dwtag  DW_TAG_member
   11245                      .dwattr $C$DW$1088, DW_AT_type(*$C$DW$T$24)
   11246                      .dwattr $C$DW$1088, DW_AT_name("TBSTS")
   11247                      .dwattr $C$DW$1088, DW_AT_TI_symbol_name("_TBSTS")
   11248                      .dwattr $C$DW$1088, DW_AT_data_member_location[DW_OP_plus_uconst 0x1]
   11249                      .dwattr $C$DW$1088, DW_AT_accessibility(DW_ACCESS_public)
   11250              
   11251              $C$DW$1089      .dwtag  DW_TAG_member
   11252                      .dwattr $C$DW$1089, DW_AT_type(*$C$DW$T$24)
TMS320C2000 Assembler PC v22.6.0 Tue Apr 18 11:09:46 2023

Copyright (c) 1996-2018 Texas Instruments Incorporated
C:\Users\User\AppData\Local\Temp\{F169EDD6-E2A2-400A-8386-A823CBD75D49} PAGE  212

   11253                      .dwattr $C$DW$1089, DW_AT_name("TBPHSHR")
   11254                      .dwattr $C$DW$1089, DW_AT_TI_symbol_name("_TBPHSHR")
   11255                      .dwattr $C$DW$1089, DW_AT_data_member_location[DW_OP_plus_uconst 0x2]
   11256                      .dwattr $C$DW$1089, DW_AT_accessibility(DW_ACCESS_public)
   11257              
   11258              $C$DW$1090      .dwtag  DW_TAG_member
   11259                      .dwattr $C$DW$1090, DW_AT_type(*$C$DW$T$24)
   11260                      .dwattr $C$DW$1090, DW_AT_name("TBPHS")
   11261                      .dwattr $C$DW$1090, DW_AT_TI_symbol_name("_TBPHS")
   11262                      .dwattr $C$DW$1090, DW_AT_data_member_location[DW_OP_plus_uconst 0x3]
   11263                      .dwattr $C$DW$1090, DW_AT_accessibility(DW_ACCESS_public)
   11264              
   11265              $C$DW$1091      .dwtag  DW_TAG_member
   11266                      .dwattr $C$DW$1091, DW_AT_type(*$C$DW$T$24)
   11267                      .dwattr $C$DW$1091, DW_AT_name("TBCTR")
   11268                      .dwattr $C$DW$1091, DW_AT_TI_symbol_name("_TBCTR")
   11269                      .dwattr $C$DW$1091, DW_AT_data_member_location[DW_OP_plus_uconst 0x4]
   11270                      .dwattr $C$DW$1091, DW_AT_accessibility(DW_ACCESS_public)
   11271              
   11272              $C$DW$1092      .dwtag  DW_TAG_member
   11273                      .dwattr $C$DW$1092, DW_AT_type(*$C$DW$T$24)
   11274                      .dwattr $C$DW$1092, DW_AT_name("TBPRD")
   11275                      .dwattr $C$DW$1092, DW_AT_TI_symbol_name("_TBPRD")
   11276                      .dwattr $C$DW$1092, DW_AT_data_member_location[DW_OP_plus_uconst 0x5]
   11277                      .dwattr $C$DW$1092, DW_AT_accessibility(DW_ACCESS_public)
   11278              
   11279              $C$DW$1093      .dwtag  DW_TAG_member
   11280                      .dwattr $C$DW$1093, DW_AT_type(*$C$DW$T$24)
   11281                      .dwattr $C$DW$1093, DW_AT_name("TBPRDHR")
   11282                      .dwattr $C$DW$1093, DW_AT_TI_symbol_name("_TBPRDHR")
   11283                      .dwattr $C$DW$1093, DW_AT_data_member_location[DW_OP_plus_uconst 0x6]
   11284                      .dwattr $C$DW$1093, DW_AT_accessibility(DW_ACCESS_public)
   11285              
   11286              $C$DW$1094      .dwtag  DW_TAG_member
   11287                      .dwattr $C$DW$1094, DW_AT_type(*$C$DW$T$24)
   11288                      .dwattr $C$DW$1094, DW_AT_name("CMPCTL")
   11289                      .dwattr $C$DW$1094, DW_AT_TI_symbol_name("_CMPCTL")
   11290                      .dwattr $C$DW$1094, DW_AT_data_member_location[DW_OP_plus_uconst 0x7]
   11291                      .dwattr $C$DW$1094, DW_AT_accessibility(DW_ACCESS_public)
   11292              
   11293              $C$DW$1095      .dwtag  DW_TAG_member
   11294                      .dwattr $C$DW$1095, DW_AT_type(*$C$DW$T$24)
   11295                      .dwattr $C$DW$1095, DW_AT_name("CMPAHR")
   11296                      .dwattr $C$DW$1095, DW_AT_TI_symbol_name("_CMPAHR")
   11297                      .dwattr $C$DW$1095, DW_AT_data_member_location[DW_OP_plus_uconst 0x8]
   11298                      .dwattr $C$DW$1095, DW_AT_accessibility(DW_ACCESS_public)
   11299              
   11300              $C$DW$1096      .dwtag  DW_TAG_member
   11301                      .dwattr $C$DW$1096, DW_AT_type(*$C$DW$T$24)
   11302                      .dwattr $C$DW$1096, DW_AT_name("CMPA")
   11303                      .dwattr $C$DW$1096, DW_AT_TI_symbol_name("_CMPA")
   11304                      .dwattr $C$DW$1096, DW_AT_data_member_location[DW_OP_plus_uconst 0x9]
   11305                      .dwattr $C$DW$1096, DW_AT_accessibility(DW_ACCESS_public)
   11306              
   11307              $C$DW$1097      .dwtag  DW_TAG_member
TMS320C2000 Assembler PC v22.6.0 Tue Apr 18 11:09:46 2023

Copyright (c) 1996-2018 Texas Instruments Incorporated
C:\Users\User\AppData\Local\Temp\{F169EDD6-E2A2-400A-8386-A823CBD75D49} PAGE  213

   11308                      .dwattr $C$DW$1097, DW_AT_type(*$C$DW$T$24)
   11309                      .dwattr $C$DW$1097, DW_AT_name("CMPB")
   11310                      .dwattr $C$DW$1097, DW_AT_TI_symbol_name("_CMPB")
   11311                      .dwattr $C$DW$1097, DW_AT_data_member_location[DW_OP_plus_uconst 0xa]
   11312                      .dwattr $C$DW$1097, DW_AT_accessibility(DW_ACCESS_public)
   11313              
   11314              $C$DW$1098      .dwtag  DW_TAG_member
   11315                      .dwattr $C$DW$1098, DW_AT_type(*$C$DW$T$24)
   11316                      .dwattr $C$DW$1098, DW_AT_name("AQCTLA")
   11317                      .dwattr $C$DW$1098, DW_AT_TI_symbol_name("_AQCTLA")
   11318                      .dwattr $C$DW$1098, DW_AT_data_member_location[DW_OP_plus_uconst 0xb]
   11319                      .dwattr $C$DW$1098, DW_AT_accessibility(DW_ACCESS_public)
   11320              
   11321              $C$DW$1099      .dwtag  DW_TAG_member
   11322                      .dwattr $C$DW$1099, DW_AT_type(*$C$DW$T$24)
   11323                      .dwattr $C$DW$1099, DW_AT_name("AQCTLB")
   11324                      .dwattr $C$DW$1099, DW_AT_TI_symbol_name("_AQCTLB")
   11325                      .dwattr $C$DW$1099, DW_AT_data_member_location[DW_OP_plus_uconst 0xc]
   11326                      .dwattr $C$DW$1099, DW_AT_accessibility(DW_ACCESS_public)
   11327              
   11328              $C$DW$1100      .dwtag  DW_TAG_member
   11329                      .dwattr $C$DW$1100, DW_AT_type(*$C$DW$T$24)
   11330                      .dwattr $C$DW$1100, DW_AT_name("AQSFRC")
   11331                      .dwattr $C$DW$1100, DW_AT_TI_symbol_name("_AQSFRC")
   11332                      .dwattr $C$DW$1100, DW_AT_data_member_location[DW_OP_plus_uconst 0xd]
   11333                      .dwattr $C$DW$1100, DW_AT_accessibility(DW_ACCESS_public)
   11334              
   11335              $C$DW$1101      .dwtag  DW_TAG_member
   11336                      .dwattr $C$DW$1101, DW_AT_type(*$C$DW$T$24)
   11337                      .dwattr $C$DW$1101, DW_AT_name("AQCSFRC")
   11338                      .dwattr $C$DW$1101, DW_AT_TI_symbol_name("_AQCSFRC")
   11339                      .dwattr $C$DW$1101, DW_AT_data_member_location[DW_OP_plus_uconst 0xe]
   11340                      .dwattr $C$DW$1101, DW_AT_accessibility(DW_ACCESS_public)
   11341              
   11342              $C$DW$1102      .dwtag  DW_TAG_member
   11343                      .dwattr $C$DW$1102, DW_AT_type(*$C$DW$T$24)
   11344                      .dwattr $C$DW$1102, DW_AT_name("DBCTL")
   11345                      .dwattr $C$DW$1102, DW_AT_TI_symbol_name("_DBCTL")
   11346                      .dwattr $C$DW$1102, DW_AT_data_member_location[DW_OP_plus_uconst 0xf]
   11347                      .dwattr $C$DW$1102, DW_AT_accessibility(DW_ACCESS_public)
   11348              
   11349              $C$DW$1103      .dwtag  DW_TAG_member
   11350                      .dwattr $C$DW$1103, DW_AT_type(*$C$DW$T$24)
   11351                      .dwattr $C$DW$1103, DW_AT_name("DBRED")
   11352                      .dwattr $C$DW$1103, DW_AT_TI_symbol_name("_DBRED")
   11353                      .dwattr $C$DW$1103, DW_AT_data_member_location[DW_OP_plus_uconst 0x10]
   11354                      .dwattr $C$DW$1103, DW_AT_accessibility(DW_ACCESS_public)
   11355              
   11356              $C$DW$1104      .dwtag  DW_TAG_member
   11357                      .dwattr $C$DW$1104, DW_AT_type(*$C$DW$T$24)
   11358                      .dwattr $C$DW$1104, DW_AT_name("DBFED")
   11359                      .dwattr $C$DW$1104, DW_AT_TI_symbol_name("_DBFED")
   11360                      .dwattr $C$DW$1104, DW_AT_data_member_location[DW_OP_plus_uconst 0x11]
   11361                      .dwattr $C$DW$1104, DW_AT_accessibility(DW_ACCESS_public)
   11362              
TMS320C2000 Assembler PC v22.6.0 Tue Apr 18 11:09:46 2023

Copyright (c) 1996-2018 Texas Instruments Incorporated
C:\Users\User\AppData\Local\Temp\{F169EDD6-E2A2-400A-8386-A823CBD75D49} PAGE  214

   11363              $C$DW$1105      .dwtag  DW_TAG_member
   11364                      .dwattr $C$DW$1105, DW_AT_type(*$C$DW$T$24)
   11365                      .dwattr $C$DW$1105, DW_AT_name("TZSEL")
   11366                      .dwattr $C$DW$1105, DW_AT_TI_symbol_name("_TZSEL")
   11367                      .dwattr $C$DW$1105, DW_AT_data_member_location[DW_OP_plus_uconst 0x12]
   11368                      .dwattr $C$DW$1105, DW_AT_accessibility(DW_ACCESS_public)
   11369              
   11370              $C$DW$1106      .dwtag  DW_TAG_member
   11371                      .dwattr $C$DW$1106, DW_AT_type(*$C$DW$T$24)
   11372                      .dwattr $C$DW$1106, DW_AT_name("TZDCSEL")
   11373                      .dwattr $C$DW$1106, DW_AT_TI_symbol_name("_TZDCSEL")
   11374                      .dwattr $C$DW$1106, DW_AT_data_member_location[DW_OP_plus_uconst 0x13]
   11375                      .dwattr $C$DW$1106, DW_AT_accessibility(DW_ACCESS_public)
   11376              
   11377              $C$DW$1107      .dwtag  DW_TAG_member
   11378                      .dwattr $C$DW$1107, DW_AT_type(*$C$DW$T$24)
   11379                      .dwattr $C$DW$1107, DW_AT_name("TZCTL")
   11380                      .dwattr $C$DW$1107, DW_AT_TI_symbol_name("_TZCTL")
   11381                      .dwattr $C$DW$1107, DW_AT_data_member_location[DW_OP_plus_uconst 0x14]
   11382                      .dwattr $C$DW$1107, DW_AT_accessibility(DW_ACCESS_public)
   11383              
   11384              $C$DW$1108      .dwtag  DW_TAG_member
   11385                      .dwattr $C$DW$1108, DW_AT_type(*$C$DW$T$24)
   11386                      .dwattr $C$DW$1108, DW_AT_name("TZEINT")
   11387                      .dwattr $C$DW$1108, DW_AT_TI_symbol_name("_TZEINT")
   11388                      .dwattr $C$DW$1108, DW_AT_data_member_location[DW_OP_plus_uconst 0x15]
   11389                      .dwattr $C$DW$1108, DW_AT_accessibility(DW_ACCESS_public)
   11390              
   11391              $C$DW$1109      .dwtag  DW_TAG_member
   11392                      .dwattr $C$DW$1109, DW_AT_type(*$C$DW$T$24)
   11393                      .dwattr $C$DW$1109, DW_AT_name("TZFLG")
   11394                      .dwattr $C$DW$1109, DW_AT_TI_symbol_name("_TZFLG")
   11395                      .dwattr $C$DW$1109, DW_AT_data_member_location[DW_OP_plus_uconst 0x16]
   11396                      .dwattr $C$DW$1109, DW_AT_accessibility(DW_ACCESS_public)
   11397              
   11398              $C$DW$1110      .dwtag  DW_TAG_member
   11399                      .dwattr $C$DW$1110, DW_AT_type(*$C$DW$T$24)
   11400                      .dwattr $C$DW$1110, DW_AT_name("TZCLR")
   11401                      .dwattr $C$DW$1110, DW_AT_TI_symbol_name("_TZCLR")
   11402                      .dwattr $C$DW$1110, DW_AT_data_member_location[DW_OP_plus_uconst 0x17]
   11403                      .dwattr $C$DW$1110, DW_AT_accessibility(DW_ACCESS_public)
   11404              
   11405              $C$DW$1111      .dwtag  DW_TAG_member
   11406                      .dwattr $C$DW$1111, DW_AT_type(*$C$DW$T$24)
   11407                      .dwattr $C$DW$1111, DW_AT_name("TZFRC")
   11408                      .dwattr $C$DW$1111, DW_AT_TI_symbol_name("_TZFRC")
   11409                      .dwattr $C$DW$1111, DW_AT_data_member_location[DW_OP_plus_uconst 0x18]
   11410                      .dwattr $C$DW$1111, DW_AT_accessibility(DW_ACCESS_public)
   11411              
   11412              $C$DW$1112      .dwtag  DW_TAG_member
   11413                      .dwattr $C$DW$1112, DW_AT_type(*$C$DW$T$24)
   11414                      .dwattr $C$DW$1112, DW_AT_name("ETSEL")
   11415                      .dwattr $C$DW$1112, DW_AT_TI_symbol_name("_ETSEL")
   11416                      .dwattr $C$DW$1112, DW_AT_data_member_location[DW_OP_plus_uconst 0x19]
   11417                      .dwattr $C$DW$1112, DW_AT_accessibility(DW_ACCESS_public)
TMS320C2000 Assembler PC v22.6.0 Tue Apr 18 11:09:46 2023

Copyright (c) 1996-2018 Texas Instruments Incorporated
C:\Users\User\AppData\Local\Temp\{F169EDD6-E2A2-400A-8386-A823CBD75D49} PAGE  215

   11418              
   11419              $C$DW$1113      .dwtag  DW_TAG_member
   11420                      .dwattr $C$DW$1113, DW_AT_type(*$C$DW$T$24)
   11421                      .dwattr $C$DW$1113, DW_AT_name("ETPS")
   11422                      .dwattr $C$DW$1113, DW_AT_TI_symbol_name("_ETPS")
   11423                      .dwattr $C$DW$1113, DW_AT_data_member_location[DW_OP_plus_uconst 0x1a]
   11424                      .dwattr $C$DW$1113, DW_AT_accessibility(DW_ACCESS_public)
   11425              
   11426              $C$DW$1114      .dwtag  DW_TAG_member
   11427                      .dwattr $C$DW$1114, DW_AT_type(*$C$DW$T$24)
   11428                      .dwattr $C$DW$1114, DW_AT_name("ETFLG")
   11429                      .dwattr $C$DW$1114, DW_AT_TI_symbol_name("_ETFLG")
   11430                      .dwattr $C$DW$1114, DW_AT_data_member_location[DW_OP_plus_uconst 0x1b]
   11431                      .dwattr $C$DW$1114, DW_AT_accessibility(DW_ACCESS_public)
   11432              
   11433              $C$DW$1115      .dwtag  DW_TAG_member
   11434                      .dwattr $C$DW$1115, DW_AT_type(*$C$DW$T$24)
   11435                      .dwattr $C$DW$1115, DW_AT_name("ETCLR")
   11436                      .dwattr $C$DW$1115, DW_AT_TI_symbol_name("_ETCLR")
   11437                      .dwattr $C$DW$1115, DW_AT_data_member_location[DW_OP_plus_uconst 0x1c]
   11438                      .dwattr $C$DW$1115, DW_AT_accessibility(DW_ACCESS_public)
   11439              
   11440              $C$DW$1116      .dwtag  DW_TAG_member
   11441                      .dwattr $C$DW$1116, DW_AT_type(*$C$DW$T$24)
   11442                      .dwattr $C$DW$1116, DW_AT_name("ETFRC")
   11443                      .dwattr $C$DW$1116, DW_AT_TI_symbol_name("_ETFRC")
   11444                      .dwattr $C$DW$1116, DW_AT_data_member_location[DW_OP_plus_uconst 0x1d]
   11445                      .dwattr $C$DW$1116, DW_AT_accessibility(DW_ACCESS_public)
   11446              
   11447              $C$DW$1117      .dwtag  DW_TAG_member
   11448                      .dwattr $C$DW$1117, DW_AT_type(*$C$DW$T$24)
   11449                      .dwattr $C$DW$1117, DW_AT_name("PCCTL")
   11450                      .dwattr $C$DW$1117, DW_AT_TI_symbol_name("_PCCTL")
   11451                      .dwattr $C$DW$1117, DW_AT_data_member_location[DW_OP_plus_uconst 0x1e]
   11452                      .dwattr $C$DW$1117, DW_AT_accessibility(DW_ACCESS_public)
   11453              
   11454              $C$DW$1118      .dwtag  DW_TAG_member
   11455                      .dwattr $C$DW$1118, DW_AT_type(*$C$DW$T$24)
   11456                      .dwattr $C$DW$1118, DW_AT_name("rsvd_1")
   11457                      .dwattr $C$DW$1118, DW_AT_TI_symbol_name("_rsvd_1")
   11458                      .dwattr $C$DW$1118, DW_AT_data_member_location[DW_OP_plus_uconst 0x1f]
   11459                      .dwattr $C$DW$1118, DW_AT_accessibility(DW_ACCESS_public)
   11460              
   11461              $C$DW$1119      .dwtag  DW_TAG_member
   11462                      .dwattr $C$DW$1119, DW_AT_type(*$C$DW$T$24)
   11463                      .dwattr $C$DW$1119, DW_AT_name("HRCNFG")
   11464                      .dwattr $C$DW$1119, DW_AT_TI_symbol_name("_HRCNFG")
   11465                      .dwattr $C$DW$1119, DW_AT_data_member_location[DW_OP_plus_uconst 0x20]
   11466                      .dwattr $C$DW$1119, DW_AT_accessibility(DW_ACCESS_public)
   11467              
   11468              $C$DW$1120      .dwtag  DW_TAG_member
   11469                      .dwattr $C$DW$1120, DW_AT_type(*$C$DW$T$24)
   11470                      .dwattr $C$DW$1120, DW_AT_name("HRPWR")
   11471                      .dwattr $C$DW$1120, DW_AT_TI_symbol_name("_HRPWR")
   11472                      .dwattr $C$DW$1120, DW_AT_data_member_location[DW_OP_plus_uconst 0x21]
TMS320C2000 Assembler PC v22.6.0 Tue Apr 18 11:09:46 2023

Copyright (c) 1996-2018 Texas Instruments Incorporated
C:\Users\User\AppData\Local\Temp\{F169EDD6-E2A2-400A-8386-A823CBD75D49} PAGE  216

   11473                      .dwattr $C$DW$1120, DW_AT_accessibility(DW_ACCESS_public)
   11474              
   11475              $C$DW$1121      .dwtag  DW_TAG_member
   11476                      .dwattr $C$DW$1121, DW_AT_type(*$C$DW$T$90)
   11477                      .dwattr $C$DW$1121, DW_AT_name("rsvd_2")
   11478                      .dwattr $C$DW$1121, DW_AT_TI_symbol_name("_rsvd_2")
   11479                      .dwattr $C$DW$1121, DW_AT_data_member_location[DW_OP_plus_uconst 0x22]
   11480                      .dwattr $C$DW$1121, DW_AT_accessibility(DW_ACCESS_public)
   11481              
   11482              $C$DW$1122      .dwtag  DW_TAG_member
   11483                      .dwattr $C$DW$1122, DW_AT_type(*$C$DW$T$24)
   11484                      .dwattr $C$DW$1122, DW_AT_name("HRMSTEP")
   11485                      .dwattr $C$DW$1122, DW_AT_TI_symbol_name("_HRMSTEP")
   11486                      .dwattr $C$DW$1122, DW_AT_data_member_location[DW_OP_plus_uconst 0x26]
   11487                      .dwattr $C$DW$1122, DW_AT_accessibility(DW_ACCESS_public)
   11488              
   11489              $C$DW$1123      .dwtag  DW_TAG_member
   11490                      .dwattr $C$DW$1123, DW_AT_type(*$C$DW$T$24)
   11491                      .dwattr $C$DW$1123, DW_AT_name("rsvd_3")
   11492                      .dwattr $C$DW$1123, DW_AT_TI_symbol_name("_rsvd_3")
   11493                      .dwattr $C$DW$1123, DW_AT_data_member_location[DW_OP_plus_uconst 0x27]
   11494                      .dwattr $C$DW$1123, DW_AT_accessibility(DW_ACCESS_public)
   11495              
   11496              $C$DW$1124      .dwtag  DW_TAG_member
   11497                      .dwattr $C$DW$1124, DW_AT_type(*$C$DW$T$24)
   11498                      .dwattr $C$DW$1124, DW_AT_name("HRPCTL")
   11499                      .dwattr $C$DW$1124, DW_AT_TI_symbol_name("_HRPCTL")
   11500                      .dwattr $C$DW$1124, DW_AT_data_member_location[DW_OP_plus_uconst 0x28]
   11501                      .dwattr $C$DW$1124, DW_AT_accessibility(DW_ACCESS_public)
   11502              
   11503              $C$DW$1125      .dwtag  DW_TAG_member
   11504                      .dwattr $C$DW$1125, DW_AT_type(*$C$DW$T$24)
   11505                      .dwattr $C$DW$1125, DW_AT_name("rsvd_4")
   11506                      .dwattr $C$DW$1125, DW_AT_TI_symbol_name("_rsvd_4")
   11507                      .dwattr $C$DW$1125, DW_AT_data_member_location[DW_OP_plus_uconst 0x29]
   11508                      .dwattr $C$DW$1125, DW_AT_accessibility(DW_ACCESS_public)
   11509              
   11510              $C$DW$1126      .dwtag  DW_TAG_member
   11511                      .dwattr $C$DW$1126, DW_AT_type(*$C$DW$T$24)
   11512                      .dwattr $C$DW$1126, DW_AT_name("TBPRDHRM")
   11513                      .dwattr $C$DW$1126, DW_AT_TI_symbol_name("_TBPRDHRM")
   11514                      .dwattr $C$DW$1126, DW_AT_data_member_location[DW_OP_plus_uconst 0x2a]
   11515                      .dwattr $C$DW$1126, DW_AT_accessibility(DW_ACCESS_public)
   11516              
   11517              $C$DW$1127      .dwtag  DW_TAG_member
   11518                      .dwattr $C$DW$1127, DW_AT_type(*$C$DW$T$24)
   11519                      .dwattr $C$DW$1127, DW_AT_name("TBPRDM")
   11520                      .dwattr $C$DW$1127, DW_AT_TI_symbol_name("_TBPRDM")
   11521                      .dwattr $C$DW$1127, DW_AT_data_member_location[DW_OP_plus_uconst 0x2b]
   11522                      .dwattr $C$DW$1127, DW_AT_accessibility(DW_ACCESS_public)
   11523              
   11524              $C$DW$1128      .dwtag  DW_TAG_member
   11525                      .dwattr $C$DW$1128, DW_AT_type(*$C$DW$T$24)
   11526                      .dwattr $C$DW$1128, DW_AT_name("CMPAHRM")
   11527                      .dwattr $C$DW$1128, DW_AT_TI_symbol_name("_CMPAHRM")
TMS320C2000 Assembler PC v22.6.0 Tue Apr 18 11:09:46 2023

Copyright (c) 1996-2018 Texas Instruments Incorporated
C:\Users\User\AppData\Local\Temp\{F169EDD6-E2A2-400A-8386-A823CBD75D49} PAGE  217

   11528                      .dwattr $C$DW$1128, DW_AT_data_member_location[DW_OP_plus_uconst 0x2c]
   11529                      .dwattr $C$DW$1128, DW_AT_accessibility(DW_ACCESS_public)
   11530              
   11531              $C$DW$1129      .dwtag  DW_TAG_member
   11532                      .dwattr $C$DW$1129, DW_AT_type(*$C$DW$T$24)
   11533                      .dwattr $C$DW$1129, DW_AT_name("CMPAM")
   11534                      .dwattr $C$DW$1129, DW_AT_TI_symbol_name("_CMPAM")
   11535                      .dwattr $C$DW$1129, DW_AT_data_member_location[DW_OP_plus_uconst 0x2d]
   11536                      .dwattr $C$DW$1129, DW_AT_accessibility(DW_ACCESS_public)
   11537              
   11538              $C$DW$1130      .dwtag  DW_TAG_member
   11539                      .dwattr $C$DW$1130, DW_AT_type(*$C$DW$T$27)
   11540                      .dwattr $C$DW$1130, DW_AT_name("rsvd_5")
   11541                      .dwattr $C$DW$1130, DW_AT_TI_symbol_name("_rsvd_5")
   11542                      .dwattr $C$DW$1130, DW_AT_data_member_location[DW_OP_plus_uconst 0x2e]
   11543                      .dwattr $C$DW$1130, DW_AT_accessibility(DW_ACCESS_public)
   11544              
   11545              $C$DW$1131      .dwtag  DW_TAG_member
   11546                      .dwattr $C$DW$1131, DW_AT_type(*$C$DW$T$24)
   11547                      .dwattr $C$DW$1131, DW_AT_name("DCTRIPSEL")
   11548                      .dwattr $C$DW$1131, DW_AT_TI_symbol_name("_DCTRIPSEL")
   11549                      .dwattr $C$DW$1131, DW_AT_data_member_location[DW_OP_plus_uconst 0x30]
   11550                      .dwattr $C$DW$1131, DW_AT_accessibility(DW_ACCESS_public)
   11551              
   11552              $C$DW$1132      .dwtag  DW_TAG_member
   11553                      .dwattr $C$DW$1132, DW_AT_type(*$C$DW$T$24)
   11554                      .dwattr $C$DW$1132, DW_AT_name("DCACTL")
   11555                      .dwattr $C$DW$1132, DW_AT_TI_symbol_name("_DCACTL")
   11556                      .dwattr $C$DW$1132, DW_AT_data_member_location[DW_OP_plus_uconst 0x31]
   11557                      .dwattr $C$DW$1132, DW_AT_accessibility(DW_ACCESS_public)
   11558              
   11559              $C$DW$1133      .dwtag  DW_TAG_member
   11560                      .dwattr $C$DW$1133, DW_AT_type(*$C$DW$T$24)
   11561                      .dwattr $C$DW$1133, DW_AT_name("DCBCTL")
   11562                      .dwattr $C$DW$1133, DW_AT_TI_symbol_name("_DCBCTL")
   11563                      .dwattr $C$DW$1133, DW_AT_data_member_location[DW_OP_plus_uconst 0x32]
   11564                      .dwattr $C$DW$1133, DW_AT_accessibility(DW_ACCESS_public)
   11565              
   11566              $C$DW$1134      .dwtag  DW_TAG_member
   11567                      .dwattr $C$DW$1134, DW_AT_type(*$C$DW$T$24)
   11568                      .dwattr $C$DW$1134, DW_AT_name("DCFCTL")
   11569                      .dwattr $C$DW$1134, DW_AT_TI_symbol_name("_DCFCTL")
   11570                      .dwattr $C$DW$1134, DW_AT_data_member_location[DW_OP_plus_uconst 0x33]
   11571                      .dwattr $C$DW$1134, DW_AT_accessibility(DW_ACCESS_public)
   11572              
   11573              $C$DW$1135      .dwtag  DW_TAG_member
   11574                      .dwattr $C$DW$1135, DW_AT_type(*$C$DW$T$24)
   11575                      .dwattr $C$DW$1135, DW_AT_name("DCCAPCTL")
   11576                      .dwattr $C$DW$1135, DW_AT_TI_symbol_name("_DCCAPCTL")
   11577                      .dwattr $C$DW$1135, DW_AT_data_member_location[DW_OP_plus_uconst 0x34]
   11578                      .dwattr $C$DW$1135, DW_AT_accessibility(DW_ACCESS_public)
   11579              
   11580              $C$DW$1136      .dwtag  DW_TAG_member
   11581                      .dwattr $C$DW$1136, DW_AT_type(*$C$DW$T$24)
   11582                      .dwattr $C$DW$1136, DW_AT_name("DCFOFFSET")
TMS320C2000 Assembler PC v22.6.0 Tue Apr 18 11:09:46 2023

Copyright (c) 1996-2018 Texas Instruments Incorporated
C:\Users\User\AppData\Local\Temp\{F169EDD6-E2A2-400A-8386-A823CBD75D49} PAGE  218

   11583                      .dwattr $C$DW$1136, DW_AT_TI_symbol_name("_DCFOFFSET")
   11584                      .dwattr $C$DW$1136, DW_AT_data_member_location[DW_OP_plus_uconst 0x35]
   11585                      .dwattr $C$DW$1136, DW_AT_accessibility(DW_ACCESS_public)
   11586              
   11587              $C$DW$1137      .dwtag  DW_TAG_member
   11588                      .dwattr $C$DW$1137, DW_AT_type(*$C$DW$T$24)
   11589                      .dwattr $C$DW$1137, DW_AT_name("DCFOFFSETCNT")
   11590                      .dwattr $C$DW$1137, DW_AT_TI_symbol_name("_DCFOFFSETCNT")
   11591                      .dwattr $C$DW$1137, DW_AT_data_member_location[DW_OP_plus_uconst 0x36]
   11592                      .dwattr $C$DW$1137, DW_AT_accessibility(DW_ACCESS_public)
   11593              
   11594              $C$DW$1138      .dwtag  DW_TAG_member
   11595                      .dwattr $C$DW$1138, DW_AT_type(*$C$DW$T$24)
   11596                      .dwattr $C$DW$1138, DW_AT_name("DCFWINDOW")
   11597                      .dwattr $C$DW$1138, DW_AT_TI_symbol_name("_DCFWINDOW")
   11598                      .dwattr $C$DW$1138, DW_AT_data_member_location[DW_OP_plus_uconst 0x37]
   11599                      .dwattr $C$DW$1138, DW_AT_accessibility(DW_ACCESS_public)
   11600              
   11601              $C$DW$1139      .dwtag  DW_TAG_member
   11602                      .dwattr $C$DW$1139, DW_AT_type(*$C$DW$T$24)
   11603                      .dwattr $C$DW$1139, DW_AT_name("DCFWINDOWCNT")
   11604                      .dwattr $C$DW$1139, DW_AT_TI_symbol_name("_DCFWINDOWCNT")
   11605                      .dwattr $C$DW$1139, DW_AT_data_member_location[DW_OP_plus_uconst 0x38]
   11606                      .dwattr $C$DW$1139, DW_AT_accessibility(DW_ACCESS_public)
   11607              
   11608              $C$DW$1140      .dwtag  DW_TAG_member
   11609                      .dwattr $C$DW$1140, DW_AT_type(*$C$DW$T$24)
   11610                      .dwattr $C$DW$1140, DW_AT_name("DCCAP")
   11611                      .dwattr $C$DW$1140, DW_AT_TI_symbol_name("_DCCAP")
   11612                      .dwattr $C$DW$1140, DW_AT_data_member_location[DW_OP_plus_uconst 0x39]
   11613                      .dwattr $C$DW$1140, DW_AT_accessibility(DW_ACCESS_public)
   11614              
   11615                      .dwendtag $C$DW$T$156
   11616              
   11617              $C$DW$T$113     .dwtag  DW_TAG_pointer_type
   11618                      .dwattr $C$DW$T$113, DW_AT_type(*$C$DW$T$156)
   11619                      .dwattr $C$DW$T$113, DW_AT_address_class(0x20)
   11620              
   11621              $C$DW$T$114     .dwtag  DW_TAG_typedef
   11622                      .dwattr $C$DW$T$114, DW_AT_name("PWM_Handle")
   11623                      .dwattr $C$DW$T$114, DW_AT_type(*$C$DW$T$113)
   11624                      .dwattr $C$DW$T$114, DW_AT_language(DW_LANG_C)
   11625              
   11626              
   11627              $C$DW$T$115     .dwtag  DW_TAG_array_type
   11628                      .dwattr $C$DW$T$115, DW_AT_type(*$C$DW$T$114)
   11629                      .dwattr $C$DW$T$115, DW_AT_language(DW_LANG_C)
   11630                      .dwattr $C$DW$T$115, DW_AT_byte_size(0x06)
   11631              $C$DW$1141      .dwtag  DW_TAG_subrange_type
   11632                      .dwattr $C$DW$1141, DW_AT_upper_bound(0x02)
   11633              
   11634                      .dwendtag $C$DW$T$115
   11635              
   11636              
   11637              $C$DW$T$158     .dwtag  DW_TAG_structure_type
TMS320C2000 Assembler PC v22.6.0 Tue Apr 18 11:09:46 2023

Copyright (c) 1996-2018 Texas Instruments Incorporated
C:\Users\User\AppData\Local\Temp\{F169EDD6-E2A2-400A-8386-A823CBD75D49} PAGE  219

   11638                      .dwattr $C$DW$T$158, DW_AT_name("_PWR_Obj_")
   11639                      .dwattr $C$DW$T$158, DW_AT_byte_size(0x669a)
   11640              $C$DW$1142      .dwtag  DW_TAG_member
   11641                      .dwattr $C$DW$1142, DW_AT_type(*$C$DW$T$24)
   11642                      .dwattr $C$DW$1142, DW_AT_name("BORCFG")
   11643                      .dwattr $C$DW$1142, DW_AT_TI_symbol_name("_BORCFG")
   11644                      .dwattr $C$DW$1142, DW_AT_data_member_location[DW_OP_plus_uconst 0x0]
   11645                      .dwattr $C$DW$1142, DW_AT_accessibility(DW_ACCESS_public)
   11646              
   11647              $C$DW$1143      .dwtag  DW_TAG_member
   11648                      .dwattr $C$DW$1143, DW_AT_type(*$C$DW$T$157)
   11649                      .dwattr $C$DW$1143, DW_AT_name("rsvd_1")
   11650                      .dwattr $C$DW$1143, DW_AT_TI_symbol_name("_rsvd_1")
   11651                      .dwattr $C$DW$1143, DW_AT_data_member_location[DW_OP_plus_uconst 0x1]
   11652                      .dwattr $C$DW$1143, DW_AT_accessibility(DW_ACCESS_public)
   11653              
   11654              $C$DW$1144      .dwtag  DW_TAG_member
   11655                      .dwattr $C$DW$1144, DW_AT_type(*$C$DW$T$24)
   11656                      .dwattr $C$DW$1144, DW_AT_name("LPMCR0")
   11657                      .dwattr $C$DW$1144, DW_AT_TI_symbol_name("_LPMCR0")
   11658                      .dwattr $C$DW$1144, DW_AT_data_member_location[DW_OP_plus_uconst 0x6699]
   11659                      .dwattr $C$DW$1144, DW_AT_accessibility(DW_ACCESS_public)
   11660              
   11661                      .dwendtag $C$DW$T$158
   11662              
   11663              $C$DW$T$116     .dwtag  DW_TAG_pointer_type
   11664                      .dwattr $C$DW$T$116, DW_AT_type(*$C$DW$T$158)
   11665                      .dwattr $C$DW$T$116, DW_AT_address_class(0x20)
   11666              
   11667              $C$DW$T$117     .dwtag  DW_TAG_typedef
   11668                      .dwattr $C$DW$T$117, DW_AT_name("PWR_Handle")
   11669                      .dwattr $C$DW$T$117, DW_AT_type(*$C$DW$T$116)
   11670                      .dwattr $C$DW$T$117, DW_AT_language(DW_LANG_C)
   11671              
   11672              
   11673              $C$DW$T$159     .dwtag  DW_TAG_structure_type
   11674                      .dwattr $C$DW$T$159, DW_AT_name("_SPI_Obj_")
   11675                      .dwattr $C$DW$T$159, DW_AT_byte_size(0x10)
   11676              $C$DW$1145      .dwtag  DW_TAG_member
   11677                      .dwattr $C$DW$1145, DW_AT_type(*$C$DW$T$24)
   11678                      .dwattr $C$DW$1145, DW_AT_name("SPICCR")
   11679                      .dwattr $C$DW$1145, DW_AT_TI_symbol_name("_SPICCR")
   11680                      .dwattr $C$DW$1145, DW_AT_data_member_location[DW_OP_plus_uconst 0x0]
   11681                      .dwattr $C$DW$1145, DW_AT_accessibility(DW_ACCESS_public)
   11682              
   11683              $C$DW$1146      .dwtag  DW_TAG_member
   11684                      .dwattr $C$DW$1146, DW_AT_type(*$C$DW$T$24)
   11685                      .dwattr $C$DW$1146, DW_AT_name("SPICTL")
   11686                      .dwattr $C$DW$1146, DW_AT_TI_symbol_name("_SPICTL")
   11687                      .dwattr $C$DW$1146, DW_AT_data_member_location[DW_OP_plus_uconst 0x1]
   11688                      .dwattr $C$DW$1146, DW_AT_accessibility(DW_ACCESS_public)
   11689              
   11690              $C$DW$1147      .dwtag  DW_TAG_member
   11691                      .dwattr $C$DW$1147, DW_AT_type(*$C$DW$T$24)
   11692                      .dwattr $C$DW$1147, DW_AT_name("SPIST")
TMS320C2000 Assembler PC v22.6.0 Tue Apr 18 11:09:46 2023

Copyright (c) 1996-2018 Texas Instruments Incorporated
C:\Users\User\AppData\Local\Temp\{F169EDD6-E2A2-400A-8386-A823CBD75D49} PAGE  220

   11693                      .dwattr $C$DW$1147, DW_AT_TI_symbol_name("_SPIST")
   11694                      .dwattr $C$DW$1147, DW_AT_data_member_location[DW_OP_plus_uconst 0x2]
   11695                      .dwattr $C$DW$1147, DW_AT_accessibility(DW_ACCESS_public)
   11696              
   11697              $C$DW$1148      .dwtag  DW_TAG_member
   11698                      .dwattr $C$DW$1148, DW_AT_type(*$C$DW$T$24)
   11699                      .dwattr $C$DW$1148, DW_AT_name("rsvd_1")
   11700                      .dwattr $C$DW$1148, DW_AT_TI_symbol_name("_rsvd_1")
   11701                      .dwattr $C$DW$1148, DW_AT_data_member_location[DW_OP_plus_uconst 0x3]
   11702                      .dwattr $C$DW$1148, DW_AT_accessibility(DW_ACCESS_public)
   11703              
   11704              $C$DW$1149      .dwtag  DW_TAG_member
   11705                      .dwattr $C$DW$1149, DW_AT_type(*$C$DW$T$24)
   11706                      .dwattr $C$DW$1149, DW_AT_name("SPIBRR")
   11707                      .dwattr $C$DW$1149, DW_AT_TI_symbol_name("_SPIBRR")
   11708                      .dwattr $C$DW$1149, DW_AT_data_member_location[DW_OP_plus_uconst 0x4]
   11709                      .dwattr $C$DW$1149, DW_AT_accessibility(DW_ACCESS_public)
   11710              
   11711              $C$DW$1150      .dwtag  DW_TAG_member
   11712                      .dwattr $C$DW$1150, DW_AT_type(*$C$DW$T$24)
   11713                      .dwattr $C$DW$1150, DW_AT_name("rsvd_2")
   11714                      .dwattr $C$DW$1150, DW_AT_TI_symbol_name("_rsvd_2")
   11715                      .dwattr $C$DW$1150, DW_AT_data_member_location[DW_OP_plus_uconst 0x5]
   11716                      .dwattr $C$DW$1150, DW_AT_accessibility(DW_ACCESS_public)
   11717              
   11718              $C$DW$1151      .dwtag  DW_TAG_member
   11719                      .dwattr $C$DW$1151, DW_AT_type(*$C$DW$T$24)
   11720                      .dwattr $C$DW$1151, DW_AT_name("SPIEMU")
   11721                      .dwattr $C$DW$1151, DW_AT_TI_symbol_name("_SPIEMU")
   11722                      .dwattr $C$DW$1151, DW_AT_data_member_location[DW_OP_plus_uconst 0x6]
   11723                      .dwattr $C$DW$1151, DW_AT_accessibility(DW_ACCESS_public)
   11724              
   11725              $C$DW$1152      .dwtag  DW_TAG_member
   11726                      .dwattr $C$DW$1152, DW_AT_type(*$C$DW$T$24)
   11727                      .dwattr $C$DW$1152, DW_AT_name("SPIRXBUF")
   11728                      .dwattr $C$DW$1152, DW_AT_TI_symbol_name("_SPIRXBUF")
   11729                      .dwattr $C$DW$1152, DW_AT_data_member_location[DW_OP_plus_uconst 0x7]
   11730                      .dwattr $C$DW$1152, DW_AT_accessibility(DW_ACCESS_public)
   11731              
   11732              $C$DW$1153      .dwtag  DW_TAG_member
   11733                      .dwattr $C$DW$1153, DW_AT_type(*$C$DW$T$24)
   11734                      .dwattr $C$DW$1153, DW_AT_name("SPITXBUF")
   11735                      .dwattr $C$DW$1153, DW_AT_TI_symbol_name("_SPITXBUF")
   11736                      .dwattr $C$DW$1153, DW_AT_data_member_location[DW_OP_plus_uconst 0x8]
   11737                      .dwattr $C$DW$1153, DW_AT_accessibility(DW_ACCESS_public)
   11738              
   11739              $C$DW$1154      .dwtag  DW_TAG_member
   11740                      .dwattr $C$DW$1154, DW_AT_type(*$C$DW$T$24)
   11741                      .dwattr $C$DW$1154, DW_AT_name("SPIDAT")
   11742                      .dwattr $C$DW$1154, DW_AT_TI_symbol_name("_SPIDAT")
   11743                      .dwattr $C$DW$1154, DW_AT_data_member_location[DW_OP_plus_uconst 0x9]
   11744                      .dwattr $C$DW$1154, DW_AT_accessibility(DW_ACCESS_public)
   11745              
   11746              $C$DW$1155      .dwtag  DW_TAG_member
   11747                      .dwattr $C$DW$1155, DW_AT_type(*$C$DW$T$24)
TMS320C2000 Assembler PC v22.6.0 Tue Apr 18 11:09:46 2023

Copyright (c) 1996-2018 Texas Instruments Incorporated
C:\Users\User\AppData\Local\Temp\{F169EDD6-E2A2-400A-8386-A823CBD75D49} PAGE  221

   11748                      .dwattr $C$DW$1155, DW_AT_name("SPIFFTX")
   11749                      .dwattr $C$DW$1155, DW_AT_TI_symbol_name("_SPIFFTX")
   11750                      .dwattr $C$DW$1155, DW_AT_data_member_location[DW_OP_plus_uconst 0xa]
   11751                      .dwattr $C$DW$1155, DW_AT_accessibility(DW_ACCESS_public)
   11752              
   11753              $C$DW$1156      .dwtag  DW_TAG_member
   11754                      .dwattr $C$DW$1156, DW_AT_type(*$C$DW$T$24)
   11755                      .dwattr $C$DW$1156, DW_AT_name("SPIFFRX")
   11756                      .dwattr $C$DW$1156, DW_AT_TI_symbol_name("_SPIFFRX")
   11757                      .dwattr $C$DW$1156, DW_AT_data_member_location[DW_OP_plus_uconst 0xb]
   11758                      .dwattr $C$DW$1156, DW_AT_accessibility(DW_ACCESS_public)
   11759              
   11760              $C$DW$1157      .dwtag  DW_TAG_member
   11761                      .dwattr $C$DW$1157, DW_AT_type(*$C$DW$T$24)
   11762                      .dwattr $C$DW$1157, DW_AT_name("SPIFFCT")
   11763                      .dwattr $C$DW$1157, DW_AT_TI_symbol_name("_SPIFFCT")
   11764                      .dwattr $C$DW$1157, DW_AT_data_member_location[DW_OP_plus_uconst 0xc]
   11765                      .dwattr $C$DW$1157, DW_AT_accessibility(DW_ACCESS_public)
   11766              
   11767              $C$DW$1158      .dwtag  DW_TAG_member
   11768                      .dwattr $C$DW$1158, DW_AT_type(*$C$DW$T$27)
   11769                      .dwattr $C$DW$1158, DW_AT_name("rsvd_3")
   11770                      .dwattr $C$DW$1158, DW_AT_TI_symbol_name("_rsvd_3")
   11771                      .dwattr $C$DW$1158, DW_AT_data_member_location[DW_OP_plus_uconst 0xd]
   11772                      .dwattr $C$DW$1158, DW_AT_accessibility(DW_ACCESS_public)
   11773              
   11774              $C$DW$1159      .dwtag  DW_TAG_member
   11775                      .dwattr $C$DW$1159, DW_AT_type(*$C$DW$T$24)
   11776                      .dwattr $C$DW$1159, DW_AT_name("SPIPRI")
   11777                      .dwattr $C$DW$1159, DW_AT_TI_symbol_name("_SPIPRI")
   11778                      .dwattr $C$DW$1159, DW_AT_data_member_location[DW_OP_plus_uconst 0xf]
   11779                      .dwattr $C$DW$1159, DW_AT_accessibility(DW_ACCESS_public)
   11780              
   11781                      .dwendtag $C$DW$T$159
   11782              
   11783              $C$DW$T$78      .dwtag  DW_TAG_pointer_type
   11784                      .dwattr $C$DW$T$78, DW_AT_type(*$C$DW$T$159)
   11785                      .dwattr $C$DW$T$78, DW_AT_address_class(0x20)
   11786              
   11787              $C$DW$T$79      .dwtag  DW_TAG_typedef
   11788                      .dwattr $C$DW$T$79, DW_AT_name("SPI_Handle")
   11789                      .dwattr $C$DW$T$79, DW_AT_type(*$C$DW$T$78)
   11790                      .dwattr $C$DW$T$79, DW_AT_language(DW_LANG_C)
   11791              
   11792              
   11793              $C$DW$T$160     .dwtag  DW_TAG_structure_type
   11794                      .dwattr $C$DW$T$160, DW_AT_name("_SVGEN_Obj_")
   11795                      .dwattr $C$DW$T$160, DW_AT_byte_size(0x02)
   11796              $C$DW$1160      .dwtag  DW_TAG_member
   11797                      .dwattr $C$DW$1160, DW_AT_type(*$C$DW$T$32)
   11798                      .dwattr $C$DW$1160, DW_AT_name("maxModulation")
   11799                      .dwattr $C$DW$1160, DW_AT_TI_symbol_name("_maxModulation")
   11800                      .dwattr $C$DW$1160, DW_AT_data_member_location[DW_OP_plus_uconst 0x0]
   11801                      .dwattr $C$DW$1160, DW_AT_accessibility(DW_ACCESS_public)
   11802              
TMS320C2000 Assembler PC v22.6.0 Tue Apr 18 11:09:46 2023

Copyright (c) 1996-2018 Texas Instruments Incorporated
C:\Users\User\AppData\Local\Temp\{F169EDD6-E2A2-400A-8386-A823CBD75D49} PAGE  222

   11803                      .dwendtag $C$DW$T$160
   11804              
   11805              $C$DW$T$60      .dwtag  DW_TAG_typedef
   11806                      .dwattr $C$DW$T$60, DW_AT_name("SVGEN_Obj")
   11807                      .dwattr $C$DW$T$60, DW_AT_type(*$C$DW$T$160)
   11808                      .dwattr $C$DW$T$60, DW_AT_language(DW_LANG_C)
   11809              
   11810              $C$DW$T$58      .dwtag  DW_TAG_pointer_type
   11811                      .dwattr $C$DW$T$58, DW_AT_type(*$C$DW$T$160)
   11812                      .dwattr $C$DW$T$58, DW_AT_address_class(0x20)
   11813              
   11814              $C$DW$T$59      .dwtag  DW_TAG_typedef
   11815                      .dwattr $C$DW$T$59, DW_AT_name("SVGEN_Handle")
   11816                      .dwattr $C$DW$T$59, DW_AT_type(*$C$DW$T$58)
   11817                      .dwattr $C$DW$T$59, DW_AT_language(DW_LANG_C)
   11818              
   11819              
   11820              $C$DW$T$161     .dwtag  DW_TAG_structure_type
   11821                      .dwattr $C$DW$T$161, DW_AT_name("_TIMER_Obj_")
   11822                      .dwattr $C$DW$T$161, DW_AT_byte_size(0x08)
   11823              $C$DW$1161      .dwtag  DW_TAG_member
   11824                      .dwattr $C$DW$1161, DW_AT_type(*$C$DW$T$88)
   11825                      .dwattr $C$DW$1161, DW_AT_name("TIM")
   11826                      .dwattr $C$DW$1161, DW_AT_TI_symbol_name("_TIM")
   11827                      .dwattr $C$DW$1161, DW_AT_data_member_location[DW_OP_plus_uconst 0x0]
   11828                      .dwattr $C$DW$1161, DW_AT_accessibility(DW_ACCESS_public)
   11829              
   11830              $C$DW$1162      .dwtag  DW_TAG_member
   11831                      .dwattr $C$DW$1162, DW_AT_type(*$C$DW$T$88)
   11832                      .dwattr $C$DW$1162, DW_AT_name("PRD")
   11833                      .dwattr $C$DW$1162, DW_AT_TI_symbol_name("_PRD")
   11834                      .dwattr $C$DW$1162, DW_AT_data_member_location[DW_OP_plus_uconst 0x2]
   11835                      .dwattr $C$DW$1162, DW_AT_accessibility(DW_ACCESS_public)
   11836              
   11837              $C$DW$1163      .dwtag  DW_TAG_member
   11838                      .dwattr $C$DW$1163, DW_AT_type(*$C$DW$T$24)
   11839                      .dwattr $C$DW$1163, DW_AT_name("TCR")
   11840                      .dwattr $C$DW$1163, DW_AT_TI_symbol_name("_TCR")
   11841                      .dwattr $C$DW$1163, DW_AT_data_member_location[DW_OP_plus_uconst 0x4]
   11842                      .dwattr $C$DW$1163, DW_AT_accessibility(DW_ACCESS_public)
   11843              
   11844              $C$DW$1164      .dwtag  DW_TAG_member
   11845                      .dwattr $C$DW$1164, DW_AT_type(*$C$DW$T$24)
   11846                      .dwattr $C$DW$1164, DW_AT_name("resvd_1")
   11847                      .dwattr $C$DW$1164, DW_AT_TI_symbol_name("_resvd_1")
   11848                      .dwattr $C$DW$1164, DW_AT_data_member_location[DW_OP_plus_uconst 0x5]
   11849                      .dwattr $C$DW$1164, DW_AT_accessibility(DW_ACCESS_public)
   11850              
   11851              $C$DW$1165      .dwtag  DW_TAG_member
   11852                      .dwattr $C$DW$1165, DW_AT_type(*$C$DW$T$88)
   11853                      .dwattr $C$DW$1165, DW_AT_name("TPR")
   11854                      .dwattr $C$DW$1165, DW_AT_TI_symbol_name("_TPR")
   11855                      .dwattr $C$DW$1165, DW_AT_data_member_location[DW_OP_plus_uconst 0x6]
   11856                      .dwattr $C$DW$1165, DW_AT_accessibility(DW_ACCESS_public)
   11857              
TMS320C2000 Assembler PC v22.6.0 Tue Apr 18 11:09:46 2023

Copyright (c) 1996-2018 Texas Instruments Incorporated
C:\Users\User\AppData\Local\Temp\{F169EDD6-E2A2-400A-8386-A823CBD75D49} PAGE  223

   11858                      .dwendtag $C$DW$T$161
   11859              
   11860              $C$DW$T$118     .dwtag  DW_TAG_pointer_type
   11861                      .dwattr $C$DW$T$118, DW_AT_type(*$C$DW$T$161)
   11862                      .dwattr $C$DW$T$118, DW_AT_address_class(0x20)
   11863              
   11864              $C$DW$T$119     .dwtag  DW_TAG_typedef
   11865                      .dwattr $C$DW$T$119, DW_AT_name("TIMER_Handle")
   11866                      .dwattr $C$DW$T$119, DW_AT_type(*$C$DW$T$118)
   11867                      .dwattr $C$DW$T$119, DW_AT_language(DW_LANG_C)
   11868              
   11869              
   11870              $C$DW$T$120     .dwtag  DW_TAG_array_type
   11871                      .dwattr $C$DW$T$120, DW_AT_type(*$C$DW$T$119)
   11872                      .dwattr $C$DW$T$120, DW_AT_language(DW_LANG_C)
   11873                      .dwattr $C$DW$T$120, DW_AT_byte_size(0x06)
   11874              $C$DW$1166      .dwtag  DW_TAG_subrange_type
   11875                      .dwattr $C$DW$1166, DW_AT_upper_bound(0x02)
   11876              
   11877                      .dwendtag $C$DW$T$120
   11878              
   11879              
   11880              $C$DW$T$162     .dwtag  DW_TAG_structure_type
   11881                      .dwattr $C$DW$T$162, DW_AT_name("_TRAJ_Obj_")
   11882                      .dwattr $C$DW$T$162, DW_AT_byte_size(0x0a)
   11883              $C$DW$1167      .dwtag  DW_TAG_member
   11884                      .dwattr $C$DW$1167, DW_AT_type(*$C$DW$T$32)
   11885                      .dwattr $C$DW$1167, DW_AT_name("targetValue")
   11886                      .dwattr $C$DW$1167, DW_AT_TI_symbol_name("_targetValue")
   11887                      .dwattr $C$DW$1167, DW_AT_data_member_location[DW_OP_plus_uconst 0x0]
   11888                      .dwattr $C$DW$1167, DW_AT_accessibility(DW_ACCESS_public)
   11889              
   11890              $C$DW$1168      .dwtag  DW_TAG_member
   11891                      .dwattr $C$DW$1168, DW_AT_type(*$C$DW$T$32)
   11892                      .dwattr $C$DW$1168, DW_AT_name("intValue")
   11893                      .dwattr $C$DW$1168, DW_AT_TI_symbol_name("_intValue")
   11894                      .dwattr $C$DW$1168, DW_AT_data_member_location[DW_OP_plus_uconst 0x2]
   11895                      .dwattr $C$DW$1168, DW_AT_accessibility(DW_ACCESS_public)
   11896              
   11897              $C$DW$1169      .dwtag  DW_TAG_member
   11898                      .dwattr $C$DW$1169, DW_AT_type(*$C$DW$T$32)
   11899                      .dwattr $C$DW$1169, DW_AT_name("minValue")
   11900                      .dwattr $C$DW$1169, DW_AT_TI_symbol_name("_minValue")
   11901                      .dwattr $C$DW$1169, DW_AT_data_member_location[DW_OP_plus_uconst 0x4]
   11902                      .dwattr $C$DW$1169, DW_AT_accessibility(DW_ACCESS_public)
   11903              
   11904              $C$DW$1170      .dwtag  DW_TAG_member
   11905                      .dwattr $C$DW$1170, DW_AT_type(*$C$DW$T$32)
   11906                      .dwattr $C$DW$1170, DW_AT_name("maxValue")
   11907                      .dwattr $C$DW$1170, DW_AT_TI_symbol_name("_maxValue")
   11908                      .dwattr $C$DW$1170, DW_AT_data_member_location[DW_OP_plus_uconst 0x6]
   11909                      .dwattr $C$DW$1170, DW_AT_accessibility(DW_ACCESS_public)
   11910              
   11911              $C$DW$1171      .dwtag  DW_TAG_member
   11912                      .dwattr $C$DW$1171, DW_AT_type(*$C$DW$T$32)
TMS320C2000 Assembler PC v22.6.0 Tue Apr 18 11:09:46 2023

Copyright (c) 1996-2018 Texas Instruments Incorporated
C:\Users\User\AppData\Local\Temp\{F169EDD6-E2A2-400A-8386-A823CBD75D49} PAGE  224

   11913                      .dwattr $C$DW$1171, DW_AT_name("maxDelta")
   11914                      .dwattr $C$DW$1171, DW_AT_TI_symbol_name("_maxDelta")
   11915                      .dwattr $C$DW$1171, DW_AT_data_member_location[DW_OP_plus_uconst 0x8]
   11916                      .dwattr $C$DW$1171, DW_AT_accessibility(DW_ACCESS_public)
   11917              
   11918                      .dwendtag $C$DW$T$162
   11919              
   11920              $C$DW$T$63      .dwtag  DW_TAG_typedef
   11921                      .dwattr $C$DW$T$63, DW_AT_name("TRAJ_Obj")
   11922                      .dwattr $C$DW$T$63, DW_AT_type(*$C$DW$T$162)
   11923                      .dwattr $C$DW$T$63, DW_AT_language(DW_LANG_C)
   11924              
   11925              $C$DW$T$61      .dwtag  DW_TAG_pointer_type
   11926                      .dwattr $C$DW$T$61, DW_AT_type(*$C$DW$T$162)
   11927                      .dwattr $C$DW$T$61, DW_AT_address_class(0x20)
   11928              
   11929              $C$DW$T$62      .dwtag  DW_TAG_typedef
   11930                      .dwattr $C$DW$T$62, DW_AT_name("TRAJ_Handle")
   11931                      .dwattr $C$DW$T$62, DW_AT_type(*$C$DW$T$61)
   11932                      .dwattr $C$DW$T$62, DW_AT_language(DW_LANG_C)
   11933              
   11934              
   11935              $C$DW$T$168     .dwtag  DW_TAG_structure_type
   11936                      .dwattr $C$DW$T$168, DW_AT_name("_USER_Params_")
   11937                      .dwattr $C$DW$T$168, DW_AT_byte_size(0xac)
   11938              $C$DW$1172      .dwtag  DW_TAG_member
   11939                      .dwattr $C$DW$1172, DW_AT_type(*$C$DW$T$71)
   11940                      .dwattr $C$DW$1172, DW_AT_name("iqFullScaleCurrent_A")
   11941                      .dwattr $C$DW$1172, DW_AT_TI_symbol_name("_iqFullScaleCurrent_A")
   11942                      .dwattr $C$DW$1172, DW_AT_data_member_location[DW_OP_plus_uconst 0x0]
   11943                      .dwattr $C$DW$1172, DW_AT_accessibility(DW_ACCESS_public)
   11944              
   11945              $C$DW$1173      .dwtag  DW_TAG_member
   11946                      .dwattr $C$DW$1173, DW_AT_type(*$C$DW$T$71)
   11947                      .dwattr $C$DW$1173, DW_AT_name("iqFullScaleVoltage_V")
   11948                      .dwattr $C$DW$1173, DW_AT_TI_symbol_name("_iqFullScaleVoltage_V")
   11949                      .dwattr $C$DW$1173, DW_AT_data_member_location[DW_OP_plus_uconst 0x2]
   11950                      .dwattr $C$DW$1173, DW_AT_accessibility(DW_ACCESS_public)
   11951              
   11952              $C$DW$1174      .dwtag  DW_TAG_member
   11953                      .dwattr $C$DW$1174, DW_AT_type(*$C$DW$T$71)
   11954                      .dwattr $C$DW$1174, DW_AT_name("iqFullScaleFreq_Hz")
   11955                      .dwattr $C$DW$1174, DW_AT_TI_symbol_name("_iqFullScaleFreq_Hz")
   11956                      .dwattr $C$DW$1174, DW_AT_data_member_location[DW_OP_plus_uconst 0x4]
   11957                      .dwattr $C$DW$1174, DW_AT_accessibility(DW_ACCESS_public)
   11958              
   11959              $C$DW$1175      .dwtag  DW_TAG_member
   11960                      .dwattr $C$DW$1175, DW_AT_type(*$C$DW$T$70)
   11961                      .dwattr $C$DW$1175, DW_AT_name("numIsrTicksPerCtrlTick")
   11962                      .dwattr $C$DW$1175, DW_AT_TI_symbol_name("_numIsrTicksPerCtrlTick")
   11963                      .dwattr $C$DW$1175, DW_AT_data_member_location[DW_OP_plus_uconst 0x6]
   11964                      .dwattr $C$DW$1175, DW_AT_accessibility(DW_ACCESS_public)
   11965              
   11966              $C$DW$1176      .dwtag  DW_TAG_member
   11967                      .dwattr $C$DW$1176, DW_AT_type(*$C$DW$T$70)
TMS320C2000 Assembler PC v22.6.0 Tue Apr 18 11:09:46 2023

Copyright (c) 1996-2018 Texas Instruments Incorporated
C:\Users\User\AppData\Local\Temp\{F169EDD6-E2A2-400A-8386-A823CBD75D49} PAGE  225

   11968                      .dwattr $C$DW$1176, DW_AT_name("numCtrlTicksPerCurrentTick")
   11969                      .dwattr $C$DW$1176, DW_AT_TI_symbol_name("_numCtrlTicksPerCurrentTick")
   11970                      .dwattr $C$DW$1176, DW_AT_data_member_location[DW_OP_plus_uconst 0x7]
   11971                      .dwattr $C$DW$1176, DW_AT_accessibility(DW_ACCESS_public)
   11972              
   11973              $C$DW$1177      .dwtag  DW_TAG_member
   11974                      .dwattr $C$DW$1177, DW_AT_type(*$C$DW$T$70)
   11975                      .dwattr $C$DW$1177, DW_AT_name("numCtrlTicksPerEstTick")
   11976                      .dwattr $C$DW$1177, DW_AT_TI_symbol_name("_numCtrlTicksPerEstTick")
   11977                      .dwattr $C$DW$1177, DW_AT_data_member_location[DW_OP_plus_uconst 0x8]
   11978                      .dwattr $C$DW$1177, DW_AT_accessibility(DW_ACCESS_public)
   11979              
   11980              $C$DW$1178      .dwtag  DW_TAG_member
   11981                      .dwattr $C$DW$1178, DW_AT_type(*$C$DW$T$70)
   11982                      .dwattr $C$DW$1178, DW_AT_name("numCtrlTicksPerSpeedTick")
   11983                      .dwattr $C$DW$1178, DW_AT_TI_symbol_name("_numCtrlTicksPerSpeedTick")
   11984                      .dwattr $C$DW$1178, DW_AT_data_member_location[DW_OP_plus_uconst 0x9]
   11985                      .dwattr $C$DW$1178, DW_AT_accessibility(DW_ACCESS_public)
   11986              
   11987              $C$DW$1179      .dwtag  DW_TAG_member
   11988                      .dwattr $C$DW$1179, DW_AT_type(*$C$DW$T$70)
   11989                      .dwattr $C$DW$1179, DW_AT_name("numCtrlTicksPerTrajTick")
   11990                      .dwattr $C$DW$1179, DW_AT_TI_symbol_name("_numCtrlTicksPerTrajTick")
   11991                      .dwattr $C$DW$1179, DW_AT_data_member_location[DW_OP_plus_uconst 0xa]
   11992                      .dwattr $C$DW$1179, DW_AT_accessibility(DW_ACCESS_public)
   11993              
   11994              $C$DW$1180      .dwtag  DW_TAG_member
   11995                      .dwattr $C$DW$1180, DW_AT_type(*$C$DW$T$34)
   11996                      .dwattr $C$DW$1180, DW_AT_name("numCurrentSensors")
   11997                      .dwattr $C$DW$1180, DW_AT_TI_symbol_name("_numCurrentSensors")
   11998                      .dwattr $C$DW$1180, DW_AT_data_member_location[DW_OP_plus_uconst 0xb]
   11999                      .dwattr $C$DW$1180, DW_AT_accessibility(DW_ACCESS_public)
   12000              
   12001              $C$DW$1181      .dwtag  DW_TAG_member
   12002                      .dwattr $C$DW$1181, DW_AT_type(*$C$DW$T$34)
   12003                      .dwattr $C$DW$1181, DW_AT_name("numVoltageSensors")
   12004                      .dwattr $C$DW$1181, DW_AT_TI_symbol_name("_numVoltageSensors")
   12005                      .dwattr $C$DW$1181, DW_AT_data_member_location[DW_OP_plus_uconst 0xc]
   12006                      .dwattr $C$DW$1181, DW_AT_accessibility(DW_ACCESS_public)
   12007              
   12008              $C$DW$1182      .dwtag  DW_TAG_member
   12009                      .dwattr $C$DW$1182, DW_AT_type(*$C$DW$T$71)
   12010                      .dwattr $C$DW$1182, DW_AT_name("offsetPole_rps")
   12011                      .dwattr $C$DW$1182, DW_AT_TI_symbol_name("_offsetPole_rps")
   12012                      .dwattr $C$DW$1182, DW_AT_data_member_location[DW_OP_plus_uconst 0xe]
   12013                      .dwattr $C$DW$1182, DW_AT_accessibility(DW_ACCESS_public)
   12014              
   12015              $C$DW$1183      .dwtag  DW_TAG_member
   12016                      .dwattr $C$DW$1183, DW_AT_type(*$C$DW$T$71)
   12017                      .dwattr $C$DW$1183, DW_AT_name("fluxPole_rps")
   12018                      .dwattr $C$DW$1183, DW_AT_TI_symbol_name("_fluxPole_rps")
   12019                      .dwattr $C$DW$1183, DW_AT_data_member_location[DW_OP_plus_uconst 0x10]
   12020                      .dwattr $C$DW$1183, DW_AT_accessibility(DW_ACCESS_public)
   12021              
   12022              $C$DW$1184      .dwtag  DW_TAG_member
TMS320C2000 Assembler PC v22.6.0 Tue Apr 18 11:09:46 2023

Copyright (c) 1996-2018 Texas Instruments Incorporated
C:\Users\User\AppData\Local\Temp\{F169EDD6-E2A2-400A-8386-A823CBD75D49} PAGE  226

   12023                      .dwattr $C$DW$1184, DW_AT_type(*$C$DW$T$71)
   12024                      .dwattr $C$DW$1184, DW_AT_name("zeroSpeedLimit")
   12025                      .dwattr $C$DW$1184, DW_AT_TI_symbol_name("_zeroSpeedLimit")
   12026                      .dwattr $C$DW$1184, DW_AT_data_member_location[DW_OP_plus_uconst 0x12]
   12027                      .dwattr $C$DW$1184, DW_AT_accessibility(DW_ACCESS_public)
   12028              
   12029              $C$DW$1185      .dwtag  DW_TAG_member
   12030                      .dwattr $C$DW$1185, DW_AT_type(*$C$DW$T$71)
   12031                      .dwattr $C$DW$1185, DW_AT_name("forceAngleFreq_Hz")
   12032                      .dwattr $C$DW$1185, DW_AT_TI_symbol_name("_forceAngleFreq_Hz")
   12033                      .dwattr $C$DW$1185, DW_AT_data_member_location[DW_OP_plus_uconst 0x14]
   12034                      .dwattr $C$DW$1185, DW_AT_accessibility(DW_ACCESS_public)
   12035              
   12036              $C$DW$1186      .dwtag  DW_TAG_member
   12037                      .dwattr $C$DW$1186, DW_AT_type(*$C$DW$T$71)
   12038                      .dwattr $C$DW$1186, DW_AT_name("maxAccel_Hzps")
   12039                      .dwattr $C$DW$1186, DW_AT_TI_symbol_name("_maxAccel_Hzps")
   12040                      .dwattr $C$DW$1186, DW_AT_data_member_location[DW_OP_plus_uconst 0x16]
   12041                      .dwattr $C$DW$1186, DW_AT_accessibility(DW_ACCESS_public)
   12042              
   12043              $C$DW$1187      .dwtag  DW_TAG_member
   12044                      .dwattr $C$DW$1187, DW_AT_type(*$C$DW$T$71)
   12045                      .dwattr $C$DW$1187, DW_AT_name("maxAccel_est_Hzps")
   12046                      .dwattr $C$DW$1187, DW_AT_TI_symbol_name("_maxAccel_est_Hzps")
   12047                      .dwattr $C$DW$1187, DW_AT_data_member_location[DW_OP_plus_uconst 0x18]
   12048                      .dwattr $C$DW$1187, DW_AT_accessibility(DW_ACCESS_public)
   12049              
   12050              $C$DW$1188      .dwtag  DW_TAG_member
   12051                      .dwattr $C$DW$1188, DW_AT_type(*$C$DW$T$71)
   12052                      .dwattr $C$DW$1188, DW_AT_name("directionPole_rps")
   12053                      .dwattr $C$DW$1188, DW_AT_TI_symbol_name("_directionPole_rps")
   12054                      .dwattr $C$DW$1188, DW_AT_data_member_location[DW_OP_plus_uconst 0x1a]
   12055                      .dwattr $C$DW$1188, DW_AT_accessibility(DW_ACCESS_public)
   12056              
   12057              $C$DW$1189      .dwtag  DW_TAG_member
   12058                      .dwattr $C$DW$1189, DW_AT_type(*$C$DW$T$71)
   12059                      .dwattr $C$DW$1189, DW_AT_name("speedPole_rps")
   12060                      .dwattr $C$DW$1189, DW_AT_TI_symbol_name("_speedPole_rps")
   12061                      .dwattr $C$DW$1189, DW_AT_data_member_location[DW_OP_plus_uconst 0x1c]
   12062                      .dwattr $C$DW$1189, DW_AT_accessibility(DW_ACCESS_public)
   12063              
   12064              $C$DW$1190      .dwtag  DW_TAG_member
   12065                      .dwattr $C$DW$1190, DW_AT_type(*$C$DW$T$71)
   12066                      .dwattr $C$DW$1190, DW_AT_name("dcBusPole_rps")
   12067                      .dwattr $C$DW$1190, DW_AT_TI_symbol_name("_dcBusPole_rps")
   12068                      .dwattr $C$DW$1190, DW_AT_data_member_location[DW_OP_plus_uconst 0x1e]
   12069                      .dwattr $C$DW$1190, DW_AT_accessibility(DW_ACCESS_public)
   12070              
   12071              $C$DW$1191      .dwtag  DW_TAG_member
   12072                      .dwattr $C$DW$1191, DW_AT_type(*$C$DW$T$71)
   12073                      .dwattr $C$DW$1191, DW_AT_name("fluxFraction")
   12074                      .dwattr $C$DW$1191, DW_AT_TI_symbol_name("_fluxFraction")
   12075                      .dwattr $C$DW$1191, DW_AT_data_member_location[DW_OP_plus_uconst 0x20]
   12076                      .dwattr $C$DW$1191, DW_AT_accessibility(DW_ACCESS_public)
   12077              
TMS320C2000 Assembler PC v22.6.0 Tue Apr 18 11:09:46 2023

Copyright (c) 1996-2018 Texas Instruments Incorporated
C:\Users\User\AppData\Local\Temp\{F169EDD6-E2A2-400A-8386-A823CBD75D49} PAGE  227

   12078              $C$DW$1192      .dwtag  DW_TAG_member
   12079                      .dwattr $C$DW$1192, DW_AT_type(*$C$DW$T$71)
   12080                      .dwattr $C$DW$1192, DW_AT_name("indEst_speedMaxFraction")
   12081                      .dwattr $C$DW$1192, DW_AT_TI_symbol_name("_indEst_speedMaxFraction")
   12082                      .dwattr $C$DW$1192, DW_AT_data_member_location[DW_OP_plus_uconst 0x22]
   12083                      .dwattr $C$DW$1192, DW_AT_accessibility(DW_ACCESS_public)
   12084              
   12085              $C$DW$1193      .dwtag  DW_TAG_member
   12086                      .dwattr $C$DW$1193, DW_AT_type(*$C$DW$T$71)
   12087                      .dwattr $C$DW$1193, DW_AT_name("powerWarpGain")
   12088                      .dwattr $C$DW$1193, DW_AT_TI_symbol_name("_powerWarpGain")
   12089                      .dwattr $C$DW$1193, DW_AT_data_member_location[DW_OP_plus_uconst 0x24]
   12090                      .dwattr $C$DW$1193, DW_AT_accessibility(DW_ACCESS_public)
   12091              
   12092              $C$DW$1194      .dwtag  DW_TAG_member
   12093                      .dwattr $C$DW$1194, DW_AT_type(*$C$DW$T$70)
   12094                      .dwattr $C$DW$1194, DW_AT_name("systemFreq_MHz")
   12095                      .dwattr $C$DW$1194, DW_AT_TI_symbol_name("_systemFreq_MHz")
   12096                      .dwattr $C$DW$1194, DW_AT_data_member_location[DW_OP_plus_uconst 0x26]
   12097                      .dwattr $C$DW$1194, DW_AT_accessibility(DW_ACCESS_public)
   12098              
   12099              $C$DW$1195      .dwtag  DW_TAG_member
   12100                      .dwattr $C$DW$1195, DW_AT_type(*$C$DW$T$71)
   12101                      .dwattr $C$DW$1195, DW_AT_name("pwmPeriod_usec")
   12102                      .dwattr $C$DW$1195, DW_AT_TI_symbol_name("_pwmPeriod_usec")
   12103                      .dwattr $C$DW$1195, DW_AT_data_member_location[DW_OP_plus_uconst 0x28]
   12104                      .dwattr $C$DW$1195, DW_AT_accessibility(DW_ACCESS_public)
   12105              
   12106              $C$DW$1196      .dwtag  DW_TAG_member
   12107                      .dwattr $C$DW$1196, DW_AT_type(*$C$DW$T$71)
   12108                      .dwattr $C$DW$1196, DW_AT_name("voltage_sf")
   12109                      .dwattr $C$DW$1196, DW_AT_TI_symbol_name("_voltage_sf")
   12110                      .dwattr $C$DW$1196, DW_AT_data_member_location[DW_OP_plus_uconst 0x2a]
   12111                      .dwattr $C$DW$1196, DW_AT_accessibility(DW_ACCESS_public)
   12112              
   12113              $C$DW$1197      .dwtag  DW_TAG_member
   12114                      .dwattr $C$DW$1197, DW_AT_type(*$C$DW$T$71)
   12115                      .dwattr $C$DW$1197, DW_AT_name("current_sf")
   12116                      .dwattr $C$DW$1197, DW_AT_TI_symbol_name("_current_sf")
   12117                      .dwattr $C$DW$1197, DW_AT_data_member_location[DW_OP_plus_uconst 0x2c]
   12118                      .dwattr $C$DW$1197, DW_AT_accessibility(DW_ACCESS_public)
   12119              
   12120              $C$DW$1198      .dwtag  DW_TAG_member
   12121                      .dwattr $C$DW$1198, DW_AT_type(*$C$DW$T$71)
   12122                      .dwattr $C$DW$1198, DW_AT_name("voltageFilterPole_rps")
   12123                      .dwattr $C$DW$1198, DW_AT_TI_symbol_name("_voltageFilterPole_rps")
   12124                      .dwattr $C$DW$1198, DW_AT_data_member_location[DW_OP_plus_uconst 0x2e]
   12125                      .dwattr $C$DW$1198, DW_AT_accessibility(DW_ACCESS_public)
   12126              
   12127              $C$DW$1199      .dwtag  DW_TAG_member
   12128                      .dwattr $C$DW$1199, DW_AT_type(*$C$DW$T$71)
   12129                      .dwattr $C$DW$1199, DW_AT_name("maxVsMag_pu")
   12130                      .dwattr $C$DW$1199, DW_AT_TI_symbol_name("_maxVsMag_pu")
   12131                      .dwattr $C$DW$1199, DW_AT_data_member_location[DW_OP_plus_uconst 0x30]
   12132                      .dwattr $C$DW$1199, DW_AT_accessibility(DW_ACCESS_public)
TMS320C2000 Assembler PC v22.6.0 Tue Apr 18 11:09:46 2023

Copyright (c) 1996-2018 Texas Instruments Incorporated
C:\Users\User\AppData\Local\Temp\{F169EDD6-E2A2-400A-8386-A823CBD75D49} PAGE  228

   12133              
   12134              $C$DW$1200      .dwtag  DW_TAG_member
   12135                      .dwattr $C$DW$1200, DW_AT_type(*$C$DW$T$71)
   12136                      .dwattr $C$DW$1200, DW_AT_name("estKappa")
   12137                      .dwattr $C$DW$1200, DW_AT_TI_symbol_name("_estKappa")
   12138                      .dwattr $C$DW$1200, DW_AT_data_member_location[DW_OP_plus_uconst 0x32]
   12139                      .dwattr $C$DW$1200, DW_AT_accessibility(DW_ACCESS_public)
   12140              
   12141              $C$DW$1201      .dwtag  DW_TAG_member
   12142                      .dwattr $C$DW$1201, DW_AT_type(*$C$DW$T$135)
   12143                      .dwattr $C$DW$1201, DW_AT_name("motor_type")
   12144                      .dwattr $C$DW$1201, DW_AT_TI_symbol_name("_motor_type")
   12145                      .dwattr $C$DW$1201, DW_AT_data_member_location[DW_OP_plus_uconst 0x34]
   12146                      .dwattr $C$DW$1201, DW_AT_accessibility(DW_ACCESS_public)
   12147              
   12148              $C$DW$1202      .dwtag  DW_TAG_member
   12149                      .dwattr $C$DW$1202, DW_AT_type(*$C$DW$T$70)
   12150                      .dwattr $C$DW$1202, DW_AT_name("motor_numPolePairs")
   12151                      .dwattr $C$DW$1202, DW_AT_TI_symbol_name("_motor_numPolePairs")
   12152                      .dwattr $C$DW$1202, DW_AT_data_member_location[DW_OP_plus_uconst 0x35]
   12153                      .dwattr $C$DW$1202, DW_AT_accessibility(DW_ACCESS_public)
   12154              
   12155              $C$DW$1203      .dwtag  DW_TAG_member
   12156                      .dwattr $C$DW$1203, DW_AT_type(*$C$DW$T$71)
   12157                      .dwattr $C$DW$1203, DW_AT_name("motor_ratedFlux")
   12158                      .dwattr $C$DW$1203, DW_AT_TI_symbol_name("_motor_ratedFlux")
   12159                      .dwattr $C$DW$1203, DW_AT_data_member_location[DW_OP_plus_uconst 0x36]
   12160                      .dwattr $C$DW$1203, DW_AT_accessibility(DW_ACCESS_public)
   12161              
   12162              $C$DW$1204      .dwtag  DW_TAG_member
   12163                      .dwattr $C$DW$1204, DW_AT_type(*$C$DW$T$71)
   12164                      .dwattr $C$DW$1204, DW_AT_name("motor_Rr")
   12165                      .dwattr $C$DW$1204, DW_AT_TI_symbol_name("_motor_Rr")
   12166                      .dwattr $C$DW$1204, DW_AT_data_member_location[DW_OP_plus_uconst 0x38]
   12167                      .dwattr $C$DW$1204, DW_AT_accessibility(DW_ACCESS_public)
   12168              
   12169              $C$DW$1205      .dwtag  DW_TAG_member
   12170                      .dwattr $C$DW$1205, DW_AT_type(*$C$DW$T$71)
   12171                      .dwattr $C$DW$1205, DW_AT_name("motor_Rs")
   12172                      .dwattr $C$DW$1205, DW_AT_TI_symbol_name("_motor_Rs")
   12173                      .dwattr $C$DW$1205, DW_AT_data_member_location[DW_OP_plus_uconst 0x3a]
   12174                      .dwattr $C$DW$1205, DW_AT_accessibility(DW_ACCESS_public)
   12175              
   12176              $C$DW$1206      .dwtag  DW_TAG_member
   12177                      .dwattr $C$DW$1206, DW_AT_type(*$C$DW$T$71)
   12178                      .dwattr $C$DW$1206, DW_AT_name("motor_Ls_d")
   12179                      .dwattr $C$DW$1206, DW_AT_TI_symbol_name("_motor_Ls_d")
   12180                      .dwattr $C$DW$1206, DW_AT_data_member_location[DW_OP_plus_uconst 0x3c]
   12181                      .dwattr $C$DW$1206, DW_AT_accessibility(DW_ACCESS_public)
   12182              
   12183              $C$DW$1207      .dwtag  DW_TAG_member
   12184                      .dwattr $C$DW$1207, DW_AT_type(*$C$DW$T$71)
   12185                      .dwattr $C$DW$1207, DW_AT_name("motor_Ls_q")
   12186                      .dwattr $C$DW$1207, DW_AT_TI_symbol_name("_motor_Ls_q")
   12187                      .dwattr $C$DW$1207, DW_AT_data_member_location[DW_OP_plus_uconst 0x3e]
TMS320C2000 Assembler PC v22.6.0 Tue Apr 18 11:09:46 2023

Copyright (c) 1996-2018 Texas Instruments Incorporated
C:\Users\User\AppData\Local\Temp\{F169EDD6-E2A2-400A-8386-A823CBD75D49} PAGE  229

   12188                      .dwattr $C$DW$1207, DW_AT_accessibility(DW_ACCESS_public)
   12189              
   12190              $C$DW$1208      .dwtag  DW_TAG_member
   12191                      .dwattr $C$DW$1208, DW_AT_type(*$C$DW$T$71)
   12192                      .dwattr $C$DW$1208, DW_AT_name("maxCurrent")
   12193                      .dwattr $C$DW$1208, DW_AT_TI_symbol_name("_maxCurrent")
   12194                      .dwattr $C$DW$1208, DW_AT_data_member_location[DW_OP_plus_uconst 0x40]
   12195                      .dwattr $C$DW$1208, DW_AT_accessibility(DW_ACCESS_public)
   12196              
   12197              $C$DW$1209      .dwtag  DW_TAG_member
   12198                      .dwattr $C$DW$1209, DW_AT_type(*$C$DW$T$71)
   12199                      .dwattr $C$DW$1209, DW_AT_name("maxCurrent_resEst")
   12200                      .dwattr $C$DW$1209, DW_AT_TI_symbol_name("_maxCurrent_resEst")
   12201                      .dwattr $C$DW$1209, DW_AT_data_member_location[DW_OP_plus_uconst 0x42]
   12202                      .dwattr $C$DW$1209, DW_AT_accessibility(DW_ACCESS_public)
   12203              
   12204              $C$DW$1210      .dwtag  DW_TAG_member
   12205                      .dwattr $C$DW$1210, DW_AT_type(*$C$DW$T$71)
   12206                      .dwattr $C$DW$1210, DW_AT_name("maxCurrent_indEst")
   12207                      .dwattr $C$DW$1210, DW_AT_TI_symbol_name("_maxCurrent_indEst")
   12208                      .dwattr $C$DW$1210, DW_AT_data_member_location[DW_OP_plus_uconst 0x44]
   12209                      .dwattr $C$DW$1210, DW_AT_accessibility(DW_ACCESS_public)
   12210              
   12211              $C$DW$1211      .dwtag  DW_TAG_member
   12212                      .dwattr $C$DW$1211, DW_AT_type(*$C$DW$T$71)
   12213                      .dwattr $C$DW$1211, DW_AT_name("maxCurrentSlope")
   12214                      .dwattr $C$DW$1211, DW_AT_TI_symbol_name("_maxCurrentSlope")
   12215                      .dwattr $C$DW$1211, DW_AT_data_member_location[DW_OP_plus_uconst 0x46]
   12216                      .dwattr $C$DW$1211, DW_AT_accessibility(DW_ACCESS_public)
   12217              
   12218              $C$DW$1212      .dwtag  DW_TAG_member
   12219                      .dwattr $C$DW$1212, DW_AT_type(*$C$DW$T$71)
   12220                      .dwattr $C$DW$1212, DW_AT_name("maxCurrentSlope_powerWarp")
   12221                      .dwattr $C$DW$1212, DW_AT_TI_symbol_name("_maxCurrentSlope_powerWarp")
   12222                      .dwattr $C$DW$1212, DW_AT_data_member_location[DW_OP_plus_uconst 0x48]
   12223                      .dwattr $C$DW$1212, DW_AT_accessibility(DW_ACCESS_public)
   12224              
   12225              $C$DW$1213      .dwtag  DW_TAG_member
   12226                      .dwattr $C$DW$1213, DW_AT_type(*$C$DW$T$71)
   12227                      .dwattr $C$DW$1213, DW_AT_name("IdRated")
   12228                      .dwattr $C$DW$1213, DW_AT_TI_symbol_name("_IdRated")
   12229                      .dwattr $C$DW$1213, DW_AT_data_member_location[DW_OP_plus_uconst 0x4a]
   12230                      .dwattr $C$DW$1213, DW_AT_accessibility(DW_ACCESS_public)
   12231              
   12232              $C$DW$1214      .dwtag  DW_TAG_member
   12233                      .dwattr $C$DW$1214, DW_AT_type(*$C$DW$T$71)
   12234                      .dwattr $C$DW$1214, DW_AT_name("IdRatedFraction_indEst")
   12235                      .dwattr $C$DW$1214, DW_AT_TI_symbol_name("_IdRatedFraction_indEst")
   12236                      .dwattr $C$DW$1214, DW_AT_data_member_location[DW_OP_plus_uconst 0x4c]
   12237                      .dwattr $C$DW$1214, DW_AT_accessibility(DW_ACCESS_public)
   12238              
   12239              $C$DW$1215      .dwtag  DW_TAG_member
   12240                      .dwattr $C$DW$1215, DW_AT_type(*$C$DW$T$71)
   12241                      .dwattr $C$DW$1215, DW_AT_name("IdRatedFraction_ratedFlux")
   12242                      .dwattr $C$DW$1215, DW_AT_TI_symbol_name("_IdRatedFraction_ratedFlux")
TMS320C2000 Assembler PC v22.6.0 Tue Apr 18 11:09:46 2023

Copyright (c) 1996-2018 Texas Instruments Incorporated
C:\Users\User\AppData\Local\Temp\{F169EDD6-E2A2-400A-8386-A823CBD75D49} PAGE  230

   12243                      .dwattr $C$DW$1215, DW_AT_data_member_location[DW_OP_plus_uconst 0x4e]
   12244                      .dwattr $C$DW$1215, DW_AT_accessibility(DW_ACCESS_public)
   12245              
   12246              $C$DW$1216      .dwtag  DW_TAG_member
   12247                      .dwattr $C$DW$1216, DW_AT_type(*$C$DW$T$71)
   12248                      .dwattr $C$DW$1216, DW_AT_name("IdRated_delta")
   12249                      .dwattr $C$DW$1216, DW_AT_TI_symbol_name("_IdRated_delta")
   12250                      .dwattr $C$DW$1216, DW_AT_data_member_location[DW_OP_plus_uconst 0x50]
   12251                      .dwattr $C$DW$1216, DW_AT_accessibility(DW_ACCESS_public)
   12252              
   12253              $C$DW$1217      .dwtag  DW_TAG_member
   12254                      .dwattr $C$DW$1217, DW_AT_type(*$C$DW$T$71)
   12255                      .dwattr $C$DW$1217, DW_AT_name("fluxEstFreq_Hz")
   12256                      .dwattr $C$DW$1217, DW_AT_TI_symbol_name("_fluxEstFreq_Hz")
   12257                      .dwattr $C$DW$1217, DW_AT_data_member_location[DW_OP_plus_uconst 0x52]
   12258                      .dwattr $C$DW$1217, DW_AT_accessibility(DW_ACCESS_public)
   12259              
   12260              $C$DW$1218      .dwtag  DW_TAG_member
   12261                      .dwattr $C$DW$1218, DW_AT_type(*$C$DW$T$68)
   12262                      .dwattr $C$DW$1218, DW_AT_name("ctrlWaitTime")
   12263                      .dwattr $C$DW$1218, DW_AT_TI_symbol_name("_ctrlWaitTime")
   12264                      .dwattr $C$DW$1218, DW_AT_data_member_location[DW_OP_plus_uconst 0x54]
   12265                      .dwattr $C$DW$1218, DW_AT_accessibility(DW_ACCESS_public)
   12266              
   12267              $C$DW$1219      .dwtag  DW_TAG_member
   12268                      .dwattr $C$DW$1219, DW_AT_type(*$C$DW$T$163)
   12269                      .dwattr $C$DW$1219, DW_AT_name("estWaitTime")
   12270                      .dwattr $C$DW$1219, DW_AT_TI_symbol_name("_estWaitTime")
   12271                      .dwattr $C$DW$1219, DW_AT_data_member_location[DW_OP_plus_uconst 0x5c]
   12272                      .dwattr $C$DW$1219, DW_AT_accessibility(DW_ACCESS_public)
   12273              
   12274              $C$DW$1220      .dwtag  DW_TAG_member
   12275                      .dwattr $C$DW$1220, DW_AT_type(*$C$DW$T$164)
   12276                      .dwattr $C$DW$1220, DW_AT_name("FluxWaitTime")
   12277                      .dwattr $C$DW$1220, DW_AT_TI_symbol_name("_FluxWaitTime")
   12278                      .dwattr $C$DW$1220, DW_AT_data_member_location[DW_OP_plus_uconst 0x78]
   12279                      .dwattr $C$DW$1220, DW_AT_accessibility(DW_ACCESS_public)
   12280              
   12281              $C$DW$1221      .dwtag  DW_TAG_member
   12282                      .dwattr $C$DW$1221, DW_AT_type(*$C$DW$T$165)
   12283                      .dwattr $C$DW$1221, DW_AT_name("LsWaitTime")
   12284                      .dwattr $C$DW$1221, DW_AT_TI_symbol_name("_LsWaitTime")
   12285                      .dwattr $C$DW$1221, DW_AT_data_member_location[DW_OP_plus_uconst 0x84]
   12286                      .dwattr $C$DW$1221, DW_AT_accessibility(DW_ACCESS_public)
   12287              
   12288              $C$DW$1222      .dwtag  DW_TAG_member
   12289                      .dwattr $C$DW$1222, DW_AT_type(*$C$DW$T$164)
   12290                      .dwattr $C$DW$1222, DW_AT_name("RsWaitTime")
   12291                      .dwattr $C$DW$1222, DW_AT_TI_symbol_name("_RsWaitTime")
   12292                      .dwattr $C$DW$1222, DW_AT_data_member_location[DW_OP_plus_uconst 0x92]
   12293                      .dwattr $C$DW$1222, DW_AT_accessibility(DW_ACCESS_public)
   12294              
   12295              $C$DW$1223      .dwtag  DW_TAG_member
   12296                      .dwattr $C$DW$1223, DW_AT_type(*$C$DW$T$67)
   12297                      .dwattr $C$DW$1223, DW_AT_name("ctrlFreq_Hz")
TMS320C2000 Assembler PC v22.6.0 Tue Apr 18 11:09:46 2023

Copyright (c) 1996-2018 Texas Instruments Incorporated
C:\Users\User\AppData\Local\Temp\{F169EDD6-E2A2-400A-8386-A823CBD75D49} PAGE  231

   12298                      .dwattr $C$DW$1223, DW_AT_TI_symbol_name("_ctrlFreq_Hz")
   12299                      .dwattr $C$DW$1223, DW_AT_data_member_location[DW_OP_plus_uconst 0x9e]
   12300                      .dwattr $C$DW$1223, DW_AT_accessibility(DW_ACCESS_public)
   12301              
   12302              $C$DW$1224      .dwtag  DW_TAG_member
   12303                      .dwattr $C$DW$1224, DW_AT_type(*$C$DW$T$67)
   12304                      .dwattr $C$DW$1224, DW_AT_name("estFreq_Hz")
   12305                      .dwattr $C$DW$1224, DW_AT_TI_symbol_name("_estFreq_Hz")
   12306                      .dwattr $C$DW$1224, DW_AT_data_member_location[DW_OP_plus_uconst 0xa0]
   12307                      .dwattr $C$DW$1224, DW_AT_accessibility(DW_ACCESS_public)
   12308              
   12309              $C$DW$1225      .dwtag  DW_TAG_member
   12310                      .dwattr $C$DW$1225, DW_AT_type(*$C$DW$T$67)
   12311                      .dwattr $C$DW$1225, DW_AT_name("RoverL_estFreq_Hz")
   12312                      .dwattr $C$DW$1225, DW_AT_TI_symbol_name("_RoverL_estFreq_Hz")
   12313                      .dwattr $C$DW$1225, DW_AT_data_member_location[DW_OP_plus_uconst 0xa2]
   12314                      .dwattr $C$DW$1225, DW_AT_accessibility(DW_ACCESS_public)
   12315              
   12316              $C$DW$1226      .dwtag  DW_TAG_member
   12317                      .dwattr $C$DW$1226, DW_AT_type(*$C$DW$T$67)
   12318                      .dwattr $C$DW$1226, DW_AT_name("trajFreq_Hz")
   12319                      .dwattr $C$DW$1226, DW_AT_TI_symbol_name("_trajFreq_Hz")
   12320                      .dwattr $C$DW$1226, DW_AT_data_member_location[DW_OP_plus_uconst 0xa4]
   12321                      .dwattr $C$DW$1226, DW_AT_accessibility(DW_ACCESS_public)
   12322              
   12323              $C$DW$1227      .dwtag  DW_TAG_member
   12324                      .dwattr $C$DW$1227, DW_AT_type(*$C$DW$T$71)
   12325                      .dwattr $C$DW$1227, DW_AT_name("ctrlPeriod_sec")
   12326                      .dwattr $C$DW$1227, DW_AT_TI_symbol_name("_ctrlPeriod_sec")
   12327                      .dwattr $C$DW$1227, DW_AT_data_member_location[DW_OP_plus_uconst 0xa6]
   12328                      .dwattr $C$DW$1227, DW_AT_accessibility(DW_ACCESS_public)
   12329              
   12330              $C$DW$1228      .dwtag  DW_TAG_member
   12331                      .dwattr $C$DW$1228, DW_AT_type(*$C$DW$T$71)
   12332                      .dwattr $C$DW$1228, DW_AT_name("maxNegativeIdCurrent_a")
   12333                      .dwattr $C$DW$1228, DW_AT_TI_symbol_name("_maxNegativeIdCurrent_a")
   12334                      .dwattr $C$DW$1228, DW_AT_data_member_location[DW_OP_plus_uconst 0xa8]
   12335                      .dwattr $C$DW$1228, DW_AT_accessibility(DW_ACCESS_public)
   12336              
   12337              $C$DW$1229      .dwtag  DW_TAG_member
   12338                      .dwattr $C$DW$1229, DW_AT_type(*$C$DW$T$167)
   12339                      .dwattr $C$DW$1229, DW_AT_name("errorCode")
   12340                      .dwattr $C$DW$1229, DW_AT_TI_symbol_name("_errorCode")
   12341                      .dwattr $C$DW$1229, DW_AT_data_member_location[DW_OP_plus_uconst 0xaa]
   12342                      .dwattr $C$DW$1229, DW_AT_accessibility(DW_ACCESS_public)
   12343              
   12344                      .dwendtag $C$DW$T$168
   12345              
   12346              $C$DW$T$227     .dwtag  DW_TAG_typedef
   12347                      .dwattr $C$DW$T$227, DW_AT_name("USER_Params")
   12348                      .dwattr $C$DW$T$227, DW_AT_type(*$C$DW$T$168)
   12349                      .dwattr $C$DW$T$227, DW_AT_language(DW_LANG_C)
   12350              
   12351              $C$DW$T$228     .dwtag  DW_TAG_pointer_type
   12352                      .dwattr $C$DW$T$228, DW_AT_type(*$C$DW$T$227)
TMS320C2000 Assembler PC v22.6.0 Tue Apr 18 11:09:46 2023

Copyright (c) 1996-2018 Texas Instruments Incorporated
C:\Users\User\AppData\Local\Temp\{F169EDD6-E2A2-400A-8386-A823CBD75D49} PAGE  232

   12353                      .dwattr $C$DW$T$228, DW_AT_address_class(0x20)
   12354              
   12355              $C$DW$1230      .dwtag  DW_TAG_TI_far_type
   12356                      .dwattr $C$DW$1230, DW_AT_type(*$C$DW$T$228)
   12357              
   12358              $C$DW$T$229     .dwtag  DW_TAG_const_type
   12359                      .dwattr $C$DW$T$229, DW_AT_type(*$C$DW$1230)
   12360              
   12361              
   12362              $C$DW$T$169     .dwtag  DW_TAG_structure_type
   12363                      .dwattr $C$DW$T$169, DW_AT_name("_WDOG_Obj_")
   12364                      .dwattr $C$DW$T$169, DW_AT_byte_size(0x08)
   12365              $C$DW$1231      .dwtag  DW_TAG_member
   12366                      .dwattr $C$DW$1231, DW_AT_type(*$C$DW$T$24)
   12367                      .dwattr $C$DW$1231, DW_AT_name("SCSR")
   12368                      .dwattr $C$DW$1231, DW_AT_TI_symbol_name("_SCSR")
   12369                      .dwattr $C$DW$1231, DW_AT_data_member_location[DW_OP_plus_uconst 0x0]
   12370                      .dwattr $C$DW$1231, DW_AT_accessibility(DW_ACCESS_public)
   12371              
   12372              $C$DW$1232      .dwtag  DW_TAG_member
   12373                      .dwattr $C$DW$1232, DW_AT_type(*$C$DW$T$24)
   12374                      .dwattr $C$DW$1232, DW_AT_name("WDCNTR")
   12375                      .dwattr $C$DW$1232, DW_AT_TI_symbol_name("_WDCNTR")
   12376                      .dwattr $C$DW$1232, DW_AT_data_member_location[DW_OP_plus_uconst 0x1]
   12377                      .dwattr $C$DW$1232, DW_AT_accessibility(DW_ACCESS_public)
   12378              
   12379              $C$DW$1233      .dwtag  DW_TAG_member
   12380                      .dwattr $C$DW$1233, DW_AT_type(*$C$DW$T$24)
   12381                      .dwattr $C$DW$1233, DW_AT_name("rsvd_1")
   12382                      .dwattr $C$DW$1233, DW_AT_TI_symbol_name("_rsvd_1")
   12383                      .dwattr $C$DW$1233, DW_AT_data_member_location[DW_OP_plus_uconst 0x2]
   12384                      .dwattr $C$DW$1233, DW_AT_accessibility(DW_ACCESS_public)
   12385              
   12386              $C$DW$1234      .dwtag  DW_TAG_member
   12387                      .dwattr $C$DW$1234, DW_AT_type(*$C$DW$T$24)
   12388                      .dwattr $C$DW$1234, DW_AT_name("WDKEY")
   12389                      .dwattr $C$DW$1234, DW_AT_TI_symbol_name("_WDKEY")
   12390                      .dwattr $C$DW$1234, DW_AT_data_member_location[DW_OP_plus_uconst 0x3]
   12391                      .dwattr $C$DW$1234, DW_AT_accessibility(DW_ACCESS_public)
   12392              
   12393              $C$DW$1235      .dwtag  DW_TAG_member
   12394                      .dwattr $C$DW$1235, DW_AT_type(*$C$DW$T$29)
   12395                      .dwattr $C$DW$1235, DW_AT_name("rsvd_2")
   12396                      .dwattr $C$DW$1235, DW_AT_TI_symbol_name("_rsvd_2")
   12397                      .dwattr $C$DW$1235, DW_AT_data_member_location[DW_OP_plus_uconst 0x4]
   12398                      .dwattr $C$DW$1235, DW_AT_accessibility(DW_ACCESS_public)
   12399              
   12400              $C$DW$1236      .dwtag  DW_TAG_member
   12401                      .dwattr $C$DW$1236, DW_AT_type(*$C$DW$T$24)
   12402                      .dwattr $C$DW$1236, DW_AT_name("WDCR")
   12403                      .dwattr $C$DW$1236, DW_AT_TI_symbol_name("_WDCR")
   12404                      .dwattr $C$DW$1236, DW_AT_data_member_location[DW_OP_plus_uconst 0x7]
   12405                      .dwattr $C$DW$1236, DW_AT_accessibility(DW_ACCESS_public)
   12406              
   12407                      .dwendtag $C$DW$T$169
TMS320C2000 Assembler PC v22.6.0 Tue Apr 18 11:09:46 2023

Copyright (c) 1996-2018 Texas Instruments Incorporated
C:\Users\User\AppData\Local\Temp\{F169EDD6-E2A2-400A-8386-A823CBD75D49} PAGE  233

   12408              
   12409              $C$DW$T$121     .dwtag  DW_TAG_pointer_type
   12410                      .dwattr $C$DW$T$121, DW_AT_type(*$C$DW$T$169)
   12411                      .dwattr $C$DW$T$121, DW_AT_address_class(0x20)
   12412              
   12413              $C$DW$T$122     .dwtag  DW_TAG_typedef
   12414                      .dwattr $C$DW$T$122, DW_AT_name("WDOG_Handle")
   12415                      .dwattr $C$DW$T$122, DW_AT_type(*$C$DW$T$121)
   12416                      .dwattr $C$DW$T$122, DW_AT_language(DW_LANG_C)
   12417              
   12418              $C$DW$T$2       .dwtag  DW_TAG_unspecified_type
   12419                      .dwattr $C$DW$T$2, DW_AT_name("void")
   12420              
   12421              
   12422              $C$DW$T$149     .dwtag  DW_TAG_subroutine_type
   12423                      .dwattr $C$DW$T$149, DW_AT_language(DW_LANG_C)
   12424                      .dwendtag $C$DW$T$149
   12425              
   12426              $C$DW$T$150     .dwtag  DW_TAG_pointer_type
   12427                      .dwattr $C$DW$T$150, DW_AT_type(*$C$DW$T$149)
   12428                      .dwattr $C$DW$T$150, DW_AT_address_class(0x20)
   12429              
   12430              $C$DW$T$151     .dwtag  DW_TAG_typedef
   12431                      .dwattr $C$DW$T$151, DW_AT_name("PIE_IntVec_t")
   12432                      .dwattr $C$DW$T$151, DW_AT_type(*$C$DW$T$150)
   12433                      .dwattr $C$DW$T$151, DW_AT_language(DW_LANG_C)
   12434              
   12435              $C$DW$1237      .dwtag  DW_TAG_TI_far_type
   12436                      .dwattr $C$DW$1237, DW_AT_type(*$C$DW$T$151)
   12437              
   12438              $C$DW$T$152     .dwtag  DW_TAG_volatile_type
   12439                      .dwattr $C$DW$T$152, DW_AT_type(*$C$DW$1237)
   12440              
   12441              $C$DW$T$4       .dwtag  DW_TAG_base_type
   12442                      .dwattr $C$DW$T$4, DW_AT_encoding(DW_ATE_boolean)
   12443                      .dwattr $C$DW$T$4, DW_AT_name("bool")
   12444                      .dwattr $C$DW$T$4, DW_AT_byte_size(0x01)
   12445              
   12446              $C$DW$T$5       .dwtag  DW_TAG_base_type
   12447                      .dwattr $C$DW$T$5, DW_AT_encoding(DW_ATE_signed_char)
   12448                      .dwattr $C$DW$T$5, DW_AT_name("signed char")
   12449                      .dwattr $C$DW$T$5, DW_AT_byte_size(0x01)
   12450              
   12451              $C$DW$T$6       .dwtag  DW_TAG_base_type
   12452                      .dwattr $C$DW$T$6, DW_AT_encoding(DW_ATE_unsigned_char)
   12453                      .dwattr $C$DW$T$6, DW_AT_name("unsigned char")
   12454                      .dwattr $C$DW$T$6, DW_AT_byte_size(0x01)
   12455              
   12456              $C$DW$T$7       .dwtag  DW_TAG_base_type
   12457                      .dwattr $C$DW$T$7, DW_AT_encoding(DW_ATE_signed_char)
   12458                      .dwattr $C$DW$T$7, DW_AT_name("wchar_t")
   12459                      .dwattr $C$DW$T$7, DW_AT_byte_size(0x01)
   12460              
   12461              $C$DW$T$8       .dwtag  DW_TAG_base_type
   12462                      .dwattr $C$DW$T$8, DW_AT_encoding(DW_ATE_signed)
TMS320C2000 Assembler PC v22.6.0 Tue Apr 18 11:09:46 2023

Copyright (c) 1996-2018 Texas Instruments Incorporated
C:\Users\User\AppData\Local\Temp\{F169EDD6-E2A2-400A-8386-A823CBD75D49} PAGE  234

   12463                      .dwattr $C$DW$T$8, DW_AT_name("short")
   12464                      .dwattr $C$DW$T$8, DW_AT_byte_size(0x01)
   12465              
   12466              $C$DW$T$9       .dwtag  DW_TAG_base_type
   12467                      .dwattr $C$DW$T$9, DW_AT_encoding(DW_ATE_unsigned)
   12468                      .dwattr $C$DW$T$9, DW_AT_name("unsigned short")
   12469                      .dwattr $C$DW$T$9, DW_AT_byte_size(0x01)
   12470              
   12471              $C$DW$T$10      .dwtag  DW_TAG_base_type
   12472                      .dwattr $C$DW$T$10, DW_AT_encoding(DW_ATE_signed)
   12473                      .dwattr $C$DW$T$10, DW_AT_name("int")
   12474                      .dwattr $C$DW$T$10, DW_AT_byte_size(0x01)
   12475              
   12476              $C$DW$T$11      .dwtag  DW_TAG_base_type
   12477                      .dwattr $C$DW$T$11, DW_AT_encoding(DW_ATE_unsigned)
   12478                      .dwattr $C$DW$T$11, DW_AT_name("unsigned int")
   12479                      .dwattr $C$DW$T$11, DW_AT_byte_size(0x01)
   12480              
   12481              $C$DW$T$22      .dwtag  DW_TAG_typedef
   12482                      .dwattr $C$DW$T$22, DW_AT_name("__uint16_t")
   12483                      .dwattr $C$DW$T$22, DW_AT_type(*$C$DW$T$11)
   12484                      .dwattr $C$DW$T$22, DW_AT_language(DW_LANG_C)
   12485              
   12486              $C$DW$T$69      .dwtag  DW_TAG_typedef
   12487                      .dwattr $C$DW$T$69, DW_AT_name("__uint_least16_t")
   12488                      .dwattr $C$DW$T$69, DW_AT_type(*$C$DW$T$22)
   12489                      .dwattr $C$DW$T$69, DW_AT_language(DW_LANG_C)
   12490              
   12491              $C$DW$T$70      .dwtag  DW_TAG_typedef
   12492                      .dwattr $C$DW$T$70, DW_AT_name("uint_least16_t")
   12493                      .dwattr $C$DW$T$70, DW_AT_type(*$C$DW$T$69)
   12494                      .dwattr $C$DW$T$70, DW_AT_language(DW_LANG_C)
   12495              
   12496              $C$DW$T$33      .dwtag  DW_TAG_typedef
   12497                      .dwattr $C$DW$T$33, DW_AT_name("__uint_least8_t")
   12498                      .dwattr $C$DW$T$33, DW_AT_type(*$C$DW$T$22)
   12499                      .dwattr $C$DW$T$33, DW_AT_language(DW_LANG_C)
   12500              
   12501              $C$DW$T$34      .dwtag  DW_TAG_typedef
   12502                      .dwattr $C$DW$T$34, DW_AT_name("uint_least8_t")
   12503                      .dwattr $C$DW$T$34, DW_AT_type(*$C$DW$T$33)
   12504                      .dwattr $C$DW$T$34, DW_AT_language(DW_LANG_C)
   12505              
   12506              $C$DW$1238      .dwtag  DW_TAG_TI_far_type
   12507                      .dwattr $C$DW$1238, DW_AT_type(*$C$DW$T$34)
   12508              
   12509              $C$DW$T$233     .dwtag  DW_TAG_const_type
   12510                      .dwattr $C$DW$T$233, DW_AT_type(*$C$DW$1238)
   12511              
   12512              $C$DW$T$23      .dwtag  DW_TAG_typedef
   12513                      .dwattr $C$DW$T$23, DW_AT_name("uint16_t")
   12514                      .dwattr $C$DW$T$23, DW_AT_type(*$C$DW$T$22)
   12515                      .dwattr $C$DW$T$23, DW_AT_language(DW_LANG_C)
   12516              
   12517              $C$DW$1239      .dwtag  DW_TAG_TI_far_type
TMS320C2000 Assembler PC v22.6.0 Tue Apr 18 11:09:46 2023

Copyright (c) 1996-2018 Texas Instruments Incorporated
C:\Users\User\AppData\Local\Temp\{F169EDD6-E2A2-400A-8386-A823CBD75D49} PAGE  235

   12518                      .dwattr $C$DW$1239, DW_AT_type(*$C$DW$T$23)
   12519              
   12520              $C$DW$T$24      .dwtag  DW_TAG_volatile_type
   12521                      .dwattr $C$DW$T$24, DW_AT_type(*$C$DW$1239)
   12522              
   12523              
   12524              $C$DW$T$25      .dwtag  DW_TAG_array_type
   12525                      .dwattr $C$DW$T$25, DW_AT_type(*$C$DW$T$24)
   12526                      .dwattr $C$DW$T$25, DW_AT_language(DW_LANG_C)
   12527                      .dwattr $C$DW$T$25, DW_AT_byte_size(0x10)
   12528              $C$DW$1240      .dwtag  DW_TAG_subrange_type
   12529                      .dwattr $C$DW$1240, DW_AT_upper_bound(0x0f)
   12530              
   12531                      .dwendtag $C$DW$T$25
   12532              
   12533              
   12534              $C$DW$T$26      .dwtag  DW_TAG_array_type
   12535                      .dwattr $C$DW$T$26, DW_AT_type(*$C$DW$T$24)
   12536                      .dwattr $C$DW$T$26, DW_AT_language(DW_LANG_C)
   12537                      .dwattr $C$DW$T$26, DW_AT_byte_size(0x65f0)
   12538              $C$DW$1241      .dwtag  DW_TAG_subrange_type
   12539                      .dwattr $C$DW$1241, DW_AT_upper_bound(0x65ef)
   12540              
   12541                      .dwendtag $C$DW$T$26
   12542              
   12543              
   12544              $C$DW$T$27      .dwtag  DW_TAG_array_type
   12545                      .dwattr $C$DW$T$27, DW_AT_type(*$C$DW$T$24)
   12546                      .dwattr $C$DW$T$27, DW_AT_language(DW_LANG_C)
   12547                      .dwattr $C$DW$T$27, DW_AT_byte_size(0x02)
   12548              $C$DW$1242      .dwtag  DW_TAG_subrange_type
   12549                      .dwattr $C$DW$1242, DW_AT_upper_bound(0x01)
   12550              
   12551                      .dwendtag $C$DW$T$27
   12552              
   12553              
   12554              $C$DW$T$28      .dwtag  DW_TAG_array_type
   12555                      .dwattr $C$DW$T$28, DW_AT_type(*$C$DW$T$24)
   12556                      .dwattr $C$DW$T$28, DW_AT_language(DW_LANG_C)
   12557                      .dwattr $C$DW$T$28, DW_AT_byte_size(0x05)
   12558              $C$DW$1243      .dwtag  DW_TAG_subrange_type
   12559                      .dwattr $C$DW$1243, DW_AT_upper_bound(0x04)
   12560              
   12561                      .dwendtag $C$DW$T$28
   12562              
   12563              
   12564              $C$DW$T$29      .dwtag  DW_TAG_array_type
   12565                      .dwattr $C$DW$T$29, DW_AT_type(*$C$DW$T$24)
   12566                      .dwattr $C$DW$T$29, DW_AT_language(DW_LANG_C)
   12567                      .dwattr $C$DW$T$29, DW_AT_byte_size(0x03)
   12568              $C$DW$1244      .dwtag  DW_TAG_subrange_type
   12569                      .dwattr $C$DW$1244, DW_AT_upper_bound(0x02)
   12570              
   12571                      .dwendtag $C$DW$T$29
   12572              
TMS320C2000 Assembler PC v22.6.0 Tue Apr 18 11:09:46 2023

Copyright (c) 1996-2018 Texas Instruments Incorporated
C:\Users\User\AppData\Local\Temp\{F169EDD6-E2A2-400A-8386-A823CBD75D49} PAGE  236

   12573              
   12574              $C$DW$T$30      .dwtag  DW_TAG_array_type
   12575                      .dwattr $C$DW$T$30, DW_AT_type(*$C$DW$T$24)
   12576                      .dwattr $C$DW$T$30, DW_AT_language(DW_LANG_C)
   12577                      .dwattr $C$DW$T$30, DW_AT_byte_size(0x0d)
   12578              $C$DW$1245      .dwtag  DW_TAG_subrange_type
   12579                      .dwattr $C$DW$1245, DW_AT_upper_bound(0x0c)
   12580              
   12581                      .dwendtag $C$DW$T$30
   12582              
   12583              
   12584              $C$DW$T$36      .dwtag  DW_TAG_array_type
   12585                      .dwattr $C$DW$T$36, DW_AT_type(*$C$DW$T$24)
   12586                      .dwattr $C$DW$T$36, DW_AT_language(DW_LANG_C)
   12587                      .dwattr $C$DW$T$36, DW_AT_byte_size(0x08)
   12588              $C$DW$1246      .dwtag  DW_TAG_subrange_type
   12589                      .dwattr $C$DW$1246, DW_AT_upper_bound(0x07)
   12590              
   12591                      .dwendtag $C$DW$T$36
   12592              
   12593              
   12594              $C$DW$T$89      .dwtag  DW_TAG_array_type
   12595                      .dwattr $C$DW$T$89, DW_AT_type(*$C$DW$T$24)
   12596                      .dwattr $C$DW$T$89, DW_AT_language(DW_LANG_C)
   12597                      .dwattr $C$DW$T$89, DW_AT_byte_size(0x18)
   12598              $C$DW$1247      .dwtag  DW_TAG_subrange_type
   12599                      .dwattr $C$DW$1247, DW_AT_upper_bound(0x17)
   12600              
   12601                      .dwendtag $C$DW$T$89
   12602              
   12603              
   12604              $C$DW$T$90      .dwtag  DW_TAG_array_type
   12605                      .dwattr $C$DW$T$90, DW_AT_type(*$C$DW$T$24)
   12606                      .dwattr $C$DW$T$90, DW_AT_language(DW_LANG_C)
   12607                      .dwattr $C$DW$T$90, DW_AT_byte_size(0x04)
   12608              $C$DW$1248      .dwtag  DW_TAG_subrange_type
   12609                      .dwattr $C$DW$1248, DW_AT_upper_bound(0x03)
   12610              
   12611                      .dwendtag $C$DW$T$90
   12612              
   12613              
   12614              $C$DW$T$148     .dwtag  DW_TAG_array_type
   12615                      .dwattr $C$DW$T$148, DW_AT_type(*$C$DW$T$24)
   12616                      .dwattr $C$DW$T$148, DW_AT_language(DW_LANG_C)
   12617                      .dwattr $C$DW$T$148, DW_AT_byte_size(0x06)
   12618              $C$DW$1249      .dwtag  DW_TAG_subrange_type
   12619                      .dwattr $C$DW$1249, DW_AT_upper_bound(0x05)
   12620              
   12621                      .dwendtag $C$DW$T$148
   12622              
   12623              
   12624              $C$DW$T$153     .dwtag  DW_TAG_array_type
   12625                      .dwattr $C$DW$T$153, DW_AT_type(*$C$DW$T$24)
   12626                      .dwattr $C$DW$T$153, DW_AT_language(DW_LANG_C)
   12627                      .dwattr $C$DW$T$153, DW_AT_byte_size(0x6270)
TMS320C2000 Assembler PC v22.6.0 Tue Apr 18 11:09:46 2023

Copyright (c) 1996-2018 Texas Instruments Incorporated
C:\Users\User\AppData\Local\Temp\{F169EDD6-E2A2-400A-8386-A823CBD75D49} PAGE  237

   12628              $C$DW$1250      .dwtag  DW_TAG_subrange_type
   12629                      .dwattr $C$DW$1250, DW_AT_upper_bound(0x626f)
   12630              
   12631                      .dwendtag $C$DW$T$153
   12632              
   12633              
   12634              $C$DW$T$157     .dwtag  DW_TAG_array_type
   12635                      .dwattr $C$DW$T$157, DW_AT_type(*$C$DW$T$24)
   12636                      .dwattr $C$DW$T$157, DW_AT_language(DW_LANG_C)
   12637                      .dwattr $C$DW$T$157, DW_AT_byte_size(0x6698)
   12638              $C$DW$1251      .dwtag  DW_TAG_subrange_type
   12639                      .dwattr $C$DW$1251, DW_AT_upper_bound(0x6697)
   12640              
   12641                      .dwendtag $C$DW$T$157
   12642              
   12643              $C$DW$T$12      .dwtag  DW_TAG_base_type
   12644                      .dwattr $C$DW$T$12, DW_AT_encoding(DW_ATE_signed)
   12645                      .dwattr $C$DW$T$12, DW_AT_name("long")
   12646                      .dwattr $C$DW$T$12, DW_AT_byte_size(0x02)
   12647              
   12648              $C$DW$T$32      .dwtag  DW_TAG_typedef
   12649                      .dwattr $C$DW$T$32, DW_AT_name("_iq")
   12650                      .dwattr $C$DW$T$32, DW_AT_type(*$C$DW$T$12)
   12651                      .dwattr $C$DW$T$32, DW_AT_language(DW_LANG_C)
   12652              
   12653              
   12654              $C$DW$T$130     .dwtag  DW_TAG_array_type
   12655                      .dwattr $C$DW$T$130, DW_AT_type(*$C$DW$T$32)
   12656                      .dwattr $C$DW$T$130, DW_AT_language(DW_LANG_C)
   12657                      .dwattr $C$DW$T$130, DW_AT_byte_size(0x04)
   12658              $C$DW$1252      .dwtag  DW_TAG_subrange_type
   12659                      .dwattr $C$DW$1252, DW_AT_upper_bound(0x01)
   12660              
   12661                      .dwendtag $C$DW$T$130
   12662              
   12663              
   12664              $C$DW$T$132     .dwtag  DW_TAG_array_type
   12665                      .dwattr $C$DW$T$132, DW_AT_type(*$C$DW$T$32)
   12666                      .dwattr $C$DW$T$132, DW_AT_language(DW_LANG_C)
   12667                      .dwattr $C$DW$T$132, DW_AT_byte_size(0x06)
   12668              $C$DW$1253      .dwtag  DW_TAG_subrange_type
   12669                      .dwattr $C$DW$1253, DW_AT_upper_bound(0x02)
   12670              
   12671                      .dwendtag $C$DW$T$132
   12672              
   12673              $C$DW$T$242     .dwtag  DW_TAG_pointer_type
   12674                      .dwattr $C$DW$T$242, DW_AT_type(*$C$DW$T$32)
   12675                      .dwattr $C$DW$T$242, DW_AT_address_class(0x20)
   12676              
   12677              $C$DW$1254      .dwtag  DW_TAG_TI_far_type
   12678                      .dwattr $C$DW$1254, DW_AT_type(*$C$DW$T$242)
   12679              
   12680              $C$DW$T$313     .dwtag  DW_TAG_const_type
   12681                      .dwattr $C$DW$T$313, DW_AT_type(*$C$DW$1254)
   12682              
TMS320C2000 Assembler PC v22.6.0 Tue Apr 18 11:09:46 2023

Copyright (c) 1996-2018 Texas Instruments Incorporated
C:\Users\User\AppData\Local\Temp\{F169EDD6-E2A2-400A-8386-A823CBD75D49} PAGE  238

   12683              $C$DW$1255      .dwtag  DW_TAG_TI_far_type
   12684                      .dwattr $C$DW$1255, DW_AT_type(*$C$DW$T$32)
   12685              
   12686              $C$DW$T$235     .dwtag  DW_TAG_const_type
   12687                      .dwattr $C$DW$T$235, DW_AT_type(*$C$DW$1255)
   12688              
   12689              $C$DW$T$13      .dwtag  DW_TAG_base_type
   12690                      .dwattr $C$DW$T$13, DW_AT_encoding(DW_ATE_unsigned)
   12691                      .dwattr $C$DW$T$13, DW_AT_name("unsigned long")
   12692                      .dwattr $C$DW$T$13, DW_AT_byte_size(0x02)
   12693              
   12694              $C$DW$T$65      .dwtag  DW_TAG_typedef
   12695                      .dwattr $C$DW$T$65, DW_AT_name("__uint32_t")
   12696                      .dwattr $C$DW$T$65, DW_AT_type(*$C$DW$T$13)
   12697                      .dwattr $C$DW$T$65, DW_AT_language(DW_LANG_C)
   12698              
   12699              $C$DW$T$66      .dwtag  DW_TAG_typedef
   12700                      .dwattr $C$DW$T$66, DW_AT_name("__uint_least32_t")
   12701                      .dwattr $C$DW$T$66, DW_AT_type(*$C$DW$T$65)
   12702                      .dwattr $C$DW$T$66, DW_AT_language(DW_LANG_C)
   12703              
   12704              $C$DW$T$67      .dwtag  DW_TAG_typedef
   12705                      .dwattr $C$DW$T$67, DW_AT_name("uint_least32_t")
   12706                      .dwattr $C$DW$T$67, DW_AT_type(*$C$DW$T$66)
   12707                      .dwattr $C$DW$T$67, DW_AT_language(DW_LANG_C)
   12708              
   12709              
   12710              $C$DW$T$68      .dwtag  DW_TAG_array_type
   12711                      .dwattr $C$DW$T$68, DW_AT_type(*$C$DW$T$67)
   12712                      .dwattr $C$DW$T$68, DW_AT_language(DW_LANG_C)
   12713                      .dwattr $C$DW$T$68, DW_AT_byte_size(0x08)
   12714              $C$DW$1256      .dwtag  DW_TAG_subrange_type
   12715                      .dwattr $C$DW$1256, DW_AT_upper_bound(0x03)
   12716              
   12717                      .dwendtag $C$DW$T$68
   12718              
   12719              
   12720              $C$DW$T$163     .dwtag  DW_TAG_array_type
   12721                      .dwattr $C$DW$T$163, DW_AT_type(*$C$DW$T$67)
   12722                      .dwattr $C$DW$T$163, DW_AT_language(DW_LANG_C)
   12723                      .dwattr $C$DW$T$163, DW_AT_byte_size(0x1c)
   12724              $C$DW$1257      .dwtag  DW_TAG_subrange_type
   12725                      .dwattr $C$DW$1257, DW_AT_upper_bound(0x0d)
   12726              
   12727                      .dwendtag $C$DW$T$163
   12728              
   12729              
   12730              $C$DW$T$164     .dwtag  DW_TAG_array_type
   12731                      .dwattr $C$DW$T$164, DW_AT_type(*$C$DW$T$67)
   12732                      .dwattr $C$DW$T$164, DW_AT_language(DW_LANG_C)
   12733                      .dwattr $C$DW$T$164, DW_AT_byte_size(0x0c)
   12734              $C$DW$1258      .dwtag  DW_TAG_subrange_type
   12735                      .dwattr $C$DW$1258, DW_AT_upper_bound(0x05)
   12736              
   12737                      .dwendtag $C$DW$T$164
TMS320C2000 Assembler PC v22.6.0 Tue Apr 18 11:09:46 2023

Copyright (c) 1996-2018 Texas Instruments Incorporated
C:\Users\User\AppData\Local\Temp\{F169EDD6-E2A2-400A-8386-A823CBD75D49} PAGE  239

   12738              
   12739              
   12740              $C$DW$T$165     .dwtag  DW_TAG_array_type
   12741                      .dwattr $C$DW$T$165, DW_AT_type(*$C$DW$T$67)
   12742                      .dwattr $C$DW$T$165, DW_AT_language(DW_LANG_C)
   12743                      .dwattr $C$DW$T$165, DW_AT_byte_size(0x0e)
   12744              $C$DW$1259      .dwtag  DW_TAG_subrange_type
   12745                      .dwattr $C$DW$1259, DW_AT_upper_bound(0x06)
   12746              
   12747                      .dwendtag $C$DW$T$165
   12748              
   12749              $C$DW$T$283     .dwtag  DW_TAG_pointer_type
   12750                      .dwattr $C$DW$T$283, DW_AT_type(*$C$DW$T$67)
   12751                      .dwattr $C$DW$T$283, DW_AT_address_class(0x20)
   12752              
   12753              $C$DW$1260      .dwtag  DW_TAG_TI_far_type
   12754                      .dwattr $C$DW$1260, DW_AT_type(*$C$DW$T$67)
   12755              
   12756              $C$DW$T$263     .dwtag  DW_TAG_const_type
   12757                      .dwattr $C$DW$T$263, DW_AT_type(*$C$DW$1260)
   12758              
   12759              $C$DW$T$291     .dwtag  DW_TAG_pointer_type
   12760                      .dwattr $C$DW$T$291, DW_AT_type(*$C$DW$T$263)
   12761                      .dwattr $C$DW$T$291, DW_AT_address_class(0x20)
   12762              
   12763              $C$DW$T$87      .dwtag  DW_TAG_typedef
   12764                      .dwattr $C$DW$T$87, DW_AT_name("uint32_t")
   12765                      .dwattr $C$DW$T$87, DW_AT_type(*$C$DW$T$65)
   12766                      .dwattr $C$DW$T$87, DW_AT_language(DW_LANG_C)
   12767              
   12768              $C$DW$1261      .dwtag  DW_TAG_TI_far_type
   12769                      .dwattr $C$DW$1261, DW_AT_type(*$C$DW$T$87)
   12770              
   12771              $C$DW$T$88      .dwtag  DW_TAG_volatile_type
   12772                      .dwattr $C$DW$T$88, DW_AT_type(*$C$DW$1261)
   12773              
   12774              $C$DW$T$14      .dwtag  DW_TAG_base_type
   12775                      .dwattr $C$DW$T$14, DW_AT_encoding(DW_ATE_signed)
   12776                      .dwattr $C$DW$T$14, DW_AT_name("long long")
   12777                      .dwattr $C$DW$T$14, DW_AT_byte_size(0x04)
   12778              
   12779              $C$DW$T$15      .dwtag  DW_TAG_base_type
   12780                      .dwattr $C$DW$T$15, DW_AT_encoding(DW_ATE_unsigned)
   12781                      .dwattr $C$DW$T$15, DW_AT_name("unsigned long long")
   12782                      .dwattr $C$DW$T$15, DW_AT_byte_size(0x04)
   12783              
   12784              $C$DW$T$16      .dwtag  DW_TAG_base_type
   12785                      .dwattr $C$DW$T$16, DW_AT_encoding(DW_ATE_float)
   12786                      .dwattr $C$DW$T$16, DW_AT_name("float")
   12787                      .dwattr $C$DW$T$16, DW_AT_byte_size(0x02)
   12788              
   12789              $C$DW$T$71      .dwtag  DW_TAG_typedef
   12790                      .dwattr $C$DW$T$71, DW_AT_name("float_t")
   12791                      .dwattr $C$DW$T$71, DW_AT_type(*$C$DW$T$16)
   12792                      .dwattr $C$DW$T$71, DW_AT_language(DW_LANG_C)
TMS320C2000 Assembler PC v22.6.0 Tue Apr 18 11:09:46 2023

Copyright (c) 1996-2018 Texas Instruments Incorporated
C:\Users\User\AppData\Local\Temp\{F169EDD6-E2A2-400A-8386-A823CBD75D49} PAGE  240

   12793              
   12794              $C$DW$T$17      .dwtag  DW_TAG_base_type
   12795                      .dwattr $C$DW$T$17, DW_AT_encoding(DW_ATE_float)
   12796                      .dwattr $C$DW$T$17, DW_AT_name("double")
   12797                      .dwattr $C$DW$T$17, DW_AT_byte_size(0x02)
   12798              
   12799              $C$DW$T$18      .dwtag  DW_TAG_base_type
   12800                      .dwattr $C$DW$T$18, DW_AT_encoding(DW_ATE_float)
   12801                      .dwattr $C$DW$T$18, DW_AT_name("long double")
   12802                      .dwattr $C$DW$T$18, DW_AT_byte_size(0x04)
   12803              
   12804              $C$DW$T$73      .dwtag  DW_TAG_base_type
   12805                      .dwattr $C$DW$T$73, DW_AT_encoding(DW_ATE_unsigned_char)
   12806                      .dwattr $C$DW$T$73, DW_AT_name("unsigned char")
   12807                      .dwattr $C$DW$T$73, DW_AT_byte_size(0x01)
   12808              
   12809              $C$DW$1262      .dwtag  DW_TAG_TI_far_type
   12810                      .dwattr $C$DW$1262, DW_AT_type(*$C$DW$T$73)
   12811              
   12812              $C$DW$T$270     .dwtag  DW_TAG_const_type
   12813                      .dwattr $C$DW$T$270, DW_AT_type(*$C$DW$1262)
   12814              
   12815                      .dwattr $C$DW$CU, DW_AT_language(DW_LANG_C)
   12816              
   12817              ;***************************************************************
   12818              ;* DWARF CIE ENTRIES                                           *
   12819              ;***************************************************************
   12820              
   12821              $C$DW$CIE       .dwcie 26
   12822                      .dwcfi  cfa_register, 20
   12823                      .dwcfi  cfa_offset, 0
   12824                      .dwcfi  same_value, 28
   12825                      .dwcfi  same_value, 6
   12826                      .dwcfi  same_value, 7
   12827                      .dwcfi  same_value, 8
   12828                      .dwcfi  same_value, 9
   12829                      .dwcfi  same_value, 10
   12830                      .dwcfi  same_value, 11
   12831                      .dwendentry
   12832              
   12833              ;***************************************************************
   12834              ;* DWARF REGISTER MAP                                          *
   12835              ;***************************************************************
   12836              
   12837              $C$DW$1263      .dwtag  DW_TAG_TI_assign_register
   12838                      .dwattr $C$DW$1263, DW_AT_name("AL")
   12839                      .dwattr $C$DW$1263, DW_AT_location[DW_OP_reg0]
   12840              
   12841              $C$DW$1264      .dwtag  DW_TAG_TI_assign_register
   12842                      .dwattr $C$DW$1264, DW_AT_name("AH")
   12843                      .dwattr $C$DW$1264, DW_AT_location[DW_OP_reg1]
   12844              
   12845              $C$DW$1265      .dwtag  DW_TAG_TI_assign_register
   12846                      .dwattr $C$DW$1265, DW_AT_name("PL")
   12847                      .dwattr $C$DW$1265, DW_AT_location[DW_OP_reg2]
TMS320C2000 Assembler PC v22.6.0 Tue Apr 18 11:09:46 2023

Copyright (c) 1996-2018 Texas Instruments Incorporated
C:\Users\User\AppData\Local\Temp\{F169EDD6-E2A2-400A-8386-A823CBD75D49} PAGE  241

   12848              
   12849              $C$DW$1266      .dwtag  DW_TAG_TI_assign_register
   12850                      .dwattr $C$DW$1266, DW_AT_name("PH")
   12851                      .dwattr $C$DW$1266, DW_AT_location[DW_OP_reg3]
   12852              
   12853              $C$DW$1267      .dwtag  DW_TAG_TI_assign_register
   12854                      .dwattr $C$DW$1267, DW_AT_name("SP")
   12855                      .dwattr $C$DW$1267, DW_AT_location[DW_OP_reg20]
   12856              
   12857              $C$DW$1268      .dwtag  DW_TAG_TI_assign_register
   12858                      .dwattr $C$DW$1268, DW_AT_name("XT")
   12859                      .dwattr $C$DW$1268, DW_AT_location[DW_OP_reg21]
   12860              
   12861              $C$DW$1269      .dwtag  DW_TAG_TI_assign_register
   12862                      .dwattr $C$DW$1269, DW_AT_name("T")
   12863                      .dwattr $C$DW$1269, DW_AT_location[DW_OP_reg22]
   12864              
   12865              $C$DW$1270      .dwtag  DW_TAG_TI_assign_register
   12866                      .dwattr $C$DW$1270, DW_AT_name("ST0")
   12867                      .dwattr $C$DW$1270, DW_AT_location[DW_OP_reg23]
   12868              
   12869              $C$DW$1271      .dwtag  DW_TAG_TI_assign_register
   12870                      .dwattr $C$DW$1271, DW_AT_name("ST1")
   12871                      .dwattr $C$DW$1271, DW_AT_location[DW_OP_reg24]
   12872              
   12873              $C$DW$1272      .dwtag  DW_TAG_TI_assign_register
   12874                      .dwattr $C$DW$1272, DW_AT_name("PC")
   12875                      .dwattr $C$DW$1272, DW_AT_location[DW_OP_reg25]
   12876              
   12877              $C$DW$1273      .dwtag  DW_TAG_TI_assign_register
   12878                      .dwattr $C$DW$1273, DW_AT_name("RPC")
   12879                      .dwattr $C$DW$1273, DW_AT_location[DW_OP_reg26]
   12880              
   12881              $C$DW$1274      .dwtag  DW_TAG_TI_assign_register
   12882                      .dwattr $C$DW$1274, DW_AT_name("FP")
   12883                      .dwattr $C$DW$1274, DW_AT_location[DW_OP_reg28]
   12884              
   12885              $C$DW$1275      .dwtag  DW_TAG_TI_assign_register
   12886                      .dwattr $C$DW$1275, DW_AT_name("DP")
   12887                      .dwattr $C$DW$1275, DW_AT_location[DW_OP_reg29]
   12888              
   12889              $C$DW$1276      .dwtag  DW_TAG_TI_assign_register
   12890                      .dwattr $C$DW$1276, DW_AT_name("SXM")
   12891                      .dwattr $C$DW$1276, DW_AT_location[DW_OP_reg30]
   12892              
   12893              $C$DW$1277      .dwtag  DW_TAG_TI_assign_register
   12894                      .dwattr $C$DW$1277, DW_AT_name("PM")
   12895                      .dwattr $C$DW$1277, DW_AT_location[DW_OP_reg31]
   12896              
   12897              $C$DW$1278      .dwtag  DW_TAG_TI_assign_register
   12898                      .dwattr $C$DW$1278, DW_AT_name("OVM")
   12899                      .dwattr $C$DW$1278, DW_AT_location[DW_OP_regx 0x20]
   12900              
   12901              $C$DW$1279      .dwtag  DW_TAG_TI_assign_register
   12902                      .dwattr $C$DW$1279, DW_AT_name("PAGE0")
TMS320C2000 Assembler PC v22.6.0 Tue Apr 18 11:09:46 2023

Copyright (c) 1996-2018 Texas Instruments Incorporated
C:\Users\User\AppData\Local\Temp\{F169EDD6-E2A2-400A-8386-A823CBD75D49} PAGE  242

   12903                      .dwattr $C$DW$1279, DW_AT_location[DW_OP_regx 0x21]
   12904              
   12905              $C$DW$1280      .dwtag  DW_TAG_TI_assign_register
   12906                      .dwattr $C$DW$1280, DW_AT_name("AMODE")
   12907                      .dwattr $C$DW$1280, DW_AT_location[DW_OP_regx 0x22]
   12908              
   12909              $C$DW$1281      .dwtag  DW_TAG_TI_assign_register
   12910                      .dwattr $C$DW$1281, DW_AT_name("EALLOW")
   12911                      .dwattr $C$DW$1281, DW_AT_location[DW_OP_regx 0x4e]
   12912              
   12913              $C$DW$1282      .dwtag  DW_TAG_TI_assign_register
   12914                      .dwattr $C$DW$1282, DW_AT_name("INTM")
   12915                      .dwattr $C$DW$1282, DW_AT_location[DW_OP_regx 0x23]
   12916              
   12917              $C$DW$1283      .dwtag  DW_TAG_TI_assign_register
   12918                      .dwattr $C$DW$1283, DW_AT_name("IFR")
   12919                      .dwattr $C$DW$1283, DW_AT_location[DW_OP_regx 0x24]
   12920              
   12921              $C$DW$1284      .dwtag  DW_TAG_TI_assign_register
   12922                      .dwattr $C$DW$1284, DW_AT_name("IER")
   12923                      .dwattr $C$DW$1284, DW_AT_location[DW_OP_regx 0x25]
   12924              
   12925              $C$DW$1285      .dwtag  DW_TAG_TI_assign_register
   12926                      .dwattr $C$DW$1285, DW_AT_name("V")
   12927                      .dwattr $C$DW$1285, DW_AT_location[DW_OP_regx 0x26]
   12928              
   12929              $C$DW$1286      .dwtag  DW_TAG_TI_assign_register
   12930                      .dwattr $C$DW$1286, DW_AT_name("PSEUDOH")
   12931                      .dwattr $C$DW$1286, DW_AT_location[DW_OP_regx 0x4c]
   12932              
   12933              $C$DW$1287      .dwtag  DW_TAG_TI_assign_register
   12934                      .dwattr $C$DW$1287, DW_AT_name("VOL")
   12935                      .dwattr $C$DW$1287, DW_AT_location[DW_OP_regx 0x4d]
   12936              
   12937              $C$DW$1288      .dwtag  DW_TAG_TI_assign_register
   12938                      .dwattr $C$DW$1288, DW_AT_name("AR0")
   12939                      .dwattr $C$DW$1288, DW_AT_location[DW_OP_reg4]
   12940              
   12941              $C$DW$1289      .dwtag  DW_TAG_TI_assign_register
   12942                      .dwattr $C$DW$1289, DW_AT_name("XAR0")
   12943                      .dwattr $C$DW$1289, DW_AT_location[DW_OP_reg5]
   12944              
   12945              $C$DW$1290      .dwtag  DW_TAG_TI_assign_register
   12946                      .dwattr $C$DW$1290, DW_AT_name("AR1")
   12947                      .dwattr $C$DW$1290, DW_AT_location[DW_OP_reg6]
   12948              
   12949              $C$DW$1291      .dwtag  DW_TAG_TI_assign_register
   12950                      .dwattr $C$DW$1291, DW_AT_name("XAR1")
   12951                      .dwattr $C$DW$1291, DW_AT_location[DW_OP_reg7]
   12952              
   12953              $C$DW$1292      .dwtag  DW_TAG_TI_assign_register
   12954                      .dwattr $C$DW$1292, DW_AT_name("AR2")
   12955                      .dwattr $C$DW$1292, DW_AT_location[DW_OP_reg8]
   12956              
   12957              $C$DW$1293      .dwtag  DW_TAG_TI_assign_register
TMS320C2000 Assembler PC v22.6.0 Tue Apr 18 11:09:46 2023

Copyright (c) 1996-2018 Texas Instruments Incorporated
C:\Users\User\AppData\Local\Temp\{F169EDD6-E2A2-400A-8386-A823CBD75D49} PAGE  243

   12958                      .dwattr $C$DW$1293, DW_AT_name("XAR2")
   12959                      .dwattr $C$DW$1293, DW_AT_location[DW_OP_reg9]
   12960              
   12961              $C$DW$1294      .dwtag  DW_TAG_TI_assign_register
   12962                      .dwattr $C$DW$1294, DW_AT_name("AR3")
   12963                      .dwattr $C$DW$1294, DW_AT_location[DW_OP_reg10]
   12964              
   12965              $C$DW$1295      .dwtag  DW_TAG_TI_assign_register
   12966                      .dwattr $C$DW$1295, DW_AT_name("XAR3")
   12967                      .dwattr $C$DW$1295, DW_AT_location[DW_OP_reg11]
   12968              
   12969              $C$DW$1296      .dwtag  DW_TAG_TI_assign_register
   12970                      .dwattr $C$DW$1296, DW_AT_name("AR4")
   12971                      .dwattr $C$DW$1296, DW_AT_location[DW_OP_reg12]
   12972              
   12973              $C$DW$1297      .dwtag  DW_TAG_TI_assign_register
   12974                      .dwattr $C$DW$1297, DW_AT_name("XAR4")
   12975                      .dwattr $C$DW$1297, DW_AT_location[DW_OP_reg13]
   12976              
   12977              $C$DW$1298      .dwtag  DW_TAG_TI_assign_register
   12978                      .dwattr $C$DW$1298, DW_AT_name("AR5")
   12979                      .dwattr $C$DW$1298, DW_AT_location[DW_OP_reg14]
   12980              
   12981              $C$DW$1299      .dwtag  DW_TAG_TI_assign_register
   12982                      .dwattr $C$DW$1299, DW_AT_name("XAR5")
   12983                      .dwattr $C$DW$1299, DW_AT_location[DW_OP_reg15]
   12984              
   12985              $C$DW$1300      .dwtag  DW_TAG_TI_assign_register
   12986                      .dwattr $C$DW$1300, DW_AT_name("AR6")
   12987                      .dwattr $C$DW$1300, DW_AT_location[DW_OP_reg16]
   12988              
   12989              $C$DW$1301      .dwtag  DW_TAG_TI_assign_register
   12990                      .dwattr $C$DW$1301, DW_AT_name("XAR6")
   12991                      .dwattr $C$DW$1301, DW_AT_location[DW_OP_reg17]
   12992              
   12993              $C$DW$1302      .dwtag  DW_TAG_TI_assign_register
   12994                      .dwattr $C$DW$1302, DW_AT_name("AR7")
   12995                      .dwattr $C$DW$1302, DW_AT_location[DW_OP_reg18]
   12996              
   12997              $C$DW$1303      .dwtag  DW_TAG_TI_assign_register
   12998                      .dwattr $C$DW$1303, DW_AT_name("XAR7")
   12999                      .dwattr $C$DW$1303, DW_AT_location[DW_OP_reg19]
   13000              
   13001                      .dwendtag $C$DW$CU
   13002              

No Assembly Errors, No Assembly Warnings
