TMS320C2000 Assembler PC v18.12.4 Tue Feb 21 14:51:41 2023

Copyright (c) 1996-2018 Texas Instruments Incorporated
C:\Users\User\AppData\Local\Temp\{37DBDC18-8316-4B16-94B2-B516506DF0E2} PAGE    1

       1              ;***************************************************************
       2              ;* TMS320C2000 G3 C/C++ Codegen                             PC v18.12.4.LTS *
       3              ;* Date/Time created: Tue Feb 21 14:51:40 2023                 *
       4              ;***************************************************************
       5                      .compiler_opts --abi=coffabi --float_support=softlib --hll_source=on --mem_model:code=flat --mem_mode
       6                      .asg    XAR2, FP
       7              
       8              $C$DW$CU        .dwtag  DW_TAG_compile_unit
       9                      .dwattr $C$DW$CU, DW_AT_name("D:/GIANT/GAINT_TI_instaspin/motorware/motorware_1_01_00_18/sw/modules/c
      10                      .dwattr $C$DW$CU, DW_AT_producer("TI TMS320C2000 G3 C/C++ Codegen PC v18.12.4.LTS Copyright (c) 1996-
      11                      .dwattr $C$DW$CU, DW_AT_TI_version(0x01)
      12                      .dwattr $C$DW$CU, DW_AT_comp_dir("D:\GIANT\GAINT_TI_instaspin\motorware\motorware_1_01_00_18\sw\solut
      13              
      14              ;**************************************************************
      15              ;* FUNCTION SYNONYMS                                          *
      16              ;**************************************************************
      17                      .global _CTRL_setMagCurrent_pu
      18        098B' _CTRL_setMagCurrent_pu  .set _CTRL_setIdRated_pu
      19                      .global _CTRL_setMaximumSpeed_pu
      20        0988' _CTRL_setMaximumSpeed_pu        .set _CTRL_setSpd_max_pu
      21                      .global _CTRL_getMagCurrent_pu
      22        0991' _CTRL_getMagCurrent_pu  .set _CTRL_getIdRated_pu
      23                      .global _CTRL_getMaximumSpeed_pu
      24        098E' _CTRL_getMaximumSpeed_pu        .set _CTRL_getSpd_max_pu
      25              
      26              $C$DW$1 .dwtag  DW_TAG_subprogram
      27                      .dwattr $C$DW$1, DW_AT_name("EST_run")
      28                      .dwattr $C$DW$1, DW_AT_TI_symbol_name("_EST_run")
      29                      .dwattr $C$DW$1, DW_AT_declaration
      30                      .dwattr $C$DW$1, DW_AT_external
      31              $C$DW$2 .dwtag  DW_TAG_formal_parameter
      32                      .dwattr $C$DW$2, DW_AT_type(*$C$DW$T$48)
      33              
      34              $C$DW$3 .dwtag  DW_TAG_formal_parameter
      35                      .dwattr $C$DW$3, DW_AT_type(*$C$DW$T$207)
      36              
      37              $C$DW$4 .dwtag  DW_TAG_formal_parameter
      38                      .dwattr $C$DW$4, DW_AT_type(*$C$DW$T$207)
      39              
      40              $C$DW$5 .dwtag  DW_TAG_formal_parameter
      41                      .dwattr $C$DW$5, DW_AT_type(*$C$DW$T$235)
      42              
      43              $C$DW$6 .dwtag  DW_TAG_formal_parameter
      44                      .dwattr $C$DW$6, DW_AT_type(*$C$DW$T$235)
      45              
      46                      .dwendtag $C$DW$1
      47              
      48              
      49              $C$DW$7 .dwtag  DW_TAG_subprogram
      50                      .dwattr $C$DW$7, DW_AT_name("EST_updateId_ref_pu")
      51                      .dwattr $C$DW$7, DW_AT_TI_symbol_name("_EST_updateId_ref_pu")
      52                      .dwattr $C$DW$7, DW_AT_declaration
      53                      .dwattr $C$DW$7, DW_AT_external
      54              $C$DW$8 .dwtag  DW_TAG_formal_parameter
      55                      .dwattr $C$DW$8, DW_AT_type(*$C$DW$T$48)
TMS320C2000 Assembler PC v18.12.4 Tue Feb 21 14:51:41 2023

Copyright (c) 1996-2018 Texas Instruments Incorporated
C:\Users\User\AppData\Local\Temp\{37DBDC18-8316-4B16-94B2-B516506DF0E2} PAGE    2

      56              
      57              $C$DW$9 .dwtag  DW_TAG_formal_parameter
      58                      .dwattr $C$DW$9, DW_AT_type(*$C$DW$T$242)
      59              
      60                      .dwendtag $C$DW$7
      61              
      62              
      63              $C$DW$10        .dwtag  DW_TAG_subprogram
      64                      .dwattr $C$DW$10, DW_AT_name("EST_setId_ref_pu")
      65                      .dwattr $C$DW$10, DW_AT_TI_symbol_name("_EST_setId_ref_pu")
      66                      .dwattr $C$DW$10, DW_AT_declaration
      67                      .dwattr $C$DW$10, DW_AT_external
      68              $C$DW$11        .dwtag  DW_TAG_formal_parameter
      69                      .dwattr $C$DW$11, DW_AT_type(*$C$DW$T$48)
      70              
      71              $C$DW$12        .dwtag  DW_TAG_formal_parameter
      72                      .dwattr $C$DW$12, DW_AT_type(*$C$DW$T$235)
      73              
      74                      .dwendtag $C$DW$10
      75              
      76              
      77              $C$DW$13        .dwtag  DW_TAG_subprogram
      78                      .dwattr $C$DW$13, DW_AT_name("EST_setIq_ref_pu")
      79                      .dwattr $C$DW$13, DW_AT_TI_symbol_name("_EST_setIq_ref_pu")
      80                      .dwattr $C$DW$13, DW_AT_declaration
      81                      .dwattr $C$DW$13, DW_AT_external
      82              $C$DW$14        .dwtag  DW_TAG_formal_parameter
      83                      .dwattr $C$DW$14, DW_AT_type(*$C$DW$T$48)
      84              
      85              $C$DW$15        .dwtag  DW_TAG_formal_parameter
      86                      .dwattr $C$DW$15, DW_AT_type(*$C$DW$T$235)
      87              
      88                      .dwendtag $C$DW$13
      89              
      90              
      91              $C$DW$16        .dwtag  DW_TAG_subprogram
      92                      .dwattr $C$DW$16, DW_AT_name("CTRL_setEstParams")
      93                      .dwattr $C$DW$16, DW_AT_TI_symbol_name("_CTRL_setEstParams")
      94                      .dwattr $C$DW$16, DW_AT_declaration
      95                      .dwattr $C$DW$16, DW_AT_external
      96              $C$DW$17        .dwtag  DW_TAG_formal_parameter
      97                      .dwattr $C$DW$17, DW_AT_type(*$C$DW$T$48)
      98              
      99              $C$DW$18        .dwtag  DW_TAG_formal_parameter
     100                      .dwattr $C$DW$18, DW_AT_type(*$C$DW$T$228)
     101              
     102                      .dwendtag $C$DW$16
     103              
     104              
     105              $C$DW$19        .dwtag  DW_TAG_subprogram
     106                      .dwattr $C$DW$19, DW_AT_name("CTRL_runTraj")
     107                      .dwattr $C$DW$19, DW_AT_TI_symbol_name("_CTRL_runTraj")
     108                      .dwattr $C$DW$19, DW_AT_declaration
     109                      .dwattr $C$DW$19, DW_AT_external
     110              $C$DW$20        .dwtag  DW_TAG_formal_parameter
TMS320C2000 Assembler PC v18.12.4 Tue Feb 21 14:51:41 2023

Copyright (c) 1996-2018 Texas Instruments Incorporated
C:\Users\User\AppData\Local\Temp\{37DBDC18-8316-4B16-94B2-B516506DF0E2} PAGE    3

     111                      .dwattr $C$DW$20, DW_AT_type(*$C$DW$T$172)
     112              
     113                      .dwendtag $C$DW$19
     114              
     115              
     116              $C$DW$21        .dwtag  DW_TAG_subprogram
     117                      .dwattr $C$DW$21, DW_AT_name("CTRL_setupCtrl")
     118                      .dwattr $C$DW$21, DW_AT_TI_symbol_name("_CTRL_setupCtrl")
     119                      .dwattr $C$DW$21, DW_AT_declaration
     120                      .dwattr $C$DW$21, DW_AT_external
     121              $C$DW$22        .dwtag  DW_TAG_formal_parameter
     122                      .dwattr $C$DW$22, DW_AT_type(*$C$DW$T$172)
     123              
     124                      .dwendtag $C$DW$21
     125              
     126              
     127              $C$DW$23        .dwtag  DW_TAG_subprogram
     128                      .dwattr $C$DW$23, DW_AT_name("CTRL_setupTraj")
     129                      .dwattr $C$DW$23, DW_AT_TI_symbol_name("_CTRL_setupTraj")
     130                      .dwattr $C$DW$23, DW_AT_declaration
     131                      .dwattr $C$DW$23, DW_AT_external
     132              $C$DW$24        .dwtag  DW_TAG_formal_parameter
     133                      .dwattr $C$DW$24, DW_AT_type(*$C$DW$T$172)
     134              
     135                      .dwendtag $C$DW$23
     136              
     137              
     138              $C$DW$25        .dwtag  DW_TAG_subprogram
     139                      .dwattr $C$DW$25, DW_AT_name("CTRL_setupEstOnLineState")
     140                      .dwattr $C$DW$25, DW_AT_TI_symbol_name("_CTRL_setupEstOnLineState")
     141                      .dwattr $C$DW$25, DW_AT_declaration
     142                      .dwattr $C$DW$25, DW_AT_external
     143              $C$DW$26        .dwtag  DW_TAG_formal_parameter
     144                      .dwattr $C$DW$26, DW_AT_type(*$C$DW$T$172)
     145              
     146                      .dwendtag $C$DW$25
     147              
     148              
     149              $C$DW$27        .dwtag  DW_TAG_subprogram
     150                      .dwattr $C$DW$27, DW_AT_name("CTRL_setUserMotorParams")
     151                      .dwattr $C$DW$27, DW_AT_TI_symbol_name("_CTRL_setUserMotorParams")
     152                      .dwattr $C$DW$27, DW_AT_declaration
     153                      .dwattr $C$DW$27, DW_AT_external
     154              $C$DW$28        .dwtag  DW_TAG_formal_parameter
     155                      .dwattr $C$DW$28, DW_AT_type(*$C$DW$T$172)
     156              
     157                      .dwendtag $C$DW$27
     158              
     159              
     160              $C$DW$29        .dwtag  DW_TAG_subprogram
     161                      .dwattr $C$DW$29, DW_AT_name("CTRL_setupEstIdleState")
     162                      .dwattr $C$DW$29, DW_AT_TI_symbol_name("_CTRL_setupEstIdleState")
     163                      .dwattr $C$DW$29, DW_AT_declaration
     164                      .dwattr $C$DW$29, DW_AT_external
     165              $C$DW$30        .dwtag  DW_TAG_formal_parameter
TMS320C2000 Assembler PC v18.12.4 Tue Feb 21 14:51:41 2023

Copyright (c) 1996-2018 Texas Instruments Incorporated
C:\Users\User\AppData\Local\Temp\{37DBDC18-8316-4B16-94B2-B516506DF0E2} PAGE    4

     166                      .dwattr $C$DW$30, DW_AT_type(*$C$DW$T$172)
     167              
     168                      .dwendtag $C$DW$29
     169              
     170              
     171              $C$DW$31        .dwtag  DW_TAG_subprogram
     172                      .dwattr $C$DW$31, DW_AT_name("EST_setIdle")
     173                      .dwattr $C$DW$31, DW_AT_TI_symbol_name("_EST_setIdle")
     174                      .dwattr $C$DW$31, DW_AT_declaration
     175                      .dwattr $C$DW$31, DW_AT_external
     176              $C$DW$32        .dwtag  DW_TAG_formal_parameter
     177                      .dwattr $C$DW$32, DW_AT_type(*$C$DW$T$48)
     178              
     179                      .dwendtag $C$DW$31
     180              
     181              
     182              $C$DW$33        .dwtag  DW_TAG_subprogram
     183                      .dwattr $C$DW$33, DW_AT_name("EST_setIdle_all")
     184                      .dwattr $C$DW$33, DW_AT_TI_symbol_name("_EST_setIdle_all")
     185                      .dwattr $C$DW$33, DW_AT_declaration
     186                      .dwattr $C$DW$33, DW_AT_external
     187              $C$DW$34        .dwtag  DW_TAG_formal_parameter
     188                      .dwattr $C$DW$34, DW_AT_type(*$C$DW$T$48)
     189              
     190                      .dwendtag $C$DW$33
     191              
     192              
     193              $C$DW$35        .dwtag  DW_TAG_subprogram
     194                      .dwattr $C$DW$35, DW_AT_name("EST_setRs_pu")
     195                      .dwattr $C$DW$35, DW_AT_TI_symbol_name("_EST_setRs_pu")
     196                      .dwattr $C$DW$35, DW_AT_declaration
     197                      .dwattr $C$DW$35, DW_AT_external
     198              $C$DW$36        .dwtag  DW_TAG_formal_parameter
     199                      .dwattr $C$DW$36, DW_AT_type(*$C$DW$T$48)
     200              
     201              $C$DW$37        .dwtag  DW_TAG_formal_parameter
     202                      .dwattr $C$DW$37, DW_AT_type(*$C$DW$T$235)
     203              
     204                      .dwendtag $C$DW$35
     205              
     206              
     207              $C$DW$38        .dwtag  DW_TAG_subprogram
     208                      .dwattr $C$DW$38, DW_AT_name("EST_useZeroIq_ref")
     209                      .dwattr $C$DW$38, DW_AT_TI_symbol_name("_EST_useZeroIq_ref")
     210                      .dwattr $C$DW$38, DW_AT_type(*$C$DW$T$73)
     211                      .dwattr $C$DW$38, DW_AT_declaration
     212                      .dwattr $C$DW$38, DW_AT_external
     213              $C$DW$39        .dwtag  DW_TAG_formal_parameter
     214                      .dwattr $C$DW$39, DW_AT_type(*$C$DW$T$48)
     215              
     216                      .dwendtag $C$DW$38
     217              
     218              
     219              $C$DW$40        .dwtag  DW_TAG_subprogram
     220                      .dwattr $C$DW$40, DW_AT_name("EST_isError")
TMS320C2000 Assembler PC v18.12.4 Tue Feb 21 14:51:41 2023

Copyright (c) 1996-2018 Texas Instruments Incorporated
C:\Users\User\AppData\Local\Temp\{37DBDC18-8316-4B16-94B2-B516506DF0E2} PAGE    5

     221                      .dwattr $C$DW$40, DW_AT_TI_symbol_name("_EST_isError")
     222                      .dwattr $C$DW$40, DW_AT_type(*$C$DW$T$73)
     223                      .dwattr $C$DW$40, DW_AT_declaration
     224                      .dwattr $C$DW$40, DW_AT_external
     225              $C$DW$41        .dwtag  DW_TAG_formal_parameter
     226                      .dwattr $C$DW$41, DW_AT_type(*$C$DW$T$48)
     227              
     228                      .dwendtag $C$DW$40
     229              
     230              
     231              $C$DW$42        .dwtag  DW_TAG_subprogram
     232                      .dwattr $C$DW$42, DW_AT_name("EST_doSpeedCtrl")
     233                      .dwattr $C$DW$42, DW_AT_TI_symbol_name("_EST_doSpeedCtrl")
     234                      .dwattr $C$DW$42, DW_AT_type(*$C$DW$T$73)
     235                      .dwattr $C$DW$42, DW_AT_declaration
     236                      .dwattr $C$DW$42, DW_AT_external
     237              $C$DW$43        .dwtag  DW_TAG_formal_parameter
     238                      .dwattr $C$DW$43, DW_AT_type(*$C$DW$T$48)
     239              
     240                      .dwendtag $C$DW$42
     241              
     242              
     243              $C$DW$44        .dwtag  DW_TAG_subprogram
     244                      .dwattr $C$DW$44, DW_AT_name("EST_doCurrentCtrl")
     245                      .dwattr $C$DW$44, DW_AT_TI_symbol_name("_EST_doCurrentCtrl")
     246                      .dwattr $C$DW$44, DW_AT_type(*$C$DW$T$73)
     247                      .dwattr $C$DW$44, DW_AT_declaration
     248                      .dwattr $C$DW$44, DW_AT_external
     249              $C$DW$45        .dwtag  DW_TAG_formal_parameter
     250                      .dwattr $C$DW$45, DW_AT_type(*$C$DW$T$48)
     251              
     252                      .dwendtag $C$DW$44
     253              
     254              
     255              $C$DW$46        .dwtag  DW_TAG_subprogram
     256                      .dwattr $C$DW$46, DW_AT_name("EST_getState")
     257                      .dwattr $C$DW$46, DW_AT_TI_symbol_name("_EST_getState")
     258                      .dwattr $C$DW$46, DW_AT_type(*$C$DW$T$177)
     259                      .dwattr $C$DW$46, DW_AT_declaration
     260                      .dwattr $C$DW$46, DW_AT_external
     261              $C$DW$47        .dwtag  DW_TAG_formal_parameter
     262                      .dwattr $C$DW$47, DW_AT_type(*$C$DW$T$48)
     263              
     264                      .dwendtag $C$DW$46
     265              
     266              
     267              $C$DW$48        .dwtag  DW_TAG_subprogram
     268                      .dwattr $C$DW$48, DW_AT_name("EST_updateState")
     269                      .dwattr $C$DW$48, DW_AT_TI_symbol_name("_EST_updateState")
     270                      .dwattr $C$DW$48, DW_AT_type(*$C$DW$T$73)
     271                      .dwattr $C$DW$48, DW_AT_declaration
     272                      .dwattr $C$DW$48, DW_AT_external
     273              $C$DW$49        .dwtag  DW_TAG_formal_parameter
     274                      .dwattr $C$DW$49, DW_AT_type(*$C$DW$T$48)
     275              
TMS320C2000 Assembler PC v18.12.4 Tue Feb 21 14:51:41 2023

Copyright (c) 1996-2018 Texas Instruments Incorporated
C:\Users\User\AppData\Local\Temp\{37DBDC18-8316-4B16-94B2-B516506DF0E2} PAGE    6

     276              $C$DW$50        .dwtag  DW_TAG_formal_parameter
     277                      .dwattr $C$DW$50, DW_AT_type(*$C$DW$T$235)
     278              
     279                      .dwendtag $C$DW$48
     280              
     281              
     282              $C$DW$51        .dwtag  DW_TAG_subprogram
     283                      .dwattr $C$DW$51, DW_AT_name("EST_isOnLine")
     284                      .dwattr $C$DW$51, DW_AT_TI_symbol_name("_EST_isOnLine")
     285                      .dwattr $C$DW$51, DW_AT_type(*$C$DW$T$73)
     286                      .dwattr $C$DW$51, DW_AT_declaration
     287                      .dwattr $C$DW$51, DW_AT_external
     288              $C$DW$52        .dwtag  DW_TAG_formal_parameter
     289                      .dwattr $C$DW$52, DW_AT_type(*$C$DW$T$48)
     290              
     291                      .dwendtag $C$DW$51
     292              
     293              
     294              $C$DW$53        .dwtag  DW_TAG_subprogram
     295                      .dwattr $C$DW$53, DW_AT_name("EST_isLockRotor")
     296                      .dwattr $C$DW$53, DW_AT_TI_symbol_name("_EST_isLockRotor")
     297                      .dwattr $C$DW$53, DW_AT_type(*$C$DW$T$73)
     298                      .dwattr $C$DW$53, DW_AT_declaration
     299                      .dwattr $C$DW$53, DW_AT_external
     300              $C$DW$54        .dwtag  DW_TAG_formal_parameter
     301                      .dwattr $C$DW$54, DW_AT_type(*$C$DW$T$48)
     302              
     303                      .dwendtag $C$DW$53
     304              
     305              
     306              $C$DW$55        .dwtag  DW_TAG_subprogram
     307                      .dwattr $C$DW$55, DW_AT_name("EST_isIdle")
     308                      .dwattr $C$DW$55, DW_AT_TI_symbol_name("_EST_isIdle")
     309                      .dwattr $C$DW$55, DW_AT_type(*$C$DW$T$73)
     310                      .dwattr $C$DW$55, DW_AT_declaration
     311                      .dwattr $C$DW$55, DW_AT_external
     312              $C$DW$56        .dwtag  DW_TAG_formal_parameter
     313                      .dwattr $C$DW$56, DW_AT_type(*$C$DW$T$48)
     314              
     315                      .dwendtag $C$DW$55
     316              
     317              
     318              $C$DW$57        .dwtag  DW_TAG_subprogram
     319                      .dwattr $C$DW$57, DW_AT_name("EST_isMotorIdentified")
     320                      .dwattr $C$DW$57, DW_AT_TI_symbol_name("_EST_isMotorIdentified")
     321                      .dwattr $C$DW$57, DW_AT_type(*$C$DW$T$73)
     322                      .dwattr $C$DW$57, DW_AT_declaration
     323                      .dwattr $C$DW$57, DW_AT_external
     324              $C$DW$58        .dwtag  DW_TAG_formal_parameter
     325                      .dwattr $C$DW$58, DW_AT_type(*$C$DW$T$48)
     326              
     327                      .dwendtag $C$DW$57
     328              
     329              
     330              $C$DW$59        .dwtag  DW_TAG_subprogram
TMS320C2000 Assembler PC v18.12.4 Tue Feb 21 14:51:41 2023

Copyright (c) 1996-2018 Texas Instruments Incorporated
C:\Users\User\AppData\Local\Temp\{37DBDC18-8316-4B16-94B2-B516506DF0E2} PAGE    7

     331                      .dwattr $C$DW$59, DW_AT_name("_IQ24cosPU")
     332                      .dwattr $C$DW$59, DW_AT_TI_symbol_name("__IQ24cosPU")
     333                      .dwattr $C$DW$59, DW_AT_type(*$C$DW$T$12)
     334                      .dwattr $C$DW$59, DW_AT_declaration
     335                      .dwattr $C$DW$59, DW_AT_external
     336              $C$DW$60        .dwtag  DW_TAG_formal_parameter
     337                      .dwattr $C$DW$60, DW_AT_type(*$C$DW$T$12)
     338              
     339                      .dwendtag $C$DW$59
     340              
     341              
     342              $C$DW$61        .dwtag  DW_TAG_subprogram
     343                      .dwattr $C$DW$61, DW_AT_name("_IQ24sinPU")
     344                      .dwattr $C$DW$61, DW_AT_TI_symbol_name("__IQ24sinPU")
     345                      .dwattr $C$DW$61, DW_AT_type(*$C$DW$T$12)
     346                      .dwattr $C$DW$61, DW_AT_declaration
     347                      .dwattr $C$DW$61, DW_AT_external
     348              $C$DW$62        .dwtag  DW_TAG_formal_parameter
     349                      .dwattr $C$DW$62, DW_AT_type(*$C$DW$T$12)
     350              
     351                      .dwendtag $C$DW$61
     352              
     353              
     354              $C$DW$63        .dwtag  DW_TAG_subprogram
     355                      .dwattr $C$DW$63, DW_AT_name("EST_getFm_pu")
     356                      .dwattr $C$DW$63, DW_AT_TI_symbol_name("_EST_getFm_pu")
     357                      .dwattr $C$DW$63, DW_AT_type(*$C$DW$T$32)
     358                      .dwattr $C$DW$63, DW_AT_declaration
     359                      .dwattr $C$DW$63, DW_AT_external
     360              $C$DW$64        .dwtag  DW_TAG_formal_parameter
     361                      .dwattr $C$DW$64, DW_AT_type(*$C$DW$T$48)
     362              
     363                      .dwendtag $C$DW$63
     364              
     365              
     366              $C$DW$65        .dwtag  DW_TAG_subprogram
     367                      .dwattr $C$DW$65, DW_AT_name("EST_getAngle_pu")
     368                      .dwattr $C$DW$65, DW_AT_TI_symbol_name("_EST_getAngle_pu")
     369                      .dwattr $C$DW$65, DW_AT_type(*$C$DW$T$32)
     370                      .dwattr $C$DW$65, DW_AT_declaration
     371                      .dwattr $C$DW$65, DW_AT_external
     372              $C$DW$66        .dwtag  DW_TAG_formal_parameter
     373                      .dwattr $C$DW$66, DW_AT_type(*$C$DW$T$48)
     374              
     375                      .dwendtag $C$DW$65
     376              
     377              
     378              $C$DW$67        .dwtag  DW_TAG_subprogram
     379                      .dwattr $C$DW$67, DW_AT_name("EST_getOneOverDcBus_pu")
     380                      .dwattr $C$DW$67, DW_AT_TI_symbol_name("_EST_getOneOverDcBus_pu")
     381                      .dwattr $C$DW$67, DW_AT_type(*$C$DW$T$32)
     382                      .dwattr $C$DW$67, DW_AT_declaration
     383                      .dwattr $C$DW$67, DW_AT_external
     384              $C$DW$68        .dwtag  DW_TAG_formal_parameter
     385                      .dwattr $C$DW$68, DW_AT_type(*$C$DW$T$48)
TMS320C2000 Assembler PC v18.12.4 Tue Feb 21 14:51:41 2023

Copyright (c) 1996-2018 Texas Instruments Incorporated
C:\Users\User\AppData\Local\Temp\{37DBDC18-8316-4B16-94B2-B516506DF0E2} PAGE    8

     386              
     387                      .dwendtag $C$DW$67
     388              
     389              
     390              $C$DW$69        .dwtag  DW_TAG_subprogram
     391                      .dwattr $C$DW$69, DW_AT_name("_IQ24sqrt")
     392                      .dwattr $C$DW$69, DW_AT_TI_symbol_name("__IQ24sqrt")
     393                      .dwattr $C$DW$69, DW_AT_type(*$C$DW$T$12)
     394                      .dwattr $C$DW$69, DW_AT_declaration
     395                      .dwattr $C$DW$69, DW_AT_external
     396              $C$DW$70        .dwtag  DW_TAG_formal_parameter
     397                      .dwattr $C$DW$70, DW_AT_type(*$C$DW$T$12)
     398              
     399                      .dwendtag $C$DW$69
     400              
     401              
     402              $C$DW$71        .dwtag  DW_TAG_subprogram
     403                      .dwattr $C$DW$71, DW_AT_name("EST_get_krpm_to_pu_sf")
     404                      .dwattr $C$DW$71, DW_AT_TI_symbol_name("_EST_get_krpm_to_pu_sf")
     405                      .dwattr $C$DW$71, DW_AT_type(*$C$DW$T$32)
     406                      .dwattr $C$DW$71, DW_AT_declaration
     407                      .dwattr $C$DW$71, DW_AT_external
     408              $C$DW$72        .dwtag  DW_TAG_formal_parameter
     409                      .dwattr $C$DW$72, DW_AT_type(*$C$DW$T$48)
     410              
     411                      .dwendtag $C$DW$71
     412              
     413 00000000               .sect   ".econst:_$P$T0$1"
     414                      .clink
     415                      .align  2
     416                      .elfsym _$P$T0$1,SYM_SIZE(4)
     417 00000000       _$P$T0$1:
     418 00000000 0000          .bits           0,32
         00000001 0000 
     419                                      ; _$P$T0$1._value[0] @ 0
     420 00000002 0000          .bits           0,32
         00000003 0000 
     421                                      ; _$P$T0$1._value[1] @ 32
     422              
     423              $C$DW$73        .dwtag  DW_TAG_variable
     424                      .dwattr $C$DW$73, DW_AT_name("$P$T0$1")
     425                      .dwattr $C$DW$73, DW_AT_TI_symbol_name("_$P$T0$1")
     426                      .dwattr $C$DW$73, DW_AT_type(*$C$DW$T$206)
     427                      .dwattr $C$DW$73, DW_AT_location[DW_OP_addr _$P$T0$1]
     428              
     429 00000000               .sect   ".econst:_$P$T1$2"
     430                      .clink
     431                      .align  2
     432                      .elfsym _$P$T1$2,SYM_SIZE(4)
     433 00000000       _$P$T1$2:
     434 00000000 0000          .bits           0,32
         00000001 0000 
     435                                      ; _$P$T1$2._value[0] @ 0
     436 00000002 0000          .bits           0,32
         00000003 0000 
TMS320C2000 Assembler PC v18.12.4 Tue Feb 21 14:51:41 2023

Copyright (c) 1996-2018 Texas Instruments Incorporated
C:\Users\User\AppData\Local\Temp\{37DBDC18-8316-4B16-94B2-B516506DF0E2} PAGE    9

     437                                      ; _$P$T1$2._value[1] @ 32
     438              
     439              $C$DW$74        .dwtag  DW_TAG_variable
     440                      .dwattr $C$DW$74, DW_AT_name("$P$T1$2")
     441                      .dwattr $C$DW$74, DW_AT_TI_symbol_name("_$P$T1$2")
     442                      .dwattr $C$DW$74, DW_AT_type(*$C$DW$T$206)
     443                      .dwattr $C$DW$74, DW_AT_location[DW_OP_addr _$P$T1$2]
     444              
     445 00000000               .sect   ".econst:_$P$T2$3"
     446                      .clink
     447                      .align  2
     448                      .elfsym _$P$T2$3,SYM_SIZE(4)
     449 00000000       _$P$T2$3:
     450 00000000 0000          .bits           0,32
         00000001 0000 
     451                                      ; _$P$T2$3._value[0] @ 0
     452 00000002 0000          .bits           0,32
         00000003 0000 
     453                                      ; _$P$T2$3._value[1] @ 32
     454              
     455              $C$DW$75        .dwtag  DW_TAG_variable
     456                      .dwattr $C$DW$75, DW_AT_name("$P$T2$3")
     457                      .dwattr $C$DW$75, DW_AT_TI_symbol_name("_$P$T2$3")
     458                      .dwattr $C$DW$75, DW_AT_type(*$C$DW$T$206)
     459                      .dwattr $C$DW$75, DW_AT_location[DW_OP_addr _$P$T2$3]
     460              
     461 00000000               .sect   ".econst:_$P$T3$4"
     462                      .clink
     463                      .align  2
     464                      .elfsym _$P$T3$4,SYM_SIZE(4)
     465 00000000       _$P$T3$4:
     466 00000000 0000          .bits           0,32
         00000001 0000 
     467                                      ; _$P$T3$4._value[0] @ 0
     468 00000002 0000          .bits           0,32
         00000003 0000 
     469                                      ; _$P$T3$4._value[1] @ 32
     470              
     471              $C$DW$76        .dwtag  DW_TAG_variable
     472                      .dwattr $C$DW$76, DW_AT_name("$P$T3$4")
     473                      .dwattr $C$DW$76, DW_AT_TI_symbol_name("_$P$T3$4")
     474                      .dwattr $C$DW$76, DW_AT_type(*$C$DW$T$206)
     475                      .dwattr $C$DW$76, DW_AT_location[DW_OP_addr _$P$T3$4]
     476              
     477 00000000               .sect   ".econst:_$P$T4$5"
     478                      .clink
     479                      .align  2
     480                      .elfsym _$P$T4$5,SYM_SIZE(4)
     481 00000000       _$P$T4$5:
     482 00000000 0000          .bits           0,32
         00000001 0000 
     483                                      ; _$P$T4$5._value[0] @ 0
     484 00000002 0000          .bits           0,32
         00000003 0000 
     485                                      ; _$P$T4$5._value[1] @ 32
TMS320C2000 Assembler PC v18.12.4 Tue Feb 21 14:51:41 2023

Copyright (c) 1996-2018 Texas Instruments Incorporated
C:\Users\User\AppData\Local\Temp\{37DBDC18-8316-4B16-94B2-B516506DF0E2} PAGE   10

     486              
     487              $C$DW$77        .dwtag  DW_TAG_variable
     488                      .dwattr $C$DW$77, DW_AT_name("$P$T4$5")
     489                      .dwattr $C$DW$77, DW_AT_TI_symbol_name("_$P$T4$5")
     490                      .dwattr $C$DW$77, DW_AT_type(*$C$DW$T$206)
     491                      .dwattr $C$DW$77, DW_AT_location[DW_OP_addr _$P$T4$5]
     492              
     493 00000000               .sect   ".econst:_$P$T5$6"
     494                      .clink
     495                      .align  2
     496                      .elfsym _$P$T5$6,SYM_SIZE(4)
     497 00000000       _$P$T5$6:
     498 00000000 0000          .bits           0,32
         00000001 0000 
     499                                      ; _$P$T5$6._value[0] @ 0
     500 00000002 0000          .bits           0,32
         00000003 0000 
     501                                      ; _$P$T5$6._value[1] @ 32
     502              
     503              $C$DW$78        .dwtag  DW_TAG_variable
     504                      .dwattr $C$DW$78, DW_AT_name("$P$T5$6")
     505                      .dwattr $C$DW$78, DW_AT_TI_symbol_name("_$P$T5$6")
     506                      .dwattr $C$DW$78, DW_AT_type(*$C$DW$T$206)
     507                      .dwattr $C$DW$78, DW_AT_location[DW_OP_addr _$P$T5$6]
     508              
     509              ;       C:\ti\ccs930\ccs\tools\compiler\ti-cgt-c2000_18.12.4.LTS\bin\opt2000.exe C:\\Users\\User\\AppData\\Lo
     510              ;       C:\ti\ccs930\ccs\tools\compiler\ti-cgt-c2000_18.12.4.LTS\bin\ac2000.exe -@C:\\Users\\User\\AppData\\L
     511 00000000               .sect   ".text"
     512                      .clink
     513                      .global _CTRL_updateState
     514              
     515              $C$DW$79        .dwtag  DW_TAG_subprogram
     516                      .dwattr $C$DW$79, DW_AT_name("CTRL_updateState")
     517                      .dwattr $C$DW$79, DW_AT_low_pc(_CTRL_updateState)
     518                      .dwattr $C$DW$79, DW_AT_high_pc(0x00)
     519                      .dwattr $C$DW$79, DW_AT_TI_symbol_name("_CTRL_updateState")
     520                      .dwattr $C$DW$79, DW_AT_external
     521                      .dwattr $C$DW$79, DW_AT_type(*$C$DW$T$73)
     522                      .dwattr $C$DW$79, DW_AT_TI_begin_file("D:/GIANT/GAINT_TI_instaspin/motorware/motorware_1_01_00_18/sw/
     523                      .dwattr $C$DW$79, DW_AT_TI_begin_line(0x284)
     524                      .dwattr $C$DW$79, DW_AT_TI_begin_column(0x06)
     525                      .dwattr $C$DW$79, DW_AT_TI_max_frame_size(-12)
     526                      .dwpsn  file "D:/GIANT/GAINT_TI_instaspin/motorware/motorware_1_01_00_18/sw/modules/ctrl/src/32b/ctrl
     527              
     528                      .dwfde $C$DW$CIE, _CTRL_updateState
     529              $C$DW$80        .dwtag  DW_TAG_formal_parameter
     530                      .dwattr $C$DW$80, DW_AT_name("handle")
     531                      .dwattr $C$DW$80, DW_AT_TI_symbol_name("_handle")
     532                      .dwattr $C$DW$80, DW_AT_type(*$C$DW$T$172)
     533                      .dwattr $C$DW$80, DW_AT_location[DW_OP_reg12]
     534              
     535              
     536              ;***************************************************************
     537              ;* FNAME: _CTRL_updateState             FR SIZE:  10           *
     538              ;*                                                             *
TMS320C2000 Assembler PC v18.12.4 Tue Feb 21 14:51:41 2023

Copyright (c) 1996-2018 Texas Instruments Incorporated
C:\Users\User\AppData\Local\Temp\{37DBDC18-8316-4B16-94B2-B516506DF0E2} PAGE   11

     539              ;* FUNCTION ENVIRONMENT                                        *
     540              ;*                                                             *
     541              ;* FUNCTION PROPERTIES                                         *
     542              ;*                            0 Parameter,  4 Auto,  6 SOE     *
     543              ;***************************************************************
     544              
     545              _CTRL_updateState:
     546              ;* AR2   assigned to _handle
     547              $C$DW$81        .dwtag  DW_TAG_variable
     548                      .dwattr $C$DW$81, DW_AT_name("handle")
     549                      .dwattr $C$DW$81, DW_AT_TI_symbol_name("_handle")
     550                      .dwattr $C$DW$81, DW_AT_type(*$C$DW$T$185)
     551                      .dwattr $C$DW$81, DW_AT_location[DW_OP_reg8]
     552              
     553              $C$DW$82        .dwtag  DW_TAG_variable
     554                      .dwattr $C$DW$82, DW_AT_name("ctrlState")
     555                      .dwattr $C$DW$82, DW_AT_TI_symbol_name("_ctrlState")
     556                      .dwattr $C$DW$82, DW_AT_type(*$C$DW$T$41)
     557                      .dwattr $C$DW$82, DW_AT_location[DW_OP_breg20 -1]
     558              
     559              ;* AR1   assigned to _stateChanged
     560              $C$DW$83        .dwtag  DW_TAG_variable
     561                      .dwattr $C$DW$83, DW_AT_name("stateChanged")
     562                      .dwattr $C$DW$83, DW_AT_TI_symbol_name("_stateChanged")
     563                      .dwattr $C$DW$83, DW_AT_type(*$C$DW$T$73)
     564                      .dwattr $C$DW$83, DW_AT_location[DW_OP_reg6]
     565              
     566              $C$DW$84        .dwtag  DW_TAG_variable
     567                      .dwattr $C$DW$84, DW_AT_name("waitTime")
     568                      .dwattr $C$DW$84, DW_AT_TI_symbol_name("_waitTime")
     569                      .dwattr $C$DW$84, DW_AT_type(*$C$DW$T$67)
     570                      .dwattr $C$DW$84, DW_AT_location[DW_OP_breg20 -4]
     571              
     572              ;* AR3   assigned to _counter_ctrlState
     573              $C$DW$85        .dwtag  DW_TAG_variable
     574                      .dwattr $C$DW$85, DW_AT_name("counter_ctrlState")
     575                      .dwattr $C$DW$85, DW_AT_TI_symbol_name("_counter_ctrlState")
     576                      .dwattr $C$DW$85, DW_AT_type(*$C$DW$T$67)
     577                      .dwattr $C$DW$85, DW_AT_location[DW_OP_reg10]
     578              
     579                      .dwcfi  cfa_offset, -2
     580                      .dwcfi  save_reg_to_mem, 26, 0
     581 00000000 B2BD          MOVL      *SP++,XAR1            ; [CPU_ALU] 
     582                      .dwcfi  save_reg_to_mem, 7, 2
     583                      .dwcfi  cfa_offset, -4
     584 00000001 AABD          MOVL      *SP++,XAR2            ; [CPU_ALU] 
     585                      .dwcfi  save_reg_to_mem, 9, 4
     586                      .dwcfi  cfa_offset, -6
     587 00000002 A2BD          MOVL      *SP++,XAR3            ; [CPU_ALU] 
     588                      .dwcfi  save_reg_to_mem, 11, 6
     589                      .dwcfi  cfa_offset, -8
     590 00000003 FE04          ADDB      SP,#4                 ; [CPU_ARAU] 
     591                      .dwcfi  cfa_offset, -12
     592 00000004 86A4          MOVL      XAR2,XAR4             ; [CPU_ALU] |645| 
     593                      .dwpsn  file "D:/GIANT/GAINT_TI_instaspin/motorware/motorware_1_01_00_18/sw/modules/ctrl/src/32b/ctrl
TMS320C2000 Assembler PC v18.12.4 Tue Feb 21 14:51:41 2023

Copyright (c) 1996-2018 Texas Instruments Incorporated
C:\Users\User\AppData\Local\Temp\{37DBDC18-8316-4B16-94B2-B516506DF0E2} PAGE   12

     594 00000005 D0F0          MOVB      XAR0,#240             ; [CPU_ALU] |651| 
     595                      .dwpsn  file "D:/GIANT/GAINT_TI_instaspin/motorware/motorware_1_01_00_18/sw/modules/ctrl/src/32b/ctrl
     596 00000006 D100          MOVB      XAR1,#0               ; [CPU_ALU] |648| 
     597                      .dwpsn  file "D:/GIANT/GAINT_TI_instaspin/motorware/motorware_1_01_00_18/sw/modules/ctrl/src/32b/ctrl
     598 00000007 92E2          MOV       AL,*+XAR2[4]          ; [CPU_ALU] |772| 
     599 00000008 9641          MOV       *-SP[1],AL            ; [CPU_ALU] |772| 
     600                      .dwpsn  file "D:/GIANT/GAINT_TI_instaspin/motorware/motorware_1_01_00_18/sw/modules/ctrl/src/32b/ctrl
     601 00000009 9292          MOV       AL,*+XAR2[AR0]        ; [CPU_ALU] |651| 
     602 0000000a 6022          B         $C$L2,NEQ             ; [CPU_ALU] |651| 
     603                      ; branchcc occurs ; [] |651| 
     604 0000000b 9241          MOV       AL,*-SP[1]            ; [CPU_ALU] 
     605                      .dwpsn  file "D:/GIANT/GAINT_TI_instaspin/motorware/motorware_1_01_00_18/sw/modules/ctrl/src/32b/ctrl
     606 0000000c D018          MOVB      XAR0,#24              ; [CPU_ALU] |756| 
     607                      .dwpsn  file "D:/GIANT/GAINT_TI_instaspin/motorware/motorware_1_01_00_18/sw/modules/ctrl/src/32b/ctrl
     608 0000000d 96EA          MOV       *+XAR2[5],AL          ; [CPU_ALU] |1779| 
     609                      .dwpsn  file "D:/GIANT/GAINT_TI_instaspin/motorware/motorware_1_01_00_18/sw/modules/ctrl/src/32b/ctrl
     610 0000000e 56BF          MOVB      *+XAR2[4],#1,UNC      ; [CPU_ALU] |1780| 
         0000000f 01E2 
     611                      .dwpsn  file "D:/GIANT/GAINT_TI_instaspin/motorware/motorware_1_01_00_18/sw/modules/ctrl/src/32b/ctrl
     612 00000010 8A92          MOVL      XAR4,*+XAR2[AR0]      ; [CPU_ALU] |756| 
     613              $C$DW$86        .dwtag  DW_TAG_TI_branch
     614                      .dwattr $C$DW$86, DW_AT_low_pc(0x00)
     615                      .dwattr $C$DW$86, DW_AT_name("_EST_isLockRotor")
     616                      .dwattr $C$DW$86, DW_AT_TI_call
     617              
     618 00000011 7640!         LCR       #_EST_isLockRotor     ; [CPU_ALU] |756| 
         00000012 0000 
     619                      ; call occurs [#_EST_isLockRotor] ; [] |756| 
     620 00000013 5200          CMPB      AL,#0                 ; [CPU_ALU] |756| 
     621 00000014 FFE0          B         $C$L12,NEQ            ; [CPU_ALU] |756| 
         00000015 0094 
     622                      ; branchcc occurs ; [] |756| 
     623                      .dwpsn  file "D:/GIANT/GAINT_TI_instaspin/motorware/motorware_1_01_00_18/sw/modules/ctrl/src/32b/ctrl
     624 00000016 D018          MOVB      XAR0,#24              ; [CPU_ALU] |758| 
     625 00000017 8A92          MOVL      XAR4,*+XAR2[AR0]      ; [CPU_ALU] |758| 
     626              $C$DW$87        .dwtag  DW_TAG_TI_branch
     627                      .dwattr $C$DW$87, DW_AT_low_pc(0x00)
     628                      .dwattr $C$DW$87, DW_AT_name("_EST_isMotorIdentified")
     629                      .dwattr $C$DW$87, DW_AT_TI_call
     630              
     631 00000018 7640!         LCR       #_EST_isMotorIdentified ; [CPU_ALU] |758| 
         00000019 0000 
     632                      ; call occurs [#_EST_isMotorIdentified] ; [] |758| 
     633 0000001a 5200          CMPB      AL,#0                 ; [CPU_ALU] |758| 
     634 0000001b 600C          B         $C$L1,NEQ             ; [CPU_ALU] |758| 
     635                      ; branchcc occurs ; [] |758| 
     636                      .dwpsn  file "D:/GIANT/GAINT_TI_instaspin/motorware/motorware_1_01_00_18/sw/modules/ctrl/src/32b/ctrl
     637 0000001c D018          MOVB      XAR0,#24              ; [CPU_ALU] |764| 
     638 0000001d 8A92          MOVL      XAR4,*+XAR2[AR0]      ; [CPU_ALU] |764| 
     639              $C$DW$88        .dwtag  DW_TAG_TI_branch
     640                      .dwattr $C$DW$88, DW_AT_low_pc(0x00)
     641                      .dwattr $C$DW$88, DW_AT_name("_EST_setIdle_all")
     642                      .dwattr $C$DW$88, DW_AT_TI_call
     643              
     644 0000001e 7640!         LCR       #_EST_setIdle_all     ; [CPU_ALU] |764| 
TMS320C2000 Assembler PC v18.12.4 Tue Feb 21 14:51:41 2023

Copyright (c) 1996-2018 Texas Instruments Incorporated
C:\Users\User\AppData\Local\Temp\{37DBDC18-8316-4B16-94B2-B516506DF0E2} PAGE   13

         0000001f 0000 
     645                      ; call occurs [#_EST_setIdle_all] ; [] |764| 
     646                      .dwpsn  file "D:/GIANT/GAINT_TI_instaspin/motorware/motorware_1_01_00_18/sw/modules/ctrl/src/32b/ctrl
     647 00000020 D018          MOVB      XAR0,#24              ; [CPU_ALU] |766| 
     648 00000021 0200          MOVB      ACC,#0                ; [CPU_ALU] |766| 
     649 00000022 8A92          MOVL      XAR4,*+XAR2[AR0]      ; [CPU_ALU] |766| 
     650              $C$DW$89        .dwtag  DW_TAG_TI_branch
     651                      .dwattr $C$DW$89, DW_AT_low_pc(0x00)
     652                      .dwattr $C$DW$89, DW_AT_name("_EST_setRs_pu")
     653                      .dwattr $C$DW$89, DW_AT_TI_call
     654              
     655 00000023 7640!         LCR       #_EST_setRs_pu        ; [CPU_ALU] |766| 
         00000024 0000 
     656                      ; call occurs [#_EST_setRs_pu] ; [] |766| 
     657 00000025 FFEF          B         $C$L12,UNC            ; [CPU_ALU] |766| 
         00000026 0083 
     658                      ; branch occurs ; [] |766| 
     659 00000027       $C$L1:    
     660                      .dwpsn  file "D:/GIANT/GAINT_TI_instaspin/motorware/motorware_1_01_00_18/sw/modules/ctrl/src/32b/ctrl
     661 00000027 D018          MOVB      XAR0,#24              ; [CPU_ALU] |760| 
     662 00000028 8A92          MOVL      XAR4,*+XAR2[AR0]      ; [CPU_ALU] |760| 
     663              $C$DW$90        .dwtag  DW_TAG_TI_branch
     664                      .dwattr $C$DW$90, DW_AT_low_pc(0x00)
     665                      .dwattr $C$DW$90, DW_AT_name("_EST_setIdle")
     666                      .dwattr $C$DW$90, DW_AT_TI_call
     667              
     668 00000029 7640!         LCR       #_EST_setIdle         ; [CPU_ALU] |760| 
         0000002a 0000 
     669                      ; call occurs [#_EST_setIdle] ; [] |760| 
     670                      .dwpsn  file "D:/GIANT/GAINT_TI_instaspin/motorware/motorware_1_01_00_18/sw/modules/ctrl/src/32b/ctrl
     671 0000002b 6F7D          B         $C$L12,UNC            ; [CPU_ALU] |761| 
     672                      ; branch occurs ; [] |761| 
     673 0000002c       $C$L2:    
     674 0000002c 9241          MOV       AL,*-SP[1]            ; [CPU_ALU] 
     675 0000002d 2901          CLRC      SXM                   ; [CPU_ALU] 
     676                      .dwpsn  file "D:/GIANT/GAINT_TI_instaspin/motorware/motorware_1_01_00_18/sw/modules/ctrl/src/32b/ctrl
     677 0000002e 5603          MOV       ACC,AL << 1           ; [CPU_ALU] |938| 
         0000002f 01A9 
     678 00000030 07A2          ADDL      ACC,XAR2              ; [CPU_ALU] |938| 
     679 00000031 8AA9          MOVL      XAR4,ACC              ; [CPU_ALU] |938| 
     680 00000032 D092          MOVB      XAR0,#146             ; [CPU_ALU] |938| 
     681 00000033 0694          MOVL      ACC,*+XAR4[AR0]       ; [CPU_ALU] |938| 
     682                      .dwpsn  file "D:/GIANT/GAINT_TI_instaspin/motorware/motorware_1_01_00_18/sw/modules/ctrl/src/32b/ctrl
     683 00000034 D09A          MOVB      XAR0,#154             ; [CPU_ALU] |133| 
     684                      .dwpsn  file "D:/GIANT/GAINT_TI_instaspin/motorware/motorware_1_01_00_18/sw/modules/ctrl/src/32b/ctrl
     685 00000035 1E44          MOVL      *-SP[4],ACC           ; [CPU_ALU] |938| 
     686                      .dwpsn  file "D:/GIANT/GAINT_TI_instaspin/motorware/motorware_1_01_00_18/sw/modules/ctrl/src/32b/ctrl
     687 00000036 8292          MOVL      XAR3,*+XAR2[AR0]      ; [CPU_ALU] |133| 
     688                      .dwpsn  file "D:/GIANT/GAINT_TI_instaspin/motorware/motorware_1_01_00_18/sw/modules/ctrl/src/32b/ctrl
     689 00000037 D018          MOVB      XAR0,#24              ; [CPU_ALU] |1988| 
     690 00000038 8A92          MOVL      XAR4,*+XAR2[AR0]      ; [CPU_ALU] |1988| 
     691              $C$DW$91        .dwtag  DW_TAG_TI_branch
     692                      .dwattr $C$DW$91, DW_AT_low_pc(0x00)
     693                      .dwattr $C$DW$91, DW_AT_name("_EST_isError")
     694                      .dwattr $C$DW$91, DW_AT_TI_call
TMS320C2000 Assembler PC v18.12.4 Tue Feb 21 14:51:41 2023

Copyright (c) 1996-2018 Texas Instruments Incorporated
C:\Users\User\AppData\Local\Temp\{37DBDC18-8316-4B16-94B2-B516506DF0E2} PAGE   14

     695              
     696 00000039 7640!         LCR       #_EST_isError         ; [CPU_ALU] |1988| 
         0000003a 0000 
     697                      ; call occurs [#_EST_isError] ; [] |1988| 
     698 0000003b 5200          CMPB      AL,#0                 ; [CPU_ALU] |1988| 
     699 0000003c 6106          B         $C$L3,EQ              ; [CPU_ALU] |1988| 
     700                      ; branchcc occurs ; [] |1988| 
     701                      .dwpsn  file "D:/GIANT/GAINT_TI_instaspin/motorware/motorware_1_01_00_18/sw/modules/ctrl/src/32b/ctrl
     702 0000003d 92E2          MOV       AL,*+XAR2[4]          ; [CPU_ALU] |1779| 
     703 0000003e 96EA          MOV       *+XAR2[5],AL          ; [CPU_ALU] |1779| 
     704                      .dwpsn  file "D:/GIANT/GAINT_TI_instaspin/motorware/motorware_1_01_00_18/sw/modules/ctrl/src/32b/ctrl
     705 0000003f 2BE2          MOV       *+XAR2[4],#0          ; [CPU_ALU] |1780| 
     706                      .dwpsn  file "D:/GIANT/GAINT_TI_instaspin/motorware/motorware_1_01_00_18/sw/modules/ctrl/src/32b/ctrl
     707 00000040 56BF          MOVB      *+XAR2[6],#2,UNC      ; [CPU_ALU] |1194| 
         00000041 02F2 
     708 00000042       $C$L3:    
     709 00000042 0644          MOVL      ACC,*-SP[4]           ; [CPU_ALU] 
     710                      .dwpsn  file "D:/GIANT/GAINT_TI_instaspin/motorware/motorware_1_01_00_18/sw/modules/ctrl/src/32b/ctrl
     711 00000043 0FA3          CMPL      ACC,XAR3              ; [CPU_ALU] |661| 
     712 00000044 6664          B         $C$L12,HI             ; [CPU_ALU] |661| 
     713                      ; branchcc occurs ; [] |661| 
     714                      .dwpsn  file "D:/GIANT/GAINT_TI_instaspin/motorware/motorware_1_01_00_18/sw/modules/ctrl/src/32b/ctrl
     715 00000045 D09A          MOVB      XAR0,#154             ; [CPU_ALU] |1112| 
     716 00000046 0200          MOVB      ACC,#0                ; [CPU_ALU] |1112| 
     717 00000047 1E92          MOVL      *+XAR2[AR0],ACC       ; [CPU_ALU] |1112| 
     718 00000048 9241          MOV       AL,*-SP[1]            ; [CPU_ALU] |1112| 
     719                      .dwpsn  file "D:/GIANT/GAINT_TI_instaspin/motorware/motorware_1_01_00_18/sw/modules/ctrl/src/32b/ctrl
     720 00000049 5203          CMPB      AL,#3                 ; [CPU_ALU] |667| 
     721 0000004a 612E          B         $C$L8,EQ              ; [CPU_ALU] |667| 
     722                      ; branchcc occurs ; [] |667| 
     723                      .dwpsn  file "D:/GIANT/GAINT_TI_instaspin/motorware/motorware_1_01_00_18/sw/modules/ctrl/src/32b/ctrl
     724 0000004b 5202          CMPB      AL,#2                 ; [CPU_ALU] |700| 
     725 0000004c 6127          B         $C$L7,EQ              ; [CPU_ALU] |700| 
     726                      ; branchcc occurs ; [] |700| 
     727                      .dwpsn  file "D:/GIANT/GAINT_TI_instaspin/motorware/motorware_1_01_00_18/sw/modules/ctrl/src/32b/ctrl
     728 0000004d 5201          CMPB      AL,#1                 ; [CPU_ALU] |705| 
     729 0000004e 605A          B         $C$L12,NEQ            ; [CPU_ALU] |705| 
     730                      ; branchcc occurs ; [] |705| 
     731                      .dwpsn  file "D:/GIANT/GAINT_TI_instaspin/motorware/motorware_1_01_00_18/sw/modules/ctrl/src/32b/ctrl
     732 0000004f D0F5          MOVB      XAR0,#245             ; [CPU_ALU] |710| 
     733 00000050 9292          MOV       AL,*+XAR2[AR0]        ; [CPU_ALU] |710| 
     734 00000051 6104          B         $C$L4,EQ              ; [CPU_ALU] |710| 
     735                      ; branchcc occurs ; [] |710| 
     736                      .dwpsn  file "D:/GIANT/GAINT_TI_instaspin/motorware/motorware_1_01_00_18/sw/modules/ctrl/src/32b/ctrl
     737 00000052 8AA2          MOVL      XAR4,XAR2             ; [CPU_ALU] |713| 
     738              $C$DW$92        .dwtag  DW_TAG_TI_branch
     739                      .dwattr $C$DW$92, DW_AT_low_pc(0x00)
     740                      .dwattr $C$DW$92, DW_AT_name("_CTRL_setUserMotorParams")
     741                      .dwattr $C$DW$92, DW_AT_TI_call
     742              
     743 00000053 7640!         LCR       #_CTRL_setUserMotorParams ; [CPU_ALU] |713| 
         00000054 0000 
     744                      ; call occurs [#_CTRL_setUserMotorParams] ; [] |713| 
     745 00000055       $C$L4:    
     746                      .dwpsn  file "D:/GIANT/GAINT_TI_instaspin/motorware/motorware_1_01_00_18/sw/modules/ctrl/src/32b/ctrl
TMS320C2000 Assembler PC v18.12.4 Tue Feb 21 14:51:41 2023

Copyright (c) 1996-2018 Texas Instruments Incorporated
C:\Users\User\AppData\Local\Temp\{37DBDC18-8316-4B16-94B2-B516506DF0E2} PAGE   15

     747 00000055 D018          MOVB      XAR0,#24              ; [CPU_ALU] |716| 
     748 00000056 8A92          MOVL      XAR4,*+XAR2[AR0]      ; [CPU_ALU] |716| 
     749              $C$DW$93        .dwtag  DW_TAG_TI_branch
     750                      .dwattr $C$DW$93, DW_AT_low_pc(0x00)
     751                      .dwattr $C$DW$93, DW_AT_name("_EST_isIdle")
     752                      .dwattr $C$DW$93, DW_AT_TI_call
     753              
     754 00000057 7640!         LCR       #_EST_isIdle          ; [CPU_ALU] |716| 
         00000058 0000 
     755                      ; call occurs [#_EST_isIdle] ; [] |716| 
     756 00000059 5200          CMPB      AL,#0                 ; [CPU_ALU] |716| 
     757 0000005a 6008          B         $C$L5,NEQ             ; [CPU_ALU] |716| 
     758                      ; branchcc occurs ; [] |716| 
     759                      .dwpsn  file "D:/GIANT/GAINT_TI_instaspin/motorware/motorware_1_01_00_18/sw/modules/ctrl/src/32b/ctrl
     760 0000005b D018          MOVB      XAR0,#24              ; [CPU_ALU] |740| 
     761 0000005c 8A92          MOVL      XAR4,*+XAR2[AR0]      ; [CPU_ALU] |740| 
     762              $C$DW$94        .dwtag  DW_TAG_TI_branch
     763                      .dwattr $C$DW$94, DW_AT_low_pc(0x00)
     764                      .dwattr $C$DW$94, DW_AT_name("_EST_isLockRotor")
     765                      .dwattr $C$DW$94, DW_AT_TI_call
     766              
     767 0000005d 7640!         LCR       #_EST_isLockRotor     ; [CPU_ALU] |740| 
         0000005e 0000 
     768                      ; call occurs [#_EST_isLockRotor] ; [] |740| 
     769 0000005f 5200          CMPB      AL,#0                 ; [CPU_ALU] |740| 
     770 00000060 6013          B         $C$L7,NEQ             ; [CPU_ALU] |740| 
     771                      ; branchcc occurs ; [] |740| 
     772 00000061 6F47          B         $C$L12,UNC            ; [CPU_ALU] |740| 
     773                      ; branch occurs ; [] |740| 
     774 00000062       $C$L5:    
     775                      .dwpsn  file "D:/GIANT/GAINT_TI_instaspin/motorware/motorware_1_01_00_18/sw/modules/ctrl/src/32b/ctrl
     776 00000062 8AA2          MOVL      XAR4,XAR2             ; [CPU_ALU] |719| 
     777              $C$DW$95        .dwtag  DW_TAG_TI_branch
     778                      .dwattr $C$DW$95, DW_AT_low_pc(0x00)
     779                      .dwattr $C$DW$95, DW_AT_name("_CTRL_setupEstIdleState")
     780                      .dwattr $C$DW$95, DW_AT_TI_call
     781              
     782 00000063 7640!         LCR       #_CTRL_setupEstIdleState ; [CPU_ALU] |719| 
         00000064 0000 
     783                      ; call occurs [#_CTRL_setupEstIdleState] ; [] |719| 
     784                      .dwpsn  file "D:/GIANT/GAINT_TI_instaspin/motorware/motorware_1_01_00_18/sw/modules/ctrl/src/32b/ctrl
     785 00000065 D018          MOVB      XAR0,#24              ; [CPU_ALU] |721| 
     786 00000066 8A92          MOVL      XAR4,*+XAR2[AR0]      ; [CPU_ALU] |721| 
     787              $C$DW$96        .dwtag  DW_TAG_TI_branch
     788                      .dwattr $C$DW$96, DW_AT_low_pc(0x00)
     789                      .dwattr $C$DW$96, DW_AT_name("_EST_isMotorIdentified")
     790                      .dwattr $C$DW$96, DW_AT_TI_call
     791              
     792 00000067 7640!         LCR       #_EST_isMotorIdentified ; [CPU_ALU] |721| 
         00000068 0000 
     793                      ; call occurs [#_EST_isMotorIdentified] ; [] |721| 
     794 00000069 5200          CMPB      AL,#0                 ; [CPU_ALU] |721| 
     795 0000006a 6104          B         $C$L6,EQ              ; [CPU_ALU] |721| 
     796                      ; branchcc occurs ; [] |721| 
     797 0000006b D0F3          MOVB      XAR0,#243             ; [CPU_ALU] |721| 
TMS320C2000 Assembler PC v18.12.4 Tue Feb 21 14:51:41 2023

Copyright (c) 1996-2018 Texas Instruments Incorporated
C:\Users\User\AppData\Local\Temp\{37DBDC18-8316-4B16-94B2-B516506DF0E2} PAGE   16

     798 0000006c 9292          MOV       AL,*+XAR2[AR0]        ; [CPU_ALU] |721| 
     799 0000006d 6106          B         $C$L7,EQ              ; [CPU_ALU] |721| 
     800                      ; branchcc occurs ; [] |721| 
     801 0000006e       $C$L6:    
     802                      .dwpsn  file "D:/GIANT/GAINT_TI_instaspin/motorware/motorware_1_01_00_18/sw/modules/ctrl/src/32b/ctrl
     803 0000006e 92E2          MOV       AL,*+XAR2[4]          ; [CPU_ALU] |1779| 
     804 0000006f 96EA          MOV       *+XAR2[5],AL          ; [CPU_ALU] |1779| 
     805                      .dwpsn  file "D:/GIANT/GAINT_TI_instaspin/motorware/motorware_1_01_00_18/sw/modules/ctrl/src/32b/ctrl
     806 00000070 56BF          MOVB      *+XAR2[4],#2,UNC      ; [CPU_ALU] |1780| 
         00000071 02E2 
     807                      .dwpsn  file "D:/GIANT/GAINT_TI_instaspin/motorware/motorware_1_01_00_18/sw/modules/ctrl/src/32b/ctrl
     808 00000072 6F36          B         $C$L12,UNC            ; [CPU_ALU] |737| 
     809                      ; branch occurs ; [] |737| 
     810 00000073       $C$L7:    
     811                      .dwpsn  file "D:/GIANT/GAINT_TI_instaspin/motorware/motorware_1_01_00_18/sw/modules/ctrl/src/32b/ctrl
     812 00000073 92E2          MOV       AL,*+XAR2[4]          ; [CPU_ALU] |1779| 
     813 00000074 96EA          MOV       *+XAR2[5],AL          ; [CPU_ALU] |1779| 
     814                      .dwpsn  file "D:/GIANT/GAINT_TI_instaspin/motorware/motorware_1_01_00_18/sw/modules/ctrl/src/32b/ctrl
     815 00000075 56BF          MOVB      *+XAR2[4],#3,UNC      ; [CPU_ALU] |1780| 
         00000076 03E2 
     816                      .dwpsn  file "D:/GIANT/GAINT_TI_instaspin/motorware/motorware_1_01_00_18/sw/modules/ctrl/src/32b/ctrl
     817 00000077 6F31          B         $C$L12,UNC            ; [CPU_ALU] |704| 
     818                      ; branch occurs ; [] |704| 
     819 00000078       $C$L8:    
     820                      .dwpsn  file "D:/GIANT/GAINT_TI_instaspin/motorware/motorware_1_01_00_18/sw/modules/ctrl/src/32b/ctrl
     821 00000078 D018          MOVB      XAR0,#24              ; [CPU_ALU] |673| 
     822 00000079 8A92          MOVL      XAR4,*+XAR2[AR0]      ; [CPU_ALU] |673| 
     823 0000007a D060          MOVB      XAR0,#96              ; [CPU_ALU] |673| 
     824 0000007b 8392          MOVL      XAR5,*+XAR2[AR0]      ; [CPU_ALU] |673| 
     825 0000007c 06C5          MOVL      ACC,*+XAR5[0]         ; [CPU_ALU] |673| 
     826              $C$DW$97        .dwtag  DW_TAG_TI_branch
     827                      .dwattr $C$DW$97, DW_AT_low_pc(0x00)
     828                      .dwattr $C$DW$97, DW_AT_name("_EST_updateState")
     829                      .dwattr $C$DW$97, DW_AT_TI_call
     830              
     831 0000007d 7640!         LCR       #_EST_updateState     ; [CPU_ALU] |673| 
         0000007e 0000 
     832                      ; call occurs [#_EST_updateState] ; [] |673| 
     833 0000007f 5200          CMPB      AL,#0                 ; [CPU_ALU] |673| 
     834 00000080 6107          B         $C$L9,EQ              ; [CPU_ALU] |673| 
     835                      ; branchcc occurs ; [] |673| 
     836                      .dwpsn  file "D:/GIANT/GAINT_TI_instaspin/motorware/motorware_1_01_00_18/sw/modules/ctrl/src/32b/ctrl
     837 00000081 8AA2          MOVL      XAR4,XAR2             ; [CPU_ALU] |678| 
     838              $C$DW$98        .dwtag  DW_TAG_TI_branch
     839                      .dwattr $C$DW$98, DW_AT_low_pc(0x00)
     840                      .dwattr $C$DW$98, DW_AT_name("_CTRL_setupCtrl")
     841                      .dwattr $C$DW$98, DW_AT_TI_call
     842              
     843 00000082 7640!         LCR       #_CTRL_setupCtrl      ; [CPU_ALU] |678| 
         00000083 0000 
     844                      ; call occurs [#_CTRL_setupCtrl] ; [] |678| 
     845                      .dwpsn  file "D:/GIANT/GAINT_TI_instaspin/motorware/motorware_1_01_00_18/sw/modules/ctrl/src/32b/ctrl
     846 00000084 8AA2          MOVL      XAR4,XAR2             ; [CPU_ALU] |681| 
     847              $C$DW$99        .dwtag  DW_TAG_TI_branch
     848                      .dwattr $C$DW$99, DW_AT_low_pc(0x00)
TMS320C2000 Assembler PC v18.12.4 Tue Feb 21 14:51:41 2023

Copyright (c) 1996-2018 Texas Instruments Incorporated
C:\Users\User\AppData\Local\Temp\{37DBDC18-8316-4B16-94B2-B516506DF0E2} PAGE   17

     849                      .dwattr $C$DW$99, DW_AT_name("_CTRL_setupTraj")
     850                      .dwattr $C$DW$99, DW_AT_TI_call
     851              
     852 00000085 7640!         LCR       #_CTRL_setupTraj      ; [CPU_ALU] |681| 
         00000086 0000 
     853                      ; call occurs [#_CTRL_setupTraj] ; [] |681| 
     854 00000087       $C$L9:    
     855                      .dwpsn  file "D:/GIANT/GAINT_TI_instaspin/motorware/motorware_1_01_00_18/sw/modules/ctrl/src/32b/ctrl
     856 00000087 D018          MOVB      XAR0,#24              ; [CPU_ALU] |684| 
     857 00000088 8A92          MOVL      XAR4,*+XAR2[AR0]      ; [CPU_ALU] |684| 
     858              $C$DW$100       .dwtag  DW_TAG_TI_branch
     859                      .dwattr $C$DW$100, DW_AT_low_pc(0x00)
     860                      .dwattr $C$DW$100, DW_AT_name("_EST_isOnLine")
     861                      .dwattr $C$DW$100, DW_AT_TI_call
     862              
     863 00000089 7640!         LCR       #_EST_isOnLine        ; [CPU_ALU] |684| 
         0000008a 0000 
     864                      ; call occurs [#_EST_isOnLine] ; [] |684| 
     865 0000008b 5200          CMPB      AL,#0                 ; [CPU_ALU] |684| 
     866 0000008c 6104          B         $C$L10,EQ             ; [CPU_ALU] |684| 
     867                      ; branchcc occurs ; [] |684| 
     868                      .dwpsn  file "D:/GIANT/GAINT_TI_instaspin/motorware/motorware_1_01_00_18/sw/modules/ctrl/src/32b/ctrl
     869 0000008d 8AA2          MOVL      XAR4,XAR2             ; [CPU_ALU] |687| 
     870              $C$DW$101       .dwtag  DW_TAG_TI_branch
     871                      .dwattr $C$DW$101, DW_AT_low_pc(0x00)
     872                      .dwattr $C$DW$101, DW_AT_name("_CTRL_setupEstOnLineState")
     873                      .dwattr $C$DW$101, DW_AT_TI_call
     874              
     875 0000008e 7640!         LCR       #_CTRL_setupEstOnLineState ; [CPU_ALU] |687| 
         0000008f 0000 
     876                      ; call occurs [#_CTRL_setupEstOnLineState] ; [] |687| 
     877 00000090       $C$L10:    
     878                      .dwpsn  file "D:/GIANT/GAINT_TI_instaspin/motorware/motorware_1_01_00_18/sw/modules/ctrl/src/32b/ctrl
     879 00000090 D018          MOVB      XAR0,#24              ; [CPU_ALU] |690| 
     880 00000091 8A92          MOVL      XAR4,*+XAR2[AR0]      ; [CPU_ALU] |690| 
     881              $C$DW$102       .dwtag  DW_TAG_TI_branch
     882                      .dwattr $C$DW$102, DW_AT_low_pc(0x00)
     883                      .dwattr $C$DW$102, DW_AT_name("_EST_isLockRotor")
     884                      .dwattr $C$DW$102, DW_AT_TI_call
     885              
     886 00000092 7640!         LCR       #_EST_isLockRotor     ; [CPU_ALU] |690| 
         00000093 0000 
     887                      ; call occurs [#_EST_isLockRotor] ; [] |690| 
     888 00000094 5200          CMPB      AL,#0                 ; [CPU_ALU] |690| 
     889 00000095 600D          B         $C$L11,NEQ            ; [CPU_ALU] |690| 
     890                      ; branchcc occurs ; [] |690| 
     891 00000096 D018          MOVB      XAR0,#24              ; [CPU_ALU] |690| 
     892 00000097 8A92          MOVL      XAR4,*+XAR2[AR0]      ; [CPU_ALU] |690| 
     893              $C$DW$103       .dwtag  DW_TAG_TI_branch
     894                      .dwattr $C$DW$103, DW_AT_low_pc(0x00)
     895                      .dwattr $C$DW$103, DW_AT_name("_EST_isIdle")
     896                      .dwattr $C$DW$103, DW_AT_TI_call
     897              
     898 00000098 7640!         LCR       #_EST_isIdle          ; [CPU_ALU] |690| 
         00000099 0000 
TMS320C2000 Assembler PC v18.12.4 Tue Feb 21 14:51:41 2023

Copyright (c) 1996-2018 Texas Instruments Incorporated
C:\Users\User\AppData\Local\Temp\{37DBDC18-8316-4B16-94B2-B516506DF0E2} PAGE   18

     899                      ; call occurs [#_EST_isIdle] ; [] |690| 
     900 0000009a 5200          CMPB      AL,#0                 ; [CPU_ALU] |690| 
     901 0000009b 610D          B         $C$L12,EQ             ; [CPU_ALU] |690| 
     902                      ; branchcc occurs ; [] |690| 
     903 0000009c D018          MOVB      XAR0,#24              ; [CPU_ALU] |690| 
     904 0000009d 8A92          MOVL      XAR4,*+XAR2[AR0]      ; [CPU_ALU] |690| 
     905              $C$DW$104       .dwtag  DW_TAG_TI_branch
     906                      .dwattr $C$DW$104, DW_AT_low_pc(0x00)
     907                      .dwattr $C$DW$104, DW_AT_name("_EST_isMotorIdentified")
     908                      .dwattr $C$DW$104, DW_AT_TI_call
     909              
     910 0000009e 7640!         LCR       #_EST_isMotorIdentified ; [CPU_ALU] |690| 
         0000009f 0000 
     911                      ; call occurs [#_EST_isMotorIdentified] ; [] |690| 
     912 000000a0 5200          CMPB      AL,#0                 ; [CPU_ALU] |690| 
     913 000000a1 6107          B         $C$L12,EQ             ; [CPU_ALU] |690| 
     914                      ; branchcc occurs ; [] |690| 
     915 000000a2       $C$L11:    
     916                      .dwpsn  file "D:/GIANT/GAINT_TI_instaspin/motorware/motorware_1_01_00_18/sw/modules/ctrl/src/32b/ctrl
     917 000000a2 D0F0          MOVB      XAR0,#240             ; [CPU_ALU] |1219| 
     918 000000a3 2B92          MOV       *+XAR2[AR0],#0        ; [CPU_ALU] |1219| 
     919                      .dwpsn  file "D:/GIANT/GAINT_TI_instaspin/motorware/motorware_1_01_00_18/sw/modules/ctrl/src/32b/ctrl
     920 000000a4 92E2          MOV       AL,*+XAR2[4]          ; [CPU_ALU] |1779| 
     921 000000a5 96EA          MOV       *+XAR2[5],AL          ; [CPU_ALU] |1779| 
     922                      .dwpsn  file "D:/GIANT/GAINT_TI_instaspin/motorware/motorware_1_01_00_18/sw/modules/ctrl/src/32b/ctrl
     923 000000a6 56BF          MOVB      *+XAR2[4],#1,UNC      ; [CPU_ALU] |1780| 
         000000a7 01E2 
     924 000000a8       $C$L12:    
     925                      .dwpsn  file "D:/GIANT/GAINT_TI_instaspin/motorware/motorware_1_01_00_18/sw/modules/ctrl/src/32b/ctrl
     926 000000a8 8841          MOVZ      AR6,*-SP[1]           ; [CPU_ALU] |773| 
     927 000000a9 0EE2          MOVU      ACC,*+XAR2[4]         ; [CPU_ALU] |773| 
     928 000000aa 0FA6          CMPL      ACC,XAR6              ; [CPU_ALU] |773| 
     929                      .dwpsn  file "D:/GIANT/GAINT_TI_instaspin/motorware/motorware_1_01_00_18/sw/modules/ctrl/src/32b/ctrl
     930 000000ab 56B0          MOVB      XAR1,#1,NEQ           ; [CPU_ALU] |775| 
         000000ac 01A1 
     931 000000ad FE84          SUBB      SP,#4                 ; [CPU_ARAU] 
     932                      .dwcfi  cfa_offset, -8
     933                      .dwpsn  file "D:/GIANT/GAINT_TI_instaspin/motorware/motorware_1_01_00_18/sw/modules/ctrl/src/32b/ctrl
     934 000000ae 92A1          MOV       AL,AR1                ; [CPU_ALU] |778| 
     935 000000af 82BE          MOVL      XAR3,*--SP            ; [CPU_ALU] 
     936                      .dwcfi  cfa_offset, -6
     937                      .dwcfi  restore_reg, 11
     938 000000b0 86BE          MOVL      XAR2,*--SP            ; [CPU_ALU] 
     939                      .dwcfi  cfa_offset, -4
     940                      .dwcfi  restore_reg, 9
     941 000000b1 8BBE          MOVL      XAR1,*--SP            ; [CPU_ALU] 
     942                      .dwcfi  cfa_offset, -2
     943                      .dwcfi  restore_reg, 7
     944              $C$DW$105       .dwtag  DW_TAG_TI_branch
     945                      .dwattr $C$DW$105, DW_AT_low_pc(0x00)
     946                      .dwattr $C$DW$105, DW_AT_TI_return
     947              
     948 000000b2 0006          LRETR     ; [CPU_ALU] 
     949                      ; return occurs ; [] 
     950                      .dwattr $C$DW$79, DW_AT_TI_end_file("D:/GIANT/GAINT_TI_instaspin/motorware/motorware_1_01_00_18/sw/mo
TMS320C2000 Assembler PC v18.12.4 Tue Feb 21 14:51:41 2023

Copyright (c) 1996-2018 Texas Instruments Incorporated
C:\Users\User\AppData\Local\Temp\{37DBDC18-8316-4B16-94B2-B516506DF0E2} PAGE   19

     951                      .dwattr $C$DW$79, DW_AT_TI_end_line(0x30b)
     952                      .dwattr $C$DW$79, DW_AT_TI_end_column(0x01)
     953                      .dwendentry
     954                      .dwendtag $C$DW$79
     955              
     956 000000b3               .sect   ".text"
     957                      .clink
     958                      .global _CTRL_setup_user
     959              
     960              $C$DW$106       .dwtag  DW_TAG_subprogram
     961                      .dwattr $C$DW$106, DW_AT_name("CTRL_setup_user")
     962                      .dwattr $C$DW$106, DW_AT_low_pc(_CTRL_setup_user)
     963                      .dwattr $C$DW$106, DW_AT_high_pc(0x00)
     964                      .dwattr $C$DW$106, DW_AT_TI_symbol_name("_CTRL_setup_user")
     965                      .dwattr $C$DW$106, DW_AT_external
     966                      .dwattr $C$DW$106, DW_AT_TI_begin_file("D:/GIANT/GAINT_TI_instaspin/motorware/motorware_1_01_00_18/sw
     967                      .dwattr $C$DW$106, DW_AT_TI_begin_line(0x23c)
     968                      .dwattr $C$DW$106, DW_AT_TI_begin_column(0x06)
     969                      .dwattr $C$DW$106, DW_AT_TI_max_frame_size(-18)
     970                      .dwpsn  file "D:/GIANT/GAINT_TI_instaspin/motorware/motorware_1_01_00_18/sw/modules/ctrl/src/32b/ctrl
     971              
     972                      .dwfde $C$DW$CIE, _CTRL_setup_user
     973              $C$DW$107       .dwtag  DW_TAG_formal_parameter
     974                      .dwattr $C$DW$107, DW_AT_name("handle")
     975                      .dwattr $C$DW$107, DW_AT_TI_symbol_name("_handle")
     976                      .dwattr $C$DW$107, DW_AT_type(*$C$DW$T$172)
     977                      .dwattr $C$DW$107, DW_AT_location[DW_OP_reg12]
     978              
     979              $C$DW$108       .dwtag  DW_TAG_formal_parameter
     980                      .dwattr $C$DW$108, DW_AT_name("angle_pu")
     981                      .dwattr $C$DW$108, DW_AT_TI_symbol_name("_angle_pu")
     982                      .dwattr $C$DW$108, DW_AT_type(*$C$DW$T$32)
     983                      .dwattr $C$DW$108, DW_AT_location[DW_OP_reg0]
     984              
     985              $C$DW$109       .dwtag  DW_TAG_formal_parameter
     986                      .dwattr $C$DW$109, DW_AT_name("speed_ref_pu")
     987                      .dwattr $C$DW$109, DW_AT_TI_symbol_name("_speed_ref_pu")
     988                      .dwattr $C$DW$109, DW_AT_type(*$C$DW$T$32)
     989                      .dwattr $C$DW$109, DW_AT_location[DW_OP_breg20 -20]
     990              
     991              $C$DW$110       .dwtag  DW_TAG_formal_parameter
     992                      .dwattr $C$DW$110, DW_AT_name("speed_fb_pu")
     993                      .dwattr $C$DW$110, DW_AT_TI_symbol_name("_speed_fb_pu")
     994                      .dwattr $C$DW$110, DW_AT_type(*$C$DW$T$32)
     995                      .dwattr $C$DW$110, DW_AT_location[DW_OP_breg20 -22]
     996              
     997              $C$DW$111       .dwtag  DW_TAG_formal_parameter
     998                      .dwattr $C$DW$111, DW_AT_name("speed_outMax_pu")
     999                      .dwattr $C$DW$111, DW_AT_TI_symbol_name("_speed_outMax_pu")
    1000                      .dwattr $C$DW$111, DW_AT_type(*$C$DW$T$32)
    1001                      .dwattr $C$DW$111, DW_AT_location[DW_OP_breg20 -24]
    1002              
    1003              $C$DW$112       .dwtag  DW_TAG_formal_parameter
    1004                      .dwattr $C$DW$112, DW_AT_name("pIdq_offset_pu")
    1005                      .dwattr $C$DW$112, DW_AT_TI_symbol_name("_pIdq_offset_pu")
TMS320C2000 Assembler PC v18.12.4 Tue Feb 21 14:51:41 2023

Copyright (c) 1996-2018 Texas Instruments Incorporated
C:\Users\User\AppData\Local\Temp\{37DBDC18-8316-4B16-94B2-B516506DF0E2} PAGE   20

    1006                      .dwattr $C$DW$112, DW_AT_type(*$C$DW$T$207)
    1007                      .dwattr $C$DW$112, DW_AT_location[DW_OP_reg14]
    1008              
    1009              $C$DW$113       .dwtag  DW_TAG_formal_parameter
    1010                      .dwattr $C$DW$113, DW_AT_name("pVdq_offset_pu")
    1011                      .dwattr $C$DW$113, DW_AT_TI_symbol_name("_pVdq_offset_pu")
    1012                      .dwattr $C$DW$113, DW_AT_type(*$C$DW$T$207)
    1013                      .dwattr $C$DW$113, DW_AT_location[DW_OP_breg20 -26]
    1014              
    1015              $C$DW$114       .dwtag  DW_TAG_formal_parameter
    1016                      .dwattr $C$DW$114, DW_AT_name("flag_enableSpeedCtrl")
    1017                      .dwattr $C$DW$114, DW_AT_TI_symbol_name("_flag_enableSpeedCtrl")
    1018                      .dwattr $C$DW$114, DW_AT_type(*$C$DW$T$73)
    1019                      .dwattr $C$DW$114, DW_AT_location[DW_OP_breg20 -27]
    1020              
    1021              $C$DW$115       .dwtag  DW_TAG_formal_parameter
    1022                      .dwattr $C$DW$115, DW_AT_name("flag_enableCurrentCtrl")
    1023                      .dwattr $C$DW$115, DW_AT_TI_symbol_name("_flag_enableCurrentCtrl")
    1024                      .dwattr $C$DW$115, DW_AT_type(*$C$DW$T$73)
    1025                      .dwattr $C$DW$115, DW_AT_location[DW_OP_breg20 -28]
    1026              
    1027              
    1028              ;***************************************************************
    1029              ;* FNAME: _CTRL_setup_user              FR SIZE:  16           *
    1030              ;*                                                             *
    1031              ;* FUNCTION ENVIRONMENT                                        *
    1032              ;*                                                             *
    1033              ;* FUNCTION PROPERTIES                                         *
    1034              ;*                            0 Parameter, 10 Auto,  6 SOE     *
    1035              ;***************************************************************
    1036              
    1037              _CTRL_setup_user:
    1038              ;* AR1   assigned to _handle
    1039              $C$DW$116       .dwtag  DW_TAG_variable
    1040                      .dwattr $C$DW$116, DW_AT_name("handle")
    1041                      .dwattr $C$DW$116, DW_AT_TI_symbol_name("_handle")
    1042                      .dwattr $C$DW$116, DW_AT_type(*$C$DW$T$185)
    1043                      .dwattr $C$DW$116, DW_AT_location[DW_OP_reg6]
    1044              
    1045              $C$DW$117       .dwtag  DW_TAG_variable
    1046                      .dwattr $C$DW$117, DW_AT_name("angle_pu")
    1047                      .dwattr $C$DW$117, DW_AT_TI_symbol_name("_angle_pu")
    1048                      .dwattr $C$DW$117, DW_AT_type(*$C$DW$T$235)
    1049                      .dwattr $C$DW$117, DW_AT_location[DW_OP_breg20 -4]
    1050              
    1051              ;* AR2   assigned to _speed_ref_pu
    1052              $C$DW$118       .dwtag  DW_TAG_variable
    1053                      .dwattr $C$DW$118, DW_AT_name("speed_ref_pu")
    1054                      .dwattr $C$DW$118, DW_AT_TI_symbol_name("_speed_ref_pu")
    1055                      .dwattr $C$DW$118, DW_AT_type(*$C$DW$T$235)
    1056                      .dwattr $C$DW$118, DW_AT_location[DW_OP_reg8]
    1057              
    1058              $C$DW$119       .dwtag  DW_TAG_variable
    1059                      .dwattr $C$DW$119, DW_AT_name("speed_fb_pu")
    1060                      .dwattr $C$DW$119, DW_AT_TI_symbol_name("_speed_fb_pu")
TMS320C2000 Assembler PC v18.12.4 Tue Feb 21 14:51:41 2023

Copyright (c) 1996-2018 Texas Instruments Incorporated
C:\Users\User\AppData\Local\Temp\{37DBDC18-8316-4B16-94B2-B516506DF0E2} PAGE   21

    1061                      .dwattr $C$DW$119, DW_AT_type(*$C$DW$T$235)
    1062                      .dwattr $C$DW$119, DW_AT_location[DW_OP_breg20 -6]
    1063              
    1064              $C$DW$120       .dwtag  DW_TAG_variable
    1065                      .dwattr $C$DW$120, DW_AT_name("speed_outMax_pu")
    1066                      .dwattr $C$DW$120, DW_AT_TI_symbol_name("_speed_outMax_pu")
    1067                      .dwattr $C$DW$120, DW_AT_type(*$C$DW$T$235)
    1068                      .dwattr $C$DW$120, DW_AT_location[DW_OP_breg20 -8]
    1069              
    1070              $C$DW$121       .dwtag  DW_TAG_variable
    1071                      .dwattr $C$DW$121, DW_AT_name("pIdq_offset_pu")
    1072                      .dwattr $C$DW$121, DW_AT_TI_symbol_name("_pIdq_offset_pu")
    1073                      .dwattr $C$DW$121, DW_AT_type(*$C$DW$T$208)
    1074                      .dwattr $C$DW$121, DW_AT_location[DW_OP_breg20 -10]
    1075              
    1076              ;* AR3   assigned to _pVdq_offset_pu
    1077              $C$DW$122       .dwtag  DW_TAG_variable
    1078                      .dwattr $C$DW$122, DW_AT_name("pVdq_offset_pu")
    1079                      .dwattr $C$DW$122, DW_AT_TI_symbol_name("_pVdq_offset_pu")
    1080                      .dwattr $C$DW$122, DW_AT_type(*$C$DW$T$208)
    1081                      .dwattr $C$DW$122, DW_AT_location[DW_OP_reg10]
    1082              
    1083              $C$DW$123       .dwtag  DW_TAG_variable
    1084                      .dwattr $C$DW$123, DW_AT_name("flag_enableSpeedCtrl")
    1085                      .dwattr $C$DW$123, DW_AT_TI_symbol_name("_flag_enableSpeedCtrl")
    1086                      .dwattr $C$DW$123, DW_AT_type(*$C$DW$T$270)
    1087                      .dwattr $C$DW$123, DW_AT_location[DW_OP_breg20 -1]
    1088              
    1089              $C$DW$124       .dwtag  DW_TAG_variable
    1090                      .dwattr $C$DW$124, DW_AT_name("flag_enableCurrentCtrl")
    1091                      .dwattr $C$DW$124, DW_AT_TI_symbol_name("_flag_enableCurrentCtrl")
    1092                      .dwattr $C$DW$124, DW_AT_type(*$C$DW$T$270)
    1093                      .dwattr $C$DW$124, DW_AT_location[DW_OP_breg20 -2]
    1094              
    1095              ;* AR6   assigned to _ctrlState
    1096              $C$DW$125       .dwtag  DW_TAG_variable
    1097                      .dwattr $C$DW$125, DW_AT_name("ctrlState")
    1098                      .dwattr $C$DW$125, DW_AT_TI_symbol_name("_ctrlState")
    1099                      .dwattr $C$DW$125, DW_AT_type(*$C$DW$T$41)
    1100                      .dwattr $C$DW$125, DW_AT_location[DW_OP_reg16]
    1101              
    1102              ;* PL    assigned to _count_traj
    1103              $C$DW$126       .dwtag  DW_TAG_variable
    1104                      .dwattr $C$DW$126, DW_AT_name("count_traj")
    1105                      .dwattr $C$DW$126, DW_AT_TI_symbol_name("_count_traj")
    1106                      .dwattr $C$DW$126, DW_AT_type(*$C$DW$T$70)
    1107                      .dwattr $C$DW$126, DW_AT_location[DW_OP_reg2]
    1108              
    1109              ;* AR7   assigned to _numCtrlTicksPerTrajTick
    1110              $C$DW$127       .dwtag  DW_TAG_variable
    1111                      .dwattr $C$DW$127, DW_AT_name("numCtrlTicksPerTrajTick")
    1112                      .dwattr $C$DW$127, DW_AT_TI_symbol_name("_numCtrlTicksPerTrajTick")
    1113                      .dwattr $C$DW$127, DW_AT_type(*$C$DW$T$70)
    1114                      .dwattr $C$DW$127, DW_AT_location[DW_OP_reg18]
    1115              
TMS320C2000 Assembler PC v18.12.4 Tue Feb 21 14:51:41 2023

Copyright (c) 1996-2018 Texas Instruments Incorporated
C:\Users\User\AppData\Local\Temp\{37DBDC18-8316-4B16-94B2-B516506DF0E2} PAGE   22

    1116                      .dwcfi  cfa_offset, -2
    1117                      .dwcfi  save_reg_to_mem, 26, 0
    1118 000000b3 B2BD          MOVL      *SP++,XAR1            ; [CPU_ALU] 
    1119                      .dwcfi  save_reg_to_mem, 7, 2
    1120                      .dwcfi  cfa_offset, -4
    1121 000000b4 AABD          MOVL      *SP++,XAR2            ; [CPU_ALU] 
    1122                      .dwcfi  save_reg_to_mem, 9, 4
    1123                      .dwcfi  cfa_offset, -6
    1124 000000b5 A2BD          MOVL      *SP++,XAR3            ; [CPU_ALU] 
    1125                      .dwcfi  save_reg_to_mem, 11, 6
    1126                      .dwcfi  cfa_offset, -8
    1127 000000b6 FE0A          ADDB      SP,#10                ; [CPU_ARAU] 
    1128                      .dwcfi  cfa_offset, -18
    1129 000000b7 1E44          MOVL      *-SP[4],ACC           ; [CPU_ALU] |581| 
    1130                      .dwpsn  file "D:/GIANT/GAINT_TI_instaspin/motorware/motorware_1_01_00_18/sw/modules/ctrl/src/32b/ctrl
    1131 000000b8 D0EF          MOVB      XAR0,#239             ; [CPU_ALU] |144| 
    1132                      .dwpsn  file "D:/GIANT/GAINT_TI_instaspin/motorware/motorware_1_01_00_18/sw/modules/ctrl/src/32b/ctrl
    1133 000000b9 8BA4          MOVL      XAR1,XAR4             ; [CPU_ALU] |581| 
    1134 000000ba A04A          MOVL      *-SP[10],XAR5         ; [CPU_ALU] |581| 
    1135 000000bb 925C          MOV       AL,*-SP[28]           ; [CPU_ALU] |581| 
    1136 000000bc 825A          MOVL      XAR3,*-SP[26]         ; [CPU_ALU] |581| 
    1137 000000bd 8654          MOVL      XAR2,*-SP[20]         ; [CPU_ALU] |581| 
    1138 000000be 9642          MOV       *-SP[2],AL            ; [CPU_ALU] |581| 
    1139 000000bf 925B          MOV       AL,*-SP[27]           ; [CPU_ALU] |581| 
    1140 000000c0 9641          MOV       *-SP[1],AL            ; [CPU_ALU] |581| 
    1141 000000c1 0658          MOVL      ACC,*-SP[24]          ; [CPU_ALU] |581| 
    1142 000000c2 1E48          MOVL      *-SP[8],ACC           ; [CPU_ALU] |581| 
    1143 000000c3 0656          MOVL      ACC,*-SP[22]          ; [CPU_ALU] |581| 
    1144 000000c4 1E46          MOVL      *-SP[6],ACC           ; [CPU_ALU] |581| 
    1145 000000c5 A8A9          MOVL      ACC,XAR4              ; [CPU_ALU] |581| 
    1146                      .dwpsn  file "D:/GIANT/GAINT_TI_instaspin/motorware/motorware_1_01_00_18/sw/modules/ctrl/src/32b/ctrl
    1147 000000c6 099A          ADDB      ACC,#154              ; [CPU_ALU] |1014| 
    1148 000000c7 8AA9          MOVL      XAR4,ACC              ; [CPU_ALU] |1014| 
    1149                      .dwpsn  file "D:/GIANT/GAINT_TI_instaspin/motorware/motorware_1_01_00_18/sw/modules/ctrl/src/32b/ctrl
    1150 000000c8 2791          MOV       PL,*+XAR1[AR0]        ; [CPU_ALU] |144| 
    1151                      .dwpsn  file "D:/GIANT/GAINT_TI_instaspin/motorware/motorware_1_01_00_18/sw/modules/ctrl/src/32b/ctrl
    1152 000000c9 88E1          MOVZ      AR6,*+XAR1[4]         ; [CPU_ALU] |772| 
    1153                      .dwpsn  file "D:/GIANT/GAINT_TI_instaspin/motorware/motorware_1_01_00_18/sw/modules/ctrl/src/32b/ctrl
    1154 000000ca D09F          MOVB      XAR0,#159             ; [CPU_ALU] |607| 
    1155                      .dwpsn  file "D:/GIANT/GAINT_TI_instaspin/motorware/motorware_1_01_00_18/sw/modules/ctrl/src/32b/ctrl
    1156 000000cb 0201          MOVB      ACC,#1                ; [CPU_ALU] |1014| 
    1157                      .dwpsn  file "D:/GIANT/GAINT_TI_instaspin/motorware/motorware_1_01_00_18/sw/modules/ctrl/src/32b/ctrl
    1158 000000cc 8091          MOVZ      AR7,*+XAR1[AR0]       ; [CPU_ALU] |607| 
    1159                      .dwpsn  file "D:/GIANT/GAINT_TI_instaspin/motorware/motorware_1_01_00_18/sw/modules/ctrl/src/32b/ctrl
    1160 000000cd 5601          ADDL      *+XAR4[0],ACC         ; [CPU_ALU] |1014| 
         000000ce 00C4 
    1161                      .dwpsn  file "D:/GIANT/GAINT_TI_instaspin/motorware/motorware_1_01_00_18/sw/modules/ctrl/src/32b/ctrl
    1162 000000cf B2A9          MOVL      ACC,XAR1              ; [CPU_ALU] |1032| 
    1163 000000d0 09EF          ADDB      ACC,#239              ; [CPU_ALU] |1032| 
    1164 000000d1 8AA9          MOVL      XAR4,ACC              ; [CPU_ALU] |1032| 
    1165 000000d2 92A6          MOV       AL,AR6                ; [CPU_ALU] |1032| 
    1166 000000d3 0AC4          INC       *+XAR4[0]             ; [CPU_ALU] |1032| 
    1167                      .dwpsn  file "D:/GIANT/GAINT_TI_instaspin/motorware/motorware_1_01_00_18/sw/modules/ctrl/src/32b/ctrl
    1168 000000d4 5203          CMPB      AL,#3                 ; [CPU_ALU] |594| 
    1169 000000d5 6009          B         $C$L13,NEQ            ; [CPU_ALU] |594| 
TMS320C2000 Assembler PC v18.12.4 Tue Feb 21 14:51:41 2023

Copyright (c) 1996-2018 Texas Instruments Incorporated
C:\Users\User\AppData\Local\Temp\{37DBDC18-8316-4B16-94B2-B516506DF0E2} PAGE   23

    1170                      ; branchcc occurs ; [] |594| 
    1171                      .dwpsn  file "D:/GIANT/GAINT_TI_instaspin/motorware/motorware_1_01_00_18/sw/modules/ctrl/src/32b/ctrl
    1172 000000d6 B2A9          MOVL      ACC,XAR1              ; [CPU_ALU] |960| 
    1173 000000d7 09EC          ADDB      ACC,#236              ; [CPU_ALU] |960| 
    1174 000000d8 8AA9          MOVL      XAR4,ACC              ; [CPU_ALU] |960| 
    1175                      .dwpsn  file "D:/GIANT/GAINT_TI_instaspin/motorware/motorware_1_01_00_18/sw/modules/ctrl/src/32b/ctrl
    1176 000000d9 B2A9          MOVL      ACC,XAR1              ; [CPU_ALU] |996| 
    1177                      .dwpsn  file "D:/GIANT/GAINT_TI_instaspin/motorware/motorware_1_01_00_18/sw/modules/ctrl/src/32b/ctrl
    1178 000000da 0AC4          INC       *+XAR4[0]             ; [CPU_ALU] |960| 
    1179                      .dwpsn  file "D:/GIANT/GAINT_TI_instaspin/motorware/motorware_1_01_00_18/sw/modules/ctrl/src/32b/ctrl
    1180 000000db 09EE          ADDB      ACC,#238              ; [CPU_ALU] |996| 
    1181 000000dc 8AA9          MOVL      XAR4,ACC              ; [CPU_ALU] |996| 
    1182 000000dd 0AC4          INC       *+XAR4[0]             ; [CPU_ALU] |996| 
    1183 000000de       $C$L13:    
    1184 000000de 92A7          MOV       AL,AR7                ; [CPU_ALU] 
    1185                      .dwpsn  file "D:/GIANT/GAINT_TI_instaspin/motorware/motorware_1_01_00_18/sw/modules/ctrl/src/32b/ctrl
    1186 000000df 54AB          CMP       AL,PL                 ; [CPU_ALU] |604| 
    1187 000000e0 6606          B         $C$L14,HI             ; [CPU_ALU] |604| 
    1188                      ; branchcc occurs ; [] |604| 
    1189                      .dwpsn  file "D:/GIANT/GAINT_TI_instaspin/motorware/motorware_1_01_00_18/sw/modules/ctrl/src/32b/ctrl
    1190 000000e1 D0EF          MOVB      XAR0,#239             ; [CPU_ALU] |1124| 
    1191                      .dwpsn  file "D:/GIANT/GAINT_TI_instaspin/motorware/motorware_1_01_00_18/sw/modules/ctrl/src/32b/ctrl
    1192 000000e2 8AA1          MOVL      XAR4,XAR1             ; [CPU_ALU] |610| 
    1193                      .dwpsn  file "D:/GIANT/GAINT_TI_instaspin/motorware/motorware_1_01_00_18/sw/modules/ctrl/src/32b/ctrl
    1194 000000e3 2B91          MOV       *+XAR1[AR0],#0        ; [CPU_ALU] |1124| 
    1195                      .dwpsn  file "D:/GIANT/GAINT_TI_instaspin/motorware/motorware_1_01_00_18/sw/modules/ctrl/src/32b/ctrl
    1196              $C$DW$128       .dwtag  DW_TAG_TI_branch
    1197                      .dwattr $C$DW$128, DW_AT_low_pc(0x00)
    1198                      .dwattr $C$DW$128, DW_AT_name("_CTRL_runTraj")
    1199                      .dwattr $C$DW$128, DW_AT_TI_call
    1200              
    1201 000000e4 7640!         LCR       #_CTRL_runTraj        ; [CPU_ALU] |610| 
         000000e5 0000 
    1202                      ; call occurs [#_CTRL_runTraj] ; [] |610| 
    1203 000000e6       $C$L14:    
    1204                      .dwpsn  file "D:/GIANT/GAINT_TI_instaspin/motorware/motorware_1_01_00_18/sw/modules/ctrl/src/32b/ctrl
    1205 000000e6 D0FE          MOVB      XAR0,#254             ; [CPU_ALU] |1155| 
    1206 000000e7 0644          MOVL      ACC,*-SP[4]           ; [CPU_ALU] |1155| 
    1207 000000e8 1E91          MOVL      *+XAR1[AR0],ACC       ; [CPU_ALU] |1155| 
    1208                      .dwpsn  file "D:/GIANT/GAINT_TI_instaspin/motorware/motorware_1_01_00_18/sw/modules/ctrl/src/32b/ctrl
    1209 000000e9 8D00          MOVL      XAR0,#256             ; [CPU_ALU] |1754| 
         000000ea 0100 
    1210 000000eb AA91          MOVL      *+XAR1[AR0],XAR2      ; [CPU_ALU] |1754| 
    1211                      .dwpsn  file "D:/GIANT/GAINT_TI_instaspin/motorware/motorware_1_01_00_18/sw/modules/ctrl/src/32b/ctrl
    1212 000000ec 8D00          MOVL      XAR0,#258             ; [CPU_ALU] |1702| 
         000000ed 0102 
    1213 000000ee 0646          MOVL      ACC,*-SP[6]           ; [CPU_ALU] |1702| 
    1214 000000ef 1E91          MOVL      *+XAR1[AR0],ACC       ; [CPU_ALU] |1702| 
    1215                      .dwpsn  file "D:/GIANT/GAINT_TI_instaspin/motorware/motorware_1_01_00_18/sw/modules/ctrl/src/32b/ctrl
    1216 000000f0 8D00          MOVL      XAR0,#260             ; [CPU_ALU] |1741| 
         000000f1 0104 
    1217 000000f2 0648          MOVL      ACC,*-SP[8]           ; [CPU_ALU] |1741| 
    1218 000000f3 1E91          MOVL      *+XAR1[AR0],ACC       ; [CPU_ALU] |1741| 
    1219                      .dwpsn  file "D:/GIANT/GAINT_TI_instaspin/motorware/motorware_1_01_00_18/sw/modules/ctrl/src/32b/ctrl
    1220 000000f4 8A4A          MOVL      XAR4,*-SP[10]         ; [CPU_ALU] |1375| 
TMS320C2000 Assembler PC v18.12.4 Tue Feb 21 14:51:41 2023

Copyright (c) 1996-2018 Texas Instruments Incorporated
C:\Users\User\AppData\Local\Temp\{37DBDC18-8316-4B16-94B2-B516506DF0E2} PAGE   24

    1221 000000f5 D0F6          MOVB      XAR0,#246             ; [CPU_ALU] |1375| 
    1222 000000f6 06C4          MOVL      ACC,*+XAR4[0]         ; [CPU_ALU] |1375| 
    1223 000000f7 1E91          MOVL      *+XAR1[AR0],ACC       ; [CPU_ALU] |1375| 
    1224                      .dwpsn  file "D:/GIANT/GAINT_TI_instaspin/motorware/motorware_1_01_00_18/sw/modules/ctrl/src/32b/ctrl
    1225 000000f8 D0F8          MOVB      XAR0,#248             ; [CPU_ALU] |1376| 
    1226 000000f9 06D4          MOVL      ACC,*+XAR4[2]         ; [CPU_ALU] |1376| 
    1227 000000fa 1E91          MOVL      *+XAR1[AR0],ACC       ; [CPU_ALU] |1376| 
    1228                      .dwpsn  file "D:/GIANT/GAINT_TI_instaspin/motorware/motorware_1_01_00_18/sw/modules/ctrl/src/32b/ctrl
    1229 000000fb D0FA          MOVB      XAR0,#250             ; [CPU_ALU] |1915| 
    1230 000000fc 06C3          MOVL      ACC,*+XAR3[0]         ; [CPU_ALU] |1915| 
    1231 000000fd 1E91          MOVL      *+XAR1[AR0],ACC       ; [CPU_ALU] |1915| 
    1232                      .dwpsn  file "D:/GIANT/GAINT_TI_instaspin/motorware/motorware_1_01_00_18/sw/modules/ctrl/src/32b/ctrl
    1233 000000fe D0FC          MOVB      XAR0,#252             ; [CPU_ALU] |1916| 
    1234 000000ff 06D3          MOVL      ACC,*+XAR3[2]         ; [CPU_ALU] |1916| 
    1235 00000100 1E91          MOVL      *+XAR1[AR0],ACC       ; [CPU_ALU] |1916| 
    1236                      .dwpsn  file "D:/GIANT/GAINT_TI_instaspin/motorware/motorware_1_01_00_18/sw/modules/ctrl/src/32b/ctrl
    1237 00000101 D0F4          MOVB      XAR0,#244             ; [CPU_ALU] |1289| 
    1238 00000102 9241          MOV       AL,*-SP[1]            ; [CPU_ALU] |1289| 
    1239 00000103 9691          MOV       *+XAR1[AR0],AL        ; [CPU_ALU] |1289| 
    1240                      .dwpsn  file "D:/GIANT/GAINT_TI_instaspin/motorware/motorware_1_01_00_18/sw/modules/ctrl/src/32b/ctrl
    1241 00000104 9242          MOV       AL,*-SP[2]            ; [CPU_ALU] |1232| 
    1242 00000105 8D00          MOVL      XAR0,#262             ; [CPU_ALU] |1232| 
         00000106 0106 
    1243 00000107 9691          MOV       *+XAR1[AR0],AL        ; [CPU_ALU] |1232| 
    1244 00000108 FE8A          SUBB      SP,#10                ; [CPU_ARAU] 
    1245                      .dwcfi  cfa_offset, -8
    1246 00000109 82BE          MOVL      XAR3,*--SP            ; [CPU_ALU] 
    1247                      .dwcfi  cfa_offset, -6
    1248                      .dwcfi  restore_reg, 11
    1249 0000010a 86BE          MOVL      XAR2,*--SP            ; [CPU_ALU] 
    1250                      .dwcfi  cfa_offset, -4
    1251                      .dwcfi  restore_reg, 9
    1252 0000010b 8BBE          MOVL      XAR1,*--SP            ; [CPU_ALU] 
    1253                      .dwcfi  cfa_offset, -2
    1254                      .dwcfi  restore_reg, 7
    1255              $C$DW$129       .dwtag  DW_TAG_TI_branch
    1256                      .dwattr $C$DW$129, DW_AT_low_pc(0x00)
    1257                      .dwattr $C$DW$129, DW_AT_TI_return
    1258              
    1259 0000010c 0006          LRETR     ; [CPU_ALU] 
    1260                      ; return occurs ; [] 
    1261                      .dwattr $C$DW$106, DW_AT_TI_end_file("D:/GIANT/GAINT_TI_instaspin/motorware/motorware_1_01_00_18/sw/m
    1262                      .dwattr $C$DW$106, DW_AT_TI_end_line(0x273)
    1263                      .dwattr $C$DW$106, DW_AT_TI_end_column(0x01)
    1264                      .dwendentry
    1265                      .dwendtag $C$DW$106
    1266              
    1267 0000010d               .sect   ".text"
    1268                      .clink
    1269                      .global _CTRL_setupClarke_V
    1270              
    1271              $C$DW$130       .dwtag  DW_TAG_subprogram
    1272                      .dwattr $C$DW$130, DW_AT_name("CTRL_setupClarke_V")
    1273                      .dwattr $C$DW$130, DW_AT_low_pc(_CTRL_setupClarke_V)
    1274                      .dwattr $C$DW$130, DW_AT_high_pc(0x00)
TMS320C2000 Assembler PC v18.12.4 Tue Feb 21 14:51:41 2023

Copyright (c) 1996-2018 Texas Instruments Incorporated
C:\Users\User\AppData\Local\Temp\{37DBDC18-8316-4B16-94B2-B516506DF0E2} PAGE   25

    1275                      .dwattr $C$DW$130, DW_AT_TI_symbol_name("_CTRL_setupClarke_V")
    1276                      .dwattr $C$DW$130, DW_AT_external
    1277                      .dwattr $C$DW$130, DW_AT_TI_begin_file("D:/GIANT/GAINT_TI_instaspin/motorware/motorware_1_01_00_18/sw
    1278                      .dwattr $C$DW$130, DW_AT_TI_begin_line(0x222)
    1279                      .dwattr $C$DW$130, DW_AT_TI_begin_column(0x06)
    1280                      .dwattr $C$DW$130, DW_AT_TI_max_frame_size(-2)
    1281                      .dwpsn  file "D:/GIANT/GAINT_TI_instaspin/motorware/motorware_1_01_00_18/sw/modules/ctrl/src/32b/ctrl
    1282              
    1283                      .dwfde $C$DW$CIE, _CTRL_setupClarke_V
    1284              $C$DW$131       .dwtag  DW_TAG_formal_parameter
    1285                      .dwattr $C$DW$131, DW_AT_name("handle")
    1286                      .dwattr $C$DW$131, DW_AT_TI_symbol_name("_handle")
    1287                      .dwattr $C$DW$131, DW_AT_type(*$C$DW$T$172)
    1288                      .dwattr $C$DW$131, DW_AT_location[DW_OP_reg12]
    1289              
    1290              $C$DW$132       .dwtag  DW_TAG_formal_parameter
    1291                      .dwattr $C$DW$132, DW_AT_name("numVoltageSensors")
    1292                      .dwattr $C$DW$132, DW_AT_TI_symbol_name("_numVoltageSensors")
    1293                      .dwattr $C$DW$132, DW_AT_type(*$C$DW$T$34)
    1294                      .dwattr $C$DW$132, DW_AT_location[DW_OP_reg0]
    1295              
    1296              
    1297              ;***************************************************************
    1298              ;* FNAME: _CTRL_setupClarke_V           FR SIZE:   0           *
    1299              ;*                                                             *
    1300              ;* FUNCTION ENVIRONMENT                                        *
    1301              ;*                                                             *
    1302              ;* FUNCTION PROPERTIES                                         *
    1303              ;*                            0 Parameter,  0 Auto,  0 SOE     *
    1304              ;***************************************************************
    1305              
    1306              _CTRL_setupClarke_V:
    1307              ;* AR4   assigned to _handle
    1308              $C$DW$133       .dwtag  DW_TAG_variable
    1309                      .dwattr $C$DW$133, DW_AT_name("handle")
    1310                      .dwattr $C$DW$133, DW_AT_TI_symbol_name("_handle")
    1311                      .dwattr $C$DW$133, DW_AT_type(*$C$DW$T$185)
    1312                      .dwattr $C$DW$133, DW_AT_location[DW_OP_reg12]
    1313              
    1314              ;* AL    assigned to _numVoltageSensors
    1315              $C$DW$134       .dwtag  DW_TAG_variable
    1316                      .dwattr $C$DW$134, DW_AT_name("numVoltageSensors")
    1317                      .dwattr $C$DW$134, DW_AT_TI_symbol_name("_numVoltageSensors")
    1318                      .dwattr $C$DW$134, DW_AT_type(*$C$DW$T$233)
    1319                      .dwattr $C$DW$134, DW_AT_location[DW_OP_reg0]
    1320              
    1321              ;* AR6   assigned to _alpha_sf
    1322              $C$DW$135       .dwtag  DW_TAG_variable
    1323                      .dwattr $C$DW$135, DW_AT_name("alpha_sf")
    1324                      .dwattr $C$DW$135, DW_AT_TI_symbol_name("_alpha_sf")
    1325                      .dwattr $C$DW$135, DW_AT_type(*$C$DW$T$32)
    1326                      .dwattr $C$DW$135, DW_AT_location[DW_OP_reg16]
    1327              
    1328              ;* PL    assigned to _beta_sf
    1329              $C$DW$136       .dwtag  DW_TAG_variable
TMS320C2000 Assembler PC v18.12.4 Tue Feb 21 14:51:41 2023

Copyright (c) 1996-2018 Texas Instruments Incorporated
C:\Users\User\AppData\Local\Temp\{37DBDC18-8316-4B16-94B2-B516506DF0E2} PAGE   26

    1330                      .dwattr $C$DW$136, DW_AT_name("beta_sf")
    1331                      .dwattr $C$DW$136, DW_AT_TI_symbol_name("_beta_sf")
    1332                      .dwattr $C$DW$136, DW_AT_type(*$C$DW$T$32)
    1333                      .dwattr $C$DW$136, DW_AT_location[DW_OP_reg2]
    1334              
    1335              ;* AR5   assigned to _handle
    1336              $C$DW$137       .dwtag  DW_TAG_variable
    1337                      .dwattr $C$DW$137, DW_AT_name("handle")
    1338                      .dwattr $C$DW$137, DW_AT_TI_symbol_name("_handle")
    1339                      .dwattr $C$DW$137, DW_AT_type(*$C$DW$T$45)
    1340                      .dwattr $C$DW$137, DW_AT_location[DW_OP_reg14]
    1341              
    1342                      .dwcfi  cfa_offset, -2
    1343                      .dwcfi  save_reg_to_mem, 26, 0
    1344                      .dwpsn  file "D:/GIANT/GAINT_TI_instaspin/motorware/motorware_1_01_00_18/sw/modules/ctrl/src/32b/ctrl
    1345 0000010d 5203          CMPB      AL,#3                 ; [CPU_ALU] |553| 
    1346 0000010e 6104          B         $C$L15,EQ             ; [CPU_ALU] |553| 
    1347                      ; branchcc occurs ; [] |553| 
    1348                      .dwpsn  file "D:/GIANT/GAINT_TI_instaspin/motorware/motorware_1_01_00_18/sw/modules/ctrl/src/32b/ctrl
    1349 0000010f BE00          MOVB      XAR6,#0               ; [CPU_ALU] |560| 
    1350                      .dwpsn  file "D:/GIANT/GAINT_TI_instaspin/motorware/motorware_1_01_00_18/sw/modules/ctrl/src/32b/ctrl
    1351 00000110 3100          MOV       P,#0                  ; [CPU_ALU] |561| 
    1352 00000111 6F0A          B         $C$L16,UNC            ; [CPU_ALU] |561| 
    1353                      ; branch occurs ; [] |561| 
    1354 00000112       $C$L15:    
    1355                      .dwpsn  file "D:/GIANT/GAINT_TI_instaspin/motorware/motorware_1_01_00_18/sw/modules/ctrl/src/32b/ctrl
    1356 00000112 28AB          MOV       PL,#21845             ; [CPU_ALU] |555| 
         00000113 5555 
    1357 00000114 28AA          MOV       PH,#85                ; [CPU_ALU] |555| 
         00000115 0055 
    1358 00000116 A9A6          MOVL      XAR6,P                ; [CPU_ALU] |555| 
    1359                      .dwpsn  file "D:/GIANT/GAINT_TI_instaspin/motorware/motorware_1_01_00_18/sw/modules/ctrl/src/32b/ctrl
    1360 00000117 28AB          MOV       PL,#52538             ; [CPU_ALU] |556| 
         00000118 CD3A 
    1361 00000119 28AA          MOV       PH,#147               ; [CPU_ALU] |556| 
         0000011a 0093 
    1362 0000011b       $C$L16:    
    1363                      .dwpsn  file "D:/GIANT/GAINT_TI_instaspin/motorware/motorware_1_01_00_18/sw/modules/clarke/src/32b/cl
    1364 0000011b D010          MOVB      XAR0,#16              ; [CPU_ALU] |181| 
    1365 0000011c 8394          MOVL      XAR5,*+XAR4[AR0]      ; [CPU_ALU] |181| 
    1366                      .dwpsn  file "D:/GIANT/GAINT_TI_instaspin/motorware/motorware_1_01_00_18/sw/modules/clarke/src/32b/cl
    1367 0000011d D010          MOVB      XAR0,#16              ; [CPU_ALU] |170| 
    1368                      .dwpsn  file "D:/GIANT/GAINT_TI_instaspin/motorware/motorware_1_01_00_18/sw/modules/clarke/src/32b/cl
    1369 0000011e C2C5          MOVL      *+XAR5[0],XAR6        ; [CPU_ALU] |185| 
    1370                      .dwpsn  file "D:/GIANT/GAINT_TI_instaspin/motorware/motorware_1_01_00_18/sw/modules/clarke/src/32b/cl
    1371 0000011f A9D5          MOVL      *+XAR5[2],P           ; [CPU_ALU] |186| 
    1372                      .dwpsn  file "D:/GIANT/GAINT_TI_instaspin/motorware/motorware_1_01_00_18/sw/modules/clarke/src/32b/cl
    1373 00000120 8A94          MOVL      XAR4,*+XAR4[AR0]      ; [CPU_ALU] |170| 
    1374 00000121 96E4          MOV       *+XAR4[4],AL          ; [CPU_ALU] |170| 
    1375              $C$DW$138       .dwtag  DW_TAG_TI_branch
    1376                      .dwattr $C$DW$138, DW_AT_low_pc(0x00)
    1377                      .dwattr $C$DW$138, DW_AT_TI_return
    1378              
    1379 00000122 0006          LRETR     ; [CPU_ALU] 
    1380                      ; return occurs ; [] 
TMS320C2000 Assembler PC v18.12.4 Tue Feb 21 14:51:41 2023

Copyright (c) 1996-2018 Texas Instruments Incorporated
C:\Users\User\AppData\Local\Temp\{37DBDC18-8316-4B16-94B2-B516506DF0E2} PAGE   27

    1381                      .dwattr $C$DW$130, DW_AT_TI_end_file("D:/GIANT/GAINT_TI_instaspin/motorware/motorware_1_01_00_18/sw/m
    1382                      .dwattr $C$DW$130, DW_AT_TI_end_line(0x239)
    1383                      .dwattr $C$DW$130, DW_AT_TI_end_column(0x01)
    1384                      .dwendentry
    1385                      .dwendtag $C$DW$130
    1386              
    1387 00000123               .sect   ".text"
    1388                      .clink
    1389                      .global _CTRL_setupClarke_I
    1390              
    1391              $C$DW$139       .dwtag  DW_TAG_subprogram
    1392                      .dwattr $C$DW$139, DW_AT_name("CTRL_setupClarke_I")
    1393                      .dwattr $C$DW$139, DW_AT_low_pc(_CTRL_setupClarke_I)
    1394                      .dwattr $C$DW$139, DW_AT_high_pc(0x00)
    1395                      .dwattr $C$DW$139, DW_AT_TI_symbol_name("_CTRL_setupClarke_I")
    1396                      .dwattr $C$DW$139, DW_AT_external
    1397                      .dwattr $C$DW$139, DW_AT_TI_begin_file("D:/GIANT/GAINT_TI_instaspin/motorware/motorware_1_01_00_18/sw
    1398                      .dwattr $C$DW$139, DW_AT_TI_begin_line(0x203)
    1399                      .dwattr $C$DW$139, DW_AT_TI_begin_column(0x06)
    1400                      .dwattr $C$DW$139, DW_AT_TI_max_frame_size(-2)
    1401                      .dwpsn  file "D:/GIANT/GAINT_TI_instaspin/motorware/motorware_1_01_00_18/sw/modules/ctrl/src/32b/ctrl
    1402              
    1403                      .dwfde $C$DW$CIE, _CTRL_setupClarke_I
    1404              $C$DW$140       .dwtag  DW_TAG_formal_parameter
    1405                      .dwattr $C$DW$140, DW_AT_name("handle")
    1406                      .dwattr $C$DW$140, DW_AT_TI_symbol_name("_handle")
    1407                      .dwattr $C$DW$140, DW_AT_type(*$C$DW$T$172)
    1408                      .dwattr $C$DW$140, DW_AT_location[DW_OP_reg12]
    1409              
    1410              $C$DW$141       .dwtag  DW_TAG_formal_parameter
    1411                      .dwattr $C$DW$141, DW_AT_name("numCurrentSensors")
    1412                      .dwattr $C$DW$141, DW_AT_TI_symbol_name("_numCurrentSensors")
    1413                      .dwattr $C$DW$141, DW_AT_type(*$C$DW$T$34)
    1414                      .dwattr $C$DW$141, DW_AT_location[DW_OP_reg0]
    1415              
    1416              
    1417              ;***************************************************************
    1418              ;* FNAME: _CTRL_setupClarke_I           FR SIZE:   0           *
    1419              ;*                                                             *
    1420              ;* FUNCTION ENVIRONMENT                                        *
    1421              ;*                                                             *
    1422              ;* FUNCTION PROPERTIES                                         *
    1423              ;*                            0 Parameter,  0 Auto,  0 SOE     *
    1424              ;***************************************************************
    1425              
    1426              _CTRL_setupClarke_I:
    1427              ;* AR4   assigned to _handle
    1428              $C$DW$142       .dwtag  DW_TAG_variable
    1429                      .dwattr $C$DW$142, DW_AT_name("handle")
    1430                      .dwattr $C$DW$142, DW_AT_TI_symbol_name("_handle")
    1431                      .dwattr $C$DW$142, DW_AT_type(*$C$DW$T$185)
    1432                      .dwattr $C$DW$142, DW_AT_location[DW_OP_reg12]
    1433              
    1434              ;* AL    assigned to _numCurrentSensors
    1435              $C$DW$143       .dwtag  DW_TAG_variable
TMS320C2000 Assembler PC v18.12.4 Tue Feb 21 14:51:41 2023

Copyright (c) 1996-2018 Texas Instruments Incorporated
C:\Users\User\AppData\Local\Temp\{37DBDC18-8316-4B16-94B2-B516506DF0E2} PAGE   28

    1436                      .dwattr $C$DW$143, DW_AT_name("numCurrentSensors")
    1437                      .dwattr $C$DW$143, DW_AT_TI_symbol_name("_numCurrentSensors")
    1438                      .dwattr $C$DW$143, DW_AT_type(*$C$DW$T$233)
    1439                      .dwattr $C$DW$143, DW_AT_location[DW_OP_reg0]
    1440              
    1441              ;* AR6   assigned to _alpha_sf
    1442              $C$DW$144       .dwtag  DW_TAG_variable
    1443                      .dwattr $C$DW$144, DW_AT_name("alpha_sf")
    1444                      .dwattr $C$DW$144, DW_AT_TI_symbol_name("_alpha_sf")
    1445                      .dwattr $C$DW$144, DW_AT_type(*$C$DW$T$32)
    1446                      .dwattr $C$DW$144, DW_AT_location[DW_OP_reg16]
    1447              
    1448              ;* PL    assigned to _beta_sf
    1449              $C$DW$145       .dwtag  DW_TAG_variable
    1450                      .dwattr $C$DW$145, DW_AT_name("beta_sf")
    1451                      .dwattr $C$DW$145, DW_AT_TI_symbol_name("_beta_sf")
    1452                      .dwattr $C$DW$145, DW_AT_type(*$C$DW$T$32)
    1453                      .dwattr $C$DW$145, DW_AT_location[DW_OP_reg2]
    1454              
    1455              ;* AR5   assigned to _handle
    1456              $C$DW$146       .dwtag  DW_TAG_variable
    1457                      .dwattr $C$DW$146, DW_AT_name("handle")
    1458                      .dwattr $C$DW$146, DW_AT_TI_symbol_name("_handle")
    1459                      .dwattr $C$DW$146, DW_AT_type(*$C$DW$T$45)
    1460                      .dwattr $C$DW$146, DW_AT_location[DW_OP_reg14]
    1461              
    1462                      .dwcfi  cfa_offset, -2
    1463                      .dwcfi  save_reg_to_mem, 26, 0
    1464                      .dwpsn  file "D:/GIANT/GAINT_TI_instaspin/motorware/motorware_1_01_00_18/sw/modules/ctrl/src/32b/ctrl
    1465 00000123 5203          CMPB      AL,#3                 ; [CPU_ALU] |522| 
    1466 00000124 610A          B         $C$L18,EQ             ; [CPU_ALU] |522| 
    1467                      ; branchcc occurs ; [] |522| 
    1468                      .dwpsn  file "D:/GIANT/GAINT_TI_instaspin/motorware/motorware_1_01_00_18/sw/modules/ctrl/src/32b/ctrl
    1469 00000125 5202          CMPB      AL,#2                 ; [CPU_ALU] |527| 
    1470 00000126 6104          B         $C$L17,EQ             ; [CPU_ALU] |527| 
    1471                      ; branchcc occurs ; [] |527| 
    1472                      .dwpsn  file "D:/GIANT/GAINT_TI_instaspin/motorware/motorware_1_01_00_18/sw/modules/ctrl/src/32b/ctrl
    1473 00000127 BE00          MOVB      XAR6,#0               ; [CPU_ALU] |534| 
    1474                      .dwpsn  file "D:/GIANT/GAINT_TI_instaspin/motorware/motorware_1_01_00_18/sw/modules/ctrl/src/32b/ctrl
    1475 00000128 3100          MOV       P,#0                  ; [CPU_ALU] |535| 
    1476 00000129 6F0E          B         $C$L20,UNC            ; [CPU_ALU] |535| 
    1477                      ; branch occurs ; [] |535| 
    1478 0000012a       $C$L17:    
    1479                      .dwpsn  file "D:/GIANT/GAINT_TI_instaspin/motorware/motorware_1_01_00_18/sw/modules/ctrl/src/32b/ctrl
    1480 0000012a 2BAB          MOV       PL,#0                 ; [CPU_ALU] |529| 
    1481 0000012b 28AA          MOV       PH,#256               ; [CPU_ALU] |529| 
         0000012c 0100 
    1482                      .dwpsn  file "D:/GIANT/GAINT_TI_instaspin/motorware/motorware_1_01_00_18/sw/modules/ctrl/src/32b/ctrl
    1483 0000012d 6F05          B         $C$L19,UNC            ; [CPU_ALU] |531| 
    1484                      ; branch occurs ; [] |531| 
    1485 0000012e       $C$L18:    
    1486                      .dwpsn  file "D:/GIANT/GAINT_TI_instaspin/motorware/motorware_1_01_00_18/sw/modules/ctrl/src/32b/ctrl
    1487 0000012e 28AB          MOV       PL,#21845             ; [CPU_ALU] |524| 
         0000012f 5555 
    1488 00000130 28AA          MOV       PH,#85                ; [CPU_ALU] |524| 
TMS320C2000 Assembler PC v18.12.4 Tue Feb 21 14:51:41 2023

Copyright (c) 1996-2018 Texas Instruments Incorporated
C:\Users\User\AppData\Local\Temp\{37DBDC18-8316-4B16-94B2-B516506DF0E2} PAGE   29

         00000131 0055 
    1489 00000132       $C$L19:    
    1490 00000132 A9A6          MOVL      XAR6,P                ; [CPU_ALU] |524| 
    1491                      .dwpsn  file "D:/GIANT/GAINT_TI_instaspin/motorware/motorware_1_01_00_18/sw/modules/ctrl/src/32b/ctrl
    1492 00000133 28AB          MOV       PL,#52538             ; [CPU_ALU] |525| 
         00000134 CD3A 
    1493 00000135 28AA          MOV       PH,#147               ; [CPU_ALU] |525| 
         00000136 0093 
    1494 00000137       $C$L20:    
    1495                      .dwpsn  file "D:/GIANT/GAINT_TI_instaspin/motorware/motorware_1_01_00_18/sw/modules/clarke/src/32b/cl
    1496 00000137 D008          MOVB      XAR0,#8               ; [CPU_ALU] |181| 
    1497 00000138 8394          MOVL      XAR5,*+XAR4[AR0]      ; [CPU_ALU] |181| 
    1498                      .dwpsn  file "D:/GIANT/GAINT_TI_instaspin/motorware/motorware_1_01_00_18/sw/modules/clarke/src/32b/cl
    1499 00000139 D008          MOVB      XAR0,#8               ; [CPU_ALU] |170| 
    1500                      .dwpsn  file "D:/GIANT/GAINT_TI_instaspin/motorware/motorware_1_01_00_18/sw/modules/clarke/src/32b/cl
    1501 0000013a C2C5          MOVL      *+XAR5[0],XAR6        ; [CPU_ALU] |185| 
    1502                      .dwpsn  file "D:/GIANT/GAINT_TI_instaspin/motorware/motorware_1_01_00_18/sw/modules/clarke/src/32b/cl
    1503 0000013b A9D5          MOVL      *+XAR5[2],P           ; [CPU_ALU] |186| 
    1504                      .dwpsn  file "D:/GIANT/GAINT_TI_instaspin/motorware/motorware_1_01_00_18/sw/modules/clarke/src/32b/cl
    1505 0000013c 8A94          MOVL      XAR4,*+XAR4[AR0]      ; [CPU_ALU] |170| 
    1506 0000013d 96E4          MOV       *+XAR4[4],AL          ; [CPU_ALU] |170| 
    1507              $C$DW$147       .dwtag  DW_TAG_TI_branch
    1508                      .dwattr $C$DW$147, DW_AT_low_pc(0x00)
    1509                      .dwattr $C$DW$147, DW_AT_TI_return
    1510              
    1511 0000013e 0006          LRETR     ; [CPU_ALU] 
    1512                      ; return occurs ; [] 
    1513                      .dwattr $C$DW$139, DW_AT_TI_end_file("D:/GIANT/GAINT_TI_instaspin/motorware/motorware_1_01_00_18/sw/m
    1514                      .dwattr $C$DW$139, DW_AT_TI_end_line(0x21f)
    1515                      .dwattr $C$DW$139, DW_AT_TI_end_column(0x01)
    1516                      .dwendentry
    1517                      .dwendtag $C$DW$139
    1518              
    1519 0000013f               .sect   ".text"
    1520                      .clink
    1521                      .global _CTRL_setup
    1522              
    1523              $C$DW$148       .dwtag  DW_TAG_subprogram
    1524                      .dwattr $C$DW$148, DW_AT_name("CTRL_setup")
    1525                      .dwattr $C$DW$148, DW_AT_low_pc(_CTRL_setup)
    1526                      .dwattr $C$DW$148, DW_AT_high_pc(0x00)
    1527                      .dwattr $C$DW$148, DW_AT_TI_symbol_name("_CTRL_setup")
    1528                      .dwattr $C$DW$148, DW_AT_external
    1529                      .dwattr $C$DW$148, DW_AT_TI_begin_file("D:/GIANT/GAINT_TI_instaspin/motorware/motorware_1_01_00_18/sw
    1530                      .dwattr $C$DW$148, DW_AT_TI_begin_line(0x1eb)
    1531                      .dwattr $C$DW$148, DW_AT_TI_begin_column(0x06)
    1532                      .dwattr $C$DW$148, DW_AT_TI_max_frame_size(-2)
    1533                      .dwpsn  file "D:/GIANT/GAINT_TI_instaspin/motorware/motorware_1_01_00_18/sw/modules/ctrl/src/32b/ctrl
    1534              
    1535                      .dwfde $C$DW$CIE, _CTRL_setup
    1536              $C$DW$149       .dwtag  DW_TAG_formal_parameter
    1537                      .dwattr $C$DW$149, DW_AT_name("handle")
    1538                      .dwattr $C$DW$149, DW_AT_TI_symbol_name("_handle")
    1539                      .dwattr $C$DW$149, DW_AT_type(*$C$DW$T$172)
    1540                      .dwattr $C$DW$149, DW_AT_location[DW_OP_reg12]
TMS320C2000 Assembler PC v18.12.4 Tue Feb 21 14:51:41 2023

Copyright (c) 1996-2018 Texas Instruments Incorporated
C:\Users\User\AppData\Local\Temp\{37DBDC18-8316-4B16-94B2-B516506DF0E2} PAGE   30

    1541              
    1542              
    1543              ;***************************************************************
    1544              ;* FNAME: _CTRL_setup                   FR SIZE:   0           *
    1545              ;*                                                             *
    1546              ;* FUNCTION ENVIRONMENT                                        *
    1547              ;*                                                             *
    1548              ;* FUNCTION PROPERTIES                                         *
    1549              ;*                            0 Parameter,  0 Auto,  0 SOE     *
    1550              ;***************************************************************
    1551              
    1552              _CTRL_setup:
    1553              ;* AR4   assigned to _handle
    1554              $C$DW$150       .dwtag  DW_TAG_variable
    1555                      .dwattr $C$DW$150, DW_AT_name("handle")
    1556                      .dwattr $C$DW$150, DW_AT_TI_symbol_name("_handle")
    1557                      .dwattr $C$DW$150, DW_AT_type(*$C$DW$T$185)
    1558                      .dwattr $C$DW$150, DW_AT_location[DW_OP_reg12]
    1559              
    1560                      .dwcfi  cfa_offset, -2
    1561                      .dwcfi  save_reg_to_mem, 26, 0
    1562                      .dwpsn  file "D:/GIANT/GAINT_TI_instaspin/motorware/motorware_1_01_00_18/sw/modules/ctrl/src/32b/ctrl
    1563 0000013f D09F          MOVB      XAR0,#159             ; [CPU_ALU] |500| 
    1564 00000140 9294          MOV       AL,*+XAR4[AR0]        ; [CPU_ALU] |500| 
    1565 00000141 D0EF          MOVB      XAR0,#239             ; [CPU_ALU] |500| 
    1566 00000142 5494          CMP       AL,*+XAR4[AR0]        ; [CPU_ALU] |500| 
    1567 00000143 6605          B         $C$L21,HI             ; [CPU_ALU] |500| 
    1568                      ; branchcc occurs ; [] |500| 
    1569                      .dwpsn  file "D:/GIANT/GAINT_TI_instaspin/motorware/motorware_1_01_00_18/sw/modules/ctrl/src/32b/ctrl
    1570 00000144 D0EF          MOVB      XAR0,#239             ; [CPU_ALU] |1124| 
    1571 00000145 2B94          MOV       *+XAR4[AR0],#0        ; [CPU_ALU] |1124| 
    1572                      .dwpsn  file "D:/GIANT/GAINT_TI_instaspin/motorware/motorware_1_01_00_18/sw/modules/ctrl/src/32b/ctrl
    1573              $C$DW$151       .dwtag  DW_TAG_TI_branch
    1574                      .dwattr $C$DW$151, DW_AT_low_pc(0x00)
    1575                      .dwattr $C$DW$151, DW_AT_name("_CTRL_runTraj")
    1576                      .dwattr $C$DW$151, DW_AT_TI_call
    1577              
    1578 00000146 7640!         LCR       #_CTRL_runTraj        ; [CPU_ALU] |508| 
         00000147 0000 
    1579                      ; call occurs [#_CTRL_runTraj] ; [] |508| 
    1580              $C$L21:    
    1581              $C$DW$152       .dwtag  DW_TAG_TI_branch
    1582                      .dwattr $C$DW$152, DW_AT_low_pc(0x00)
    1583                      .dwattr $C$DW$152, DW_AT_TI_return
    1584              
    1585 00000148 0006          LRETR     ; [CPU_ALU] 
    1586                      ; return occurs ; [] 
    1587                      .dwattr $C$DW$148, DW_AT_TI_end_file("D:/GIANT/GAINT_TI_instaspin/motorware/motorware_1_01_00_18/sw/m
    1588                      .dwattr $C$DW$148, DW_AT_TI_end_line(0x200)
    1589                      .dwattr $C$DW$148, DW_AT_TI_end_column(0x01)
    1590                      .dwendentry
    1591                      .dwendtag $C$DW$148
    1592              
    1593 00000149               .sect   ".text"
    1594                      .clink
TMS320C2000 Assembler PC v18.12.4 Tue Feb 21 14:51:41 2023

Copyright (c) 1996-2018 Texas Instruments Incorporated
C:\Users\User\AppData\Local\Temp\{37DBDC18-8316-4B16-94B2-B516506DF0E2} PAGE   31

    1595                      .global _CTRL_setWaitTimes
    1596              
    1597              $C$DW$153       .dwtag  DW_TAG_subprogram
    1598                      .dwattr $C$DW$153, DW_AT_name("CTRL_setWaitTimes")
    1599                      .dwattr $C$DW$153, DW_AT_low_pc(_CTRL_setWaitTimes)
    1600                      .dwattr $C$DW$153, DW_AT_high_pc(0x00)
    1601                      .dwattr $C$DW$153, DW_AT_TI_symbol_name("_CTRL_setWaitTimes")
    1602                      .dwattr $C$DW$153, DW_AT_external
    1603                      .dwattr $C$DW$153, DW_AT_TI_begin_file("D:/GIANT/GAINT_TI_instaspin/motorware/motorware_1_01_00_18/sw
    1604                      .dwattr $C$DW$153, DW_AT_TI_begin_line(0x276)
    1605                      .dwattr $C$DW$153, DW_AT_TI_begin_column(0x06)
    1606                      .dwattr $C$DW$153, DW_AT_TI_max_frame_size(-2)
    1607                      .dwpsn  file "D:/GIANT/GAINT_TI_instaspin/motorware/motorware_1_01_00_18/sw/modules/ctrl/src/32b/ctrl
    1608              
    1609                      .dwfde $C$DW$CIE, _CTRL_setWaitTimes
    1610              $C$DW$154       .dwtag  DW_TAG_formal_parameter
    1611                      .dwattr $C$DW$154, DW_AT_name("handle")
    1612                      .dwattr $C$DW$154, DW_AT_TI_symbol_name("_handle")
    1613                      .dwattr $C$DW$154, DW_AT_type(*$C$DW$T$172)
    1614                      .dwattr $C$DW$154, DW_AT_location[DW_OP_reg12]
    1615              
    1616              $C$DW$155       .dwtag  DW_TAG_formal_parameter
    1617                      .dwattr $C$DW$155, DW_AT_name("pWaitTimes")
    1618                      .dwattr $C$DW$155, DW_AT_TI_symbol_name("_pWaitTimes")
    1619                      .dwattr $C$DW$155, DW_AT_type(*$C$DW$T$291)
    1620                      .dwattr $C$DW$155, DW_AT_location[DW_OP_reg14]
    1621              
    1622              
    1623              ;***************************************************************
    1624              ;* FNAME: _CTRL_setWaitTimes            FR SIZE:   0           *
    1625              ;*                                                             *
    1626              ;* FUNCTION ENVIRONMENT                                        *
    1627              ;*                                                             *
    1628              ;* FUNCTION PROPERTIES                                         *
    1629              ;*                            0 Parameter,  0 Auto,  0 SOE     *
    1630              ;***************************************************************
    1631              
    1632              _CTRL_setWaitTimes:
    1633              ;* AR5   assigned to $O$U7
    1634              ;* AR4   assigned to $O$U11
    1635              ;* AR4   assigned to _handle
    1636              $C$DW$156       .dwtag  DW_TAG_variable
    1637                      .dwattr $C$DW$156, DW_AT_name("handle")
    1638                      .dwattr $C$DW$156, DW_AT_TI_symbol_name("_handle")
    1639                      .dwattr $C$DW$156, DW_AT_type(*$C$DW$T$185)
    1640                      .dwattr $C$DW$156, DW_AT_location[DW_OP_reg12]
    1641              
    1642                      .dwcfi  cfa_offset, -2
    1643                      .dwcfi  save_reg_to_mem, 26, 0
    1644 00000149 A8A9          MOVL      ACC,XAR4              ; [CPU_ALU] 
    1645 0000014a 0992          ADDB      ACC,#146              ; [CPU_ALU] 
    1646 0000014b 8AA9          MOVL      XAR4,ACC              ; [CPU_ALU] 
    1647 0000014c BE03          MOVB      XAR6,#3               ; [CPU_ALU] 
    1648 0000014d       $C$L22:    
    1649                      .dwpsn  file "D:/GIANT/GAINT_TI_instaspin/motorware/motorware_1_01_00_18/sw/modules/ctrl/src/32b/ctrl
TMS320C2000 Assembler PC v18.12.4 Tue Feb 21 14:51:41 2023

Copyright (c) 1996-2018 Texas Instruments Incorporated
C:\Users\User\AppData\Local\Temp\{37DBDC18-8316-4B16-94B2-B516506DF0E2} PAGE   32

    1650 0000014d 0685          MOVL      ACC,*XAR5++           ; [CPU_ALU] |637| 
    1651 0000014e 1E84          MOVL      *XAR4++,ACC           ; [CPU_ALU] |637| 
    1652                      .dwpsn  file "D:/GIANT/GAINT_TI_instaspin/motorware/motorware_1_01_00_18/sw/modules/ctrl/src/32b/ctrl
    1653 0000014f 000E          BANZ      $C$L22,AR6--          ; [CPU_ALU] |635| 
         00000150 FFFE 
    1654                      ; branchcc occurs ; [] |635| 
    1655              $C$DW$157       .dwtag  DW_TAG_TI_branch
    1656                      .dwattr $C$DW$157, DW_AT_low_pc(0x00)
    1657                      .dwattr $C$DW$157, DW_AT_TI_return
    1658              
    1659 00000151 0006          LRETR     ; [CPU_ALU] 
    1660                      ; return occurs ; [] 
    1661                      .dwattr $C$DW$153, DW_AT_TI_end_file("D:/GIANT/GAINT_TI_instaspin/motorware/motorware_1_01_00_18/sw/m
    1662                      .dwattr $C$DW$153, DW_AT_TI_end_line(0x281)
    1663                      .dwattr $C$DW$153, DW_AT_TI_end_column(0x01)
    1664                      .dwendentry
    1665                      .dwendtag $C$DW$153
    1666              
    1667 00000152               .sect   ".text"
    1668                      .clink
    1669                      .global _CTRL_setSpd_ref_pu
    1670              
    1671              $C$DW$158       .dwtag  DW_TAG_subprogram
    1672                      .dwattr $C$DW$158, DW_AT_name("CTRL_setSpd_ref_pu")
    1673                      .dwattr $C$DW$158, DW_AT_low_pc(_CTRL_setSpd_ref_pu)
    1674                      .dwattr $C$DW$158, DW_AT_high_pc(0x00)
    1675                      .dwattr $C$DW$158, DW_AT_TI_symbol_name("_CTRL_setSpd_ref_pu")
    1676                      .dwattr $C$DW$158, DW_AT_external
    1677                      .dwattr $C$DW$158, DW_AT_TI_begin_file("D:/GIANT/GAINT_TI_instaspin/motorware/motorware_1_01_00_18/sw
    1678                      .dwattr $C$DW$158, DW_AT_TI_begin_line(0x1d3)
    1679                      .dwattr $C$DW$158, DW_AT_TI_begin_column(0x06)
    1680                      .dwattr $C$DW$158, DW_AT_TI_max_frame_size(-2)
    1681                      .dwpsn  file "D:/GIANT/GAINT_TI_instaspin/motorware/motorware_1_01_00_18/sw/modules/ctrl/src/32b/ctrl
    1682              
    1683                      .dwfde $C$DW$CIE, _CTRL_setSpd_ref_pu
    1684              $C$DW$159       .dwtag  DW_TAG_formal_parameter
    1685                      .dwattr $C$DW$159, DW_AT_name("handle")
    1686                      .dwattr $C$DW$159, DW_AT_TI_symbol_name("_handle")
    1687                      .dwattr $C$DW$159, DW_AT_type(*$C$DW$T$172)
    1688                      .dwattr $C$DW$159, DW_AT_location[DW_OP_reg12]
    1689              
    1690              $C$DW$160       .dwtag  DW_TAG_formal_parameter
    1691                      .dwattr $C$DW$160, DW_AT_name("spd_ref_pu")
    1692                      .dwattr $C$DW$160, DW_AT_TI_symbol_name("_spd_ref_pu")
    1693                      .dwattr $C$DW$160, DW_AT_type(*$C$DW$T$32)
    1694                      .dwattr $C$DW$160, DW_AT_location[DW_OP_reg0]
    1695              
    1696              
    1697              ;***************************************************************
    1698              ;* FNAME: _CTRL_setSpd_ref_pu           FR SIZE:   0           *
    1699              ;*                                                             *
    1700              ;* FUNCTION ENVIRONMENT                                        *
    1701              ;*                                                             *
    1702              ;* FUNCTION PROPERTIES                                         *
    1703              ;*                            0 Parameter,  0 Auto,  0 SOE     *
TMS320C2000 Assembler PC v18.12.4 Tue Feb 21 14:51:41 2023

Copyright (c) 1996-2018 Texas Instruments Incorporated
C:\Users\User\AppData\Local\Temp\{37DBDC18-8316-4B16-94B2-B516506DF0E2} PAGE   33

    1704              ;***************************************************************
    1705              
    1706              _CTRL_setSpd_ref_pu:
    1707              ;* AR4   assigned to _handle
    1708              $C$DW$161       .dwtag  DW_TAG_variable
    1709                      .dwattr $C$DW$161, DW_AT_name("handle")
    1710                      .dwattr $C$DW$161, DW_AT_TI_symbol_name("_handle")
    1711                      .dwattr $C$DW$161, DW_AT_type(*$C$DW$T$185)
    1712                      .dwattr $C$DW$161, DW_AT_location[DW_OP_reg12]
    1713              
    1714              ;* AL    assigned to _spd_ref_pu
    1715              $C$DW$162       .dwtag  DW_TAG_variable
    1716                      .dwattr $C$DW$162, DW_AT_name("spd_ref_pu")
    1717                      .dwattr $C$DW$162, DW_AT_TI_symbol_name("_spd_ref_pu")
    1718                      .dwattr $C$DW$162, DW_AT_type(*$C$DW$T$235)
    1719                      .dwattr $C$DW$162, DW_AT_location[DW_OP_reg0]
    1720              
    1721                      .dwcfi  cfa_offset, -2
    1722                      .dwcfi  save_reg_to_mem, 26, 0
    1723                      .dwpsn  file "D:/GIANT/GAINT_TI_instaspin/motorware/motorware_1_01_00_18/sw/modules/ctrl/src/32b/ctrl
    1724 00000152 D0E8          MOVB      XAR0,#232             ; [CPU_ALU] |471| 
    1725 00000153 1E94          MOVL      *+XAR4[AR0],ACC       ; [CPU_ALU] |471| 
    1726              $C$DW$163       .dwtag  DW_TAG_TI_branch
    1727                      .dwattr $C$DW$163, DW_AT_low_pc(0x00)
    1728                      .dwattr $C$DW$163, DW_AT_TI_return
    1729              
    1730 00000154 0006          LRETR     ; [CPU_ALU] 
    1731                      ; return occurs ; [] 
    1732                      .dwattr $C$DW$158, DW_AT_TI_end_file("D:/GIANT/GAINT_TI_instaspin/motorware/motorware_1_01_00_18/sw/m
    1733                      .dwattr $C$DW$158, DW_AT_TI_end_line(0x1da)
    1734                      .dwattr $C$DW$158, DW_AT_TI_end_column(0x01)
    1735                      .dwendentry
    1736                      .dwendtag $C$DW$158
    1737              
    1738 00000155               .sect   ".text"
    1739                      .clink
    1740                      .global _CTRL_setSpd_ref_krpm
    1741              
    1742              $C$DW$164       .dwtag  DW_TAG_subprogram
    1743                      .dwattr $C$DW$164, DW_AT_name("CTRL_setSpd_ref_krpm")
    1744                      .dwattr $C$DW$164, DW_AT_low_pc(_CTRL_setSpd_ref_krpm)
    1745                      .dwattr $C$DW$164, DW_AT_high_pc(0x00)
    1746                      .dwattr $C$DW$164, DW_AT_TI_symbol_name("_CTRL_setSpd_ref_krpm")
    1747                      .dwattr $C$DW$164, DW_AT_external
    1748                      .dwattr $C$DW$164, DW_AT_TI_begin_file("D:/GIANT/GAINT_TI_instaspin/motorware/motorware_1_01_00_18/sw
    1749                      .dwattr $C$DW$164, DW_AT_TI_begin_line(0x1dd)
    1750                      .dwattr $C$DW$164, DW_AT_TI_begin_column(0x06)
    1751                      .dwattr $C$DW$164, DW_AT_TI_max_frame_size(-6)
    1752                      .dwpsn  file "D:/GIANT/GAINT_TI_instaspin/motorware/motorware_1_01_00_18/sw/modules/ctrl/src/32b/ctrl
    1753              
    1754                      .dwfde $C$DW$CIE, _CTRL_setSpd_ref_krpm
    1755              $C$DW$165       .dwtag  DW_TAG_formal_parameter
    1756                      .dwattr $C$DW$165, DW_AT_name("handle")
    1757                      .dwattr $C$DW$165, DW_AT_TI_symbol_name("_handle")
    1758                      .dwattr $C$DW$165, DW_AT_type(*$C$DW$T$172)
TMS320C2000 Assembler PC v18.12.4 Tue Feb 21 14:51:41 2023

Copyright (c) 1996-2018 Texas Instruments Incorporated
C:\Users\User\AppData\Local\Temp\{37DBDC18-8316-4B16-94B2-B516506DF0E2} PAGE   34

    1759                      .dwattr $C$DW$165, DW_AT_location[DW_OP_reg12]
    1760              
    1761              $C$DW$166       .dwtag  DW_TAG_formal_parameter
    1762                      .dwattr $C$DW$166, DW_AT_name("spd_ref_krpm")
    1763                      .dwattr $C$DW$166, DW_AT_TI_symbol_name("_spd_ref_krpm")
    1764                      .dwattr $C$DW$166, DW_AT_type(*$C$DW$T$32)
    1765                      .dwattr $C$DW$166, DW_AT_location[DW_OP_reg0]
    1766              
    1767              
    1768              ;***************************************************************
    1769              ;* FNAME: _CTRL_setSpd_ref_krpm         FR SIZE:   4           *
    1770              ;*                                                             *
    1771              ;* FUNCTION ENVIRONMENT                                        *
    1772              ;*                                                             *
    1773              ;* FUNCTION PROPERTIES                                         *
    1774              ;*                            0 Parameter,  0 Auto,  4 SOE     *
    1775              ;***************************************************************
    1776              
    1777              _CTRL_setSpd_ref_krpm:
    1778              ;* AR2   assigned to _handle
    1779              $C$DW$167       .dwtag  DW_TAG_variable
    1780                      .dwattr $C$DW$167, DW_AT_name("handle")
    1781                      .dwattr $C$DW$167, DW_AT_TI_symbol_name("_handle")
    1782                      .dwattr $C$DW$167, DW_AT_type(*$C$DW$T$185)
    1783                      .dwattr $C$DW$167, DW_AT_location[DW_OP_reg8]
    1784              
    1785              ;* XT    assigned to _spd_ref_krpm
    1786              $C$DW$168       .dwtag  DW_TAG_variable
    1787                      .dwattr $C$DW$168, DW_AT_name("spd_ref_krpm")
    1788                      .dwattr $C$DW$168, DW_AT_TI_symbol_name("_spd_ref_krpm")
    1789                      .dwattr $C$DW$168, DW_AT_type(*$C$DW$T$235)
    1790                      .dwattr $C$DW$168, DW_AT_location[DW_OP_reg21]
    1791              
    1792              ;* AL    assigned to _krpm_to_pu_sf
    1793              $C$DW$169       .dwtag  DW_TAG_variable
    1794                      .dwattr $C$DW$169, DW_AT_name("krpm_to_pu_sf")
    1795                      .dwattr $C$DW$169, DW_AT_TI_symbol_name("_krpm_to_pu_sf")
    1796                      .dwattr $C$DW$169, DW_AT_type(*$C$DW$T$32)
    1797                      .dwattr $C$DW$169, DW_AT_location[DW_OP_reg0]
    1798              
    1799                      .dwcfi  cfa_offset, -2
    1800                      .dwcfi  save_reg_to_mem, 26, 0
    1801 00000155 B2BD          MOVL      *SP++,XAR1            ; [CPU_ALU] 
    1802                      .dwcfi  save_reg_to_mem, 7, 2
    1803                      .dwcfi  cfa_offset, -4
    1804 00000156 AABD          MOVL      *SP++,XAR2            ; [CPU_ALU] 
    1805                      .dwcfi  save_reg_to_mem, 9, 4
    1806                      .dwcfi  cfa_offset, -6
    1807 00000157 86A4          MOVL      XAR2,XAR4             ; [CPU_ALU] |478| 
    1808                      .dwpsn  file "D:/GIANT/GAINT_TI_instaspin/motorware/motorware_1_01_00_18/sw/modules/ctrl/src/32b/ctrl
    1809 00000158 D018          MOVB      XAR0,#24              ; [CPU_ALU] |481| 
    1810                      .dwpsn  file "D:/GIANT/GAINT_TI_instaspin/motorware/motorware_1_01_00_18/sw/modules/ctrl/src/32b/ctrl
    1811 00000159 8BA9          MOVL      XAR1,ACC              ; [CPU_ALU] |478| 
    1812                      .dwpsn  file "D:/GIANT/GAINT_TI_instaspin/motorware/motorware_1_01_00_18/sw/modules/ctrl/src/32b/ctrl
    1813 0000015a 8A92          MOVL      XAR4,*+XAR2[AR0]      ; [CPU_ALU] |481| 
TMS320C2000 Assembler PC v18.12.4 Tue Feb 21 14:51:41 2023

Copyright (c) 1996-2018 Texas Instruments Incorporated
C:\Users\User\AppData\Local\Temp\{37DBDC18-8316-4B16-94B2-B516506DF0E2} PAGE   35

    1814              $C$DW$170       .dwtag  DW_TAG_TI_branch
    1815                      .dwattr $C$DW$170, DW_AT_low_pc(0x00)
    1816                      .dwattr $C$DW$170, DW_AT_name("_EST_get_krpm_to_pu_sf")
    1817                      .dwattr $C$DW$170, DW_AT_TI_call
    1818              
    1819 0000015b 7640!         LCR       #_EST_get_krpm_to_pu_sf ; [CPU_ALU] |481| 
         0000015c 0000 
    1820                      ; call occurs [#_EST_get_krpm_to_pu_sf] ; [] |481| 
    1821                      .dwpsn  file "D:/GIANT/GAINT_TI_instaspin/motorware/motorware_1_01_00_18/sw/modules/ctrl/src/32b/ctrl
    1822 0000015d D0E8          MOVB      XAR0,#232             ; [CPU_ALU] |485| 
    1823                      .dwpsn  file "D:/GIANT/GAINT_TI_instaspin/motorware/motorware_1_01_00_18/sw/modules/ctrl/src/32b/ctrl
    1824 0000015e B2AC          MOVL      XT,XAR1               ; [CPU_ALU] |481| 
    1825                      .dwpsn  file "D:/GIANT/GAINT_TI_instaspin/motorware/motorware_1_01_00_18/sw/modules/ctrl/src/32b/ctrl
    1826 0000015f 5605          IMPYL     P,XT,ACC              ; [CPU_ALU] |485| 
         00000160 00A9 
    1827 00000161 5663          QMPYL     ACC,XT,ACC            ; [CPU_ALU] |485| 
         00000162 00A9 
    1828 00000163 56A7          LSL64     ACC:P,#8              ; [CPU_ALU] |485| 
    1829 00000164 1E92          MOVL      *+XAR2[AR0],ACC       ; [CPU_ALU] |485| 
    1830 00000165 86BE          MOVL      XAR2,*--SP            ; [CPU_ALU] 
    1831                      .dwcfi  cfa_offset, -4
    1832                      .dwcfi  restore_reg, 9
    1833 00000166 8BBE          MOVL      XAR1,*--SP            ; [CPU_ALU] 
    1834                      .dwcfi  cfa_offset, -2
    1835                      .dwcfi  restore_reg, 7
    1836              $C$DW$171       .dwtag  DW_TAG_TI_branch
    1837                      .dwattr $C$DW$171, DW_AT_low_pc(0x00)
    1838                      .dwattr $C$DW$171, DW_AT_TI_return
    1839              
    1840 00000167 0006          LRETR     ; [CPU_ALU] 
    1841                      ; return occurs ; [] 
    1842                      .dwattr $C$DW$164, DW_AT_TI_end_file("D:/GIANT/GAINT_TI_instaspin/motorware/motorware_1_01_00_18/sw/m
    1843                      .dwattr $C$DW$164, DW_AT_TI_end_line(0x1e8)
    1844                      .dwattr $C$DW$164, DW_AT_TI_end_column(0x01)
    1845                      .dwendentry
    1846                      .dwendtag $C$DW$164
    1847              
    1848 00000168               .sect   ".text"
    1849                      .clink
    1850                      .global _CTRL_setGains
    1851              
    1852              $C$DW$172       .dwtag  DW_TAG_subprogram
    1853                      .dwattr $C$DW$172, DW_AT_name("CTRL_setGains")
    1854                      .dwattr $C$DW$172, DW_AT_low_pc(_CTRL_setGains)
    1855                      .dwattr $C$DW$172, DW_AT_high_pc(0x00)
    1856                      .dwattr $C$DW$172, DW_AT_TI_symbol_name("_CTRL_setGains")
    1857                      .dwattr $C$DW$172, DW_AT_external
    1858                      .dwattr $C$DW$172, DW_AT_TI_begin_file("D:/GIANT/GAINT_TI_instaspin/motorware/motorware_1_01_00_18/sw
    1859                      .dwattr $C$DW$172, DW_AT_TI_begin_line(0x106)
    1860                      .dwattr $C$DW$172, DW_AT_TI_begin_column(0x06)
    1861                      .dwattr $C$DW$172, DW_AT_TI_max_frame_size(-2)
    1862                      .dwpsn  file "D:/GIANT/GAINT_TI_instaspin/motorware/motorware_1_01_00_18/sw/modules/ctrl/src/32b/ctrl
    1863              
    1864                      .dwfde $C$DW$CIE, _CTRL_setGains
    1865              $C$DW$173       .dwtag  DW_TAG_formal_parameter
TMS320C2000 Assembler PC v18.12.4 Tue Feb 21 14:51:41 2023

Copyright (c) 1996-2018 Texas Instruments Incorporated
C:\Users\User\AppData\Local\Temp\{37DBDC18-8316-4B16-94B2-B516506DF0E2} PAGE   36

    1866                      .dwattr $C$DW$173, DW_AT_name("handle")
    1867                      .dwattr $C$DW$173, DW_AT_TI_symbol_name("_handle")
    1868                      .dwattr $C$DW$173, DW_AT_type(*$C$DW$T$172)
    1869                      .dwattr $C$DW$173, DW_AT_location[DW_OP_reg12]
    1870              
    1871              $C$DW$174       .dwtag  DW_TAG_formal_parameter
    1872                      .dwattr $C$DW$174, DW_AT_name("ctrlType")
    1873                      .dwattr $C$DW$174, DW_AT_TI_symbol_name("_ctrlType")
    1874                      .dwattr $C$DW$174, DW_AT_type(*$C$DW$T$182)
    1875                      .dwattr $C$DW$174, DW_AT_location[DW_OP_reg14]
    1876              
    1877              $C$DW$175       .dwtag  DW_TAG_formal_parameter
    1878                      .dwattr $C$DW$175, DW_AT_name("Kp")
    1879                      .dwattr $C$DW$175, DW_AT_TI_symbol_name("_Kp")
    1880                      .dwattr $C$DW$175, DW_AT_type(*$C$DW$T$32)
    1881                      .dwattr $C$DW$175, DW_AT_location[DW_OP_reg0]
    1882              
    1883              $C$DW$176       .dwtag  DW_TAG_formal_parameter
    1884                      .dwattr $C$DW$176, DW_AT_name("Ki")
    1885                      .dwattr $C$DW$176, DW_AT_TI_symbol_name("_Ki")
    1886                      .dwattr $C$DW$176, DW_AT_type(*$C$DW$T$32)
    1887                      .dwattr $C$DW$176, DW_AT_location[DW_OP_breg20 -4]
    1888              
    1889              $C$DW$177       .dwtag  DW_TAG_formal_parameter
    1890                      .dwattr $C$DW$177, DW_AT_name("Kd")
    1891                      .dwattr $C$DW$177, DW_AT_TI_symbol_name("_Kd")
    1892                      .dwattr $C$DW$177, DW_AT_type(*$C$DW$T$32)
    1893                      .dwattr $C$DW$177, DW_AT_location[DW_OP_breg20 -6]
    1894              
    1895              
    1896              ;***************************************************************
    1897              ;* FNAME: _CTRL_setGains                FR SIZE:   0           *
    1898              ;*                                                             *
    1899              ;* FUNCTION ENVIRONMENT                                        *
    1900              ;*                                                             *
    1901              ;* FUNCTION PROPERTIES                                         *
    1902              ;*                            0 Parameter,  0 Auto,  0 SOE     *
    1903              ;***************************************************************
    1904              
    1905              _CTRL_setGains:
    1906              ;* AR4   assigned to _handle
    1907              $C$DW$178       .dwtag  DW_TAG_variable
    1908                      .dwattr $C$DW$178, DW_AT_name("handle")
    1909                      .dwattr $C$DW$178, DW_AT_TI_symbol_name("_handle")
    1910                      .dwattr $C$DW$178, DW_AT_type(*$C$DW$T$185)
    1911                      .dwattr $C$DW$178, DW_AT_location[DW_OP_reg12]
    1912              
    1913              ;* AL    assigned to _ctrlType
    1914              $C$DW$179       .dwtag  DW_TAG_variable
    1915                      .dwattr $C$DW$179, DW_AT_name("ctrlType")
    1916                      .dwattr $C$DW$179, DW_AT_TI_symbol_name("_ctrlType")
    1917                      .dwattr $C$DW$179, DW_AT_type(*$C$DW$T$183)
    1918                      .dwattr $C$DW$179, DW_AT_location[DW_OP_reg0]
    1919              
    1920              ;* AR6   assigned to _Kp
TMS320C2000 Assembler PC v18.12.4 Tue Feb 21 14:51:41 2023

Copyright (c) 1996-2018 Texas Instruments Incorporated
C:\Users\User\AppData\Local\Temp\{37DBDC18-8316-4B16-94B2-B516506DF0E2} PAGE   37

    1921              $C$DW$180       .dwtag  DW_TAG_variable
    1922                      .dwattr $C$DW$180, DW_AT_name("Kp")
    1923                      .dwattr $C$DW$180, DW_AT_TI_symbol_name("_Kp")
    1924                      .dwattr $C$DW$180, DW_AT_type(*$C$DW$T$235)
    1925                      .dwattr $C$DW$180, DW_AT_location[DW_OP_reg16]
    1926              
    1927              ;* PL    assigned to _Ki
    1928              $C$DW$181       .dwtag  DW_TAG_variable
    1929                      .dwattr $C$DW$181, DW_AT_name("Ki")
    1930                      .dwattr $C$DW$181, DW_AT_TI_symbol_name("_Ki")
    1931                      .dwattr $C$DW$181, DW_AT_type(*$C$DW$T$235)
    1932                      .dwattr $C$DW$181, DW_AT_location[DW_OP_reg2]
    1933              
    1934              ;* AR7   assigned to _Kd
    1935              $C$DW$182       .dwtag  DW_TAG_variable
    1936                      .dwattr $C$DW$182, DW_AT_name("Kd")
    1937                      .dwattr $C$DW$182, DW_AT_TI_symbol_name("_Kd")
    1938                      .dwattr $C$DW$182, DW_AT_type(*$C$DW$T$235)
    1939                      .dwattr $C$DW$182, DW_AT_location[DW_OP_reg18]
    1940              
    1941                      .dwcfi  cfa_offset, -2
    1942                      .dwcfi  save_reg_to_mem, 26, 0
    1943 00000168 1EA6          MOVL      XAR6,ACC              ; [CPU_ALU] |264| 
    1944 00000169 92A5          MOV       AL,AR5                ; [CPU_ALU] |264| 
    1945 0000016a C546          MOVL      XAR7,*-SP[6]          ; [CPU_ALU] |264| 
    1946 0000016b A344          MOVL      P,*-SP[4]             ; [CPU_ALU] |264| 
    1947                      .dwpsn  file "D:/GIANT/GAINT_TI_instaspin/motorware/motorware_1_01_00_18/sw/modules/ctrl/src/32b/ctrl
    1948 0000016c 6109          B         $C$L24,EQ             ; [CPU_ALU] |1504| 
    1949                      ; branchcc occurs ; [] |1504| 
    1950                      .dwpsn  file "D:/GIANT/GAINT_TI_instaspin/motorware/motorware_1_01_00_18/sw/modules/ctrl/src/32b/ctrl
    1951 0000016d 5201          CMPB      AL,#1                 ; [CPU_ALU] |1508| 
    1952 0000016e 6105          B         $C$L23,EQ             ; [CPU_ALU] |1508| 
    1953                      ; branchcc occurs ; [] |1508| 
    1954                      .dwpsn  file "D:/GIANT/GAINT_TI_instaspin/motorware/motorware_1_01_00_18/sw/modules/ctrl/src/32b/ctrl
    1955 0000016f 5202          CMPB      AL,#2                 ; [CPU_ALU] |1512| 
    1956 00000170 6007          B         $C$L26,NEQ            ; [CPU_ALU] |1512| 
    1957                      ; branchcc occurs ; [] |1512| 
    1958                      .dwpsn  file "D:/GIANT/GAINT_TI_instaspin/motorware/motorware_1_01_00_18/sw/modules/ctrl/src/32b/ctrl
    1959 00000171 D0CC          MOVB      XAR0,#204             ; [CPU_ALU] |1514| 
    1960 00000172 6F04          B         $C$L25,UNC            ; [CPU_ALU] |1514| 
    1961                      ; branch occurs ; [] |1514| 
    1962 00000173       $C$L23:    
    1963                      .dwpsn  file "D:/GIANT/GAINT_TI_instaspin/motorware/motorware_1_01_00_18/sw/modules/ctrl/src/32b/ctrl
    1964 00000173 D0CA          MOVB      XAR0,#202             ; [CPU_ALU] |1510| 
    1965                      .dwpsn  file "D:/GIANT/GAINT_TI_instaspin/motorware/motorware_1_01_00_18/sw/modules/ctrl/src/32b/ctrl
    1966 00000174 6F02          B         $C$L25,UNC            ; [CPU_ALU] |1511| 
    1967                      ; branch occurs ; [] |1511| 
    1968 00000175       $C$L24:    
    1969                      .dwpsn  file "D:/GIANT/GAINT_TI_instaspin/motorware/motorware_1_01_00_18/sw/modules/ctrl/src/32b/ctrl
    1970 00000175 D0CE          MOVB      XAR0,#206             ; [CPU_ALU] |1506| 
    1971 00000176       $C$L25:    
    1972 00000176 C294          MOVL      *+XAR4[AR0],XAR6      ; [CPU_ALU] |1506| 
    1973 00000177       $C$L26:    
    1974                      .dwpsn  file "D:/GIANT/GAINT_TI_instaspin/motorware/motorware_1_01_00_18/sw/modules/ctrl/src/32b/ctrl
    1975 00000177 5200          CMPB      AL,#0                 ; [CPU_ALU] |1479| 
TMS320C2000 Assembler PC v18.12.4 Tue Feb 21 14:51:41 2023

Copyright (c) 1996-2018 Texas Instruments Incorporated
C:\Users\User\AppData\Local\Temp\{37DBDC18-8316-4B16-94B2-B516506DF0E2} PAGE   38

    1976 00000178 6109          B         $C$L28,EQ             ; [CPU_ALU] |1479| 
    1977                      ; branchcc occurs ; [] |1479| 
    1978                      .dwpsn  file "D:/GIANT/GAINT_TI_instaspin/motorware/motorware_1_01_00_18/sw/modules/ctrl/src/32b/ctrl
    1979 00000179 5201          CMPB      AL,#1                 ; [CPU_ALU] |1483| 
    1980 0000017a 6105          B         $C$L27,EQ             ; [CPU_ALU] |1483| 
    1981                      ; branchcc occurs ; [] |1483| 
    1982                      .dwpsn  file "D:/GIANT/GAINT_TI_instaspin/motorware/motorware_1_01_00_18/sw/modules/ctrl/src/32b/ctrl
    1983 0000017b 5202          CMPB      AL,#2                 ; [CPU_ALU] |1487| 
    1984 0000017c 6007          B         $C$L30,NEQ            ; [CPU_ALU] |1487| 
    1985                      ; branchcc occurs ; [] |1487| 
    1986                      .dwpsn  file "D:/GIANT/GAINT_TI_instaspin/motorware/motorware_1_01_00_18/sw/modules/ctrl/src/32b/ctrl
    1987 0000017d D0D2          MOVB      XAR0,#210             ; [CPU_ALU] |1489| 
    1988 0000017e 6F04          B         $C$L29,UNC            ; [CPU_ALU] |1489| 
    1989                      ; branch occurs ; [] |1489| 
    1990 0000017f       $C$L27:    
    1991                      .dwpsn  file "D:/GIANT/GAINT_TI_instaspin/motorware/motorware_1_01_00_18/sw/modules/ctrl/src/32b/ctrl
    1992 0000017f D0D0          MOVB      XAR0,#208             ; [CPU_ALU] |1485| 
    1993                      .dwpsn  file "D:/GIANT/GAINT_TI_instaspin/motorware/motorware_1_01_00_18/sw/modules/ctrl/src/32b/ctrl
    1994 00000180 6F02          B         $C$L29,UNC            ; [CPU_ALU] |1486| 
    1995                      ; branch occurs ; [] |1486| 
    1996 00000181       $C$L28:    
    1997                      .dwpsn  file "D:/GIANT/GAINT_TI_instaspin/motorware/motorware_1_01_00_18/sw/modules/ctrl/src/32b/ctrl
    1998 00000181 D0D4          MOVB      XAR0,#212             ; [CPU_ALU] |1481| 
    1999 00000182       $C$L29:    
    2000 00000182 A994          MOVL      *+XAR4[AR0],P         ; [CPU_ALU] |1481| 
    2001 00000183       $C$L30:    
    2002                      .dwpsn  file "D:/GIANT/GAINT_TI_instaspin/motorware/motorware_1_01_00_18/sw/modules/ctrl/src/32b/ctrl
    2003 00000183 5200          CMPB      AL,#0                 ; [CPU_ALU] |1454| 
    2004 00000184 6109          B         $C$L32,EQ             ; [CPU_ALU] |1454| 
    2005                      ; branchcc occurs ; [] |1454| 
    2006                      .dwpsn  file "D:/GIANT/GAINT_TI_instaspin/motorware/motorware_1_01_00_18/sw/modules/ctrl/src/32b/ctrl
    2007 00000185 5201          CMPB      AL,#1                 ; [CPU_ALU] |1458| 
    2008 00000186 6105          B         $C$L31,EQ             ; [CPU_ALU] |1458| 
    2009                      ; branchcc occurs ; [] |1458| 
    2010                      .dwpsn  file "D:/GIANT/GAINT_TI_instaspin/motorware/motorware_1_01_00_18/sw/modules/ctrl/src/32b/ctrl
    2011 00000187 5202          CMPB      AL,#2                 ; [CPU_ALU] |1462| 
    2012 00000188 6007          B         $C$L34,NEQ            ; [CPU_ALU] |1462| 
    2013                      ; branchcc occurs ; [] |1462| 
    2014                      .dwpsn  file "D:/GIANT/GAINT_TI_instaspin/motorware/motorware_1_01_00_18/sw/modules/ctrl/src/32b/ctrl
    2015 00000189 D0D8          MOVB      XAR0,#216             ; [CPU_ALU] |1464| 
    2016 0000018a 6F04          B         $C$L33,UNC            ; [CPU_ALU] |1464| 
    2017                      ; branch occurs ; [] |1464| 
    2018 0000018b       $C$L31:    
    2019                      .dwpsn  file "D:/GIANT/GAINT_TI_instaspin/motorware/motorware_1_01_00_18/sw/modules/ctrl/src/32b/ctrl
    2020 0000018b D0D6          MOVB      XAR0,#214             ; [CPU_ALU] |1460| 
    2021                      .dwpsn  file "D:/GIANT/GAINT_TI_instaspin/motorware/motorware_1_01_00_18/sw/modules/ctrl/src/32b/ctrl
    2022 0000018c 6F02          B         $C$L33,UNC            ; [CPU_ALU] |1461| 
    2023                      ; branch occurs ; [] |1461| 
    2024 0000018d       $C$L32:    
    2025                      .dwpsn  file "D:/GIANT/GAINT_TI_instaspin/motorware/motorware_1_01_00_18/sw/modules/ctrl/src/32b/ctrl
    2026 0000018d D0DA          MOVB      XAR0,#218             ; [CPU_ALU] |1456| 
    2027 0000018e       $C$L33:    
    2028 0000018e C394          MOVL      *+XAR4[AR0],XAR7      ; [CPU_ALU] |1456| 
    2029              $C$L34:    
    2030              $C$DW$183       .dwtag  DW_TAG_TI_branch
TMS320C2000 Assembler PC v18.12.4 Tue Feb 21 14:51:41 2023

Copyright (c) 1996-2018 Texas Instruments Incorporated
C:\Users\User\AppData\Local\Temp\{37DBDC18-8316-4B16-94B2-B516506DF0E2} PAGE   39

    2031                      .dwattr $C$DW$183, DW_AT_low_pc(0x00)
    2032                      .dwattr $C$DW$183, DW_AT_TI_return
    2033              
    2034 0000018f 0006          LRETR     ; [CPU_ALU] 
    2035                      ; return occurs ; [] 
    2036                      .dwattr $C$DW$172, DW_AT_TI_end_file("D:/GIANT/GAINT_TI_instaspin/motorware/motorware_1_01_00_18/sw/m
    2037                      .dwattr $C$DW$172, DW_AT_TI_end_line(0x10f)
    2038                      .dwattr $C$DW$172, DW_AT_TI_end_column(0x01)
    2039                      .dwendentry
    2040                      .dwendtag $C$DW$172
    2041              
    2042 00000190               .sect   ".text"
    2043                      .clink
    2044                      .global _CTRL_setParams
    2045              
    2046              $C$DW$184       .dwtag  DW_TAG_subprogram
    2047                      .dwattr $C$DW$184, DW_AT_name("CTRL_setParams")
    2048                      .dwattr $C$DW$184, DW_AT_low_pc(_CTRL_setParams)
    2049                      .dwattr $C$DW$184, DW_AT_high_pc(0x00)
    2050                      .dwattr $C$DW$184, DW_AT_TI_symbol_name("_CTRL_setParams")
    2051                      .dwattr $C$DW$184, DW_AT_external
    2052                      .dwattr $C$DW$184, DW_AT_TI_begin_file("D:/GIANT/GAINT_TI_instaspin/motorware/motorware_1_01_00_18/sw
    2053                      .dwattr $C$DW$184, DW_AT_TI_begin_line(0x124)
    2054                      .dwattr $C$DW$184, DW_AT_TI_begin_column(0x06)
    2055                      .dwattr $C$DW$184, DW_AT_TI_max_frame_size(-50)
    2056                      .dwpsn  file "D:/GIANT/GAINT_TI_instaspin/motorware/motorware_1_01_00_18/sw/modules/ctrl/src/32b/ctrl
    2057              
    2058                      .dwfde $C$DW$CIE, _CTRL_setParams
    2059              $C$DW$185       .dwtag  DW_TAG_formal_parameter
    2060                      .dwattr $C$DW$185, DW_AT_name("handle")
    2061                      .dwattr $C$DW$185, DW_AT_TI_symbol_name("_handle")
    2062                      .dwattr $C$DW$185, DW_AT_type(*$C$DW$T$172)
    2063                      .dwattr $C$DW$185, DW_AT_location[DW_OP_reg12]
    2064              
    2065              $C$DW$186       .dwtag  DW_TAG_formal_parameter
    2066                      .dwattr $C$DW$186, DW_AT_name("pUserParams")
    2067                      .dwattr $C$DW$186, DW_AT_TI_symbol_name("_pUserParams")
    2068                      .dwattr $C$DW$186, DW_AT_type(*$C$DW$T$228)
    2069                      .dwattr $C$DW$186, DW_AT_location[DW_OP_reg14]
    2070              
    2071              
    2072              ;***************************************************************
    2073              ;* FNAME: _CTRL_setParams               FR SIZE:  48           *
    2074              ;*                                                             *
    2075              ;* FUNCTION ENVIRONMENT                                        *
    2076              ;*                                                             *
    2077              ;* FUNCTION PROPERTIES                                         *
    2078              ;*                            4 Parameter, 38 Auto,  6 SOE     *
    2079              ;***************************************************************
    2080              
    2081              _CTRL_setParams:
    2082              $C$DW$187       .dwtag  DW_TAG_variable
    2083                      .dwattr $C$DW$187, DW_AT_name("Iab_out_pu")
    2084                      .dwattr $C$DW$187, DW_AT_TI_symbol_name("_Iab_out_pu")
    2085                      .dwattr $C$DW$187, DW_AT_type(*$C$DW$T$72)
TMS320C2000 Assembler PC v18.12.4 Tue Feb 21 14:51:41 2023

Copyright (c) 1996-2018 Texas Instruments Incorporated
C:\Users\User\AppData\Local\Temp\{37DBDC18-8316-4B16-94B2-B516506DF0E2} PAGE   40

    2086                      .dwattr $C$DW$187, DW_AT_location[DW_OP_breg20 -8]
    2087              
    2088              $C$DW$188       .dwtag  DW_TAG_variable
    2089                      .dwattr $C$DW$188, DW_AT_name("Idq_out_pu")
    2090                      .dwattr $C$DW$188, DW_AT_TI_symbol_name("_Idq_out_pu")
    2091                      .dwattr $C$DW$188, DW_AT_type(*$C$DW$T$72)
    2092                      .dwattr $C$DW$188, DW_AT_location[DW_OP_breg20 -12]
    2093              
    2094              $C$DW$189       .dwtag  DW_TAG_variable
    2095                      .dwattr $C$DW$189, DW_AT_name("Idq_ref_pu")
    2096                      .dwattr $C$DW$189, DW_AT_TI_symbol_name("_Idq_ref_pu")
    2097                      .dwattr $C$DW$189, DW_AT_type(*$C$DW$T$72)
    2098                      .dwattr $C$DW$189, DW_AT_location[DW_OP_breg20 -16]
    2099              
    2100              $C$DW$190       .dwtag  DW_TAG_variable
    2101                      .dwattr $C$DW$190, DW_AT_name("Vab_in_pu")
    2102                      .dwattr $C$DW$190, DW_AT_TI_symbol_name("_Vab_in_pu")
    2103                      .dwattr $C$DW$190, DW_AT_type(*$C$DW$T$72)
    2104                      .dwattr $C$DW$190, DW_AT_location[DW_OP_breg20 -20]
    2105              
    2106              $C$DW$191       .dwtag  DW_TAG_variable
    2107                      .dwattr $C$DW$191, DW_AT_name("Vab_out_pu")
    2108                      .dwattr $C$DW$191, DW_AT_TI_symbol_name("_Vab_out_pu")
    2109                      .dwattr $C$DW$191, DW_AT_type(*$C$DW$T$72)
    2110                      .dwattr $C$DW$191, DW_AT_location[DW_OP_breg20 -24]
    2111              
    2112              $C$DW$192       .dwtag  DW_TAG_variable
    2113                      .dwattr $C$DW$192, DW_AT_name("Vdq_out_pu")
    2114                      .dwattr $C$DW$192, DW_AT_TI_symbol_name("_Vdq_out_pu")
    2115                      .dwattr $C$DW$192, DW_AT_type(*$C$DW$T$72)
    2116                      .dwattr $C$DW$192, DW_AT_location[DW_OP_breg20 -28]
    2117              
    2118              ;* AR3   assigned to $O$C1
    2119              ;* AR2   assigned to $O$C2
    2120              ;* AR1   assigned to _handle
    2121              $C$DW$193       .dwtag  DW_TAG_variable
    2122                      .dwattr $C$DW$193, DW_AT_name("handle")
    2123                      .dwattr $C$DW$193, DW_AT_TI_symbol_name("_handle")
    2124                      .dwattr $C$DW$193, DW_AT_type(*$C$DW$T$185)
    2125                      .dwattr $C$DW$193, DW_AT_location[DW_OP_reg6]
    2126              
    2127              $C$DW$194       .dwtag  DW_TAG_variable
    2128                      .dwattr $C$DW$194, DW_AT_name("pUserParams")
    2129                      .dwattr $C$DW$194, DW_AT_TI_symbol_name("_pUserParams")
    2130                      .dwattr $C$DW$194, DW_AT_type(*$C$DW$T$229)
    2131                      .dwattr $C$DW$194, DW_AT_location[DW_OP_breg20 -40]
    2132              
    2133              $C$DW$195       .dwtag  DW_TAG_variable
    2134                      .dwattr $C$DW$195, DW_AT_name("Kp")
    2135                      .dwattr $C$DW$195, DW_AT_TI_symbol_name("_Kp")
    2136                      .dwattr $C$DW$195, DW_AT_type(*$C$DW$T$32)
    2137                      .dwattr $C$DW$195, DW_AT_location[DW_OP_breg20 -42]
    2138              
    2139              ;* AL    assigned to _Ki
    2140              $C$DW$196       .dwtag  DW_TAG_variable
TMS320C2000 Assembler PC v18.12.4 Tue Feb 21 14:51:41 2023

Copyright (c) 1996-2018 Texas Instruments Incorporated
C:\Users\User\AppData\Local\Temp\{37DBDC18-8316-4B16-94B2-B516506DF0E2} PAGE   41

    2141                      .dwattr $C$DW$196, DW_AT_name("Ki")
    2142                      .dwattr $C$DW$196, DW_AT_TI_symbol_name("_Ki")
    2143                      .dwattr $C$DW$196, DW_AT_type(*$C$DW$T$32)
    2144                      .dwattr $C$DW$196, DW_AT_location[DW_OP_reg0]
    2145              
    2146              ;* AH    assigned to _numPolePairs
    2147              $C$DW$197       .dwtag  DW_TAG_variable
    2148                      .dwattr $C$DW$197, DW_AT_name("numPolePairs")
    2149                      .dwattr $C$DW$197, DW_AT_TI_symbol_name("_numPolePairs")
    2150                      .dwattr $C$DW$197, DW_AT_type(*$C$DW$T$70)
    2151                      .dwattr $C$DW$197, DW_AT_location[DW_OP_reg1]
    2152              
    2153              ;* XT    assigned to _ratedFlux
    2154              $C$DW$198       .dwtag  DW_TAG_variable
    2155                      .dwattr $C$DW$198, DW_AT_name("ratedFlux")
    2156                      .dwattr $C$DW$198, DW_AT_TI_symbol_name("_ratedFlux")
    2157                      .dwattr $C$DW$198, DW_AT_type(*$C$DW$T$71)
    2158                      .dwattr $C$DW$198, DW_AT_location[DW_OP_reg21]
    2159              
    2160              ;* AR5   assigned to _Ls_d
    2161              $C$DW$199       .dwtag  DW_TAG_variable
    2162                      .dwattr $C$DW$199, DW_AT_name("Ls_d")
    2163                      .dwattr $C$DW$199, DW_AT_TI_symbol_name("_Ls_d")
    2164                      .dwattr $C$DW$199, DW_AT_type(*$C$DW$T$71)
    2165                      .dwattr $C$DW$199, DW_AT_location[DW_OP_reg14]
    2166              
    2167              ;* PL    assigned to _Ls_q
    2168              $C$DW$200       .dwtag  DW_TAG_variable
    2169                      .dwattr $C$DW$200, DW_AT_name("Ls_q")
    2170                      .dwattr $C$DW$200, DW_AT_TI_symbol_name("_Ls_q")
    2171                      .dwattr $C$DW$200, DW_AT_type(*$C$DW$T$71)
    2172                      .dwattr $C$DW$200, DW_AT_location[DW_OP_reg2]
    2173              
    2174              ;* AR6   assigned to _Rr
    2175              $C$DW$201       .dwtag  DW_TAG_variable
    2176                      .dwattr $C$DW$201, DW_AT_name("Rr")
    2177                      .dwattr $C$DW$201, DW_AT_TI_symbol_name("_Rr")
    2178                      .dwattr $C$DW$201, DW_AT_type(*$C$DW$T$71)
    2179                      .dwattr $C$DW$201, DW_AT_location[DW_OP_reg16]
    2180              
    2181              ;* AR4   assigned to _Rs
    2182              $C$DW$202       .dwtag  DW_TAG_variable
    2183                      .dwattr $C$DW$202, DW_AT_name("Rs")
    2184                      .dwattr $C$DW$202, DW_AT_TI_symbol_name("_Rs")
    2185                      .dwattr $C$DW$202, DW_AT_type(*$C$DW$T$71)
    2186                      .dwattr $C$DW$202, DW_AT_location[DW_OP_reg12]
    2187              
    2188              ;* AR4   assigned to _handle
    2189              $C$DW$203       .dwtag  DW_TAG_variable
    2190                      .dwattr $C$DW$203, DW_AT_name("handle")
    2191                      .dwattr $C$DW$203, DW_AT_TI_symbol_name("_handle")
    2192                      .dwattr $C$DW$203, DW_AT_type(*$C$DW$T$53)
    2193                      .dwattr $C$DW$203, DW_AT_location[DW_OP_reg12]
    2194              
    2195              ;* AR6   assigned to _Ki
TMS320C2000 Assembler PC v18.12.4 Tue Feb 21 14:51:41 2023

Copyright (c) 1996-2018 Texas Instruments Incorporated
C:\Users\User\AppData\Local\Temp\{37DBDC18-8316-4B16-94B2-B516506DF0E2} PAGE   42

    2196              $C$DW$204       .dwtag  DW_TAG_variable
    2197                      .dwattr $C$DW$204, DW_AT_name("Ki")
    2198                      .dwattr $C$DW$204, DW_AT_TI_symbol_name("_Ki")
    2199                      .dwattr $C$DW$204, DW_AT_type(*$C$DW$T$32)
    2200                      .dwattr $C$DW$204, DW_AT_location[DW_OP_reg16]
    2201              
    2202              ;* AR4   assigned to _handle
    2203              $C$DW$205       .dwtag  DW_TAG_variable
    2204                      .dwattr $C$DW$205, DW_AT_name("handle")
    2205                      .dwattr $C$DW$205, DW_AT_TI_symbol_name("_handle")
    2206                      .dwattr $C$DW$205, DW_AT_type(*$C$DW$T$53)
    2207                      .dwattr $C$DW$205, DW_AT_location[DW_OP_reg12]
    2208              
    2209              ;* AR4   assigned to _handle
    2210              $C$DW$206       .dwtag  DW_TAG_variable
    2211                      .dwattr $C$DW$206, DW_AT_name("handle")
    2212                      .dwattr $C$DW$206, DW_AT_TI_symbol_name("_handle")
    2213                      .dwattr $C$DW$206, DW_AT_type(*$C$DW$T$53)
    2214                      .dwattr $C$DW$206, DW_AT_location[DW_OP_reg12]
    2215              
    2216              ;* AR6   assigned to _Ki
    2217              $C$DW$207       .dwtag  DW_TAG_variable
    2218                      .dwattr $C$DW$207, DW_AT_name("Ki")
    2219                      .dwattr $C$DW$207, DW_AT_TI_symbol_name("_Ki")
    2220                      .dwattr $C$DW$207, DW_AT_type(*$C$DW$T$32)
    2221                      .dwattr $C$DW$207, DW_AT_location[DW_OP_reg16]
    2222              
    2223              ;* AR4   assigned to _handle
    2224              $C$DW$208       .dwtag  DW_TAG_variable
    2225                      .dwattr $C$DW$208, DW_AT_name("handle")
    2226                      .dwattr $C$DW$208, DW_AT_TI_symbol_name("_handle")
    2227                      .dwattr $C$DW$208, DW_AT_type(*$C$DW$T$53)
    2228                      .dwattr $C$DW$208, DW_AT_location[DW_OP_reg12]
    2229              
    2230              ;* AR4   assigned to _handle
    2231              $C$DW$209       .dwtag  DW_TAG_variable
    2232                      .dwattr $C$DW$209, DW_AT_name("handle")
    2233                      .dwattr $C$DW$209, DW_AT_TI_symbol_name("_handle")
    2234                      .dwattr $C$DW$209, DW_AT_type(*$C$DW$T$53)
    2235                      .dwattr $C$DW$209, DW_AT_location[DW_OP_reg12]
    2236              
    2237              ;* AR6   assigned to _Ki
    2238              $C$DW$210       .dwtag  DW_TAG_variable
    2239                      .dwattr $C$DW$210, DW_AT_name("Ki")
    2240                      .dwattr $C$DW$210, DW_AT_TI_symbol_name("_Ki")
    2241                      .dwattr $C$DW$210, DW_AT_type(*$C$DW$T$32)
    2242                      .dwattr $C$DW$210, DW_AT_location[DW_OP_reg16]
    2243              
    2244              ;* AR5   assigned to _handle
    2245              $C$DW$211       .dwtag  DW_TAG_variable
    2246                      .dwattr $C$DW$211, DW_AT_name("handle")
    2247                      .dwattr $C$DW$211, DW_AT_TI_symbol_name("_handle")
    2248                      .dwattr $C$DW$211, DW_AT_type(*$C$DW$T$53)
    2249                      .dwattr $C$DW$211, DW_AT_location[DW_OP_reg14]
    2250              
TMS320C2000 Assembler PC v18.12.4 Tue Feb 21 14:51:41 2023

Copyright (c) 1996-2018 Texas Instruments Incorporated
C:\Users\User\AppData\Local\Temp\{37DBDC18-8316-4B16-94B2-B516506DF0E2} PAGE   43

    2251                      .dwcfi  cfa_offset, -2
    2252                      .dwcfi  save_reg_to_mem, 26, 0
    2253 00000190 B2BD          MOVL      *SP++,XAR1            ; [CPU_ALU] 
    2254                      .dwcfi  save_reg_to_mem, 7, 2
    2255                      .dwcfi  cfa_offset, -4
    2256 00000191 AABD          MOVL      *SP++,XAR2            ; [CPU_ALU] 
    2257                      .dwcfi  save_reg_to_mem, 9, 4
    2258                      .dwcfi  cfa_offset, -6
    2259 00000192 A2BD          MOVL      *SP++,XAR3            ; [CPU_ALU] 
    2260                      .dwcfi  save_reg_to_mem, 11, 6
    2261                      .dwcfi  cfa_offset, -8
    2262 00000193 FE2A          ADDB      SP,#42                ; [CPU_ARAU] 
    2263                      .dwcfi  cfa_offset, -50
    2264 00000194 8BA4          MOVL      XAR1,XAR4             ; [CPU_ALU] |293| 
    2265                      .dwpsn  file "D:/GIANT/GAINT_TI_instaspin/motorware/motorware_1_01_00_18/sw/modules/ctrl/src/32b/ctrl
    2266 00000195 5CAD          MOVZ      AR4,SP                ; [CPU_ALU] |300| 
    2267                      .dwpsn  file "D:/GIANT/GAINT_TI_instaspin/motorware/motorware_1_01_00_18/sw/modules/ctrl/src/32b/ctrl
    2268 00000196 A068          MOVL      *-SP[40],XAR5         ; [CPU_ALU] |293| 
    2269                      .dwpsn  file "D:/GIANT/GAINT_TI_instaspin/motorware/motorware_1_01_00_18/sw/modules/ctrl/src/32b/ctrl
    2270 00000197 DC88          SUBB      XAR4,#8               ; [CPU_ARAU] |300| 
    2271 00000198 5CA4          MOVZ      AR4,AR4               ; [CPU_ALU] |300| 
    2272 00000199 76C0+         MOVL      XAR7,#_$P$T0$1        ; [CPU_ARAU] |300| 
         0000019a 0000 
    2273 0000019b F603          RPT       #3
    2274 0000019c 2484  ||     PREAD     *XAR4++,*XAR7         ; [CPU_ALU] |300| 
    2275                      .dwpsn  file "D:/GIANT/GAINT_TI_instaspin/motorware/motorware_1_01_00_18/sw/modules/ctrl/src/32b/ctrl
    2276 0000019d 5CAD          MOVZ      AR4,SP                ; [CPU_ALU] |301| 
    2277 0000019e DC8C          SUBB      XAR4,#12              ; [CPU_ARAU] |301| 
    2278 0000019f 5CA4          MOVZ      AR4,AR4               ; [CPU_ALU] |301| 
    2279 000001a0 76C0+         MOVL      XAR7,#_$P$T1$2        ; [CPU_ARAU] |301| 
         000001a1 0000 
    2280 000001a2 F603          RPT       #3
    2281 000001a3 2484  ||     PREAD     *XAR4++,*XAR7         ; [CPU_ALU] |301| 
    2282                      .dwpsn  file "D:/GIANT/GAINT_TI_instaspin/motorware/motorware_1_01_00_18/sw/modules/ctrl/src/32b/ctrl
    2283 000001a4 5CAD          MOVZ      AR4,SP                ; [CPU_ALU] |302| 
    2284 000001a5 DC90          SUBB      XAR4,#16              ; [CPU_ARAU] |302| 
    2285 000001a6 5CA4          MOVZ      AR4,AR4               ; [CPU_ALU] |302| 
    2286 000001a7 76C0+         MOVL      XAR7,#_$P$T2$3        ; [CPU_ARAU] |302| 
         000001a8 0000 
    2287 000001a9 F603          RPT       #3
    2288 000001aa 2484  ||     PREAD     *XAR4++,*XAR7         ; [CPU_ALU] |302| 
    2289                      .dwpsn  file "D:/GIANT/GAINT_TI_instaspin/motorware/motorware_1_01_00_18/sw/modules/ctrl/src/32b/ctrl
    2290 000001ab 5CAD          MOVZ      AR4,SP                ; [CPU_ALU] |303| 
    2291 000001ac DC94          SUBB      XAR4,#20              ; [CPU_ARAU] |303| 
    2292 000001ad 5CA4          MOVZ      AR4,AR4               ; [CPU_ALU] |303| 
    2293 000001ae 76C0+         MOVL      XAR7,#_$P$T3$4        ; [CPU_ARAU] |303| 
         000001af 0000 
    2294 000001b0 F603          RPT       #3
    2295 000001b1 2484  ||     PREAD     *XAR4++,*XAR7         ; [CPU_ALU] |303| 
    2296                      .dwpsn  file "D:/GIANT/GAINT_TI_instaspin/motorware/motorware_1_01_00_18/sw/modules/ctrl/src/32b/ctrl
    2297 000001b2 5CAD          MOVZ      AR4,SP                ; [CPU_ALU] |304| 
    2298 000001b3 DC98          SUBB      XAR4,#24              ; [CPU_ARAU] |304| 
    2299 000001b4 5CA4          MOVZ      AR4,AR4               ; [CPU_ALU] |304| 
    2300 000001b5 76C0+         MOVL      XAR7,#_$P$T4$5        ; [CPU_ARAU] |304| 
         000001b6 0000 
TMS320C2000 Assembler PC v18.12.4 Tue Feb 21 14:51:41 2023

Copyright (c) 1996-2018 Texas Instruments Incorporated
C:\Users\User\AppData\Local\Temp\{37DBDC18-8316-4B16-94B2-B516506DF0E2} PAGE   44

    2301 000001b7 F603          RPT       #3
    2302 000001b8 2484  ||     PREAD     *XAR4++,*XAR7         ; [CPU_ALU] |304| 
    2303                      .dwpsn  file "D:/GIANT/GAINT_TI_instaspin/motorware/motorware_1_01_00_18/sw/modules/ctrl/src/32b/ctrl
    2304 000001b9 5CAD          MOVZ      AR4,SP                ; [CPU_ALU] |305| 
    2305 000001ba DC9C          SUBB      XAR4,#28              ; [CPU_ARAU] |305| 
    2306 000001bb 5CA4          MOVZ      AR4,AR4               ; [CPU_ALU] |305| 
    2307 000001bc 76C0+         MOVL      XAR7,#_$P$T5$6        ; [CPU_ARAU] |305| 
         000001bd 0000 
    2308 000001be F603          RPT       #3
    2309 000001bf 2484  ||     PREAD     *XAR4++,*XAR7         ; [CPU_ALU] |305| 
    2310                      .dwpsn  file "D:/GIANT/GAINT_TI_instaspin/motorware/motorware_1_01_00_18/sw/modules/ctrl/src/32b/ctrl
    2311 000001c0 C568          MOVL      XAR7,*-SP[40]         ; [CPU_ALU] |1593| 
    2312                      .dwpsn  file "D:/GIANT/GAINT_TI_instaspin/motorware/motorware_1_01_00_18/sw/modules/ctrl/src/32b/ctrl
    2313 000001c1 8A68          MOVL      XAR4,*-SP[40]         ; [CPU_ALU] |1590| 
    2314 000001c2 D035          MOVB      XAR0,#53              ; [CPU_ALU] |1590| 
    2315                      .dwpsn  file "D:/GIANT/GAINT_TI_instaspin/motorware/motorware_1_01_00_18/sw/modules/ctrl/src/32b/ctrl
    2316 000001c3 DF34          ADDB      XAR7,#52              ; [CPU_ALU] |1593| 
    2317                      .dwpsn  file "D:/GIANT/GAINT_TI_instaspin/motorware/motorware_1_01_00_18/sw/modules/ctrl/src/32b/ctrl
    2318 000001c4 9394          MOV       AH,*+XAR4[AR0]        ; [CPU_ALU] |1590| 
    2319 000001c5 D036          MOVB      XAR0,#54              ; [CPU_ALU] |1590| 
    2320                      .dwpsn  file "D:/GIANT/GAINT_TI_instaspin/motorware/motorware_1_01_00_18/sw/modules/ctrl/src/32b/ctrl
    2321 000001c6 92C7          MOV       AL,*+XAR7[0]          ; [CPU_ALU] |1593| 
    2322                      .dwpsn  file "D:/GIANT/GAINT_TI_instaspin/motorware/motorware_1_01_00_18/sw/modules/ctrl/src/32b/ctrl
    2323 000001c7 8794          MOVL      XT,*+XAR4[AR0]        ; [CPU_ALU] |1590| 
    2324 000001c8 D03C          MOVB      XAR0,#60              ; [CPU_ALU] |1590| 
    2325 000001c9 8394          MOVL      XAR5,*+XAR4[AR0]      ; [CPU_ALU] |1590| 
    2326 000001ca D03E          MOVB      XAR0,#62              ; [CPU_ALU] |1590| 
    2327 000001cb A394          MOVL      P,*+XAR4[AR0]         ; [CPU_ALU] |1590| 
    2328 000001cc D038          MOVB      XAR0,#56              ; [CPU_ALU] |1590| 
    2329 000001cd C494          MOVL      XAR6,*+XAR4[AR0]      ; [CPU_ALU] |1590| 
    2330 000001ce D03A          MOVB      XAR0,#58              ; [CPU_ALU] |1590| 
    2331 000001cf 8A94          MOVL      XAR4,*+XAR4[AR0]      ; [CPU_ALU] |1590| 
    2332                      .dwpsn  file "D:/GIANT/GAINT_TI_instaspin/motorware/motorware_1_01_00_18/sw/modules/ctrl/src/32b/ctrl
    2333 000001d0 D084          MOVB      XAR0,#132             ; [CPU_ALU] |1593| 
    2334 000001d1 9691          MOV       *+XAR1[AR0],AL        ; [CPU_ALU] |1593| 
    2335                      .dwpsn  file "D:/GIANT/GAINT_TI_instaspin/motorware/motorware_1_01_00_18/sw/modules/ctrl/src/32b/ctrl
    2336 000001d2 D085          MOVB      XAR0,#133             ; [CPU_ALU] |1594| 
    2337 000001d3 9791          MOV       *+XAR1[AR0],AH        ; [CPU_ALU] |1594| 
    2338                      .dwpsn  file "D:/GIANT/GAINT_TI_instaspin/motorware/motorware_1_01_00_18/sw/modules/ctrl/src/32b/ctrl
    2339 000001d4 D090          MOVB      XAR0,#144             ; [CPU_ALU] |1595| 
    2340 000001d5 AB91          MOVL      *+XAR1[AR0],XT        ; [CPU_ALU] |1595| 
    2341                      .dwpsn  file "D:/GIANT/GAINT_TI_instaspin/motorware/motorware_1_01_00_18/sw/modules/ctrl/src/32b/ctrl
    2342 000001d6 D088          MOVB      XAR0,#136             ; [CPU_ALU] |1596| 
    2343 000001d7 A091          MOVL      *+XAR1[AR0],XAR5      ; [CPU_ALU] |1596| 
    2344                      .dwpsn  file "D:/GIANT/GAINT_TI_instaspin/motorware/motorware_1_01_00_18/sw/modules/ctrl/src/32b/ctrl
    2345 000001d8 D08A          MOVB      XAR0,#138             ; [CPU_ALU] |1597| 
    2346 000001d9 A991          MOVL      *+XAR1[AR0],P         ; [CPU_ALU] |1597| 
    2347                      .dwpsn  file "D:/GIANT/GAINT_TI_instaspin/motorware/motorware_1_01_00_18/sw/modules/ctrl/src/32b/ctrl
    2348 000001da D08C          MOVB      XAR0,#140             ; [CPU_ALU] |1598| 
    2349 000001db C291          MOVL      *+XAR1[AR0],XAR6      ; [CPU_ALU] |1598| 
    2350                      .dwpsn  file "D:/GIANT/GAINT_TI_instaspin/motorware/motorware_1_01_00_18/sw/modules/ctrl/src/32b/ctrl
    2351 000001dc D08E          MOVB      XAR0,#142             ; [CPU_ALU] |1599| 
    2352 000001dd A891          MOVL      *+XAR1[AR0],XAR4      ; [CPU_ALU] |1599| 
    2353                      .dwpsn  file "D:/GIANT/GAINT_TI_instaspin/motorware/motorware_1_01_00_18/sw/modules/ctrl/src/32b/ctrl
    2354 000001de 8A68          MOVL      XAR4,*-SP[40]         ; [CPU_ALU] |1663| 
TMS320C2000 Assembler PC v18.12.4 Tue Feb 21 14:51:41 2023

Copyright (c) 1996-2018 Texas Instruments Incorporated
C:\Users\User\AppData\Local\Temp\{37DBDC18-8316-4B16-94B2-B516506DF0E2} PAGE   45

    2355 000001df D09C          MOVB      XAR0,#156             ; [CPU_ALU] |1663| 
    2356 000001e0 92F4          MOV       AL,*+XAR4[6]          ; [CPU_ALU] |1663| 
    2357 000001e1 9691          MOV       *+XAR1[AR0],AL        ; [CPU_ALU] |1663| 
    2358                      .dwpsn  file "D:/GIANT/GAINT_TI_instaspin/motorware/motorware_1_01_00_18/sw/modules/ctrl/src/32b/ctrl
    2359 000001e2 D09D          MOVB      XAR0,#157             ; [CPU_ALU] |1621| 
    2360 000001e3 92FC          MOV       AL,*+XAR4[7]          ; [CPU_ALU] |1621| 
    2361 000001e4 9691          MOV       *+XAR1[AR0],AL        ; [CPU_ALU] |1621| 
    2362                      .dwpsn  file "D:/GIANT/GAINT_TI_instaspin/motorware/motorware_1_01_00_18/sw/modules/ctrl/src/32b/ctrl
    2363 000001e5 C568          MOVL      XAR7,*-SP[40]         ; [CPU_ALU] |1635| 
    2364 000001e6 D09E          MOVB      XAR0,#158             ; [CPU_ALU] |1635| 
    2365 000001e7 DF09          ADDB      XAR7,#9               ; [CPU_ALU] |1635| 
    2366 000001e8 92C7          MOV       AL,*+XAR7[0]          ; [CPU_ALU] |1635| 
    2367 000001e9 9691          MOV       *+XAR1[AR0],AL        ; [CPU_ALU] |1635| 
    2368                      .dwpsn  file "D:/GIANT/GAINT_TI_instaspin/motorware/motorware_1_01_00_18/sw/modules/ctrl/src/32b/ctrl
    2369 000001ea C568          MOVL      XAR7,*-SP[40]         ; [CPU_ALU] |1649| 
    2370 000001eb D09F          MOVB      XAR0,#159             ; [CPU_ALU] |1649| 
    2371 000001ec DF0A          ADDB      XAR7,#10              ; [CPU_ALU] |1649| 
    2372 000001ed 92C7          MOV       AL,*+XAR7[0]          ; [CPU_ALU] |1649| 
    2373 000001ee 9691          MOV       *+XAR1[AR0],AL        ; [CPU_ALU] |1649| 
    2374                      .dwpsn  file "D:/GIANT/GAINT_TI_instaspin/motorware/motorware_1_01_00_18/sw/modules/ctrl/src/32b/ctrl
    2375 000001ef D09E          MOVB      XAR0,#158             ; [CPU_ALU] |1168| 
    2376 000001f0 0694          MOVL      ACC,*+XAR4[AR0]       ; [CPU_ALU] |1168| 
    2377 000001f1 D0A0          MOVB      XAR0,#160             ; [CPU_ALU] |1168| 
    2378 000001f2 1E91          MOVL      *+XAR1[AR0],ACC       ; [CPU_ALU] |1168| 
    2379                      .dwpsn  file "D:/GIANT/GAINT_TI_instaspin/motorware/motorware_1_01_00_18/sw/modules/ctrl/src/32b/ctrl
    2380 000001f3 D0A4          MOVB      XAR0,#164             ; [CPU_ALU] |1793| 
    2381 000001f4 0694          MOVL      ACC,*+XAR4[AR0]       ; [CPU_ALU] |1793| 
    2382 000001f5 D0A2          MOVB      XAR0,#162             ; [CPU_ALU] |1793| 
    2383 000001f6 1E91          MOVL      *+XAR1[AR0],ACC       ; [CPU_ALU] |1793| 
    2384                      .dwpsn  file "D:/GIANT/GAINT_TI_instaspin/motorware/motorware_1_01_00_18/sw/modules/ctrl/src/32b/ctrl
    2385 000001f7 D0A4          MOVB      XAR0,#164             ; [CPU_ALU] |1806| 
    2386 000001f8 0694          MOVL      ACC,*+XAR4[AR0]       ; [CPU_ALU] |1806| 
    2387              $C$DW$212       .dwtag  DW_TAG_TI_branch
    2388                      .dwattr $C$DW$212, DW_AT_low_pc(0x00)
    2389                      .dwattr $C$DW$212, DW_AT_name("UL$$TOFS")
    2390                      .dwattr $C$DW$212, DW_AT_TI_call
    2391              
    2392 000001f9 7640!         LCR       #UL$$TOFS             ; [CPU_ALU] |1806| 
         000001fa 0000 
    2393                      ; call occurs [#UL$$TOFS] ; [] |1806| 
    2394 000001fb 1E42          MOVL      *-SP[2],ACC           ; [CPU_ALU] |1806| 
    2395 000001fc FF2F          MOV       ACC,#32512 << 15      ; [CPU_ALU] |1806| 
         000001fd 7F00 
    2396              $C$DW$213       .dwtag  DW_TAG_TI_branch
    2397                      .dwattr $C$DW$213, DW_AT_low_pc(0x00)
    2398                      .dwattr $C$DW$213, DW_AT_name("FS$$DIV")
    2399                      .dwattr $C$DW$213, DW_AT_TI_call
    2400              
    2401 000001fe 7640!         LCR       #FS$$DIV              ; [CPU_ALU] |1806| 
         000001ff 0000 
    2402                      ; call occurs [#FS$$DIV] ; [] |1806| 
    2403 00000200 5CAD          MOVZ      AR4,SP                ; [CPU_ALU] |1806| 
    2404 00000201 DCA4          SUBB      XAR4,#36              ; [CPU_ARAU] |1806| 
    2405 00000202 88A4          MOVZ      AR6,AR4               ; [CPU_ALU] |1806| 
    2406              $C$DW$214       .dwtag  DW_TAG_TI_branch
TMS320C2000 Assembler PC v18.12.4 Tue Feb 21 14:51:41 2023

Copyright (c) 1996-2018 Texas Instruments Incorporated
C:\Users\User\AppData\Local\Temp\{37DBDC18-8316-4B16-94B2-B516506DF0E2} PAGE   46

    2407                      .dwattr $C$DW$214, DW_AT_low_pc(0x00)
    2408                      .dwattr $C$DW$214, DW_AT_name("FS$$TOFD")
    2409                      .dwattr $C$DW$214, DW_AT_TI_call
    2410              
    2411 00000203 7640!         LCR       #FS$$TOFD             ; [CPU_ALU] |1806| 
         00000204 0000 
    2412                      ; call occurs [#FS$$TOFD] ; [] |1806| 
    2413 00000205 5DAD          MOVZ      AR5,SP                ; [CPU_ALU] |1806| 
    2414 00000206 5CAD          MOVZ      AR4,SP                ; [CPU_ALU] |1806| 
    2415 00000207 DDA0          SUBB      XAR5,#32              ; [CPU_ARAU] |1806| 
    2416 00000208 DCA4          SUBB      XAR4,#36              ; [CPU_ARAU] |1806| 
    2417 00000209 88A5          MOVZ      AR6,AR5               ; [CPU_ALU] |1806| 
    2418 0000020a 5CA4          MOVZ      AR4,AR4               ; [CPU_ALU] |1806| 
    2419 0000020b 8F40+         MOVL      XAR5,#$C$FL1          ; [CPU_ARAU] |1806| 
         0000020c 0000 
    2420              $C$DW$215       .dwtag  DW_TAG_TI_branch
    2421                      .dwattr $C$DW$215, DW_AT_low_pc(0x00)
    2422                      .dwattr $C$DW$215, DW_AT_name("FD$$MPY")
    2423                      .dwattr $C$DW$215, DW_AT_TI_call
    2424              
    2425 0000020d 7640!         LCR       #FD$$MPY              ; [CPU_ALU] |1806| 
         0000020e 0000 
    2426                      ; call occurs [#FD$$MPY] ; [] |1806| 
    2427 0000020f 5CAD          MOVZ      AR4,SP                ; [CPU_ALU] |1806| 
    2428 00000210 DCA0          SUBB      XAR4,#32              ; [CPU_ARAU] |1806| 
    2429 00000211 5CA4          MOVZ      AR4,AR4               ; [CPU_ALU] |1806| 
    2430              $C$DW$216       .dwtag  DW_TAG_TI_branch
    2431                      .dwattr $C$DW$216, DW_AT_low_pc(0x00)
    2432                      .dwattr $C$DW$216, DW_AT_name("FD$$TOL")
    2433                      .dwattr $C$DW$216, DW_AT_TI_call
    2434              
    2435 00000212 7640!         LCR       #FD$$TOL              ; [CPU_ALU] |1806| 
         00000213 0000 
    2436                      ; call occurs [#FD$$TOL] ; [] |1806| 
    2437 00000214 D0A4          MOVB      XAR0,#164             ; [CPU_ALU] |1806| 
    2438 00000215 1E91          MOVL      *+XAR1[AR0],ACC       ; [CPU_ALU] |1806| 
    2439                      .dwpsn  file "D:/GIANT/GAINT_TI_instaspin/motorware/motorware_1_01_00_18/sw/modules/ctrl/src/32b/ctrl
    2440 00000216 8A68          MOVL      XAR4,*-SP[40]         ; [CPU_ALU] |1181| 
    2441 00000217 D0A6          MOVB      XAR0,#166             ; [CPU_ALU] |1181| 
    2442 00000218 0694          MOVL      ACC,*+XAR4[AR0]       ; [CPU_ALU] |1181| 
    2443 00000219 D0A6          MOVB      XAR0,#166             ; [CPU_ALU] |1181| 
    2444 0000021a 1E91          MOVL      *+XAR1[AR0],ACC       ; [CPU_ALU] |1181| 
    2445                      .dwpsn  file "D:/GIANT/GAINT_TI_instaspin/motorware/motorware_1_01_00_18/sw/modules/ctrl/src/32b/ctrl
    2446 0000021b D030          MOVB      XAR0,#48              ; [CPU_ALU] |1547| 
    2447 0000021c 0694          MOVL      ACC,*+XAR4[AR0]       ; [CPU_ALU] |1547| 
    2448 0000021d 5CAD          MOVZ      AR4,SP                ; [CPU_ALU] |1547| 
    2449 0000021e DCA4          SUBB      XAR4,#36              ; [CPU_ARAU] |1547| 
    2450 0000021f 88A4          MOVZ      AR6,AR4               ; [CPU_ALU] |1547| 
    2451              $C$DW$217       .dwtag  DW_TAG_TI_branch
    2452                      .dwattr $C$DW$217, DW_AT_low_pc(0x00)
    2453                      .dwattr $C$DW$217, DW_AT_name("FS$$TOFD")
    2454                      .dwattr $C$DW$217, DW_AT_TI_call
    2455              
    2456 00000220 7640!         LCR       #FS$$TOFD             ; [CPU_ALU] |1547| 
         00000221 0000 
TMS320C2000 Assembler PC v18.12.4 Tue Feb 21 14:51:41 2023

Copyright (c) 1996-2018 Texas Instruments Incorporated
C:\Users\User\AppData\Local\Temp\{37DBDC18-8316-4B16-94B2-B516506DF0E2} PAGE   47

    2457                      ; call occurs [#FS$$TOFD] ; [] |1547| 
    2458 00000222 5DAD          MOVZ      AR5,SP                ; [CPU_ALU] |1547| 
    2459 00000223 5CAD          MOVZ      AR4,SP                ; [CPU_ALU] |1547| 
    2460 00000224 DDA0          SUBB      XAR5,#32              ; [CPU_ARAU] |1547| 
    2461 00000225 DCA4          SUBB      XAR4,#36              ; [CPU_ARAU] |1547| 
    2462 00000226 88A5          MOVZ      AR6,AR5               ; [CPU_ALU] |1547| 
    2463 00000227 5CA4          MOVZ      AR4,AR4               ; [CPU_ALU] |1547| 
    2464 00000228 8F40+         MOVL      XAR5,#$C$FL1          ; [CPU_ARAU] |1547| 
         00000229 0000 
    2465              $C$DW$218       .dwtag  DW_TAG_TI_branch
    2466                      .dwattr $C$DW$218, DW_AT_low_pc(0x00)
    2467                      .dwattr $C$DW$218, DW_AT_name("FD$$MPY")
    2468                      .dwattr $C$DW$218, DW_AT_TI_call
    2469              
    2470 0000022a 7640!         LCR       #FD$$MPY              ; [CPU_ALU] |1547| 
         0000022b 0000 
    2471                      ; call occurs [#FD$$MPY] ; [] |1547| 
    2472 0000022c 5CAD          MOVZ      AR4,SP                ; [CPU_ALU] |1547| 
    2473 0000022d DCA0          SUBB      XAR4,#32              ; [CPU_ARAU] |1547| 
    2474 0000022e 5CA4          MOVZ      AR4,AR4               ; [CPU_ALU] |1547| 
    2475              $C$DW$219       .dwtag  DW_TAG_TI_branch
    2476                      .dwattr $C$DW$219, DW_AT_low_pc(0x00)
    2477                      .dwattr $C$DW$219, DW_AT_name("FD$$TOL")
    2478                      .dwattr $C$DW$219, DW_AT_TI_call
    2479              
    2480 0000022f 7640!         LCR       #FD$$TOL              ; [CPU_ALU] |1547| 
         00000230 0000 
    2481                      ; call occurs [#FD$$TOL] ; [] |1547| 
    2482 00000231 D0A8          MOVB      XAR0,#168             ; [CPU_ALU] |1547| 
    2483 00000232 1E91          MOVL      *+XAR1[AR0],ACC       ; [CPU_ALU] |1547| 
    2484                      .dwpsn  file "D:/GIANT/GAINT_TI_instaspin/motorware/motorware_1_01_00_18/sw/modules/ctrl/src/32b/ctrl
    2485 00000233 D0AA          MOVB      XAR0,#170             ; [CPU_ALU] |1328| 
    2486 00000234 0648          MOVL      ACC,*-SP[8]           ; [CPU_ALU] |1328| 
    2487 00000235 1E91          MOVL      *+XAR1[AR0],ACC       ; [CPU_ALU] |1328| 
    2488                      .dwpsn  file "D:/GIANT/GAINT_TI_instaspin/motorware/motorware_1_01_00_18/sw/modules/ctrl/src/32b/ctrl
    2489 00000236 D0AC          MOVB      XAR0,#172             ; [CPU_ALU] |1329| 
    2490 00000237 0646          MOVL      ACC,*-SP[6]           ; [CPU_ALU] |1329| 
    2491 00000238 1E91          MOVL      *+XAR1[AR0],ACC       ; [CPU_ALU] |1329| 
    2492                      .dwpsn  file "D:/GIANT/GAINT_TI_instaspin/motorware/motorware_1_01_00_18/sw/modules/ctrl/src/32b/ctrl
    2493 00000239 D0B2          MOVB      XAR0,#178             ; [CPU_ALU] |1361| 
    2494 0000023a 064C          MOVL      ACC,*-SP[12]          ; [CPU_ALU] |1361| 
    2495 0000023b 1E91          MOVL      *+XAR1[AR0],ACC       ; [CPU_ALU] |1361| 
    2496                      .dwpsn  file "D:/GIANT/GAINT_TI_instaspin/motorware/motorware_1_01_00_18/sw/modules/ctrl/src/32b/ctrl
    2497 0000023c D0B4          MOVB      XAR0,#180             ; [CPU_ALU] |1362| 
    2498 0000023d 064A          MOVL      ACC,*-SP[10]          ; [CPU_ALU] |1362| 
    2499 0000023e 1E91          MOVL      *+XAR1[AR0],ACC       ; [CPU_ALU] |1362| 
    2500                      .dwpsn  file "D:/GIANT/GAINT_TI_instaspin/motorware/motorware_1_01_00_18/sw/modules/ctrl/src/32b/ctrl
    2501 0000023f D0E2          MOVB      XAR0,#226             ; [CPU_ALU] |1389| 
    2502 00000240 0650          MOVL      ACC,*-SP[16]          ; [CPU_ALU] |1389| 
    2503 00000241 1E91          MOVL      *+XAR1[AR0],ACC       ; [CPU_ALU] |1389| 
    2504                      .dwpsn  file "D:/GIANT/GAINT_TI_instaspin/motorware/motorware_1_01_00_18/sw/modules/ctrl/src/32b/ctrl
    2505 00000242 D0E4          MOVB      XAR0,#228             ; [CPU_ALU] |1390| 
    2506 00000243 064E          MOVL      ACC,*-SP[14]          ; [CPU_ALU] |1390| 
    2507 00000244 1E91          MOVL      *+XAR1[AR0],ACC       ; [CPU_ALU] |1390| 
    2508 00000245 8A68          MOVL      XAR4,*-SP[40]         ; [CPU_ALU] |1390| 
TMS320C2000 Assembler PC v18.12.4 Tue Feb 21 14:51:41 2023

Copyright (c) 1996-2018 Texas Instruments Incorporated
C:\Users\User\AppData\Local\Temp\{37DBDC18-8316-4B16-94B2-B516506DF0E2} PAGE   48

    2509                      .dwpsn  file "D:/GIANT/GAINT_TI_instaspin/motorware/motorware_1_01_00_18/sw/modules/ctrl/src/32b/ctrl
    2510 00000246 D04A          MOVB      XAR0,#74              ; [CPU_ALU] |1403| 
    2511 00000247 06C4          MOVL      ACC,*+XAR4[0]         ; [CPU_ALU] |1403| 
    2512 00000248 1E42          MOVL      *-SP[2],ACC           ; [CPU_ALU] |1403| 
    2513 00000249 0694          MOVL      ACC,*+XAR4[AR0]       ; [CPU_ALU] |1403| 
    2514              $C$DW$220       .dwtag  DW_TAG_TI_branch
    2515                      .dwattr $C$DW$220, DW_AT_low_pc(0x00)
    2516                      .dwattr $C$DW$220, DW_AT_name("FS$$DIV")
    2517                      .dwattr $C$DW$220, DW_AT_TI_call
    2518              
    2519 0000024a 7640!         LCR       #FS$$DIV              ; [CPU_ALU] |1403| 
         0000024b 0000 
    2520                      ; call occurs [#FS$$DIV] ; [] |1403| 
    2521 0000024c 5CAD          MOVZ      AR4,SP                ; [CPU_ALU] |1403| 
    2522 0000024d DCA4          SUBB      XAR4,#36              ; [CPU_ARAU] |1403| 
    2523 0000024e 88A4          MOVZ      AR6,AR4               ; [CPU_ALU] |1403| 
    2524              $C$DW$221       .dwtag  DW_TAG_TI_branch
    2525                      .dwattr $C$DW$221, DW_AT_low_pc(0x00)
    2526                      .dwattr $C$DW$221, DW_AT_name("FS$$TOFD")
    2527                      .dwattr $C$DW$221, DW_AT_TI_call
    2528              
    2529 0000024f 7640!         LCR       #FS$$TOFD             ; [CPU_ALU] |1403| 
         00000250 0000 
    2530                      ; call occurs [#FS$$TOFD] ; [] |1403| 
    2531 00000251 5DAD          MOVZ      AR5,SP                ; [CPU_ALU] |1403| 
    2532 00000252 5CAD          MOVZ      AR4,SP                ; [CPU_ALU] |1403| 
    2533 00000253 DDA0          SUBB      XAR5,#32              ; [CPU_ARAU] |1403| 
    2534 00000254 DCA4          SUBB      XAR4,#36              ; [CPU_ARAU] |1403| 
    2535 00000255 88A5          MOVZ      AR6,AR5               ; [CPU_ALU] |1403| 
    2536 00000256 5CA4          MOVZ      AR4,AR4               ; [CPU_ALU] |1403| 
    2537 00000257 8F40+         MOVL      XAR5,#$C$FL1          ; [CPU_ARAU] |1403| 
         00000258 0000 
    2538              $C$DW$222       .dwtag  DW_TAG_TI_branch
    2539                      .dwattr $C$DW$222, DW_AT_low_pc(0x00)
    2540                      .dwattr $C$DW$222, DW_AT_name("FD$$MPY")
    2541                      .dwattr $C$DW$222, DW_AT_TI_call
    2542              
    2543 00000259 7640!         LCR       #FD$$MPY              ; [CPU_ALU] |1403| 
         0000025a 0000 
    2544                      ; call occurs [#FD$$MPY] ; [] |1403| 
    2545 0000025b 5CAD          MOVZ      AR4,SP                ; [CPU_ALU] |1403| 
    2546 0000025c DCA0          SUBB      XAR4,#32              ; [CPU_ARAU] |1403| 
    2547 0000025d 5CA4          MOVZ      AR4,AR4               ; [CPU_ALU] |1403| 
    2548              $C$DW$223       .dwtag  DW_TAG_TI_branch
    2549                      .dwattr $C$DW$223, DW_AT_low_pc(0x00)
    2550                      .dwattr $C$DW$223, DW_AT_name("FD$$TOL")
    2551                      .dwattr $C$DW$223, DW_AT_TI_call
    2552              
    2553 0000025e 7640!         LCR       #FD$$TOL              ; [CPU_ALU] |1403| 
         0000025f 0000 
    2554                      ; call occurs [#FD$$TOL] ; [] |1403| 
    2555 00000260 D0E6          MOVB      XAR0,#230             ; [CPU_ALU] |1403| 
    2556 00000261 1E91          MOVL      *+XAR1[AR0],ACC       ; [CPU_ALU] |1403| 
    2557                      .dwpsn  file "D:/GIANT/GAINT_TI_instaspin/motorware/motorware_1_01_00_18/sw/modules/ctrl/src/32b/ctrl
    2558 00000262 D0B6          MOVB      XAR0,#182             ; [CPU_ALU] |1887| 
TMS320C2000 Assembler PC v18.12.4 Tue Feb 21 14:51:41 2023

Copyright (c) 1996-2018 Texas Instruments Incorporated
C:\Users\User\AppData\Local\Temp\{37DBDC18-8316-4B16-94B2-B516506DF0E2} PAGE   49

    2559 00000263 0654          MOVL      ACC,*-SP[20]          ; [CPU_ALU] |1887| 
    2560 00000264 1E91          MOVL      *+XAR1[AR0],ACC       ; [CPU_ALU] |1887| 
    2561                      .dwpsn  file "D:/GIANT/GAINT_TI_instaspin/motorware/motorware_1_01_00_18/sw/modules/ctrl/src/32b/ctrl
    2562 00000265 D0B8          MOVB      XAR0,#184             ; [CPU_ALU] |1888| 
    2563 00000266 0652          MOVL      ACC,*-SP[18]          ; [CPU_ALU] |1888| 
    2564 00000267 1E91          MOVL      *+XAR1[AR0],ACC       ; [CPU_ALU] |1888| 
    2565                      .dwpsn  file "D:/GIANT/GAINT_TI_instaspin/motorware/motorware_1_01_00_18/sw/modules/ctrl/src/32b/ctrl
    2566 00000268 D0BC          MOVB      XAR0,#188             ; [CPU_ALU] |1901| 
    2567 00000269 0658          MOVL      ACC,*-SP[24]          ; [CPU_ALU] |1901| 
    2568 0000026a 1E91          MOVL      *+XAR1[AR0],ACC       ; [CPU_ALU] |1901| 
    2569                      .dwpsn  file "D:/GIANT/GAINT_TI_instaspin/motorware/motorware_1_01_00_18/sw/modules/ctrl/src/32b/ctrl
    2570 0000026b D0BE          MOVB      XAR0,#190             ; [CPU_ALU] |1902| 
    2571 0000026c 0656          MOVL      ACC,*-SP[22]          ; [CPU_ALU] |1902| 
    2572 0000026d 1E91          MOVL      *+XAR1[AR0],ACC       ; [CPU_ALU] |1902| 
    2573                      .dwpsn  file "D:/GIANT/GAINT_TI_instaspin/motorware/motorware_1_01_00_18/sw/modules/ctrl/src/32b/ctrl
    2574 0000026e D0C0          MOVB      XAR0,#192             ; [CPU_ALU] |1929| 
    2575 0000026f 065C          MOVL      ACC,*-SP[28]          ; [CPU_ALU] |1929| 
    2576 00000270 1E91          MOVL      *+XAR1[AR0],ACC       ; [CPU_ALU] |1929| 
    2577                      .dwpsn  file "D:/GIANT/GAINT_TI_instaspin/motorware/motorware_1_01_00_18/sw/modules/ctrl/src/32b/ctrl
    2578 00000271 D0C2          MOVB      XAR0,#194             ; [CPU_ALU] |1930| 
    2579 00000272 065A          MOVL      ACC,*-SP[26]          ; [CPU_ALU] |1930| 
    2580 00000273 1E91          MOVL      *+XAR1[AR0],ACC       ; [CPU_ALU] |1930| 
    2581                      .dwpsn  file "D:/GIANT/GAINT_TI_instaspin/motorware/motorware_1_01_00_18/sw/modules/ctrl/src/32b/ctrl
    2582 00000274 D0BA          MOVB      XAR0,#186             ; [CPU_ALU] |1728| 
    2583 00000275 0200          MOVB      ACC,#0                ; [CPU_ALU] |1728| 
    2584 00000276 1E91          MOVL      *+XAR1[AR0],ACC       ; [CPU_ALU] |1728| 
    2585                      .dwpsn  file "D:/GIANT/GAINT_TI_instaspin/motorware/motorware_1_01_00_18/sw/modules/ctrl/src/32b/ctrl
    2586 00000277 D0C4          MOVB      XAR0,#196             ; [CPU_ALU] |1676| 
    2587 00000278 FF20          MOV       ACC,#0                ; [CPU_ALU] |1676| 
         00000279 0000 
    2588 0000027a 1E91          MOVL      *+XAR1[AR0],ACC       ; [CPU_ALU] |1676| 
    2589                      .dwpsn  file "D:/GIANT/GAINT_TI_instaspin/motorware/motorware_1_01_00_18/sw/modules/ctrl/src/32b/ctrl
    2590 0000027b D0C6          MOVB      XAR0,#198             ; [CPU_ALU] |1528| 
    2591 0000027c 1E91          MOVL      *+XAR1[AR0],ACC       ; [CPU_ALU] |1528| 
    2592                      .dwpsn  file "D:/GIANT/GAINT_TI_instaspin/motorware/motorware_1_01_00_18/sw/modules/ctrl/src/32b/ctrl
    2593 0000027d D0C8          MOVB      XAR0,#200             ; [CPU_ALU] |1689| 
    2594 0000027e 1E91          MOVL      *+XAR1[AR0],ACC       ; [CPU_ALU] |1689| 
    2595                      .dwpsn  file "D:/GIANT/GAINT_TI_instaspin/motorware/motorware_1_01_00_18/sw/modules/ctrl/src/32b/ctrl
    2596 0000027f D0EC          MOVB      XAR0,#236             ; [CPU_ALU] |1076| 
    2597                      .dwpsn  file "D:/GIANT/GAINT_TI_instaspin/motorware/motorware_1_01_00_18/sw/modules/ctrl/src/32b/ctrl
    2598 00000280 0200          MOVB      ACC,#0                ; [CPU_ALU] |1112| 
    2599                      .dwpsn  file "D:/GIANT/GAINT_TI_instaspin/motorware/motorware_1_01_00_18/sw/modules/ctrl/src/32b/ctrl
    2600 00000281 2B91          MOV       *+XAR1[AR0],#0        ; [CPU_ALU] |1076| 
    2601                      .dwpsn  file "D:/GIANT/GAINT_TI_instaspin/motorware/motorware_1_01_00_18/sw/modules/ctrl/src/32b/ctrl
    2602 00000282 D0ED          MOVB      XAR0,#237             ; [CPU_ALU] |1088| 
    2603 00000283 56BF          MOVB      *+XAR1[AR0],#1,UNC    ; [CPU_ALU] |1088| 
         00000284 0191 
    2604                      .dwpsn  file "D:/GIANT/GAINT_TI_instaspin/motorware/motorware_1_01_00_18/sw/modules/ctrl/src/32b/ctrl
    2605 00000285 D0EE          MOVB      XAR0,#238             ; [CPU_ALU] |1100| 
    2606 00000286 2B91          MOV       *+XAR1[AR0],#0        ; [CPU_ALU] |1100| 
    2607                      .dwpsn  file "D:/GIANT/GAINT_TI_instaspin/motorware/motorware_1_01_00_18/sw/modules/ctrl/src/32b/ctrl
    2608 00000287 D09A          MOVB      XAR0,#154             ; [CPU_ALU] |1112| 
    2609 00000288 1E91          MOVL      *+XAR1[AR0],ACC       ; [CPU_ALU] |1112| 
    2610                      .dwpsn  file "D:/GIANT/GAINT_TI_instaspin/motorware/motorware_1_01_00_18/sw/modules/ctrl/src/32b/ctrl
    2611 00000289 D0EF          MOVB      XAR0,#239             ; [CPU_ALU] |1124| 
TMS320C2000 Assembler PC v18.12.4 Tue Feb 21 14:51:41 2023

Copyright (c) 1996-2018 Texas Instruments Incorporated
C:\Users\User\AppData\Local\Temp\{37DBDC18-8316-4B16-94B2-B516506DF0E2} PAGE   50

    2612 0000028a 2B91          MOV       *+XAR1[AR0],#0        ; [CPU_ALU] |1124| 
    2613 0000028b 8368          MOVL      XAR5,*-SP[40]         ; [CPU_ALU] |1124| 
    2614                      .dwpsn  file "D:/GIANT/GAINT_TI_instaspin/motorware/motorware_1_01_00_18/sw/modules/ctrl/src/32b/ctrl
    2615 0000028c 8AA1          MOVL      XAR4,XAR1             ; [CPU_ALU] |358| 
    2616 0000028d DD54          ADDB      XAR5,#84              ; [CPU_ALU] |358| 
    2617              $C$DW$224       .dwtag  DW_TAG_TI_branch
    2618                      .dwattr $C$DW$224, DW_AT_low_pc(0x00)
    2619                      .dwattr $C$DW$224, DW_AT_name("_CTRL_setWaitTimes")
    2620                      .dwattr $C$DW$224, DW_AT_TI_call
    2621              
    2622 0000028e 7640'         LCR       #_CTRL_setWaitTimes   ; [CPU_ALU] |358| 
         0000028f 0149 
    2623                      ; call occurs [#_CTRL_setWaitTimes] ; [] |358| 
    2624                      .dwpsn  file "D:/GIANT/GAINT_TI_instaspin/motorware/motorware_1_01_00_18/sw/modules/ctrl/src/32b/ctrl
    2625 00000290 D0F2          MOVB      XAR0,#242             ; [CPU_ALU] |1263| 
    2626 00000291 2B91          MOV       *+XAR1[AR0],#0        ; [CPU_ALU] |1263| 
    2627                      .dwpsn  file "D:/GIANT/GAINT_TI_instaspin/motorware/motorware_1_01_00_18/sw/modules/ctrl/src/32b/ctrl
    2628 00000292 D0F0          MOVB      XAR0,#240             ; [CPU_ALU] |1219| 
    2629 00000293 2B91          MOV       *+XAR1[AR0],#0        ; [CPU_ALU] |1219| 
    2630                      .dwpsn  file "D:/GIANT/GAINT_TI_instaspin/motorware/motorware_1_01_00_18/sw/modules/ctrl/src/32b/ctrl
    2631 00000294 D0F3          MOVB      XAR0,#243             ; [CPU_ALU] |1276| 
    2632 00000295 56BF          MOVB      *+XAR1[AR0],#1,UNC    ; [CPU_ALU] |1276| 
         00000296 0191 
    2633                      .dwpsn  file "D:/GIANT/GAINT_TI_instaspin/motorware/motorware_1_01_00_18/sw/modules/ctrl/src/32b/ctrl
    2634 00000297 D0F4          MOVB      XAR0,#244             ; [CPU_ALU] |1289| 
    2635 00000298 56BF          MOVB      *+XAR1[AR0],#1,UNC    ; [CPU_ALU] |1289| 
         00000299 0191 
    2636                      .dwpsn  file "D:/GIANT/GAINT_TI_instaspin/motorware/motorware_1_01_00_18/sw/modules/ctrl/src/32b/ctrl
    2637 0000029a D0F5          MOVB      XAR0,#245             ; [CPU_ALU] |1305| 
    2638 0000029b 2B91          MOV       *+XAR1[AR0],#0        ; [CPU_ALU] |1305| 
    2639                      .dwpsn  file "D:/GIANT/GAINT_TI_instaspin/motorware/motorware_1_01_00_18/sw/modules/ctrl/src/32b/ctrl
    2640 0000029c D0F1          MOVB      XAR0,#241             ; [CPU_ALU] |1247| 
    2641 0000029d 56BF          MOVB      *+XAR1[AR0],#1,UNC    ; [CPU_ALU] |1247| 
         0000029e 0191 
    2642                      .dwpsn  file "D:/GIANT/GAINT_TI_instaspin/motorware/motorware_1_01_00_18/sw/modules/ctrl/src/32b/ctrl
    2643 0000029f 8D00          MOVL      XAR0,#262             ; [CPU_ALU] |1232| 
         000002a0 0106 
    2644 000002a1 56BF          MOVB      *+XAR1[AR0],#1,UNC    ; [CPU_ALU] |1232| 
         000002a2 0191 
    2645                      .dwpsn  file "D:/GIANT/GAINT_TI_instaspin/motorware/motorware_1_01_00_18/sw/modules/ctrl/src/32b/ctrl
    2646 000002a3 2BF1          MOV       *+XAR1[6],#0          ; [CPU_ALU] |1194| 
    2647                      .dwpsn  file "D:/GIANT/GAINT_TI_instaspin/motorware/motorware_1_01_00_18/sw/modules/ctrl/src/32b/ctrl
    2648 000002a4 92E1          MOV       AL,*+XAR1[4]          ; [CPU_ALU] |1779| 
    2649 000002a5 96E9          MOV       *+XAR1[5],AL          ; [CPU_ALU] |1779| 
    2650                      .dwpsn  file "D:/GIANT/GAINT_TI_instaspin/motorware/motorware_1_01_00_18/sw/modules/ctrl/src/32b/ctrl
    2651 000002a6 56BF          MOVB      *+XAR1[4],#1,UNC      ; [CPU_ALU] |1780| 
         000002a7 01E1 
    2652                      .dwpsn  file "D:/GIANT/GAINT_TI_instaspin/motorware/motorware_1_01_00_18/sw/modules/ctrl/src/32b/ctrl
    2653 000002a8 8A68          MOVL      XAR4,*-SP[40]         ; [CPU_ALU] |381| 
    2654 000002a9 D00B          MOVB      XAR0,#11              ; [CPU_ALU] |381| 
    2655 000002aa 9294          MOV       AL,*+XAR4[AR0]        ; [CPU_ALU] |381| 
    2656 000002ab 8AA1          MOVL      XAR4,XAR1             ; [CPU_ALU] |381| 
    2657              $C$DW$225       .dwtag  DW_TAG_TI_branch
    2658                      .dwattr $C$DW$225, DW_AT_low_pc(0x00)
    2659                      .dwattr $C$DW$225, DW_AT_name("_CTRL_setupClarke_I")
TMS320C2000 Assembler PC v18.12.4 Tue Feb 21 14:51:41 2023

Copyright (c) 1996-2018 Texas Instruments Incorporated
C:\Users\User\AppData\Local\Temp\{37DBDC18-8316-4B16-94B2-B516506DF0E2} PAGE   51

    2660                      .dwattr $C$DW$225, DW_AT_TI_call
    2661              
    2662 000002ac 7640'         LCR       #_CTRL_setupClarke_I  ; [CPU_ALU] |381| 
         000002ad 0123 
    2663                      ; call occurs [#_CTRL_setupClarke_I] ; [] |381| 
    2664                      .dwpsn  file "D:/GIANT/GAINT_TI_instaspin/motorware/motorware_1_01_00_18/sw/modules/ctrl/src/32b/ctrl
    2665 000002ae 8A68          MOVL      XAR4,*-SP[40]         ; [CPU_ALU] |385| 
    2666 000002af D00C          MOVB      XAR0,#12              ; [CPU_ALU] |385| 
    2667 000002b0 9294          MOV       AL,*+XAR4[AR0]        ; [CPU_ALU] |385| 
    2668 000002b1 8AA1          MOVL      XAR4,XAR1             ; [CPU_ALU] |385| 
    2669              $C$DW$226       .dwtag  DW_TAG_TI_branch
    2670                      .dwattr $C$DW$226, DW_AT_low_pc(0x00)
    2671                      .dwattr $C$DW$226, DW_AT_name("_CTRL_setupClarke_V")
    2672                      .dwattr $C$DW$226, DW_AT_TI_call
    2673              
    2674 000002b2 7640'         LCR       #_CTRL_setupClarke_V  ; [CPU_ALU] |385| 
         000002b3 010D 
    2675                      ; call occurs [#_CTRL_setupClarke_V] ; [] |385| 
    2676                      .dwpsn  file "D:/GIANT/GAINT_TI_instaspin/motorware/motorware_1_01_00_18/sw/modules/ctrl/src/32b/ctrl
    2677 000002b4 28A9          MOV       AL,#4719              ; [CPU_ALU] |390| 
         000002b5 126F 
    2678 000002b6 8A68          MOVL      XAR4,*-SP[40]         ; [CPU_ALU] |390| 
    2679 000002b7 28A8          MOV       AH,#15235             ; [CPU_ALU] |390| 
         000002b8 3B83 
    2680 000002b9 D0A6          MOVB      XAR0,#166             ; [CPU_ALU] |390| 
    2681 000002ba 1E42          MOVL      *-SP[2],ACC           ; [CPU_ALU] |390| 
    2682 000002bb 0694          MOVL      ACC,*+XAR4[AR0]       ; [CPU_ALU] |390| 
    2683              $C$DW$227       .dwtag  DW_TAG_TI_branch
    2684                      .dwattr $C$DW$227, DW_AT_low_pc(0x00)
    2685                      .dwattr $C$DW$227, DW_AT_name("FS$$DIV")
    2686                      .dwattr $C$DW$227, DW_AT_TI_call
    2687              
    2688 000002bc 7640!         LCR       #FS$$DIV              ; [CPU_ALU] |390| 
         000002bd 0000 
    2689                      ; call occurs [#FS$$DIV] ; [] |390| 
    2690 000002be 5CAD          MOVZ      AR4,SP                ; [CPU_ALU] |390| 
    2691 000002bf DCA4          SUBB      XAR4,#36              ; [CPU_ARAU] |390| 
    2692 000002c0 88A4          MOVZ      AR6,AR4               ; [CPU_ALU] |390| 
    2693              $C$DW$228       .dwtag  DW_TAG_TI_branch
    2694                      .dwattr $C$DW$228, DW_AT_low_pc(0x00)
    2695                      .dwattr $C$DW$228, DW_AT_name("FS$$TOFD")
    2696                      .dwattr $C$DW$228, DW_AT_TI_call
    2697              
    2698 000002c1 7640!         LCR       #FS$$TOFD             ; [CPU_ALU] |390| 
         000002c2 0000 
    2699                      ; call occurs [#FS$$TOFD] ; [] |390| 
    2700 000002c3 5DAD          MOVZ      AR5,SP                ; [CPU_ALU] |390| 
    2701 000002c4 5CAD          MOVZ      AR4,SP                ; [CPU_ALU] |390| 
    2702 000002c5 DDA0          SUBB      XAR5,#32              ; [CPU_ARAU] |390| 
    2703 000002c6 DCA4          SUBB      XAR4,#36              ; [CPU_ARAU] |390| 
    2704 000002c7 88A5          MOVZ      AR6,AR5               ; [CPU_ALU] |390| 
    2705 000002c8 5CA4          MOVZ      AR4,AR4               ; [CPU_ALU] |390| 
    2706 000002c9 8F40+         MOVL      XAR5,#$C$FL1          ; [CPU_ARAU] |390| 
         000002ca 0000 
    2707              $C$DW$229       .dwtag  DW_TAG_TI_branch
TMS320C2000 Assembler PC v18.12.4 Tue Feb 21 14:51:41 2023

Copyright (c) 1996-2018 Texas Instruments Incorporated
C:\Users\User\AppData\Local\Temp\{37DBDC18-8316-4B16-94B2-B516506DF0E2} PAGE   52

    2708                      .dwattr $C$DW$229, DW_AT_low_pc(0x00)
    2709                      .dwattr $C$DW$229, DW_AT_name("FD$$MPY")
    2710                      .dwattr $C$DW$229, DW_AT_TI_call
    2711              
    2712 000002cb 7640!         LCR       #FD$$MPY              ; [CPU_ALU] |390| 
         000002cc 0000 
    2713                      ; call occurs [#FD$$MPY] ; [] |390| 
    2714 000002cd 5CAD          MOVZ      AR4,SP                ; [CPU_ALU] |390| 
    2715 000002ce DCA0          SUBB      XAR4,#32              ; [CPU_ARAU] |390| 
    2716 000002cf 5CA4          MOVZ      AR4,AR4               ; [CPU_ALU] |390| 
    2717              $C$DW$230       .dwtag  DW_TAG_TI_branch
    2718                      .dwattr $C$DW$230, DW_AT_low_pc(0x00)
    2719                      .dwattr $C$DW$230, DW_AT_name("FD$$TOL")
    2720                      .dwattr $C$DW$230, DW_AT_TI_call
    2721              
    2722 000002d0 7640!         LCR       #FD$$TOL              ; [CPU_ALU] |390| 
         000002d1 0000 
    2723                      ; call occurs [#FD$$TOL] ; [] |390| 
    2724                      .dwpsn  file "D:/GIANT/GAINT_TI_instaspin/motorware/motorware_1_01_00_18/sw/modules/pid/src/32b/pid.h
    2725 000002d2 D020          MOVB      XAR0,#32              ; [CPU_ALU] |398| 
    2726 000002d3 8A91          MOVL      XAR4,*+XAR1[AR0]      ; [CPU_ALU] |398| 
    2727                      .dwpsn  file "D:/GIANT/GAINT_TI_instaspin/motorware/motorware_1_01_00_18/sw/modules/pid/src/32b/pid.h
    2728 000002d4 8F59          MOVL      XAR5,#1677721         ; [CPU_ARAU] |401| 
         000002d5 9999 
    2729                      .dwpsn  file "D:/GIANT/GAINT_TI_instaspin/motorware/motorware_1_01_00_18/sw/modules/pid/src/32b/pid.h
    2730 000002d6 1EA6          MOVL      XAR6,ACC              ; [CPU_ALU] |398| 
    2731                      .dwpsn  file "D:/GIANT/GAINT_TI_instaspin/motorware/motorware_1_01_00_18/sw/modules/pid/src/32b/pid.h
    2732 000002d7 D020          MOVB      XAR0,#32              ; [CPU_ALU] |509| 
    2733                      .dwpsn  file "D:/GIANT/GAINT_TI_instaspin/motorware/motorware_1_01_00_18/sw/modules/pid/src/32b/pid.h
    2734 000002d8 A0C4          MOVL      *+XAR4[0],XAR5        ; [CPU_ALU] |401| 
    2735                      .dwpsn  file "D:/GIANT/GAINT_TI_instaspin/motorware/motorware_1_01_00_18/sw/modules/pid/src/32b/pid.h
    2736 000002d9 1ED4          MOVL      *+XAR4[2],ACC         ; [CPU_ALU] |402| 
    2737                      .dwpsn  file "D:/GIANT/GAINT_TI_instaspin/motorware/motorware_1_01_00_18/sw/modules/pid/src/32b/pid.h
    2738 000002da 0200          MOVB      ACC,#0                ; [CPU_ALU] |403| 
    2739 000002db 1EE4          MOVL      *+XAR4[4],ACC         ; [CPU_ALU] |403| 
    2740                      .dwpsn  file "D:/GIANT/GAINT_TI_instaspin/motorware/motorware_1_01_00_18/sw/modules/pid/src/32b/pid.h
    2741 000002dc 8A91          MOVL      XAR4,*+XAR1[AR0]      ; [CPU_ALU] |509| 
    2742                      .dwpsn  file "D:/GIANT/GAINT_TI_instaspin/motorware/motorware_1_01_00_18/sw/modules/pid/src/32b/pid.h
    2743 000002dd D020          MOVB      XAR0,#32              ; [CPU_ALU] |453| 
    2744                      .dwpsn  file "D:/GIANT/GAINT_TI_instaspin/motorware/motorware_1_01_00_18/sw/modules/pid/src/32b/pid.h
    2745 000002de 1EF4          MOVL      *+XAR4[6],ACC         ; [CPU_ALU] |509| 
    2746                      .dwpsn  file "D:/GIANT/GAINT_TI_instaspin/motorware/motorware_1_01_00_18/sw/modules/pid/src/32b/pid.h
    2747 000002df 28A9          MOV       AL,#52429             ; [CPU_ALU] |456| 
         000002e0 CCCD 
    2748                      .dwpsn  file "D:/GIANT/GAINT_TI_instaspin/motorware/motorware_1_01_00_18/sw/modules/pid/src/32b/pid.h
    2749 000002e1 8A91          MOVL      XAR4,*+XAR1[AR0]      ; [CPU_ALU] |453| 
    2750                      .dwpsn  file "D:/GIANT/GAINT_TI_instaspin/motorware/motorware_1_01_00_18/sw/modules/pid/src/32b/pid.h
    2751 000002e2 28A8          MOV       AH,#65292             ; [CPU_ALU] |456| 
         000002e3 FF0C 
    2752                      .dwpsn  file "D:/GIANT/GAINT_TI_instaspin/motorware/motorware_1_01_00_18/sw/modules/ctrl/src/32b/ctrl
    2753 000002e4 D501          MOVB      XAR5,#1               ; [CPU_ALU] |398| 
    2754                      .dwpsn  file "D:/GIANT/GAINT_TI_instaspin/motorware/motorware_1_01_00_18/sw/modules/pid/src/32b/pid.h
    2755 000002e5 D00C          MOVB      XAR0,#12              ; [CPU_ALU] |456| 
    2756 000002e6 1E94          MOVL      *+XAR4[AR0],ACC       ; [CPU_ALU] |456| 
    2757                      .dwpsn  file "D:/GIANT/GAINT_TI_instaspin/motorware/motorware_1_01_00_18/sw/modules/pid/src/32b/pid.h
TMS320C2000 Assembler PC v18.12.4 Tue Feb 21 14:51:41 2023

Copyright (c) 1996-2018 Texas Instruments Incorporated
C:\Users\User\AppData\Local\Temp\{37DBDC18-8316-4B16-94B2-B516506DF0E2} PAGE   53

    2758 000002e7 D00E          MOVB      XAR0,#14              ; [CPU_ALU] |457| 
    2759 000002e8 28A9          MOV       AL,#13107             ; [CPU_ALU] |457| 
         000002e9 3333 
    2760 000002ea 9BF3          MOV       AH,#243               ; [CPU_ALU] |457| 
    2761 000002eb 1E94          MOVL      *+XAR4[AR0],ACC       ; [CPU_ALU] |457| 
    2762                      .dwpsn  file "D:/GIANT/GAINT_TI_instaspin/motorware/motorware_1_01_00_18/sw/modules/ctrl/src/32b/ctrl
    2763 000002ec 0200          MOVB      ACC,#0                ; [CPU_ALU] |398| 
    2764 000002ed 8AA1          MOVL      XAR4,XAR1             ; [CPU_ALU] |398| 
    2765 000002ee C242          MOVL      *-SP[2],XAR6          ; [CPU_ALU] |398| 
    2766 000002ef 7699          MOVL      XAR6,#1677721         ; [CPU_ARAU] |398| 
         000002f0 9999 
    2767 000002f1 1E44          MOVL      *-SP[4],ACC           ; [CPU_ALU] |398| 
    2768 000002f2 06A6          MOVL      ACC,XAR6              ; [CPU_ALU] |398| 
    2769              $C$DW$231       .dwtag  DW_TAG_TI_branch
    2770                      .dwattr $C$DW$231, DW_AT_low_pc(0x00)
    2771                      .dwattr $C$DW$231, DW_AT_name("_CTRL_setGains")
    2772                      .dwattr $C$DW$231, DW_AT_TI_call
    2773              
    2774 000002f3 7640'         LCR       #_CTRL_setGains       ; [CPU_ALU] |398| 
         000002f4 0168 
    2775                      ; call occurs [#_CTRL_setGains] ; [] |398| 
    2776                      .dwpsn  file "D:/GIANT/GAINT_TI_instaspin/motorware/motorware_1_01_00_18/sw/modules/ctrl/src/32b/ctrl
    2777 000002f5 28A9          MOV       AL,#4719              ; [CPU_ALU] |403| 
         000002f6 126F 
    2778 000002f7 8A68          MOVL      XAR4,*-SP[40]         ; [CPU_ALU] |403| 
    2779 000002f8 28A8          MOV       AH,#15235             ; [CPU_ALU] |403| 
         000002f9 3B83 
    2780 000002fa D0A6          MOVB      XAR0,#166             ; [CPU_ALU] |403| 
    2781 000002fb 1E42          MOVL      *-SP[2],ACC           ; [CPU_ALU] |403| 
    2782 000002fc 0694          MOVL      ACC,*+XAR4[AR0]       ; [CPU_ALU] |403| 
    2783              $C$DW$232       .dwtag  DW_TAG_TI_branch
    2784                      .dwattr $C$DW$232, DW_AT_low_pc(0x00)
    2785                      .dwattr $C$DW$232, DW_AT_name("FS$$DIV")
    2786                      .dwattr $C$DW$232, DW_AT_TI_call
    2787              
    2788 000002fd 7640!         LCR       #FS$$DIV              ; [CPU_ALU] |403| 
         000002fe 0000 
    2789                      ; call occurs [#FS$$DIV] ; [] |403| 
    2790 000002ff 5CAD          MOVZ      AR4,SP                ; [CPU_ALU] |403| 
    2791 00000300 DCA4          SUBB      XAR4,#36              ; [CPU_ARAU] |403| 
    2792 00000301 88A4          MOVZ      AR6,AR4               ; [CPU_ALU] |403| 
    2793              $C$DW$233       .dwtag  DW_TAG_TI_branch
    2794                      .dwattr $C$DW$233, DW_AT_low_pc(0x00)
    2795                      .dwattr $C$DW$233, DW_AT_name("FS$$TOFD")
    2796                      .dwattr $C$DW$233, DW_AT_TI_call
    2797              
    2798 00000302 7640!         LCR       #FS$$TOFD             ; [CPU_ALU] |403| 
         00000303 0000 
    2799                      ; call occurs [#FS$$TOFD] ; [] |403| 
    2800 00000304 5DAD          MOVZ      AR5,SP                ; [CPU_ALU] |403| 
    2801 00000305 5CAD          MOVZ      AR4,SP                ; [CPU_ALU] |403| 
    2802 00000306 DDA0          SUBB      XAR5,#32              ; [CPU_ARAU] |403| 
    2803 00000307 DCA4          SUBB      XAR4,#36              ; [CPU_ARAU] |403| 
    2804 00000308 88A5          MOVZ      AR6,AR5               ; [CPU_ALU] |403| 
    2805 00000309 5CA4          MOVZ      AR4,AR4               ; [CPU_ALU] |403| 
TMS320C2000 Assembler PC v18.12.4 Tue Feb 21 14:51:41 2023

Copyright (c) 1996-2018 Texas Instruments Incorporated
C:\Users\User\AppData\Local\Temp\{37DBDC18-8316-4B16-94B2-B516506DF0E2} PAGE   54

    2806 0000030a 8F40+         MOVL      XAR5,#$C$FL1          ; [CPU_ARAU] |403| 
         0000030b 0000 
    2807              $C$DW$234       .dwtag  DW_TAG_TI_branch
    2808                      .dwattr $C$DW$234, DW_AT_low_pc(0x00)
    2809                      .dwattr $C$DW$234, DW_AT_name("FD$$MPY")
    2810                      .dwattr $C$DW$234, DW_AT_TI_call
    2811              
    2812 0000030c 7640!         LCR       #FD$$MPY              ; [CPU_ALU] |403| 
         0000030d 0000 
    2813                      ; call occurs [#FD$$MPY] ; [] |403| 
    2814 0000030e 5CAD          MOVZ      AR4,SP                ; [CPU_ALU] |403| 
    2815 0000030f DCA0          SUBB      XAR4,#32              ; [CPU_ARAU] |403| 
    2816 00000310 5CA4          MOVZ      AR4,AR4               ; [CPU_ALU] |403| 
    2817              $C$DW$235       .dwtag  DW_TAG_TI_branch
    2818                      .dwattr $C$DW$235, DW_AT_low_pc(0x00)
    2819                      .dwattr $C$DW$235, DW_AT_name("FD$$TOL")
    2820                      .dwattr $C$DW$235, DW_AT_TI_call
    2821              
    2822 00000311 7640!         LCR       #FD$$TOL              ; [CPU_ALU] |403| 
         00000312 0000 
    2823                      ; call occurs [#FD$$TOL] ; [] |403| 
    2824                      .dwpsn  file "D:/GIANT/GAINT_TI_instaspin/motorware/motorware_1_01_00_18/sw/modules/pid/src/32b/pid.h
    2825 00000313 D032          MOVB      XAR0,#50              ; [CPU_ALU] |398| 
    2826 00000314 8A91          MOVL      XAR4,*+XAR1[AR0]      ; [CPU_ALU] |398| 
    2827                      .dwpsn  file "D:/GIANT/GAINT_TI_instaspin/motorware/motorware_1_01_00_18/sw/modules/pid/src/32b/pid.h
    2828 00000315 8F59          MOVL      XAR5,#1677721         ; [CPU_ARAU] |401| 
         00000316 9999 
    2829                      .dwpsn  file "D:/GIANT/GAINT_TI_instaspin/motorware/motorware_1_01_00_18/sw/modules/pid/src/32b/pid.h
    2830 00000317 1EA6          MOVL      XAR6,ACC              ; [CPU_ALU] |398| 
    2831                      .dwpsn  file "D:/GIANT/GAINT_TI_instaspin/motorware/motorware_1_01_00_18/sw/modules/pid/src/32b/pid.h
    2832 00000318 D032          MOVB      XAR0,#50              ; [CPU_ALU] |509| 
    2833                      .dwpsn  file "D:/GIANT/GAINT_TI_instaspin/motorware/motorware_1_01_00_18/sw/modules/pid/src/32b/pid.h
    2834 00000319 A0C4          MOVL      *+XAR4[0],XAR5        ; [CPU_ALU] |401| 
    2835                      .dwpsn  file "D:/GIANT/GAINT_TI_instaspin/motorware/motorware_1_01_00_18/sw/modules/pid/src/32b/pid.h
    2836 0000031a 1ED4          MOVL      *+XAR4[2],ACC         ; [CPU_ALU] |402| 
    2837                      .dwpsn  file "D:/GIANT/GAINT_TI_instaspin/motorware/motorware_1_01_00_18/sw/modules/pid/src/32b/pid.h
    2838 0000031b 0200          MOVB      ACC,#0                ; [CPU_ALU] |403| 
    2839 0000031c 1EE4          MOVL      *+XAR4[4],ACC         ; [CPU_ALU] |403| 
    2840                      .dwpsn  file "D:/GIANT/GAINT_TI_instaspin/motorware/motorware_1_01_00_18/sw/modules/pid/src/32b/pid.h
    2841 0000031d 8A91          MOVL      XAR4,*+XAR1[AR0]      ; [CPU_ALU] |509| 
    2842                      .dwpsn  file "D:/GIANT/GAINT_TI_instaspin/motorware/motorware_1_01_00_18/sw/modules/pid/src/32b/pid.h
    2843 0000031e D032          MOVB      XAR0,#50              ; [CPU_ALU] |453| 
    2844                      .dwpsn  file "D:/GIANT/GAINT_TI_instaspin/motorware/motorware_1_01_00_18/sw/modules/pid/src/32b/pid.h
    2845 0000031f 1EF4          MOVL      *+XAR4[6],ACC         ; [CPU_ALU] |509| 
    2846                      .dwpsn  file "D:/GIANT/GAINT_TI_instaspin/motorware/motorware_1_01_00_18/sw/modules/pid/src/32b/pid.h
    2847 00000320 28A9          MOV       AL,#52429             ; [CPU_ALU] |456| 
         00000321 CCCD 
    2848                      .dwpsn  file "D:/GIANT/GAINT_TI_instaspin/motorware/motorware_1_01_00_18/sw/modules/pid/src/32b/pid.h
    2849 00000322 8A91          MOVL      XAR4,*+XAR1[AR0]      ; [CPU_ALU] |453| 
    2850                      .dwpsn  file "D:/GIANT/GAINT_TI_instaspin/motorware/motorware_1_01_00_18/sw/modules/pid/src/32b/pid.h
    2851 00000323 28A8          MOV       AH,#65292             ; [CPU_ALU] |456| 
         00000324 FF0C 
    2852                      .dwpsn  file "D:/GIANT/GAINT_TI_instaspin/motorware/motorware_1_01_00_18/sw/modules/ctrl/src/32b/ctrl
    2853 00000325 D502          MOVB      XAR5,#2               ; [CPU_ALU] |411| 
    2854                      .dwpsn  file "D:/GIANT/GAINT_TI_instaspin/motorware/motorware_1_01_00_18/sw/modules/pid/src/32b/pid.h
TMS320C2000 Assembler PC v18.12.4 Tue Feb 21 14:51:41 2023

Copyright (c) 1996-2018 Texas Instruments Incorporated
C:\Users\User\AppData\Local\Temp\{37DBDC18-8316-4B16-94B2-B516506DF0E2} PAGE   55

    2855 00000326 D00C          MOVB      XAR0,#12              ; [CPU_ALU] |456| 
    2856 00000327 1E94          MOVL      *+XAR4[AR0],ACC       ; [CPU_ALU] |456| 
    2857                      .dwpsn  file "D:/GIANT/GAINT_TI_instaspin/motorware/motorware_1_01_00_18/sw/modules/pid/src/32b/pid.h
    2858 00000328 D00E          MOVB      XAR0,#14              ; [CPU_ALU] |457| 
    2859 00000329 28A9          MOV       AL,#13107             ; [CPU_ALU] |457| 
         0000032a 3333 
    2860 0000032b 9BF3          MOV       AH,#243               ; [CPU_ALU] |457| 
    2861 0000032c 1E94          MOVL      *+XAR4[AR0],ACC       ; [CPU_ALU] |457| 
    2862                      .dwpsn  file "D:/GIANT/GAINT_TI_instaspin/motorware/motorware_1_01_00_18/sw/modules/ctrl/src/32b/ctrl
    2863 0000032d 0200          MOVB      ACC,#0                ; [CPU_ALU] |411| 
    2864 0000032e 8AA1          MOVL      XAR4,XAR1             ; [CPU_ALU] |411| 
    2865 0000032f C242          MOVL      *-SP[2],XAR6          ; [CPU_ALU] |411| 
    2866 00000330 7699          MOVL      XAR6,#1677721         ; [CPU_ARAU] |411| 
         00000331 9999 
    2867 00000332 1E44          MOVL      *-SP[4],ACC           ; [CPU_ALU] |411| 
    2868 00000333 06A6          MOVL      ACC,XAR6              ; [CPU_ALU] |411| 
    2869              $C$DW$236       .dwtag  DW_TAG_TI_branch
    2870                      .dwattr $C$DW$236, DW_AT_low_pc(0x00)
    2871                      .dwattr $C$DW$236, DW_AT_name("_CTRL_setGains")
    2872                      .dwattr $C$DW$236, DW_AT_TI_call
    2873              
    2874 00000334 7640'         LCR       #_CTRL_setGains       ; [CPU_ALU] |411| 
         00000335 0168 
    2875                      ; call occurs [#_CTRL_setGains] ; [] |411| 
    2876 00000336 8A68          MOVL      XAR4,*-SP[40]         ; [CPU_ALU] |411| 
    2877                      .dwpsn  file "D:/GIANT/GAINT_TI_instaspin/motorware/motorware_1_01_00_18/sw/modules/ctrl/src/32b/ctrl
    2878 00000337 D040          MOVB      XAR0,#64              ; [CPU_ALU] |415| 
    2879 00000338 06C4          MOVL      ACC,*+XAR4[0]         ; [CPU_ALU] |415| 
    2880 00000339 1E66          MOVL      *-SP[38],ACC          ; [CPU_ALU] |415| 
    2881 0000033a 28A9          MOV       AL,#55050             ; [CPU_ALU] |415| 
         0000033b D70A 
    2882 0000033c 8294          MOVL      XAR3,*+XAR4[AR0]      ; [CPU_ALU] |415| 
    2883 0000033d 28A8          MOV       AH,#15523             ; [CPU_ALU] |415| 
         0000033e 3CA3 
    2884 0000033f 86E4          MOVL      XAR2,*+XAR4[4]        ; [CPU_ALU] |415| 
    2885 00000340 1E42          MOVL      *-SP[2],ACC           ; [CPU_ALU] |415| 
    2886 00000341 A2A9          MOVL      ACC,XAR3              ; [CPU_ALU] |415| 
    2887              $C$DW$237       .dwtag  DW_TAG_TI_branch
    2888                      .dwattr $C$DW$237, DW_AT_low_pc(0x00)
    2889                      .dwattr $C$DW$237, DW_AT_name("FS$$MPY")
    2890                      .dwattr $C$DW$237, DW_AT_TI_call
    2891              
    2892 00000342 7640!         LCR       #FS$$MPY              ; [CPU_ALU] |415| 
         00000343 0000 
    2893                      ; call occurs [#FS$$MPY] ; [] |415| 
    2894 00000344 AA42          MOVL      *-SP[2],XAR2          ; [CPU_ALU] |415| 
    2895              $C$DW$238       .dwtag  DW_TAG_TI_branch
    2896                      .dwattr $C$DW$238, DW_AT_low_pc(0x00)
    2897                      .dwattr $C$DW$238, DW_AT_name("FS$$MPY")
    2898                      .dwattr $C$DW$238, DW_AT_TI_call
    2899              
    2900 00000345 7640!         LCR       #FS$$MPY              ; [CPU_ALU] |415| 
         00000346 0000 
    2901                      ; call occurs [#FS$$MPY] ; [] |415| 
    2902 00000347 C466          MOVL      XAR6,*-SP[38]         ; [CPU_ALU] |415| 
TMS320C2000 Assembler PC v18.12.4 Tue Feb 21 14:51:41 2023

Copyright (c) 1996-2018 Texas Instruments Incorporated
C:\Users\User\AppData\Local\Temp\{37DBDC18-8316-4B16-94B2-B516506DF0E2} PAGE   56

    2903 00000348 C242          MOVL      *-SP[2],XAR6          ; [CPU_ALU] |415| 
    2904              $C$DW$239       .dwtag  DW_TAG_TI_branch
    2905                      .dwattr $C$DW$239, DW_AT_low_pc(0x00)
    2906                      .dwattr $C$DW$239, DW_AT_name("FS$$DIV")
    2907                      .dwattr $C$DW$239, DW_AT_TI_call
    2908              
    2909 00000349 7640!         LCR       #FS$$DIV              ; [CPU_ALU] |415| 
         0000034a 0000 
    2910                      ; call occurs [#FS$$DIV] ; [] |415| 
    2911 0000034b 5CAD          MOVZ      AR4,SP                ; [CPU_ALU] |415| 
    2912 0000034c DCA4          SUBB      XAR4,#36              ; [CPU_ARAU] |415| 
    2913 0000034d 88A4          MOVZ      AR6,AR4               ; [CPU_ALU] |415| 
    2914              $C$DW$240       .dwtag  DW_TAG_TI_branch
    2915                      .dwattr $C$DW$240, DW_AT_low_pc(0x00)
    2916                      .dwattr $C$DW$240, DW_AT_name("FS$$TOFD")
    2917                      .dwattr $C$DW$240, DW_AT_TI_call
    2918              
    2919 0000034e 7640!         LCR       #FS$$TOFD             ; [CPU_ALU] |415| 
         0000034f 0000 
    2920                      ; call occurs [#FS$$TOFD] ; [] |415| 
    2921 00000350 5DAD          MOVZ      AR5,SP                ; [CPU_ALU] |415| 
    2922 00000351 5CAD          MOVZ      AR4,SP                ; [CPU_ALU] |415| 
    2923 00000352 DDA0          SUBB      XAR5,#32              ; [CPU_ARAU] |415| 
    2924 00000353 DCA4          SUBB      XAR4,#36              ; [CPU_ARAU] |415| 
    2925 00000354 88A5          MOVZ      AR6,AR5               ; [CPU_ALU] |415| 
    2926 00000355 5CA4          MOVZ      AR4,AR4               ; [CPU_ALU] |415| 
    2927 00000356 8F40+         MOVL      XAR5,#$C$FL1          ; [CPU_ARAU] |415| 
         00000357 0000 
    2928              $C$DW$241       .dwtag  DW_TAG_TI_branch
    2929                      .dwattr $C$DW$241, DW_AT_low_pc(0x00)
    2930                      .dwattr $C$DW$241, DW_AT_name("FD$$MPY")
    2931                      .dwattr $C$DW$241, DW_AT_TI_call
    2932              
    2933 00000358 7640!         LCR       #FD$$MPY              ; [CPU_ALU] |415| 
         00000359 0000 
    2934                      ; call occurs [#FD$$MPY] ; [] |415| 
    2935 0000035a 5CAD          MOVZ      AR4,SP                ; [CPU_ALU] |415| 
    2936 0000035b DCA0          SUBB      XAR4,#32              ; [CPU_ARAU] |415| 
    2937 0000035c 5CA4          MOVZ      AR4,AR4               ; [CPU_ALU] |415| 
    2938              $C$DW$242       .dwtag  DW_TAG_TI_branch
    2939                      .dwattr $C$DW$242, DW_AT_low_pc(0x00)
    2940                      .dwattr $C$DW$242, DW_AT_name("FD$$TOL")
    2941                      .dwattr $C$DW$242, DW_AT_TI_call
    2942              
    2943 0000035d 7640!         LCR       #FD$$TOL              ; [CPU_ALU] |415| 
         0000035e 0000 
    2944                      ; call occurs [#FD$$TOL] ; [] |415| 
    2945 0000035f 1E6A          MOVL      *-SP[42],ACC          ; [CPU_ALU] |415| 
    2946                      .dwpsn  file "D:/GIANT/GAINT_TI_instaspin/motorware/motorware_1_01_00_18/sw/modules/ctrl/src/32b/ctrl
    2947 00000360 A242          MOVL      *-SP[2],XAR3          ; [CPU_ALU] |416| 
    2948 00000361 A2A9          MOVL      ACC,XAR3              ; [CPU_ALU] |416| 
    2949              $C$DW$243       .dwtag  DW_TAG_TI_branch
    2950                      .dwattr $C$DW$243, DW_AT_low_pc(0x00)
    2951                      .dwattr $C$DW$243, DW_AT_name("FS$$ADD")
    2952                      .dwattr $C$DW$243, DW_AT_TI_call
TMS320C2000 Assembler PC v18.12.4 Tue Feb 21 14:51:41 2023

Copyright (c) 1996-2018 Texas Instruments Incorporated
C:\Users\User\AppData\Local\Temp\{37DBDC18-8316-4B16-94B2-B516506DF0E2} PAGE   57

    2953              
    2954 00000362 7640!         LCR       #FS$$ADD              ; [CPU_ALU] |416| 
         00000363 0000 
    2955                      ; call occurs [#FS$$ADD] ; [] |416| 
    2956 00000364 AA42          MOVL      *-SP[2],XAR2          ; [CPU_ALU] |416| 
    2957              $C$DW$244       .dwtag  DW_TAG_TI_branch
    2958                      .dwattr $C$DW$244, DW_AT_low_pc(0x00)
    2959                      .dwattr $C$DW$244, DW_AT_name("FS$$MPY")
    2960                      .dwattr $C$DW$244, DW_AT_TI_call
    2961              
    2962 00000365 7640!         LCR       #FS$$MPY              ; [CPU_ALU] |416| 
         00000366 0000 
    2963                      ; call occurs [#FS$$MPY] ; [] |416| 
    2964 00000367 8A68          MOVL      XAR4,*-SP[40]         ; [CPU_ALU] |416| 
    2965 00000368 D0A6          MOVB      XAR0,#166             ; [CPU_ALU] |416| 
    2966 00000369 C494          MOVL      XAR6,*+XAR4[AR0]      ; [CPU_ALU] |416| 
    2967 0000036a C242          MOVL      *-SP[2],XAR6          ; [CPU_ALU] |416| 
    2968              $C$DW$245       .dwtag  DW_TAG_TI_branch
    2969                      .dwattr $C$DW$245, DW_AT_low_pc(0x00)
    2970                      .dwattr $C$DW$245, DW_AT_name("FS$$MPY")
    2971                      .dwattr $C$DW$245, DW_AT_TI_call
    2972              
    2973 0000036b 7640!         LCR       #FS$$MPY              ; [CPU_ALU] |416| 
         0000036c 0000 
    2974                      ; call occurs [#FS$$MPY] ; [] |416| 
    2975 0000036d C466          MOVL      XAR6,*-SP[38]         ; [CPU_ALU] |416| 
    2976 0000036e C242          MOVL      *-SP[2],XAR6          ; [CPU_ALU] |416| 
    2977              $C$DW$246       .dwtag  DW_TAG_TI_branch
    2978                      .dwattr $C$DW$246, DW_AT_low_pc(0x00)
    2979                      .dwattr $C$DW$246, DW_AT_name("FS$$DIV")
    2980                      .dwattr $C$DW$246, DW_AT_TI_call
    2981              
    2982 0000036f 7640!         LCR       #FS$$DIV              ; [CPU_ALU] |416| 
         00000370 0000 
    2983                      ; call occurs [#FS$$DIV] ; [] |416| 
    2984 00000371 5CAD          MOVZ      AR4,SP                ; [CPU_ALU] |416| 
    2985 00000372 DCA4          SUBB      XAR4,#36              ; [CPU_ARAU] |416| 
    2986 00000373 88A4          MOVZ      AR6,AR4               ; [CPU_ALU] |416| 
    2987              $C$DW$247       .dwtag  DW_TAG_TI_branch
    2988                      .dwattr $C$DW$247, DW_AT_low_pc(0x00)
    2989                      .dwattr $C$DW$247, DW_AT_name("FS$$TOFD")
    2990                      .dwattr $C$DW$247, DW_AT_TI_call
    2991              
    2992 00000374 7640!         LCR       #FS$$TOFD             ; [CPU_ALU] |416| 
         00000375 0000 
    2993                      ; call occurs [#FS$$TOFD] ; [] |416| 
    2994 00000376 5DAD          MOVZ      AR5,SP                ; [CPU_ALU] |416| 
    2995 00000377 5CAD          MOVZ      AR4,SP                ; [CPU_ALU] |416| 
    2996 00000378 DDA0          SUBB      XAR5,#32              ; [CPU_ARAU] |416| 
    2997 00000379 DCA4          SUBB      XAR4,#36              ; [CPU_ARAU] |416| 
    2998 0000037a 88A5          MOVZ      AR6,AR5               ; [CPU_ALU] |416| 
    2999 0000037b 5CA4          MOVZ      AR4,AR4               ; [CPU_ALU] |416| 
    3000 0000037c 8F40+         MOVL      XAR5,#$C$FL1          ; [CPU_ARAU] |416| 
         0000037d 0000 
    3001              $C$DW$248       .dwtag  DW_TAG_TI_branch
TMS320C2000 Assembler PC v18.12.4 Tue Feb 21 14:51:41 2023

Copyright (c) 1996-2018 Texas Instruments Incorporated
C:\Users\User\AppData\Local\Temp\{37DBDC18-8316-4B16-94B2-B516506DF0E2} PAGE   58

    3002                      .dwattr $C$DW$248, DW_AT_low_pc(0x00)
    3003                      .dwattr $C$DW$248, DW_AT_name("FD$$MPY")
    3004                      .dwattr $C$DW$248, DW_AT_TI_call
    3005              
    3006 0000037e 7640!         LCR       #FD$$MPY              ; [CPU_ALU] |416| 
         0000037f 0000 
    3007                      ; call occurs [#FD$$MPY] ; [] |416| 
    3008 00000380 5CAD          MOVZ      AR4,SP                ; [CPU_ALU] |416| 
    3009 00000381 DCA0          SUBB      XAR4,#32              ; [CPU_ARAU] |416| 
    3010 00000382 5CA4          MOVZ      AR4,AR4               ; [CPU_ALU] |416| 
    3011              $C$DW$249       .dwtag  DW_TAG_TI_branch
    3012                      .dwattr $C$DW$249, DW_AT_low_pc(0x00)
    3013                      .dwattr $C$DW$249, DW_AT_name("FD$$TOL")
    3014                      .dwattr $C$DW$249, DW_AT_TI_call
    3015              
    3016 00000383 7640!         LCR       #FD$$TOL              ; [CPU_ALU] |416| 
         00000384 0000 
    3017                      ; call occurs [#FD$$TOL] ; [] |416| 
    3018                      .dwpsn  file "D:/GIANT/GAINT_TI_instaspin/motorware/motorware_1_01_00_18/sw/modules/pid/src/32b/pid.h
    3019 00000385 D044          MOVB      XAR0,#68              ; [CPU_ALU] |398| 
    3020 00000386 8A91          MOVL      XAR4,*+XAR1[AR0]      ; [CPU_ALU] |398| 
    3021 00000387 1EA6          MOVL      XAR6,ACC              ; [CPU_ALU] |398| 
    3022 00000388 066A          MOVL      ACC,*-SP[42]          ; [CPU_ALU] |398| 
    3023                      .dwpsn  file "D:/GIANT/GAINT_TI_instaspin/motorware/motorware_1_01_00_18/sw/modules/pid/src/32b/pid.h
    3024 00000389 D044          MOVB      XAR0,#68              ; [CPU_ALU] |509| 
    3025                      .dwpsn  file "D:/GIANT/GAINT_TI_instaspin/motorware/motorware_1_01_00_18/sw/modules/pid/src/32b/pid.h
    3026 0000038a 1EC4          MOVL      *+XAR4[0],ACC         ; [CPU_ALU] |401| 
    3027                      .dwpsn  file "D:/GIANT/GAINT_TI_instaspin/motorware/motorware_1_01_00_18/sw/modules/pid/src/32b/pid.h
    3028 0000038b 0200          MOVB      ACC,#0                ; [CPU_ALU] |403| 
    3029                      .dwpsn  file "D:/GIANT/GAINT_TI_instaspin/motorware/motorware_1_01_00_18/sw/modules/pid/src/32b/pid.h
    3030 0000038c C2D4          MOVL      *+XAR4[2],XAR6        ; [CPU_ALU] |402| 
    3031                      .dwpsn  file "D:/GIANT/GAINT_TI_instaspin/motorware/motorware_1_01_00_18/sw/modules/pid/src/32b/pid.h
    3032 0000038d 1EE4          MOVL      *+XAR4[4],ACC         ; [CPU_ALU] |403| 
    3033                      .dwpsn  file "D:/GIANT/GAINT_TI_instaspin/motorware/motorware_1_01_00_18/sw/modules/pid/src/32b/pid.h
    3034 0000038e 8A91          MOVL      XAR4,*+XAR1[AR0]      ; [CPU_ALU] |509| 
    3035                      .dwpsn  file "D:/GIANT/GAINT_TI_instaspin/motorware/motorware_1_01_00_18/sw/modules/pid/src/32b/pid.h
    3036 0000038f D044          MOVB      XAR0,#68              ; [CPU_ALU] |453| 
    3037                      .dwpsn  file "D:/GIANT/GAINT_TI_instaspin/motorware/motorware_1_01_00_18/sw/modules/pid/src/32b/pid.h
    3038 00000390 1EF4          MOVL      *+XAR4[6],ACC         ; [CPU_ALU] |509| 
    3039                      .dwpsn  file "D:/GIANT/GAINT_TI_instaspin/motorware/motorware_1_01_00_18/sw/modules/pid/src/32b/pid.h
    3040 00000391 020C          MOVB      ACC,#12               ; [CPU_ALU] |456| 
    3041                      .dwpsn  file "D:/GIANT/GAINT_TI_instaspin/motorware/motorware_1_01_00_18/sw/modules/pid/src/32b/pid.h
    3042 00000392 8391          MOVL      XAR5,*+XAR1[AR0]      ; [CPU_ALU] |453| 
    3043                      .dwpsn  file "D:/GIANT/GAINT_TI_instaspin/motorware/motorware_1_01_00_18/sw/modules/pid/src/32b/pid.h
    3044 00000393 D044          MOVB      XAR0,#68              ; [CPU_ALU] |456| 
    3045 00000394 0791          ADDL      ACC,*+XAR1[AR0]       ; [CPU_ALU] |456| 
    3046 00000395 8AA9          MOVL      XAR4,ACC              ; [CPU_ALU] |456| 
    3047 00000396 3B01          SETC      SXM                   ; [CPU_ALU] 
    3048                      .dwpsn  file "D:/GIANT/GAINT_TI_instaspin/motorware/motorware_1_01_00_18/sw/modules/pid/src/32b/pid.h
    3049 00000397 D00E          MOVB      XAR0,#14              ; [CPU_ALU] |457| 
    3050                      .dwpsn  file "D:/GIANT/GAINT_TI_instaspin/motorware/motorware_1_01_00_18/sw/modules/pid/src/32b/pid.h
    3051 00000398 FF2F          MOV       ACC,#-512 << 15       ; [CPU_ALU] |456| 
         00000399 FE00 
    3052 0000039a 1EC4          MOVL      *+XAR4[0],ACC         ; [CPU_ALU] |456| 
    3053                      .dwpsn  file "D:/GIANT/GAINT_TI_instaspin/motorware/motorware_1_01_00_18/sw/modules/pid/src/32b/pid.h
TMS320C2000 Assembler PC v18.12.4 Tue Feb 21 14:51:41 2023

Copyright (c) 1996-2018 Texas Instruments Incorporated
C:\Users\User\AppData\Local\Temp\{37DBDC18-8316-4B16-94B2-B516506DF0E2} PAGE   59

    3054 0000039b FF2F          MOV       ACC,#512 << 15        ; [CPU_ALU] |457| 
         0000039c 0200 
    3055                      .dwpsn  file "D:/GIANT/GAINT_TI_instaspin/motorware/motorware_1_01_00_18/sw/modules/ctrl/src/32b/ctrl
    3056 0000039d 8AA1          MOVL      XAR4,XAR1             ; [CPU_ALU] |424| 
    3057                      .dwpsn  file "D:/GIANT/GAINT_TI_instaspin/motorware/motorware_1_01_00_18/sw/modules/pid/src/32b/pid.h
    3058 0000039e 1E95          MOVL      *+XAR5[AR0],ACC       ; [CPU_ALU] |457| 
    3059                      .dwpsn  file "D:/GIANT/GAINT_TI_instaspin/motorware/motorware_1_01_00_18/sw/modules/ctrl/src/32b/ctrl
    3060 0000039f 0200          MOVB      ACC,#0                ; [CPU_ALU] |424| 
    3061 000003a0 D500          MOVB      XAR5,#0               ; [CPU_ALU] |424| 
    3062 000003a1 C242          MOVL      *-SP[2],XAR6          ; [CPU_ALU] |424| 
    3063 000003a2 1E44          MOVL      *-SP[4],ACC           ; [CPU_ALU] |424| 
    3064 000003a3 066A          MOVL      ACC,*-SP[42]          ; [CPU_ALU] |424| 
    3065              $C$DW$250       .dwtag  DW_TAG_TI_branch
    3066                      .dwattr $C$DW$250, DW_AT_low_pc(0x00)
    3067                      .dwattr $C$DW$250, DW_AT_name("_CTRL_setGains")
    3068                      .dwattr $C$DW$250, DW_AT_TI_call
    3069              
    3070 000003a4 7640'         LCR       #_CTRL_setGains       ; [CPU_ALU] |424| 
         000003a5 0168 
    3071                      ; call occurs [#_CTRL_setGains] ; [] |424| 
    3072                      .dwpsn  file "D:/GIANT/GAINT_TI_instaspin/motorware/motorware_1_01_00_18/sw/modules/ctrl/src/32b/ctrl
    3073 000003a6 0200          MOVB      ACC,#0                ; [CPU_ALU] |428| 
    3074              $C$DW$251       .dwtag  DW_TAG_TI_branch
    3075                      .dwattr $C$DW$251, DW_AT_low_pc(0x00)
    3076                      .dwattr $C$DW$251, DW_AT_name("_CTRL_setSpd_ref_pu")
    3077                      .dwattr $C$DW$251, DW_AT_TI_call
    3078              
    3079 000003a7 7640'         LCR       #_CTRL_setSpd_ref_pu  ; [CPU_ALU] |428| 
         000003a8 0152 
    3080                      ; call occurs [#_CTRL_setSpd_ref_pu] ; [] |428| 
    3081                      .dwpsn  file "D:/GIANT/GAINT_TI_instaspin/motorware/motorware_1_01_00_18/sw/modules/traj/src/32b/traj
    3082 000003a9 D060          MOVB      XAR0,#96              ; [CPU_ALU] |158| 
    3083 000003aa 8A91          MOVL      XAR4,*+XAR1[AR0]      ; [CPU_ALU] |158| 
    3084                      .dwpsn  file "D:/GIANT/GAINT_TI_instaspin/motorware/motorware_1_01_00_18/sw/modules/traj/src/32b/traj
    3085 000003ab D060          MOVB      XAR0,#96              ; [CPU_ALU] |210| 
    3086                      .dwpsn  file "D:/GIANT/GAINT_TI_instaspin/motorware/motorware_1_01_00_18/sw/modules/traj/src/32b/traj
    3087 000003ac 1ED4          MOVL      *+XAR4[2],ACC         ; [CPU_ALU] |158| 
    3088                      .dwpsn  file "D:/GIANT/GAINT_TI_instaspin/motorware/motorware_1_01_00_18/sw/modules/traj/src/32b/traj
    3089 000003ad 8A91          MOVL      XAR4,*+XAR1[AR0]      ; [CPU_ALU] |210| 
    3090                      .dwpsn  file "D:/GIANT/GAINT_TI_instaspin/motorware/motorware_1_01_00_18/sw/modules/traj/src/32b/traj
    3091 000003ae D060          MOVB      XAR0,#96              ; [CPU_ALU] |197| 
    3092                      .dwpsn  file "D:/GIANT/GAINT_TI_instaspin/motorware/motorware_1_01_00_18/sw/modules/traj/src/32b/traj
    3093 000003af 1EC4          MOVL      *+XAR4[0],ACC         ; [CPU_ALU] |210| 
    3094                      .dwpsn  file "D:/GIANT/GAINT_TI_instaspin/motorware/motorware_1_01_00_18/sw/modules/traj/src/32b/traj
    3095 000003b0 8A91          MOVL      XAR4,*+XAR1[AR0]      ; [CPU_ALU] |197| 
    3096                      .dwpsn  file "D:/GIANT/GAINT_TI_instaspin/motorware/motorware_1_01_00_18/sw/modules/traj/src/32b/traj
    3097 000003b1 D060          MOVB      XAR0,#96              ; [CPU_ALU] |184| 
    3098                      .dwpsn  file "D:/GIANT/GAINT_TI_instaspin/motorware/motorware_1_01_00_18/sw/modules/traj/src/32b/traj
    3099 000003b2 1EE4          MOVL      *+XAR4[4],ACC         ; [CPU_ALU] |197| 
    3100                      .dwpsn  file "D:/GIANT/GAINT_TI_instaspin/motorware/motorware_1_01_00_18/sw/modules/traj/src/32b/traj
    3101 000003b3 8A91          MOVL      XAR4,*+XAR1[AR0]      ; [CPU_ALU] |184| 
    3102                      .dwpsn  file "D:/GIANT/GAINT_TI_instaspin/motorware/motorware_1_01_00_18/sw/modules/traj/src/32b/traj
    3103 000003b4 BE00          MOVB      XAR6,#0               ; [CPU_ALU] |171| 
    3104 000003b5 D060          MOVB      XAR0,#96              ; [CPU_ALU] |171| 
    3105                      .dwpsn  file "D:/GIANT/GAINT_TI_instaspin/motorware/motorware_1_01_00_18/sw/modules/traj/src/32b/traj
TMS320C2000 Assembler PC v18.12.4 Tue Feb 21 14:51:41 2023

Copyright (c) 1996-2018 Texas Instruments Incorporated
C:\Users\User\AppData\Local\Temp\{37DBDC18-8316-4B16-94B2-B516506DF0E2} PAGE   60

    3106 000003b6 1EF4          MOVL      *+XAR4[6],ACC         ; [CPU_ALU] |184| 
    3107                      .dwpsn  file "D:/GIANT/GAINT_TI_instaspin/motorware/motorware_1_01_00_18/sw/modules/traj/src/32b/traj
    3108 000003b7 0208          MOVB      ACC,#8                ; [CPU_ALU] |171| 
    3109 000003b8 0791          ADDL      ACC,*+XAR1[AR0]       ; [CPU_ALU] |171| 
    3110 000003b9 8AA9          MOVL      XAR4,ACC              ; [CPU_ALU] |171| 
    3111                      .dwpsn  file "D:/GIANT/GAINT_TI_instaspin/motorware/motorware_1_01_00_18/sw/modules/traj/src/32b/traj
    3112 000003ba D06C          MOVB      XAR0,#108             ; [CPU_ALU] |158| 
    3113                      .dwpsn  file "D:/GIANT/GAINT_TI_instaspin/motorware/motorware_1_01_00_18/sw/modules/traj/src/32b/traj
    3114 000003bb C2C4          MOVL      *+XAR4[0],XAR6        ; [CPU_ALU] |171| 
    3115                      .dwpsn  file "D:/GIANT/GAINT_TI_instaspin/motorware/motorware_1_01_00_18/sw/modules/traj/src/32b/traj
    3116 000003bc 8A91          MOVL      XAR4,*+XAR1[AR0]      ; [CPU_ALU] |158| 
    3117 000003bd 0200          MOVB      ACC,#0                ; [CPU_ALU] |158| 
    3118                      .dwpsn  file "D:/GIANT/GAINT_TI_instaspin/motorware/motorware_1_01_00_18/sw/modules/traj/src/32b/traj
    3119 000003be D06C          MOVB      XAR0,#108             ; [CPU_ALU] |210| 
    3120                      .dwpsn  file "D:/GIANT/GAINT_TI_instaspin/motorware/motorware_1_01_00_18/sw/modules/traj/src/32b/traj
    3121 000003bf 1ED4          MOVL      *+XAR4[2],ACC         ; [CPU_ALU] |158| 
    3122                      .dwpsn  file "D:/GIANT/GAINT_TI_instaspin/motorware/motorware_1_01_00_18/sw/modules/traj/src/32b/traj
    3123 000003c0 8A91          MOVL      XAR4,*+XAR1[AR0]      ; [CPU_ALU] |210| 
    3124                      .dwpsn  file "D:/GIANT/GAINT_TI_instaspin/motorware/motorware_1_01_00_18/sw/modules/traj/src/32b/traj
    3125 000003c1 D06C          MOVB      XAR0,#108             ; [CPU_ALU] |197| 
    3126                      .dwpsn  file "D:/GIANT/GAINT_TI_instaspin/motorware/motorware_1_01_00_18/sw/modules/traj/src/32b/traj
    3127 000003c2 1EC4          MOVL      *+XAR4[0],ACC         ; [CPU_ALU] |210| 
    3128                      .dwpsn  file "D:/GIANT/GAINT_TI_instaspin/motorware/motorware_1_01_00_18/sw/modules/traj/src/32b/traj
    3129 000003c3 8A91          MOVL      XAR4,*+XAR1[AR0]      ; [CPU_ALU] |197| 
    3130                      .dwpsn  file "D:/GIANT/GAINT_TI_instaspin/motorware/motorware_1_01_00_18/sw/modules/traj/src/32b/traj
    3131 000003c4 D06C          MOVB      XAR0,#108             ; [CPU_ALU] |184| 
    3132                      .dwpsn  file "D:/GIANT/GAINT_TI_instaspin/motorware/motorware_1_01_00_18/sw/modules/traj/src/32b/traj
    3133 000003c5 1EE4          MOVL      *+XAR4[4],ACC         ; [CPU_ALU] |197| 
    3134                      .dwpsn  file "D:/GIANT/GAINT_TI_instaspin/motorware/motorware_1_01_00_18/sw/modules/traj/src/32b/traj
    3135 000003c6 8A91          MOVL      XAR4,*+XAR1[AR0]      ; [CPU_ALU] |184| 
    3136                      .dwpsn  file "D:/GIANT/GAINT_TI_instaspin/motorware/motorware_1_01_00_18/sw/modules/traj/src/32b/traj
    3137 000003c7 D06C          MOVB      XAR0,#108             ; [CPU_ALU] |171| 
    3138                      .dwpsn  file "D:/GIANT/GAINT_TI_instaspin/motorware/motorware_1_01_00_18/sw/modules/traj/src/32b/traj
    3139 000003c8 1EF4          MOVL      *+XAR4[6],ACC         ; [CPU_ALU] |184| 
    3140                      .dwpsn  file "D:/GIANT/GAINT_TI_instaspin/motorware/motorware_1_01_00_18/sw/modules/traj/src/32b/traj
    3141 000003c9 0208          MOVB      ACC,#8                ; [CPU_ALU] |171| 
    3142 000003ca 0791          ADDL      ACC,*+XAR1[AR0]       ; [CPU_ALU] |171| 
    3143 000003cb 8AA9          MOVL      XAR4,ACC              ; [CPU_ALU] |171| 
    3144                      .dwpsn  file "D:/GIANT/GAINT_TI_instaspin/motorware/motorware_1_01_00_18/sw/modules/traj/src/32b/traj
    3145 000003cc D078          MOVB      XAR0,#120             ; [CPU_ALU] |158| 
    3146                      .dwpsn  file "D:/GIANT/GAINT_TI_instaspin/motorware/motorware_1_01_00_18/sw/modules/traj/src/32b/traj
    3147 000003cd C2C4          MOVL      *+XAR4[0],XAR6        ; [CPU_ALU] |171| 
    3148                      .dwpsn  file "D:/GIANT/GAINT_TI_instaspin/motorware/motorware_1_01_00_18/sw/modules/traj/src/32b/traj
    3149 000003ce 8A91          MOVL      XAR4,*+XAR1[AR0]      ; [CPU_ALU] |158| 
    3150 000003cf 0200          MOVB      ACC,#0                ; [CPU_ALU] |158| 
    3151                      .dwpsn  file "D:/GIANT/GAINT_TI_instaspin/motorware/motorware_1_01_00_18/sw/modules/traj/src/32b/traj
    3152 000003d0 D078          MOVB      XAR0,#120             ; [CPU_ALU] |210| 
    3153                      .dwpsn  file "D:/GIANT/GAINT_TI_instaspin/motorware/motorware_1_01_00_18/sw/modules/traj/src/32b/traj
    3154 000003d1 1ED4          MOVL      *+XAR4[2],ACC         ; [CPU_ALU] |158| 
    3155                      .dwpsn  file "D:/GIANT/GAINT_TI_instaspin/motorware/motorware_1_01_00_18/sw/modules/traj/src/32b/traj
    3156 000003d2 8A91          MOVL      XAR4,*+XAR1[AR0]      ; [CPU_ALU] |210| 
    3157                      .dwpsn  file "D:/GIANT/GAINT_TI_instaspin/motorware/motorware_1_01_00_18/sw/modules/traj/src/32b/traj
    3158 000003d3 D078          MOVB      XAR0,#120             ; [CPU_ALU] |197| 
    3159                      .dwpsn  file "D:/GIANT/GAINT_TI_instaspin/motorware/motorware_1_01_00_18/sw/modules/traj/src/32b/traj
    3160 000003d4 1EC4          MOVL      *+XAR4[0],ACC         ; [CPU_ALU] |210| 
TMS320C2000 Assembler PC v18.12.4 Tue Feb 21 14:51:41 2023

Copyright (c) 1996-2018 Texas Instruments Incorporated
C:\Users\User\AppData\Local\Temp\{37DBDC18-8316-4B16-94B2-B516506DF0E2} PAGE   61

    3161                      .dwpsn  file "D:/GIANT/GAINT_TI_instaspin/motorware/motorware_1_01_00_18/sw/modules/traj/src/32b/traj
    3162 000003d5 8A91          MOVL      XAR4,*+XAR1[AR0]      ; [CPU_ALU] |197| 
