TMS320C2000 Assembler PC v22.6.0 Wed Feb 22 11:34:31 2023

Copyright (c) 1996-2018 Texas Instruments Incorporated
C:\Users\GA5354\AppData\Local\Temp\{6DA7DAC6-2868-4E23-B53B-8B51420AAAC1} PAGE    1

       1              ;***************************************************************
       2              ;* TMS320C2000 G3 C/C++ Codegen                               PC v22.6.0.LTS *
       3              ;* Date/Time created: Wed Feb 22 11:34:31 2023                 *
       4              ;***************************************************************
       5                      .compiler_opts --abi=coffabi --float_support=softlib --hll_source=on --mem_model:code=flat --mem_mode
       6                      .asg    XAR2, FP
       7              
       8              $C$DW$CU        .dwtag  DW_TAG_compile_unit
       9                      .dwattr $C$DW$CU, DW_AT_name("D:/GIANT/GIANT_TI_instaspin/motorware/motorware_1_01_00_18/sw/drivers/g
      10                      .dwattr $C$DW$CU, DW_AT_producer("TI TMS320C2000 G3 C/C++ Codegen PC v22.6.0.LTS Copyright (c) 1996-2
      11                      .dwattr $C$DW$CU, DW_AT_TI_version(0x01)
      12                      .dwattr $C$DW$CU, DW_AT_comp_dir("D:\GIANT\GIANT_TI_instaspin\motorware\motorware_1_01_00_18\sw\solut
      13              ;       C:\ti\ccs1200\ccs\tools\compiler\ti-cgt-c2000_22.6.0.LTS\bin\opt2000.exe C:\\Users\\GA5354\\AppData\\
      14              ;       C:\ti\ccs1200\ccs\tools\compiler\ti-cgt-c2000_22.6.0.LTS\bin\ac2000.exe -@C:\\Users\\GA5354\\AppData\
      15 00000000               .sect   ".text"
      16                      .clink
      17                      .global _GPIO_toggle
      18              
      19              $C$DW$1 .dwtag  DW_TAG_subprogram
      20                      .dwattr $C$DW$1, DW_AT_name("GPIO_toggle")
      21                      .dwattr $C$DW$1, DW_AT_low_pc(_GPIO_toggle)
      22                      .dwattr $C$DW$1, DW_AT_high_pc(0x00)
      23                      .dwattr $C$DW$1, DW_AT_TI_symbol_name("_GPIO_toggle")
      24                      .dwattr $C$DW$1, DW_AT_external
      25                      .dwattr $C$DW$1, DW_AT_TI_begin_file("D:/GIANT/GIANT_TI_instaspin/motorware/motorware_1_01_00_18/sw/d
      26                      .dwattr $C$DW$1, DW_AT_TI_begin_line(0x1b7)
      27                      .dwattr $C$DW$1, DW_AT_TI_begin_column(0x06)
      28                      .dwattr $C$DW$1, DW_AT_TI_max_frame_size(-2)
      29                      .dwpsn  file "D:/GIANT/GIANT_TI_instaspin/motorware/motorware_1_01_00_18/sw/drivers/gpio/src/32b/f28x
      30              
      31                      .dwfde $C$DW$CIE, _GPIO_toggle
      32              $C$DW$2 .dwtag  DW_TAG_formal_parameter
      33                      .dwattr $C$DW$2, DW_AT_name("gpioHandle")
      34                      .dwattr $C$DW$2, DW_AT_TI_symbol_name("_gpioHandle")
      35                      .dwattr $C$DW$2, DW_AT_type(*$C$DW$T$55)
      36                      .dwattr $C$DW$2, DW_AT_location[DW_OP_reg12]
      37              
      38              $C$DW$3 .dwtag  DW_TAG_formal_parameter
      39                      .dwattr $C$DW$3, DW_AT_name("gpioNumber")
      40                      .dwattr $C$DW$3, DW_AT_TI_symbol_name("_gpioNumber")
      41                      .dwattr $C$DW$3, DW_AT_type(*$C$DW$T$33)
      42                      .dwattr $C$DW$3, DW_AT_location[DW_OP_reg0]
      43              
      44              
      45              ;***************************************************************
      46              ;* FNAME: _GPIO_toggle                  FR SIZE:   0           *
      47              ;*                                                             *
      48              ;* FUNCTION ENVIRONMENT                                        *
      49              ;*                                                             *
      50              ;* FUNCTION PROPERTIES                                         *
      51              ;*                            0 Parameter,  0 Auto,  0 SOE     *
      52              ;***************************************************************
      53              
      54              _GPIO_toggle:
      55              ;* AR4   assigned to _gpioHandle
TMS320C2000 Assembler PC v22.6.0 Wed Feb 22 11:34:31 2023

Copyright (c) 1996-2018 Texas Instruments Incorporated
C:\Users\GA5354\AppData\Local\Temp\{6DA7DAC6-2868-4E23-B53B-8B51420AAAC1} PAGE    2

      56              $C$DW$4 .dwtag  DW_TAG_variable
      57                      .dwattr $C$DW$4, DW_AT_name("gpioHandle")
      58                      .dwattr $C$DW$4, DW_AT_TI_symbol_name("_gpioHandle")
      59                      .dwattr $C$DW$4, DW_AT_type(*$C$DW$T$56)
      60                      .dwattr $C$DW$4, DW_AT_location[DW_OP_reg12]
      61              
      62              ;* T     assigned to _gpioNumber
      63              $C$DW$5 .dwtag  DW_TAG_variable
      64                      .dwattr $C$DW$5, DW_AT_name("gpioNumber")
      65                      .dwattr $C$DW$5, DW_AT_TI_symbol_name("_gpioNumber")
      66                      .dwattr $C$DW$5, DW_AT_type(*$C$DW$T$34)
      67                      .dwattr $C$DW$5, DW_AT_location[DW_OP_reg22]
      68              
      69                      .dwcfi  cfa_offset, -2
      70                      .dwcfi  save_reg_to_mem, 26, 0
      71 00000000 2DA9          MOV       T,AL                  ; [CPU_ALU] |440| 
      72 00000001 7622   EALLOW
      73                      .dwpsn  file "D:/GIANT/GIANT_TI_instaspin/motorware/motorware_1_01_00_18/sw/drivers/gpio/src/32b/f28x
      74 00000002 5220          CMPB      AL,#32                ; [CPU_ALU] |446| 
      75 00000003 6806          B         $C$L1,LO              ; [CPU_ALU] |446| 
      76                      ; branchcc occurs ; [] |446| 
      77                      .dwpsn  file "D:/GIANT/GIANT_TI_instaspin/motorware/motorware_1_01_00_18/sw/drivers/gpio/src/32b/f28x
      78 00000004 5DAC          MOVZ      AR5,T                 ; [CPU_ALU] |452| 
      79 00000005 D04E          MOVB      XAR0,#78              ; [CPU_ALU] |452| 
      80 00000006 DDA0          SUBB      XAR5,#32              ; [CPU_ARAU] |452| 
      81 00000007 2DA5          MOV       T,AR5                 ; [CPU_ALU] |452| 
      82 00000008 6F02          B         $C$L2,UNC             ; [CPU_ALU] |452| 
      83                      ; branch occurs ; [] |452| 
      84 00000009       $C$L1:    
      85                      .dwpsn  file "D:/GIANT/GIANT_TI_instaspin/motorware/motorware_1_01_00_18/sw/drivers/gpio/src/32b/f28x
      86 00000009 D046          MOVB      XAR0,#70              ; [CPU_ALU] |448| 
      87 0000000a       $C$L2:    
      88 0000000a 0201          MOVB      ACC,#1                ; [CPU_ALU] |448| 
      89 0000000b 563B          LSLL      ACC,T                 ; [CPU_ALU] |448| 
      90 0000000c 1E94          MOVL      *+XAR4[AR0],ACC       ; [CPU_ALU] |448| 
      91 0000000d 761A   EDIS
      92 0000000e FF69          SPM       #0                    ; [CPU_ALU] 
      93              $C$DW$6 .dwtag  DW_TAG_TI_branch
      94                      .dwattr $C$DW$6, DW_AT_low_pc(0x00)
      95                      .dwattr $C$DW$6, DW_AT_TI_return
      96              
      97 0000000f 0006          LRETR     ; [CPU_ALU] 
      98                      ; return occurs ; [] 
      99                      .dwattr $C$DW$1, DW_AT_TI_end_file("D:/GIANT/GIANT_TI_instaspin/motorware/motorware_1_01_00_18/sw/dri
     100                      .dwattr $C$DW$1, DW_AT_TI_end_line(0x1ca)
     101                      .dwattr $C$DW$1, DW_AT_TI_end_column(0x01)
     102                      .dwendentry
     103                      .dwendtag $C$DW$1
     104              
     105 00000010               .sect   ".text"
     106                      .clink
     107                      .global _GPIO_setQualificationPeriod
     108              
     109              $C$DW$7 .dwtag  DW_TAG_subprogram
     110                      .dwattr $C$DW$7, DW_AT_name("GPIO_setQualificationPeriod")
TMS320C2000 Assembler PC v22.6.0 Wed Feb 22 11:34:31 2023

Copyright (c) 1996-2018 Texas Instruments Incorporated
C:\Users\GA5354\AppData\Local\Temp\{6DA7DAC6-2868-4E23-B53B-8B51420AAAC1} PAGE    3

     111                      .dwattr $C$DW$7, DW_AT_low_pc(_GPIO_setQualificationPeriod)
     112                      .dwattr $C$DW$7, DW_AT_high_pc(0x00)
     113                      .dwattr $C$DW$7, DW_AT_TI_symbol_name("_GPIO_setQualificationPeriod")
     114                      .dwattr $C$DW$7, DW_AT_external
     115                      .dwattr $C$DW$7, DW_AT_TI_begin_file("D:/GIANT/GIANT_TI_instaspin/motorware/motorware_1_01_00_18/sw/d
     116                      .dwattr $C$DW$7, DW_AT_TI_begin_line(0x17a)
     117                      .dwattr $C$DW$7, DW_AT_TI_begin_column(0x06)
     118                      .dwattr $C$DW$7, DW_AT_TI_max_frame_size(-2)
     119                      .dwpsn  file "D:/GIANT/GIANT_TI_instaspin/motorware/motorware_1_01_00_18/sw/drivers/gpio/src/32b/f28x
     120              
     121                      .dwfde $C$DW$CIE, _GPIO_setQualificationPeriod
     122              $C$DW$8 .dwtag  DW_TAG_formal_parameter
     123                      .dwattr $C$DW$8, DW_AT_name("gpioHandle")
     124                      .dwattr $C$DW$8, DW_AT_TI_symbol_name("_gpioHandle")
     125                      .dwattr $C$DW$8, DW_AT_type(*$C$DW$T$55)
     126                      .dwattr $C$DW$8, DW_AT_location[DW_OP_reg12]
     127              
     128              $C$DW$9 .dwtag  DW_TAG_formal_parameter
     129                      .dwattr $C$DW$9, DW_AT_name("gpioNumber")
     130                      .dwattr $C$DW$9, DW_AT_TI_symbol_name("_gpioNumber")
     131                      .dwattr $C$DW$9, DW_AT_type(*$C$DW$T$33)
     132                      .dwattr $C$DW$9, DW_AT_location[DW_OP_reg0]
     133              
     134              $C$DW$10        .dwtag  DW_TAG_formal_parameter
     135                      .dwattr $C$DW$10, DW_AT_name("period")
     136                      .dwattr $C$DW$10, DW_AT_TI_symbol_name("_period")
     137                      .dwattr $C$DW$10, DW_AT_type(*$C$DW$T$72)
     138                      .dwattr $C$DW$10, DW_AT_location[DW_OP_reg1]
     139              
     140              
     141              ;***************************************************************
     142              ;* FNAME: _GPIO_setQualificationPeriod  FR SIZE:   0           *
     143              ;*                                                             *
     144              ;* FUNCTION ENVIRONMENT                                        *
     145              ;*                                                             *
     146              ;* FUNCTION PROPERTIES                                         *
     147              ;*                            0 Parameter,  0 Auto,  0 SOE     *
     148              ;***************************************************************
     149              
     150              _GPIO_setQualificationPeriod:
     151              ;* AR4   assigned to _gpioHandle
     152              $C$DW$11        .dwtag  DW_TAG_variable
     153                      .dwattr $C$DW$11, DW_AT_name("gpioHandle")
     154                      .dwattr $C$DW$11, DW_AT_TI_symbol_name("_gpioHandle")
     155                      .dwattr $C$DW$11, DW_AT_type(*$C$DW$T$56)
     156                      .dwattr $C$DW$11, DW_AT_location[DW_OP_reg12]
     157              
     158              ;* AL    assigned to _gpioNumber
     159              $C$DW$12        .dwtag  DW_TAG_variable
     160                      .dwattr $C$DW$12, DW_AT_name("gpioNumber")
     161                      .dwattr $C$DW$12, DW_AT_TI_symbol_name("_gpioNumber")
     162                      .dwattr $C$DW$12, DW_AT_type(*$C$DW$T$34)
     163                      .dwattr $C$DW$12, DW_AT_location[DW_OP_reg0]
     164              
     165              ;* AH    assigned to _period
TMS320C2000 Assembler PC v22.6.0 Wed Feb 22 11:34:31 2023

Copyright (c) 1996-2018 Texas Instruments Incorporated
C:\Users\GA5354\AppData\Local\Temp\{6DA7DAC6-2868-4E23-B53B-8B51420AAAC1} PAGE    4

     166              $C$DW$13        .dwtag  DW_TAG_variable
     167                      .dwattr $C$DW$13, DW_AT_name("period")
     168                      .dwattr $C$DW$13, DW_AT_TI_symbol_name("_period")
     169                      .dwattr $C$DW$13, DW_AT_type(*$C$DW$T$73)
     170                      .dwattr $C$DW$13, DW_AT_location[DW_OP_reg1]
     171              
     172                      .dwcfi  cfa_offset, -2
     173                      .dwcfi  save_reg_to_mem, 26, 0
     174 00000010 7622   EALLOW
     175                      .dwpsn  file "D:/GIANT/GIANT_TI_instaspin/motorware/motorware_1_01_00_18/sw/drivers/gpio/src/32b/f28x
     176 00000011 5207          CMPB      AL,#7                 ; [CPU_ALU] |384| 
     177 00000012 6949          B         $C$L12,LOS            ; [CPU_ALU] |384| 
     178                      ; branchcc occurs ; [] |384| 
     179                      .dwpsn  file "D:/GIANT/GIANT_TI_instaspin/motorware/motorware_1_01_00_18/sw/drivers/gpio/src/32b/f28x
     180 00000013 520F          CMPB      AL,#15                ; [CPU_ALU] |390| 
     181 00000014 693F          B         $C$L10,LOS            ; [CPU_ALU] |390| 
     182                      ; branchcc occurs ; [] |390| 
     183                      .dwpsn  file "D:/GIANT/GIANT_TI_instaspin/motorware/motorware_1_01_00_18/sw/drivers/gpio/src/32b/f28x
     184 00000015 5217          CMPB      AL,#23                ; [CPU_ALU] |396| 
     185 00000016 6937          B         $C$L9,LOS             ; [CPU_ALU] |396| 
     186                      ; branchcc occurs ; [] |396| 
     187                      .dwpsn  file "D:/GIANT/GIANT_TI_instaspin/motorware/motorware_1_01_00_18/sw/drivers/gpio/src/32b/f28x
     188 00000017 521F          CMPB      AL,#31                ; [CPU_ALU] |402| 
     189 00000018 6930          B         $C$L8,LOS             ; [CPU_ALU] |402| 
     190                      ; branchcc occurs ; [] |402| 
     191                      .dwpsn  file "D:/GIANT/GIANT_TI_instaspin/motorware/motorware_1_01_00_18/sw/drivers/gpio/src/32b/f28x
     192 00000019 5227          CMPB      AL,#39                ; [CPU_ALU] |408| 
     193 0000001a 6926          B         $C$L7,LOS             ; [CPU_ALU] |408| 
     194                      ; branchcc occurs ; [] |408| 
     195                      .dwpsn  file "D:/GIANT/GIANT_TI_instaspin/motorware/motorware_1_01_00_18/sw/drivers/gpio/src/32b/f28x
     196 0000001b 522F          CMPB      AL,#47                ; [CPU_ALU] |414| 
     197 0000001c 6919          B         $C$L5,LOS             ; [CPU_ALU] |414| 
     198                      ; branchcc occurs ; [] |414| 
     199                      .dwpsn  file "D:/GIANT/GIANT_TI_instaspin/motorware/motorware_1_01_00_18/sw/drivers/gpio/src/32b/f28x
     200 0000001d 5237          CMPB      AL,#55                ; [CPU_ALU] |420| 
     201 0000001e 690F          B         $C$L4,LOS             ; [CPU_ALU] |420| 
     202                      ; branchcc occurs ; [] |420| 
     203                      .dwpsn  file "D:/GIANT/GIANT_TI_instaspin/motorware/motorware_1_01_00_18/sw/drivers/gpio/src/32b/f28x
     204 0000001f 523F          CMPB      AL,#63                ; [CPU_ALU] |426| 
     205 00000020 6642          B         $C$L15,HI             ; [CPU_ALU] |426| 
     206                      ; branchcc occurs ; [] |426| 
     207                      .dwpsn  file "D:/GIANT/GIANT_TI_instaspin/motorware/motorware_1_01_00_18/sw/drivers/gpio/src/32b/f28x
     208 00000021 83A4          MOVL      XAR5,XAR4             ; [CPU_ALU] |429| 
     209                      .dwpsn  file "D:/GIANT/GIANT_TI_instaspin/motorware/motorware_1_01_00_18/sw/drivers/gpio/src/32b/f28x
     210 00000022 DC10          ADDB      XAR4,#16              ; [CPU_ALU] |430| 
     211                      .dwpsn  file "D:/GIANT/GIANT_TI_instaspin/motorware/motorware_1_01_00_18/sw/drivers/gpio/src/32b/f28x
     212 00000023 DD10          ADDB      XAR5,#16              ; [CPU_ALU] |429| 
     213 00000024 A3C5          MOVL      P,*+XAR5[0]           ; [CPU_ALU] |429| 
     214 00000025 18AA          AND       PH,#255               ; [CPU_ALU] |429| 
         00000026 00FF 
     215 00000027 A9C5          MOVL      *+XAR5[0],P           ; [CPU_ALU] |429| 
     216 00000028       $C$L3:    
     217                      .dwpsn  file "D:/GIANT/GIANT_TI_instaspin/motorware/motorware_1_01_00_18/sw/drivers/gpio/src/32b/f28x
     218 00000028 0EA8          MOVU      ACC,AH                ; [CPU_ALU] |430| 
     219 00000029 28AC          MOV       T,#24                 ; [CPU_ALU] |430| 
TMS320C2000 Assembler PC v22.6.0 Wed Feb 22 11:34:31 2023

Copyright (c) 1996-2018 Texas Instruments Incorporated
C:\Users\GA5354\AppData\Local\Temp\{6DA7DAC6-2868-4E23-B53B-8B51420AAAC1} PAGE    5

         0000002a 0018 
     220 0000002b 563B          LSLL      ACC,T                 ; [CPU_ALU] |430| 
     221 0000002c 6F34          B         $C$L14,UNC            ; [CPU_ALU] |430| 
     222                      ; branch occurs ; [] |430| 
     223 0000002d       $C$L4:    
     224                      .dwpsn  file "D:/GIANT/GIANT_TI_instaspin/motorware/motorware_1_01_00_18/sw/drivers/gpio/src/32b/f28x
     225 0000002d 83A4          MOVL      XAR5,XAR4             ; [CPU_ALU] |423| 
     226 0000002e 2901          CLRC      SXM                   ; [CPU_ALU] 
     227                      .dwpsn  file "D:/GIANT/GIANT_TI_instaspin/motorware/motorware_1_01_00_18/sw/drivers/gpio/src/32b/f28x
     228 0000002f 25A8          MOV       ACC,AH << 16          ; [CPU_ALU] |424| 
     229                      .dwpsn  file "D:/GIANT/GIANT_TI_instaspin/motorware/motorware_1_01_00_18/sw/drivers/gpio/src/32b/f28x
     230 00000030 DD10          ADDB      XAR5,#16              ; [CPU_ALU] |423| 
     231 00000031 A3C5          MOVL      P,*+XAR5[0]           ; [CPU_ALU] |423| 
     232 00000032 18AA          AND       PH,#65280             ; [CPU_ALU] |423| 
         00000033 FF00 
     233 00000034 6F09          B         $C$L6,UNC             ; [CPU_ALU] 
     234                      ; branch occurs ; [] 
     235 00000035       $C$L5:    
     236                      .dwpsn  file "D:/GIANT/GIANT_TI_instaspin/motorware/motorware_1_01_00_18/sw/drivers/gpio/src/32b/f28x
     237 00000035 83A4          MOVL      XAR5,XAR4             ; [CPU_ALU] |417| 
     238 00000036 2901          CLRC      SXM                   ; [CPU_ALU] 
     239                      .dwpsn  file "D:/GIANT/GIANT_TI_instaspin/motorware/motorware_1_01_00_18/sw/drivers/gpio/src/32b/f28x
     240 00000037 5603          MOV       ACC,AH << 8           ; [CPU_ALU] |418| 
         00000038 08A8 
     241                      .dwpsn  file "D:/GIANT/GIANT_TI_instaspin/motorware/motorware_1_01_00_18/sw/drivers/gpio/src/32b/f28x
     242 00000039 DD10          ADDB      XAR5,#16              ; [CPU_ALU] |417| 
     243 0000003a A3C5          MOVL      P,*+XAR5[0]           ; [CPU_ALU] |417| 
     244 0000003b 18AB          AND       PL,#255               ; [CPU_ALU] |417| 
         0000003c 00FF 
     245 0000003d       $C$L6:    
     246 0000003d A9C5          MOVL      *+XAR5[0],P           ; [CPU_ALU] |417| 
     247                      .dwpsn  file "D:/GIANT/GIANT_TI_instaspin/motorware/motorware_1_01_00_18/sw/drivers/gpio/src/32b/f28x
     248 0000003e DC10          ADDB      XAR4,#16              ; [CPU_ALU] |418| 
     249 0000003f 6F21          B         $C$L14,UNC            ; [CPU_ALU] 
     250                      ; branch occurs ; [] 
     251 00000040       $C$L7:    
     252                      .dwpsn  file "D:/GIANT/GIANT_TI_instaspin/motorware/motorware_1_01_00_18/sw/drivers/gpio/src/32b/f28x
     253 00000040 83A4          MOVL      XAR5,XAR4             ; [CPU_ALU] |411| 
     254                      .dwpsn  file "D:/GIANT/GIANT_TI_instaspin/motorware/motorware_1_01_00_18/sw/drivers/gpio/src/32b/f28x
     255 00000041 DC10          ADDB      XAR4,#16              ; [CPU_ALU] |412| 
     256                      .dwpsn  file "D:/GIANT/GIANT_TI_instaspin/motorware/motorware_1_01_00_18/sw/drivers/gpio/src/32b/f28x
     257 00000042 DD10          ADDB      XAR5,#16              ; [CPU_ALU] |411| 
     258 00000043 A3C5          MOVL      P,*+XAR5[0]           ; [CPU_ALU] |411| 
     259 00000044 18AB          AND       PL,#65280             ; [CPU_ALU] |411| 
         00000045 FF00 
     260 00000046 A9C5          MOVL      *+XAR5[0],P           ; [CPU_ALU] |411| 
     261 00000047 6F18          B         $C$L13,UNC            ; [CPU_ALU] 
     262                      ; branch occurs ; [] 
     263 00000048       $C$L8:    
     264                      .dwpsn  file "D:/GIANT/GIANT_TI_instaspin/motorware/motorware_1_01_00_18/sw/drivers/gpio/src/32b/f28x
     265 00000048 A3C4          MOVL      P,*+XAR4[0]           ; [CPU_ALU] |405| 
     266 00000049 18AA          AND       PH,#255               ; [CPU_ALU] |405| 
         0000004a 00FF 
     267 0000004b A9C4          MOVL      *+XAR4[0],P           ; [CPU_ALU] |405| 
     268 0000004c 6FDC          B         $C$L3,UNC             ; [CPU_ALU] 
TMS320C2000 Assembler PC v22.6.0 Wed Feb 22 11:34:31 2023

Copyright (c) 1996-2018 Texas Instruments Incorporated
C:\Users\GA5354\AppData\Local\Temp\{6DA7DAC6-2868-4E23-B53B-8B51420AAAC1} PAGE    6

     269                      ; branch occurs ; [] 
     270 0000004d       $C$L9:    
     271 0000004d 2901          CLRC      SXM                   ; [CPU_ALU] 
     272                      .dwpsn  file "D:/GIANT/GIANT_TI_instaspin/motorware/motorware_1_01_00_18/sw/drivers/gpio/src/32b/f28x
     273 0000004e A3C4          MOVL      P,*+XAR4[0]           ; [CPU_ALU] |399| 
     274                      .dwpsn  file "D:/GIANT/GIANT_TI_instaspin/motorware/motorware_1_01_00_18/sw/drivers/gpio/src/32b/f28x
     275 0000004f 25A8          MOV       ACC,AH << 16          ; [CPU_ALU] |400| 
     276                      .dwpsn  file "D:/GIANT/GIANT_TI_instaspin/motorware/motorware_1_01_00_18/sw/drivers/gpio/src/32b/f28x
     277 00000050 18AA          AND       PH,#65280             ; [CPU_ALU] |399| 
         00000051 FF00 
     278 00000052 6F07          B         $C$L11,UNC            ; [CPU_ALU] 
     279                      ; branch occurs ; [] 
     280 00000053       $C$L10:    
     281 00000053 2901          CLRC      SXM                   ; [CPU_ALU] 
     282                      .dwpsn  file "D:/GIANT/GIANT_TI_instaspin/motorware/motorware_1_01_00_18/sw/drivers/gpio/src/32b/f28x
     283 00000054 A3C4          MOVL      P,*+XAR4[0]           ; [CPU_ALU] |393| 
     284                      .dwpsn  file "D:/GIANT/GIANT_TI_instaspin/motorware/motorware_1_01_00_18/sw/drivers/gpio/src/32b/f28x
     285 00000055 5603          MOV       ACC,AH << 8           ; [CPU_ALU] |394| 
         00000056 08A8 
     286                      .dwpsn  file "D:/GIANT/GIANT_TI_instaspin/motorware/motorware_1_01_00_18/sw/drivers/gpio/src/32b/f28x
     287 00000057 18AB          AND       PL,#255               ; [CPU_ALU] |393| 
         00000058 00FF 
     288 00000059       $C$L11:    
     289 00000059 A9C4          MOVL      *+XAR4[0],P           ; [CPU_ALU] |393| 
     290 0000005a 6F06          B         $C$L14,UNC            ; [CPU_ALU] 
     291                      ; branch occurs ; [] 
     292 0000005b       $C$L12:    
     293                      .dwpsn  file "D:/GIANT/GIANT_TI_instaspin/motorware/motorware_1_01_00_18/sw/drivers/gpio/src/32b/f28x
     294 0000005b A3C4          MOVL      P,*+XAR4[0]           ; [CPU_ALU] |387| 
     295 0000005c 18AB          AND       PL,#65280             ; [CPU_ALU] |387| 
         0000005d FF00 
     296 0000005e A9C4          MOVL      *+XAR4[0],P           ; [CPU_ALU] |387| 
     297 0000005f       $C$L13:    
     298                      .dwpsn  file "D:/GIANT/GIANT_TI_instaspin/motorware/motorware_1_01_00_18/sw/drivers/gpio/src/32b/f28x
     299 0000005f 0EA8          MOVU      ACC,AH                ; [CPU_ALU] |388| 
     300 00000060       $C$L14:    
     301 00000060 98C4          OR        *+XAR4[0],AL          ; [CPU_ALU] |388| 
     302 00000061 99CC          OR        *+XAR4[1],AH          ; [CPU_ALU] |388| 
     303 00000062       $C$L15:    
     304 00000062 761A   EDIS
     305 00000063 FF69          SPM       #0                    ; [CPU_ALU] 
     306              $C$DW$14        .dwtag  DW_TAG_TI_branch
     307                      .dwattr $C$DW$14, DW_AT_low_pc(0x00)
     308                      .dwattr $C$DW$14, DW_AT_TI_return
     309              
     310 00000064 0006          LRETR     ; [CPU_ALU] 
     311                      ; return occurs ; [] 
     312                      .dwattr $C$DW$7, DW_AT_TI_end_file("D:/GIANT/GIANT_TI_instaspin/motorware/motorware_1_01_00_18/sw/dri
     313                      .dwattr $C$DW$7, DW_AT_TI_end_line(0x1b4)
     314                      .dwattr $C$DW$7, DW_AT_TI_end_column(0x01)
     315                      .dwendentry
     316                      .dwendtag $C$DW$7
     317              
     318 00000065               .sect   ".text"
     319                      .clink
TMS320C2000 Assembler PC v22.6.0 Wed Feb 22 11:34:31 2023

Copyright (c) 1996-2018 Texas Instruments Incorporated
C:\Users\GA5354\AppData\Local\Temp\{6DA7DAC6-2868-4E23-B53B-8B51420AAAC1} PAGE    7

     320                      .global _GPIO_setQualification
     321              
     322              $C$DW$15        .dwtag  DW_TAG_subprogram
     323                      .dwattr $C$DW$15, DW_AT_name("GPIO_setQualification")
     324                      .dwattr $C$DW$15, DW_AT_low_pc(_GPIO_setQualification)
     325                      .dwattr $C$DW$15, DW_AT_high_pc(0x00)
     326                      .dwattr $C$DW$15, DW_AT_TI_symbol_name("_GPIO_setQualification")
     327                      .dwattr $C$DW$15, DW_AT_external
     328                      .dwattr $C$DW$15, DW_AT_TI_begin_file("D:/GIANT/GIANT_TI_instaspin/motorware/motorware_1_01_00_18/sw/
     329                      .dwattr $C$DW$15, DW_AT_TI_begin_line(0x155)
     330                      .dwattr $C$DW$15, DW_AT_TI_begin_column(0x06)
     331                      .dwattr $C$DW$15, DW_AT_TI_max_frame_size(-2)
     332                      .dwpsn  file "D:/GIANT/GIANT_TI_instaspin/motorware/motorware_1_01_00_18/sw/drivers/gpio/src/32b/f28x
     333              
     334                      .dwfde $C$DW$CIE, _GPIO_setQualification
     335              $C$DW$16        .dwtag  DW_TAG_formal_parameter
     336                      .dwattr $C$DW$16, DW_AT_name("gpioHandle")
     337                      .dwattr $C$DW$16, DW_AT_TI_symbol_name("_gpioHandle")
     338                      .dwattr $C$DW$16, DW_AT_type(*$C$DW$T$55)
     339                      .dwattr $C$DW$16, DW_AT_location[DW_OP_reg12]
     340              
     341              $C$DW$17        .dwtag  DW_TAG_formal_parameter
     342                      .dwattr $C$DW$17, DW_AT_name("gpioNumber")
     343                      .dwattr $C$DW$17, DW_AT_TI_symbol_name("_gpioNumber")
     344                      .dwattr $C$DW$17, DW_AT_type(*$C$DW$T$33)
     345                      .dwattr $C$DW$17, DW_AT_location[DW_OP_reg0]
     346              
     347              $C$DW$18        .dwtag  DW_TAG_formal_parameter
     348                      .dwattr $C$DW$18, DW_AT_name("qualification")
     349                      .dwattr $C$DW$18, DW_AT_TI_symbol_name("_qualification")
     350                      .dwattr $C$DW$18, DW_AT_type(*$C$DW$T$51)
     351                      .dwattr $C$DW$18, DW_AT_location[DW_OP_reg1]
     352              
     353              
     354              ;***************************************************************
     355              ;* FNAME: _GPIO_setQualification        FR SIZE:   0           *
     356              ;*                                                             *
     357              ;* FUNCTION ENVIRONMENT                                        *
     358              ;*                                                             *
     359              ;* FUNCTION PROPERTIES                                         *
     360              ;*                            0 Parameter,  0 Auto,  0 SOE     *
     361              ;***************************************************************
     362              
     363              _GPIO_setQualification:
     364              ;* T     assigned to $O$C1
     365              ;* T     assigned to $O$C2
     366              ;* T     assigned to $O$C3
     367              ;* AR4   assigned to _gpioHandle
     368              $C$DW$19        .dwtag  DW_TAG_variable
     369                      .dwattr $C$DW$19, DW_AT_name("gpioHandle")
     370                      .dwattr $C$DW$19, DW_AT_TI_symbol_name("_gpioHandle")
     371                      .dwattr $C$DW$19, DW_AT_type(*$C$DW$T$56)
     372                      .dwattr $C$DW$19, DW_AT_location[DW_OP_reg12]
     373              
     374              ;* AL    assigned to _gpioNumber
TMS320C2000 Assembler PC v22.6.0 Wed Feb 22 11:34:31 2023

Copyright (c) 1996-2018 Texas Instruments Incorporated
C:\Users\GA5354\AppData\Local\Temp\{6DA7DAC6-2868-4E23-B53B-8B51420AAAC1} PAGE    8

     375              $C$DW$20        .dwtag  DW_TAG_variable
     376                      .dwattr $C$DW$20, DW_AT_name("gpioNumber")
     377                      .dwattr $C$DW$20, DW_AT_TI_symbol_name("_gpioNumber")
     378                      .dwattr $C$DW$20, DW_AT_type(*$C$DW$T$34)
     379                      .dwattr $C$DW$20, DW_AT_location[DW_OP_reg0]
     380              
     381              ;* AR6   assigned to _qualification
     382              $C$DW$21        .dwtag  DW_TAG_variable
     383                      .dwattr $C$DW$21, DW_AT_name("qualification")
     384                      .dwattr $C$DW$21, DW_AT_TI_symbol_name("_qualification")
     385                      .dwattr $C$DW$21, DW_AT_type(*$C$DW$T$52)
     386                      .dwattr $C$DW$21, DW_AT_location[DW_OP_reg16]
     387              
     388                      .dwcfi  cfa_offset, -2
     389                      .dwcfi  save_reg_to_mem, 26, 0
     390 00000065 88A8          MOVZ      AR6,AH                ; [CPU_ALU] |342| 
     391 00000066 7622   EALLOW
     392                      .dwpsn  file "D:/GIANT/GIANT_TI_instaspin/motorware/motorware_1_01_00_18/sw/drivers/gpio/src/32b/f28x
     393 00000067 520F          CMPB      AL,#15                ; [CPU_ALU] |348| 
     394 00000068 692B          B         $C$L19,LOS            ; [CPU_ALU] |348| 
     395                      ; branchcc occurs ; [] |348| 
     396                      .dwpsn  file "D:/GIANT/GIANT_TI_instaspin/motorware/motorware_1_01_00_18/sw/drivers/gpio/src/32b/f28x
     397 00000069 521F          CMPB      AL,#31                ; [CPU_ALU] |354| 
     398 0000006a 691B          B         $C$L18,LOS            ; [CPU_ALU] |354| 
     399                      ; branchcc occurs ; [] |354| 
     400                      .dwpsn  file "D:/GIANT/GIANT_TI_instaspin/motorware/motorware_1_01_00_18/sw/drivers/gpio/src/32b/f28x
     401 0000006b 522F          CMPB      AL,#47                ; [CPU_ALU] |360| 
     402 0000006c 6908          B         $C$L16,LOS            ; [CPU_ALU] |360| 
     403                      ; branchcc occurs ; [] |360| 
     404                      .dwpsn  file "D:/GIANT/GIANT_TI_instaspin/motorware/motorware_1_01_00_18/sw/drivers/gpio/src/32b/f28x
     405 0000006d 523F          CMPB      AL,#63                ; [CPU_ALU] |366| 
     406 0000006e 6631          B         $C$L20,HI             ; [CPU_ALU] |366| 
     407                      ; branchcc occurs ; [] |366| 
     408                      .dwpsn  file "D:/GIANT/GIANT_TI_instaspin/motorware/motorware_1_01_00_18/sw/drivers/gpio/src/32b/f28x
     409 0000006f 83A4          MOVL      XAR5,XAR4             ; [CPU_ALU] |369| 
     410 00000070 9CD0          ADDB      AL,#-48               ; [CPU_ALU] |369| 
     411                      .dwpsn  file "D:/GIANT/GIANT_TI_instaspin/motorware/motorware_1_01_00_18/sw/drivers/gpio/src/32b/f28x
     412 00000071 DC14          ADDB      XAR4,#20              ; [CPU_ALU] |370| 
     413                      .dwpsn  file "D:/GIANT/GIANT_TI_instaspin/motorware/motorware_1_01_00_18/sw/drivers/gpio/src/32b/f28x
     414 00000072 DD14          ADDB      XAR5,#20              ; [CPU_ALU] |369| 
     415                      .dwpsn  file "D:/GIANT/GIANT_TI_instaspin/motorware/motorware_1_01_00_18/sw/drivers/gpio/src/32b/f28x
     416 00000073 6F05          B         $C$L17,UNC            ; [CPU_ALU] |370| 
     417                      ; branch occurs ; [] |370| 
     418 00000074       $C$L16:    
     419                      .dwpsn  file "D:/GIANT/GIANT_TI_instaspin/motorware/motorware_1_01_00_18/sw/drivers/gpio/src/32b/f28x
     420 00000074 83A4          MOVL      XAR5,XAR4             ; [CPU_ALU] |363| 
     421 00000075 9CE0          ADDB      AL,#-32               ; [CPU_ALU] |363| 
     422                      .dwpsn  file "D:/GIANT/GIANT_TI_instaspin/motorware/motorware_1_01_00_18/sw/drivers/gpio/src/32b/f28x
     423 00000076 DC12          ADDB      XAR4,#18              ; [CPU_ALU] |364| 
     424                      .dwpsn  file "D:/GIANT/GIANT_TI_instaspin/motorware/motorware_1_01_00_18/sw/drivers/gpio/src/32b/f28x
     425 00000077 DD12          ADDB      XAR5,#18              ; [CPU_ALU] |363| 
     426 00000078       $C$L17:    
     427 00000078 5603          MOV       ACC,AL << #1          ; [CPU_ALU] |363| 
         00000079 01A9 
     428 0000007a 2DA9          MOV       T,AL                  ; [CPU_ALU] |363| 
TMS320C2000 Assembler PC v22.6.0 Wed Feb 22 11:34:31 2023

Copyright (c) 1996-2018 Texas Instruments Incorporated
C:\Users\GA5354\AppData\Local\Temp\{6DA7DAC6-2868-4E23-B53B-8B51420AAAC1} PAGE    9

     429 0000007b 0203          MOVB      ACC,#3                ; [CPU_ALU] |363| 
     430 0000007c 563B          LSLL      ACC,T                 ; [CPU_ALU] |363| 
     431 0000007d FF55          NOT       ACC                   ; [CPU_ALU] |363| 
     432 0000007e C0C5          AND       *+XAR5[0],AL          ; [CPU_ALU] |363| 
     433 0000007f C1CD          AND       *+XAR5[1],AH          ; [CPU_ALU] |363| 
     434                      .dwpsn  file "D:/GIANT/GIANT_TI_instaspin/motorware/motorware_1_01_00_18/sw/drivers/gpio/src/32b/f28x
     435 00000080 0EA6          MOVU      ACC,AR6               ; [CPU_ALU] |364| 
     436 00000081 563B          LSLL      ACC,T                 ; [CPU_ALU] |364| 
     437 00000082 98C4          OR        *+XAR4[0],AL          ; [CPU_ALU] |364| 
     438 00000083 99CC          OR        *+XAR4[1],AH          ; [CPU_ALU] |364| 
     439 00000084 6F1B          B         $C$L20,UNC            ; [CPU_ALU] 
     440                      ; branch occurs ; [] 
     441 00000085       $C$L18:    
     442                      .dwpsn  file "D:/GIANT/GIANT_TI_instaspin/motorware/motorware_1_01_00_18/sw/drivers/gpio/src/32b/f28x
     443 00000085 9CF0          ADDB      AL,#-16               ; [CPU_ALU] |357| 
     444 00000086 5603          MOV       ACC,AL << #1          ; [CPU_ALU] |357| 
         00000087 01A9 
     445 00000088 2DA9          MOV       T,AL                  ; [CPU_ALU] |357| 
     446 00000089 0203          MOVB      ACC,#3                ; [CPU_ALU] |357| 
     447 0000008a 563B          LSLL      ACC,T                 ; [CPU_ALU] |357| 
     448 0000008b FF55          NOT       ACC                   ; [CPU_ALU] |357| 
     449 0000008c C0E4          AND       *+XAR4[4],AL          ; [CPU_ALU] |357| 
     450 0000008d C1EC          AND       *+XAR4[5],AH          ; [CPU_ALU] |357| 
     451                      .dwpsn  file "D:/GIANT/GIANT_TI_instaspin/motorware/motorware_1_01_00_18/sw/drivers/gpio/src/32b/f28x
     452 0000008e 0EA6          MOVU      ACC,AR6               ; [CPU_ALU] |358| 
     453 0000008f 563B          LSLL      ACC,T                 ; [CPU_ALU] |358| 
     454 00000090 98E4          OR        *+XAR4[4],AL          ; [CPU_ALU] |358| 
     455 00000091 99EC          OR        *+XAR4[5],AH          ; [CPU_ALU] |358| 
     456 00000092 6F0D          B         $C$L20,UNC            ; [CPU_ALU] 
     457                      ; branch occurs ; [] 
     458 00000093       $C$L19:    
     459                      .dwpsn  file "D:/GIANT/GIANT_TI_instaspin/motorware/motorware_1_01_00_18/sw/drivers/gpio/src/32b/f28x
     460 00000093 5603          MOV       ACC,AL << #1          ; [CPU_ALU] |351| 
         00000094 01A9 
     461 00000095 2DA9          MOV       T,AL                  ; [CPU_ALU] |351| 
     462 00000096 0203          MOVB      ACC,#3                ; [CPU_ALU] |351| 
     463 00000097 563B          LSLL      ACC,T                 ; [CPU_ALU] |351| 
     464 00000098 FF55          NOT       ACC                   ; [CPU_ALU] |351| 
     465 00000099 C0D4          AND       *+XAR4[2],AL          ; [CPU_ALU] |351| 
     466 0000009a C1DC          AND       *+XAR4[3],AH          ; [CPU_ALU] |351| 
     467                      .dwpsn  file "D:/GIANT/GIANT_TI_instaspin/motorware/motorware_1_01_00_18/sw/drivers/gpio/src/32b/f28x
     468 0000009b 0EA6          MOVU      ACC,AR6               ; [CPU_ALU] |352| 
     469 0000009c 563B          LSLL      ACC,T                 ; [CPU_ALU] |352| 
     470 0000009d 98D4          OR        *+XAR4[2],AL          ; [CPU_ALU] |352| 
     471 0000009e 99DC          OR        *+XAR4[3],AH          ; [CPU_ALU] |352| 
     472 0000009f       $C$L20:    
     473 0000009f 761A   EDIS
     474 000000a0 FF69          SPM       #0                    ; [CPU_ALU] 
     475              $C$DW$22        .dwtag  DW_TAG_TI_branch
     476                      .dwattr $C$DW$22, DW_AT_low_pc(0x00)
     477                      .dwattr $C$DW$22, DW_AT_TI_return
     478              
     479 000000a1 0006          LRETR     ; [CPU_ALU] 
     480                      ; return occurs ; [] 
     481                      .dwattr $C$DW$15, DW_AT_TI_end_file("D:/GIANT/GIANT_TI_instaspin/motorware/motorware_1_01_00_18/sw/dr
TMS320C2000 Assembler PC v22.6.0 Wed Feb 22 11:34:31 2023

Copyright (c) 1996-2018 Texas Instruments Incorporated
C:\Users\GA5354\AppData\Local\Temp\{6DA7DAC6-2868-4E23-B53B-8B51420AAAC1} PAGE   10

     482                      .dwattr $C$DW$15, DW_AT_TI_end_line(0x178)
     483                      .dwattr $C$DW$15, DW_AT_TI_end_column(0x01)
     484                      .dwendentry
     485                      .dwendtag $C$DW$15
     486              
     487 000000a2               .sect   ".text"
     488                      .clink
     489                      .global _GPIO_setPullup
     490              
     491              $C$DW$23        .dwtag  DW_TAG_subprogram
     492                      .dwattr $C$DW$23, DW_AT_name("GPIO_setPullup")
     493                      .dwattr $C$DW$23, DW_AT_low_pc(_GPIO_setPullup)
     494                      .dwattr $C$DW$23, DW_AT_high_pc(0x00)
     495                      .dwattr $C$DW$23, DW_AT_TI_symbol_name("_GPIO_setPullup")
     496                      .dwattr $C$DW$23, DW_AT_external
     497                      .dwattr $C$DW$23, DW_AT_TI_begin_file("D:/GIANT/GIANT_TI_instaspin/motorware/motorware_1_01_00_18/sw/
     498                      .dwattr $C$DW$23, DW_AT_TI_begin_line(0x6d)
     499                      .dwattr $C$DW$23, DW_AT_TI_begin_column(0x06)
     500                      .dwattr $C$DW$23, DW_AT_TI_max_frame_size(-2)
     501                      .dwpsn  file "D:/GIANT/GIANT_TI_instaspin/motorware/motorware_1_01_00_18/sw/drivers/gpio/src/32b/f28x
     502              
     503                      .dwfde $C$DW$CIE, _GPIO_setPullup
     504              $C$DW$24        .dwtag  DW_TAG_formal_parameter
     505                      .dwattr $C$DW$24, DW_AT_name("gpioHandle")
     506                      .dwattr $C$DW$24, DW_AT_TI_symbol_name("_gpioHandle")
     507                      .dwattr $C$DW$24, DW_AT_type(*$C$DW$T$55)
     508                      .dwattr $C$DW$24, DW_AT_location[DW_OP_reg12]
     509              
     510              $C$DW$25        .dwtag  DW_TAG_formal_parameter
     511                      .dwattr $C$DW$25, DW_AT_name("gpioNumber")
     512                      .dwattr $C$DW$25, DW_AT_TI_symbol_name("_gpioNumber")
     513                      .dwattr $C$DW$25, DW_AT_type(*$C$DW$T$33)
     514                      .dwattr $C$DW$25, DW_AT_location[DW_OP_reg0]
     515              
     516              $C$DW$26        .dwtag  DW_TAG_formal_parameter
     517                      .dwattr $C$DW$26, DW_AT_name("pullup")
     518                      .dwattr $C$DW$26, DW_AT_TI_symbol_name("_pullup")
     519                      .dwattr $C$DW$26, DW_AT_type(*$C$DW$T$39)
     520                      .dwattr $C$DW$26, DW_AT_location[DW_OP_reg1]
     521              
     522              
     523              ;***************************************************************
     524              ;* FNAME: _GPIO_setPullup               FR SIZE:   0           *
     525              ;*                                                             *
     526              ;* FUNCTION ENVIRONMENT                                        *
     527              ;*                                                             *
     528              ;* FUNCTION PROPERTIES                                         *
     529              ;*                            0 Parameter,  0 Auto,  0 SOE     *
     530              ;***************************************************************
     531              
     532              _GPIO_setPullup:
     533              ;* T     assigned to $O$C1
     534              ;* AR4   assigned to _gpioHandle
     535              $C$DW$27        .dwtag  DW_TAG_variable
     536                      .dwattr $C$DW$27, DW_AT_name("gpioHandle")
TMS320C2000 Assembler PC v22.6.0 Wed Feb 22 11:34:31 2023

Copyright (c) 1996-2018 Texas Instruments Incorporated
C:\Users\GA5354\AppData\Local\Temp\{6DA7DAC6-2868-4E23-B53B-8B51420AAAC1} PAGE   11

     537                      .dwattr $C$DW$27, DW_AT_TI_symbol_name("_gpioHandle")
     538                      .dwattr $C$DW$27, DW_AT_type(*$C$DW$T$56)
     539                      .dwattr $C$DW$27, DW_AT_location[DW_OP_reg12]
     540              
     541              ;* T     assigned to _gpioNumber
     542              $C$DW$28        .dwtag  DW_TAG_variable
     543                      .dwattr $C$DW$28, DW_AT_name("gpioNumber")
     544                      .dwattr $C$DW$28, DW_AT_TI_symbol_name("_gpioNumber")
     545                      .dwattr $C$DW$28, DW_AT_type(*$C$DW$T$34)
     546                      .dwattr $C$DW$28, DW_AT_location[DW_OP_reg22]
     547              
     548              ;* AR6   assigned to _pullup
     549              $C$DW$29        .dwtag  DW_TAG_variable
     550                      .dwattr $C$DW$29, DW_AT_name("pullup")
     551                      .dwattr $C$DW$29, DW_AT_TI_symbol_name("_pullup")
     552                      .dwattr $C$DW$29, DW_AT_type(*$C$DW$T$40)
     553                      .dwattr $C$DW$29, DW_AT_location[DW_OP_reg16]
     554              
     555                      .dwcfi  cfa_offset, -2
     556                      .dwcfi  save_reg_to_mem, 26, 0
     557 000000a2 88A8          MOVZ      AR6,AH                ; [CPU_ALU] |110| 
     558 000000a3 2DA9          MOV       T,AL                  ; [CPU_ALU] |110| 
     559 000000a4 7622   EALLOW
     560                      .dwpsn  file "D:/GIANT/GIANT_TI_instaspin/motorware/motorware_1_01_00_18/sw/drivers/gpio/src/32b/f28x
     561 000000a5 5220          CMPB      AL,#32                ; [CPU_ALU] |116| 
     562 000000a6 6807          B         $C$L21,LO             ; [CPU_ALU] |116| 
     563                      ; branchcc occurs ; [] |116| 
     564                      .dwpsn  file "D:/GIANT/GIANT_TI_instaspin/motorware/motorware_1_01_00_18/sw/drivers/gpio/src/32b/f28x
     565 000000a7 83A4          MOVL      XAR5,XAR4             ; [CPU_ALU] |127| 
     566 000000a8 9CE0          ADDB      AL,#-32               ; [CPU_ALU] |127| 
     567 000000a9 2DA9          MOV       T,AL                  ; [CPU_ALU] |127| 
     568                      .dwpsn  file "D:/GIANT/GIANT_TI_instaspin/motorware/motorware_1_01_00_18/sw/drivers/gpio/src/32b/f28x
     569 000000aa DC1C          ADDB      XAR4,#28              ; [CPU_ALU] |130| 
     570                      .dwpsn  file "D:/GIANT/GIANT_TI_instaspin/motorware/motorware_1_01_00_18/sw/drivers/gpio/src/32b/f28x
     571 000000ab DD1C          ADDB      XAR5,#28              ; [CPU_ALU] |127| 
     572                      .dwpsn  file "D:/GIANT/GIANT_TI_instaspin/motorware/motorware_1_01_00_18/sw/drivers/gpio/src/32b/f28x
     573 000000ac 6F04          B         $C$L22,UNC            ; [CPU_ALU] |130| 
     574                      ; branch occurs ; [] |130| 
     575 000000ad       $C$L21:    
     576                      .dwpsn  file "D:/GIANT/GIANT_TI_instaspin/motorware/motorware_1_01_00_18/sw/drivers/gpio/src/32b/f28x
     577 000000ad 83A4          MOVL      XAR5,XAR4             ; [CPU_ALU] |119| 
     578                      .dwpsn  file "D:/GIANT/GIANT_TI_instaspin/motorware/motorware_1_01_00_18/sw/drivers/gpio/src/32b/f28x
     579 000000ae DC0C          ADDB      XAR4,#12              ; [CPU_ALU] |122| 
     580                      .dwpsn  file "D:/GIANT/GIANT_TI_instaspin/motorware/motorware_1_01_00_18/sw/drivers/gpio/src/32b/f28x
     581 000000af DD0C          ADDB      XAR5,#12              ; [CPU_ALU] |119| 
     582 000000b0       $C$L22:    
     583 000000b0 0201          MOVB      ACC,#1                ; [CPU_ALU] |119| 
     584 000000b1 563B          LSLL      ACC,T                 ; [CPU_ALU] |119| 
     585 000000b2 FF55          NOT       ACC                   ; [CPU_ALU] |119| 
     586 000000b3 C0C5          AND       *+XAR5[0],AL          ; [CPU_ALU] |119| 
     587 000000b4 C1CD          AND       *+XAR5[1],AH          ; [CPU_ALU] |119| 
     588                      .dwpsn  file "D:/GIANT/GIANT_TI_instaspin/motorware/motorware_1_01_00_18/sw/drivers/gpio/src/32b/f28x
     589 000000b5 0EA6          MOVU      ACC,AR6               ; [CPU_ALU] |122| 
     590 000000b6 563B          LSLL      ACC,T                 ; [CPU_ALU] |122| 
     591 000000b7 98C4          OR        *+XAR4[0],AL          ; [CPU_ALU] |122| 
TMS320C2000 Assembler PC v22.6.0 Wed Feb 22 11:34:31 2023

Copyright (c) 1996-2018 Texas Instruments Incorporated
C:\Users\GA5354\AppData\Local\Temp\{6DA7DAC6-2868-4E23-B53B-8B51420AAAC1} PAGE   12

     592 000000b8 99CC          OR        *+XAR4[1],AH          ; [CPU_ALU] |122| 
     593 000000b9 761A   EDIS
     594 000000ba FF69          SPM       #0                    ; [CPU_ALU] 
     595              $C$DW$30        .dwtag  DW_TAG_TI_branch
     596                      .dwattr $C$DW$30, DW_AT_low_pc(0x00)
     597                      .dwattr $C$DW$30, DW_AT_TI_return
     598              
     599 000000bb 0006          LRETR     ; [CPU_ALU] 
     600                      ; return occurs ; [] 
     601                      .dwattr $C$DW$23, DW_AT_TI_end_file("D:/GIANT/GIANT_TI_instaspin/motorware/motorware_1_01_00_18/sw/dr
     602                      .dwattr $C$DW$23, DW_AT_TI_end_line(0x88)
     603                      .dwattr $C$DW$23, DW_AT_TI_end_column(0x01)
     604                      .dwendentry
     605                      .dwendtag $C$DW$23
     606              
     607 000000bc               .sect   ".text"
     608                      .clink
     609                      .global _GPIO_setPortData
     610              
     611              $C$DW$31        .dwtag  DW_TAG_subprogram
     612                      .dwattr $C$DW$31, DW_AT_name("GPIO_setPortData")
     613                      .dwattr $C$DW$31, DW_AT_low_pc(_GPIO_setPortData)
     614                      .dwattr $C$DW$31, DW_AT_high_pc(0x00)
     615                      .dwattr $C$DW$31, DW_AT_TI_symbol_name("_GPIO_setPortData")
     616                      .dwattr $C$DW$31, DW_AT_external
     617                      .dwattr $C$DW$31, DW_AT_TI_begin_file("D:/GIANT/GIANT_TI_instaspin/motorware/motorware_1_01_00_18/sw/
     618                      .dwattr $C$DW$31, DW_AT_TI_begin_line(0x141)
     619                      .dwattr $C$DW$31, DW_AT_TI_begin_column(0x06)
     620                      .dwattr $C$DW$31, DW_AT_TI_max_frame_size(-2)
     621                      .dwpsn  file "D:/GIANT/GIANT_TI_instaspin/motorware/motorware_1_01_00_18/sw/drivers/gpio/src/32b/f28x
     622              
     623                      .dwfde $C$DW$CIE, _GPIO_setPortData
     624              $C$DW$32        .dwtag  DW_TAG_formal_parameter
     625                      .dwattr $C$DW$32, DW_AT_name("gpioHandle")
     626                      .dwattr $C$DW$32, DW_AT_TI_symbol_name("_gpioHandle")
     627                      .dwattr $C$DW$32, DW_AT_type(*$C$DW$T$55)
     628                      .dwattr $C$DW$32, DW_AT_location[DW_OP_reg12]
     629              
     630              $C$DW$33        .dwtag  DW_TAG_formal_parameter
     631                      .dwattr $C$DW$33, DW_AT_name("gpioPort")
     632                      .dwattr $C$DW$33, DW_AT_TI_symbol_name("_gpioPort")
     633                      .dwattr $C$DW$33, DW_AT_type(*$C$DW$T$36)
     634                      .dwattr $C$DW$33, DW_AT_location[DW_OP_reg14]
     635              
     636              $C$DW$34        .dwtag  DW_TAG_formal_parameter
     637                      .dwattr $C$DW$34, DW_AT_name("data")
     638                      .dwattr $C$DW$34, DW_AT_TI_symbol_name("_data")
     639                      .dwattr $C$DW$34, DW_AT_type(*$C$DW$T$20)
     640                      .dwattr $C$DW$34, DW_AT_location[DW_OP_reg0]
     641              
     642              
     643              ;***************************************************************
     644              ;* FNAME: _GPIO_setPortData             FR SIZE:   0           *
     645              ;*                                                             *
     646              ;* FUNCTION ENVIRONMENT                                        *
TMS320C2000 Assembler PC v22.6.0 Wed Feb 22 11:34:31 2023

Copyright (c) 1996-2018 Texas Instruments Incorporated
C:\Users\GA5354\AppData\Local\Temp\{6DA7DAC6-2868-4E23-B53B-8B51420AAAC1} PAGE   13

     647              ;*                                                             *
     648              ;* FUNCTION PROPERTIES                                         *
     649              ;*                            0 Parameter,  0 Auto,  0 SOE     *
     650              ;***************************************************************
     651              
     652              _GPIO_setPortData:
     653              ;* AR4   assigned to _gpioHandle
     654              $C$DW$35        .dwtag  DW_TAG_variable
     655                      .dwattr $C$DW$35, DW_AT_name("gpioHandle")
     656                      .dwattr $C$DW$35, DW_AT_TI_symbol_name("_gpioHandle")
     657                      .dwattr $C$DW$35, DW_AT_type(*$C$DW$T$56)
     658                      .dwattr $C$DW$35, DW_AT_location[DW_OP_reg12]
     659              
     660              ;* AL    assigned to _gpioPort
     661              $C$DW$36        .dwtag  DW_TAG_variable
     662                      .dwattr $C$DW$36, DW_AT_name("gpioPort")
     663                      .dwattr $C$DW$36, DW_AT_TI_symbol_name("_gpioPort")
     664                      .dwattr $C$DW$36, DW_AT_type(*$C$DW$T$37)
     665                      .dwattr $C$DW$36, DW_AT_location[DW_OP_reg0]
     666              
     667              ;* AR6   assigned to _data
     668              $C$DW$37        .dwtag  DW_TAG_variable
     669                      .dwattr $C$DW$37, DW_AT_name("data")
     670                      .dwattr $C$DW$37, DW_AT_TI_symbol_name("_data")
     671                      .dwattr $C$DW$37, DW_AT_type(*$C$DW$T$68)
     672                      .dwattr $C$DW$37, DW_AT_location[DW_OP_reg16]
     673              
     674                      .dwcfi  cfa_offset, -2
     675                      .dwcfi  save_reg_to_mem, 26, 0
     676 000000bc 1EA6          MOVL      XAR6,ACC              ; [CPU_ALU] |322| 
     677 000000bd 92A5          MOV       AL,AR5                ; [CPU_ALU] |322| 
     678 000000be 7622   EALLOW
     679                      .dwpsn  file "D:/GIANT/GIANT_TI_instaspin/motorware/motorware_1_01_00_18/sw/drivers/gpio/src/32b/f28x
     680 000000bf 5200          CMPB      AL,#0                 ; [CPU_ALU] |327| 
     681 000000c0 6105          B         $C$L23,EQ             ; [CPU_ALU] |327| 
     682                      ; branchcc occurs ; [] |327| 
     683                      .dwpsn  file "D:/GIANT/GIANT_TI_instaspin/motorware/motorware_1_01_00_18/sw/drivers/gpio/src/32b/f28x
     684 000000c1 5201          CMPB      AL,#1                 ; [CPU_ALU] |331| 
     685 000000c2 6005          B         $C$L25,NEQ            ; [CPU_ALU] |331| 
     686                      ; branchcc occurs ; [] |331| 
     687                      .dwpsn  file "D:/GIANT/GIANT_TI_instaspin/motorware/motorware_1_01_00_18/sw/drivers/gpio/src/32b/f28x
     688 000000c3 D048          MOVB      XAR0,#72              ; [CPU_ALU] |333| 
     689 000000c4 6F02          B         $C$L24,UNC            ; [CPU_ALU] |333| 
     690                      ; branch occurs ; [] |333| 
     691 000000c5       $C$L23:    
     692                      .dwpsn  file "D:/GIANT/GIANT_TI_instaspin/motorware/motorware_1_01_00_18/sw/drivers/gpio/src/32b/f28x
     693 000000c5 D040          MOVB      XAR0,#64              ; [CPU_ALU] |329| 
     694 000000c6       $C$L24:    
     695 000000c6 C294          MOVL      *+XAR4[AR0],XAR6      ; [CPU_ALU] |329| 
     696 000000c7       $C$L25:    
     697 000000c7 761A   EDIS
     698 000000c8 FF69          SPM       #0                    ; [CPU_ALU] 
     699              $C$DW$38        .dwtag  DW_TAG_TI_branch
     700                      .dwattr $C$DW$38, DW_AT_low_pc(0x00)
     701                      .dwattr $C$DW$38, DW_AT_TI_return
TMS320C2000 Assembler PC v22.6.0 Wed Feb 22 11:34:31 2023

Copyright (c) 1996-2018 Texas Instruments Incorporated
C:\Users\GA5354\AppData\Local\Temp\{6DA7DAC6-2868-4E23-B53B-8B51420AAAC1} PAGE   14

     702              
     703 000000c9 0006          LRETR     ; [CPU_ALU] 
     704                      ; return occurs ; [] 
     705                      .dwattr $C$DW$31, DW_AT_TI_end_file("D:/GIANT/GIANT_TI_instaspin/motorware/motorware_1_01_00_18/sw/dr
     706                      .dwattr $C$DW$31, DW_AT_TI_end_line(0x153)
     707                      .dwattr $C$DW$31, DW_AT_TI_end_column(0x01)
     708                      .dwendentry
     709                      .dwendtag $C$DW$31
     710              
     711 000000ca               .sect   ".text"
     712                      .clink
     713                      .global _GPIO_setMode
     714              
     715              $C$DW$39        .dwtag  DW_TAG_subprogram
     716                      .dwattr $C$DW$39, DW_AT_name("GPIO_setMode")
     717                      .dwattr $C$DW$39, DW_AT_low_pc(_GPIO_setMode)
     718                      .dwattr $C$DW$39, DW_AT_high_pc(0x00)
     719                      .dwattr $C$DW$39, DW_AT_TI_symbol_name("_GPIO_setMode")
     720                      .dwattr $C$DW$39, DW_AT_external
     721                      .dwattr $C$DW$39, DW_AT_TI_begin_file("D:/GIANT/GIANT_TI_instaspin/motorware/motorware_1_01_00_18/sw/
     722                      .dwattr $C$DW$39, DW_AT_TI_begin_line(0x103)
     723                      .dwattr $C$DW$39, DW_AT_TI_begin_column(0x06)
     724                      .dwattr $C$DW$39, DW_AT_TI_max_frame_size(-2)
     725                      .dwpsn  file "D:/GIANT/GIANT_TI_instaspin/motorware/motorware_1_01_00_18/sw/drivers/gpio/src/32b/f28x
     726              
     727                      .dwfde $C$DW$CIE, _GPIO_setMode
     728              $C$DW$40        .dwtag  DW_TAG_formal_parameter
     729                      .dwattr $C$DW$40, DW_AT_name("gpioHandle")
     730                      .dwattr $C$DW$40, DW_AT_TI_symbol_name("_gpioHandle")
     731                      .dwattr $C$DW$40, DW_AT_type(*$C$DW$T$55)
     732                      .dwattr $C$DW$40, DW_AT_location[DW_OP_reg12]
     733              
     734              $C$DW$41        .dwtag  DW_TAG_formal_parameter
     735                      .dwattr $C$DW$41, DW_AT_name("gpioNumber")
     736                      .dwattr $C$DW$41, DW_AT_TI_symbol_name("_gpioNumber")
     737                      .dwattr $C$DW$41, DW_AT_type(*$C$DW$T$33)
     738                      .dwattr $C$DW$41, DW_AT_location[DW_OP_reg0]
     739              
     740              $C$DW$42        .dwtag  DW_TAG_formal_parameter
     741                      .dwattr $C$DW$42, DW_AT_name("mode")
     742                      .dwattr $C$DW$42, DW_AT_TI_symbol_name("_mode")
     743                      .dwattr $C$DW$42, DW_AT_type(*$C$DW$T$48)
     744                      .dwattr $C$DW$42, DW_AT_location[DW_OP_reg1]
     745              
     746              
     747              ;***************************************************************
     748              ;* FNAME: _GPIO_setMode                 FR SIZE:   0           *
     749              ;*                                                             *
     750              ;* FUNCTION ENVIRONMENT                                        *
     751              ;*                                                             *
     752              ;* FUNCTION PROPERTIES                                         *
     753              ;*                            0 Parameter,  0 Auto,  0 SOE     *
     754              ;***************************************************************
     755              
     756              _GPIO_setMode:
TMS320C2000 Assembler PC v22.6.0 Wed Feb 22 11:34:31 2023

Copyright (c) 1996-2018 Texas Instruments Incorporated
C:\Users\GA5354\AppData\Local\Temp\{6DA7DAC6-2868-4E23-B53B-8B51420AAAC1} PAGE   15

     757              ;* T     assigned to $O$C1
     758              ;* T     assigned to $O$C4
     759              ;* AR4   assigned to _gpioHandle
     760              $C$DW$43        .dwtag  DW_TAG_variable
     761                      .dwattr $C$DW$43, DW_AT_name("gpioHandle")
     762                      .dwattr $C$DW$43, DW_AT_TI_symbol_name("_gpioHandle")
     763                      .dwattr $C$DW$43, DW_AT_type(*$C$DW$T$56)
     764                      .dwattr $C$DW$43, DW_AT_location[DW_OP_reg12]
     765              
     766              ;* AL    assigned to _gpioNumber
     767              $C$DW$44        .dwtag  DW_TAG_variable
     768                      .dwattr $C$DW$44, DW_AT_name("gpioNumber")
     769                      .dwattr $C$DW$44, DW_AT_TI_symbol_name("_gpioNumber")
     770                      .dwattr $C$DW$44, DW_AT_type(*$C$DW$T$34)
     771                      .dwattr $C$DW$44, DW_AT_location[DW_OP_reg0]
     772              
     773              ;* AR6   assigned to _mode
     774              $C$DW$45        .dwtag  DW_TAG_variable
     775                      .dwattr $C$DW$45, DW_AT_name("mode")
     776                      .dwattr $C$DW$45, DW_AT_TI_symbol_name("_mode")
     777                      .dwattr $C$DW$45, DW_AT_type(*$C$DW$T$49)
     778                      .dwattr $C$DW$45, DW_AT_location[DW_OP_reg16]
     779              
     780                      .dwcfi  cfa_offset, -2
     781                      .dwcfi  save_reg_to_mem, 26, 0
     782 000000ca 88A8          MOVZ      AR6,AH                ; [CPU_ALU] |260| 
     783 000000cb 7622   EALLOW
     784                      .dwpsn  file "D:/GIANT/GIANT_TI_instaspin/motorware/motorware_1_01_00_18/sw/drivers/gpio/src/32b/f28x
     785 000000cc 5210          CMPB      AL,#16                ; [CPU_ALU] |266| 
     786 000000cd 6822          B         $C$L29,LO             ; [CPU_ALU] |266| 
     787                      ; branchcc occurs ; [] |266| 
     788                      .dwpsn  file "D:/GIANT/GIANT_TI_instaspin/motorware/motorware_1_01_00_18/sw/drivers/gpio/src/32b/f28x
     789 000000ce 5220          CMPB      AL,#32                ; [CPU_ALU] |278| 
     790 000000cf 681B          B         $C$L28,LO             ; [CPU_ALU] |278| 
     791                      ; branchcc occurs ; [] |278| 
     792                      .dwpsn  file "D:/GIANT/GIANT_TI_instaspin/motorware/motorware_1_01_00_18/sw/drivers/gpio/src/32b/f28x
     793 000000d0 5230          CMPB      AL,#48                ; [CPU_ALU] |290| 
     794 000000d1 6814          B         $C$L27,LO             ; [CPU_ALU] |290| 
     795                      ; branchcc occurs ; [] |290| 
     796                      .dwpsn  file "D:/GIANT/GIANT_TI_instaspin/motorware/motorware_1_01_00_18/sw/drivers/gpio/src/32b/f28x
     797 000000d2 5240          CMPB      AL,#64                ; [CPU_ALU] |302| 
     798 000000d3 6728          B         $C$L30,HIS            ; [CPU_ALU] |302| 
     799                      ; branchcc occurs ; [] |302| 
     800                      .dwpsn  file "D:/GIANT/GIANT_TI_instaspin/motorware/motorware_1_01_00_18/sw/drivers/gpio/src/32b/f28x
     801 000000d4 83A4          MOVL      XAR5,XAR4             ; [CPU_ALU] |309| 
     802 000000d5 9CD0          ADDB      AL,#-48               ; [CPU_ALU] |309| 
     803                      .dwpsn  file "D:/GIANT/GIANT_TI_instaspin/motorware/motorware_1_01_00_18/sw/drivers/gpio/src/32b/f28x
     804 000000d6 DC18          ADDB      XAR4,#24              ; [CPU_ALU] |312| 
     805                      .dwpsn  file "D:/GIANT/GIANT_TI_instaspin/motorware/motorware_1_01_00_18/sw/drivers/gpio/src/32b/f28x
     806 000000d7 DD18          ADDB      XAR5,#24              ; [CPU_ALU] |309| 
     807 000000d8       $C$L26:    
     808 000000d8 5603          MOV       ACC,AL << #1          ; [CPU_ALU] |309| 
         000000d9 01A9 
     809 000000da 2DA9          MOV       T,AL                  ; [CPU_ALU] |309| 
     810 000000db 0203          MOVB      ACC,#3                ; [CPU_ALU] |309| 
TMS320C2000 Assembler PC v22.6.0 Wed Feb 22 11:34:31 2023

Copyright (c) 1996-2018 Texas Instruments Incorporated
C:\Users\GA5354\AppData\Local\Temp\{6DA7DAC6-2868-4E23-B53B-8B51420AAAC1} PAGE   16

     811 000000dc 563B          LSLL      ACC,T                 ; [CPU_ALU] |309| 
     812 000000dd FF55          NOT       ACC                   ; [CPU_ALU] |309| 
     813 000000de C0C5          AND       *+XAR5[0],AL          ; [CPU_ALU] |309| 
     814 000000df C1CD          AND       *+XAR5[1],AH          ; [CPU_ALU] |309| 
     815                      .dwpsn  file "D:/GIANT/GIANT_TI_instaspin/motorware/motorware_1_01_00_18/sw/drivers/gpio/src/32b/f28x
     816 000000e0 0EA6          MOVU      ACC,AR6               ; [CPU_ALU] |312| 
     817 000000e1 563B          LSLL      ACC,T                 ; [CPU_ALU] |312| 
     818 000000e2 98C4          OR        *+XAR4[0],AL          ; [CPU_ALU] |312| 
     819 000000e3 99CC          OR        *+XAR4[1],AH          ; [CPU_ALU] |312| 
     820 000000e4 6F17          B         $C$L30,UNC            ; [CPU_ALU] |312| 
     821                      ; branch occurs ; [] |312| 
     822 000000e5       $C$L27:    
     823                      .dwpsn  file "D:/GIANT/GIANT_TI_instaspin/motorware/motorware_1_01_00_18/sw/drivers/gpio/src/32b/f28x
     824 000000e5 83A4          MOVL      XAR5,XAR4             ; [CPU_ALU] |297| 
     825 000000e6 9CE0          ADDB      AL,#-32               ; [CPU_ALU] |297| 
     826                      .dwpsn  file "D:/GIANT/GIANT_TI_instaspin/motorware/motorware_1_01_00_18/sw/drivers/gpio/src/32b/f28x
     827 000000e7 DC16          ADDB      XAR4,#22              ; [CPU_ALU] |300| 
     828                      .dwpsn  file "D:/GIANT/GIANT_TI_instaspin/motorware/motorware_1_01_00_18/sw/drivers/gpio/src/32b/f28x
     829 000000e8 DD16          ADDB      XAR5,#22              ; [CPU_ALU] |297| 
     830 000000e9 6FEF          B         $C$L26,UNC            ; [CPU_ALU] 
     831                      ; branch occurs ; [] 
     832 000000ea       $C$L28:    
     833                      .dwpsn  file "D:/GIANT/GIANT_TI_instaspin/motorware/motorware_1_01_00_18/sw/drivers/gpio/src/32b/f28x
     834 000000ea 83A4          MOVL      XAR5,XAR4             ; [CPU_ALU] |285| 
     835 000000eb 9CF0          ADDB      AL,#-16               ; [CPU_ALU] |285| 
     836                      .dwpsn  file "D:/GIANT/GIANT_TI_instaspin/motorware/motorware_1_01_00_18/sw/drivers/gpio/src/32b/f28x
     837 000000ec DC08          ADDB      XAR4,#8               ; [CPU_ALU] |288| 
     838                      .dwpsn  file "D:/GIANT/GIANT_TI_instaspin/motorware/motorware_1_01_00_18/sw/drivers/gpio/src/32b/f28x
     839 000000ed DD08          ADDB      XAR5,#8               ; [CPU_ALU] |285| 
     840 000000ee 6FEA          B         $C$L26,UNC            ; [CPU_ALU] 
     841                      ; branch occurs ; [] 
     842 000000ef       $C$L29:    
     843                      .dwpsn  file "D:/GIANT/GIANT_TI_instaspin/motorware/motorware_1_01_00_18/sw/drivers/gpio/src/32b/f28x
     844 000000ef 5603          MOV       ACC,AL << #1          ; [CPU_ALU] |273| 
         000000f0 01A9 
     845 000000f1 2DA9          MOV       T,AL                  ; [CPU_ALU] |273| 
     846 000000f2 0203          MOVB      ACC,#3                ; [CPU_ALU] |273| 
     847 000000f3 563B          LSLL      ACC,T                 ; [CPU_ALU] |273| 
     848 000000f4 FF55          NOT       ACC                   ; [CPU_ALU] |273| 
     849 000000f5 C0F4          AND       *+XAR4[6],AL          ; [CPU_ALU] |273| 
     850 000000f6 C1FC          AND       *+XAR4[7],AH          ; [CPU_ALU] |273| 
     851                      .dwpsn  file "D:/GIANT/GIANT_TI_instaspin/motorware/motorware_1_01_00_18/sw/drivers/gpio/src/32b/f28x
     852 000000f7 0EA6          MOVU      ACC,AR6               ; [CPU_ALU] |276| 
     853 000000f8 563B          LSLL      ACC,T                 ; [CPU_ALU] |276| 
     854 000000f9 98F4          OR        *+XAR4[6],AL          ; [CPU_ALU] |276| 
     855 000000fa 99FC          OR        *+XAR4[7],AH          ; [CPU_ALU] |276| 
     856 000000fb       $C$L30:    
     857 000000fb 761A   EDIS
     858 000000fc FF69          SPM       #0                    ; [CPU_ALU] 
     859              $C$DW$46        .dwtag  DW_TAG_TI_branch
     860                      .dwattr $C$DW$46, DW_AT_low_pc(0x00)
     861                      .dwattr $C$DW$46, DW_AT_TI_return
     862              
     863 000000fd 0006          LRETR     ; [CPU_ALU] 
     864                      ; return occurs ; [] 
TMS320C2000 Assembler PC v22.6.0 Wed Feb 22 11:34:31 2023

Copyright (c) 1996-2018 Texas Instruments Incorporated
C:\Users\GA5354\AppData\Local\Temp\{6DA7DAC6-2868-4E23-B53B-8B51420AAAC1} PAGE   17

     865                      .dwattr $C$DW$39, DW_AT_TI_end_file("D:/GIANT/GIANT_TI_instaspin/motorware/motorware_1_01_00_18/sw/dr
     866                      .dwattr $C$DW$39, DW_AT_TI_end_line(0x13e)
     867                      .dwattr $C$DW$39, DW_AT_TI_end_column(0x01)
     868                      .dwendentry
     869                      .dwendtag $C$DW$39
     870              
     871 000000fe               .sect   ".text"
     872                      .clink
     873                      .global _GPIO_setLow
     874              
     875              $C$DW$47        .dwtag  DW_TAG_subprogram
     876                      .dwattr $C$DW$47, DW_AT_name("GPIO_setLow")
     877                      .dwattr $C$DW$47, DW_AT_low_pc(_GPIO_setLow)
     878                      .dwattr $C$DW$47, DW_AT_high_pc(0x00)
     879                      .dwattr $C$DW$47, DW_AT_TI_symbol_name("_GPIO_setLow")
     880                      .dwattr $C$DW$47, DW_AT_external
     881                      .dwattr $C$DW$47, DW_AT_TI_begin_file("D:/GIANT/GIANT_TI_instaspin/motorware/motorware_1_01_00_18/sw/
     882                      .dwattr $C$DW$47, DW_AT_TI_begin_line(0xed)
     883                      .dwattr $C$DW$47, DW_AT_TI_begin_column(0x06)
     884                      .dwattr $C$DW$47, DW_AT_TI_max_frame_size(-2)
     885                      .dwpsn  file "D:/GIANT/GIANT_TI_instaspin/motorware/motorware_1_01_00_18/sw/drivers/gpio/src/32b/f28x
     886              
     887                      .dwfde $C$DW$CIE, _GPIO_setLow
     888              $C$DW$48        .dwtag  DW_TAG_formal_parameter
     889                      .dwattr $C$DW$48, DW_AT_name("gpioHandle")
     890                      .dwattr $C$DW$48, DW_AT_TI_symbol_name("_gpioHandle")
     891                      .dwattr $C$DW$48, DW_AT_type(*$C$DW$T$55)
     892                      .dwattr $C$DW$48, DW_AT_location[DW_OP_reg12]
     893              
     894              $C$DW$49        .dwtag  DW_TAG_formal_parameter
     895                      .dwattr $C$DW$49, DW_AT_name("gpioNumber")
     896                      .dwattr $C$DW$49, DW_AT_TI_symbol_name("_gpioNumber")
     897                      .dwattr $C$DW$49, DW_AT_type(*$C$DW$T$33)
     898                      .dwattr $C$DW$49, DW_AT_location[DW_OP_reg0]
     899              
     900              
     901              ;***************************************************************
     902              ;* FNAME: _GPIO_setLow                  FR SIZE:   0           *
     903              ;*                                                             *
     904              ;* FUNCTION ENVIRONMENT                                        *
     905              ;*                                                             *
     906              ;* FUNCTION PROPERTIES                                         *
     907              ;*                            0 Parameter,  0 Auto,  0 SOE     *
     908              ;***************************************************************
     909              
     910              _GPIO_setLow:
     911              ;* AR4   assigned to _gpioHandle
     912              $C$DW$50        .dwtag  DW_TAG_variable
     913                      .dwattr $C$DW$50, DW_AT_name("gpioHandle")
     914                      .dwattr $C$DW$50, DW_AT_TI_symbol_name("_gpioHandle")
     915                      .dwattr $C$DW$50, DW_AT_type(*$C$DW$T$56)
     916                      .dwattr $C$DW$50, DW_AT_location[DW_OP_reg12]
     917              
     918              ;* T     assigned to _gpioNumber
     919              $C$DW$51        .dwtag  DW_TAG_variable
TMS320C2000 Assembler PC v22.6.0 Wed Feb 22 11:34:31 2023

Copyright (c) 1996-2018 Texas Instruments Incorporated
C:\Users\GA5354\AppData\Local\Temp\{6DA7DAC6-2868-4E23-B53B-8B51420AAAC1} PAGE   18

     920                      .dwattr $C$DW$51, DW_AT_name("gpioNumber")
     921                      .dwattr $C$DW$51, DW_AT_TI_symbol_name("_gpioNumber")
     922                      .dwattr $C$DW$51, DW_AT_type(*$C$DW$T$34)
     923                      .dwattr $C$DW$51, DW_AT_location[DW_OP_reg22]
     924              
     925                      .dwcfi  cfa_offset, -2
     926                      .dwcfi  save_reg_to_mem, 26, 0
     927 000000fe 2DA9          MOV       T,AL                  ; [CPU_ALU] |238| 
     928 000000ff 7622   EALLOW
     929                      .dwpsn  file "D:/GIANT/GIANT_TI_instaspin/motorware/motorware_1_01_00_18/sw/drivers/gpio/src/32b/f28x
     930 00000100 5220          CMPB      AL,#32                ; [CPU_ALU] |244| 
     931 00000101 6806          B         $C$L31,LO             ; [CPU_ALU] |244| 
     932                      ; branchcc occurs ; [] |244| 
     933                      .dwpsn  file "D:/GIANT/GIANT_TI_instaspin/motorware/motorware_1_01_00_18/sw/drivers/gpio/src/32b/f28x
     934 00000102 5DAC          MOVZ      AR5,T                 ; [CPU_ALU] |250| 
     935 00000103 D04C          MOVB      XAR0,#76              ; [CPU_ALU] |250| 
     936 00000104 DDA0          SUBB      XAR5,#32              ; [CPU_ARAU] |250| 
     937 00000105 2DA5          MOV       T,AR5                 ; [CPU_ALU] |250| 
     938 00000106 6F02          B         $C$L32,UNC            ; [CPU_ALU] |250| 
     939                      ; branch occurs ; [] |250| 
     940 00000107       $C$L31:    
     941                      .dwpsn  file "D:/GIANT/GIANT_TI_instaspin/motorware/motorware_1_01_00_18/sw/drivers/gpio/src/32b/f28x
     942 00000107 D044          MOVB      XAR0,#68              ; [CPU_ALU] |246| 
     943 00000108       $C$L32:    
     944 00000108 0201          MOVB      ACC,#1                ; [CPU_ALU] |246| 
     945 00000109 563B          LSLL      ACC,T                 ; [CPU_ALU] |246| 
     946 0000010a 1E94          MOVL      *+XAR4[AR0],ACC       ; [CPU_ALU] |246| 
     947 0000010b 761A   EDIS
     948 0000010c FF69          SPM       #0                    ; [CPU_ALU] 
     949              $C$DW$52        .dwtag  DW_TAG_TI_branch
     950                      .dwattr $C$DW$52, DW_AT_low_pc(0x00)
     951                      .dwattr $C$DW$52, DW_AT_TI_return
     952              
     953 0000010d 0006          LRETR     ; [CPU_ALU] 
     954                      ; return occurs ; [] 
     955                      .dwattr $C$DW$47, DW_AT_TI_end_file("D:/GIANT/GIANT_TI_instaspin/motorware/motorware_1_01_00_18/sw/dr
     956                      .dwattr $C$DW$47, DW_AT_TI_end_line(0x100)
     957                      .dwattr $C$DW$47, DW_AT_TI_end_column(0x01)
     958                      .dwendentry
     959                      .dwendtag $C$DW$47
     960              
     961 0000010e               .sect   ".text"
     962                      .clink
     963                      .global _GPIO_setHigh
     964              
     965              $C$DW$53        .dwtag  DW_TAG_subprogram
     966                      .dwattr $C$DW$53, DW_AT_name("GPIO_setHigh")
     967                      .dwattr $C$DW$53, DW_AT_low_pc(_GPIO_setHigh)
     968                      .dwattr $C$DW$53, DW_AT_high_pc(0x00)
     969                      .dwattr $C$DW$53, DW_AT_TI_symbol_name("_GPIO_setHigh")
     970                      .dwattr $C$DW$53, DW_AT_external
     971                      .dwattr $C$DW$53, DW_AT_TI_begin_file("D:/GIANT/GIANT_TI_instaspin/motorware/motorware_1_01_00_18/sw/
     972                      .dwattr $C$DW$53, DW_AT_TI_begin_line(0xd7)
     973                      .dwattr $C$DW$53, DW_AT_TI_begin_column(0x06)
     974                      .dwattr $C$DW$53, DW_AT_TI_max_frame_size(-2)
TMS320C2000 Assembler PC v22.6.0 Wed Feb 22 11:34:31 2023

Copyright (c) 1996-2018 Texas Instruments Incorporated
C:\Users\GA5354\AppData\Local\Temp\{6DA7DAC6-2868-4E23-B53B-8B51420AAAC1} PAGE   19

     975                      .dwpsn  file "D:/GIANT/GIANT_TI_instaspin/motorware/motorware_1_01_00_18/sw/drivers/gpio/src/32b/f28x
     976              
     977                      .dwfde $C$DW$CIE, _GPIO_setHigh
     978              $C$DW$54        .dwtag  DW_TAG_formal_parameter
     979                      .dwattr $C$DW$54, DW_AT_name("gpioHandle")
     980                      .dwattr $C$DW$54, DW_AT_TI_symbol_name("_gpioHandle")
     981                      .dwattr $C$DW$54, DW_AT_type(*$C$DW$T$55)
     982                      .dwattr $C$DW$54, DW_AT_location[DW_OP_reg12]
     983              
     984              $C$DW$55        .dwtag  DW_TAG_formal_parameter
     985                      .dwattr $C$DW$55, DW_AT_name("gpioNumber")
     986                      .dwattr $C$DW$55, DW_AT_TI_symbol_name("_gpioNumber")
     987                      .dwattr $C$DW$55, DW_AT_type(*$C$DW$T$33)
     988                      .dwattr $C$DW$55, DW_AT_location[DW_OP_reg0]
     989              
     990              
     991              ;***************************************************************
     992              ;* FNAME: _GPIO_setHigh                 FR SIZE:   0           *
     993              ;*                                                             *
     994              ;* FUNCTION ENVIRONMENT                                        *
     995              ;*                                                             *
     996              ;* FUNCTION PROPERTIES                                         *
     997              ;*                            0 Parameter,  0 Auto,  0 SOE     *
     998              ;***************************************************************
     999              
    1000              _GPIO_setHigh:
    1001              ;* AR4   assigned to _gpioHandle
    1002              $C$DW$56        .dwtag  DW_TAG_variable
    1003                      .dwattr $C$DW$56, DW_AT_name("gpioHandle")
    1004                      .dwattr $C$DW$56, DW_AT_TI_symbol_name("_gpioHandle")
    1005                      .dwattr $C$DW$56, DW_AT_type(*$C$DW$T$56)
    1006                      .dwattr $C$DW$56, DW_AT_location[DW_OP_reg12]
    1007              
    1008              ;* T     assigned to _gpioNumber
    1009              $C$DW$57        .dwtag  DW_TAG_variable
    1010                      .dwattr $C$DW$57, DW_AT_name("gpioNumber")
    1011                      .dwattr $C$DW$57, DW_AT_TI_symbol_name("_gpioNumber")
    1012                      .dwattr $C$DW$57, DW_AT_type(*$C$DW$T$34)
    1013                      .dwattr $C$DW$57, DW_AT_location[DW_OP_reg22]
    1014              
    1015                      .dwcfi  cfa_offset, -2
    1016                      .dwcfi  save_reg_to_mem, 26, 0
    1017 0000010e 2DA9          MOV       T,AL                  ; [CPU_ALU] |216| 
    1018 0000010f 7622   EALLOW
    1019                      .dwpsn  file "D:/GIANT/GIANT_TI_instaspin/motorware/motorware_1_01_00_18/sw/drivers/gpio/src/32b/f28x
    1020 00000110 5220          CMPB      AL,#32                ; [CPU_ALU] |222| 
    1021 00000111 6806          B         $C$L33,LO             ; [CPU_ALU] |222| 
    1022                      ; branchcc occurs ; [] |222| 
    1023                      .dwpsn  file "D:/GIANT/GIANT_TI_instaspin/motorware/motorware_1_01_00_18/sw/drivers/gpio/src/32b/f28x
    1024 00000112 5DAC          MOVZ      AR5,T                 ; [CPU_ALU] |228| 
    1025 00000113 D04A          MOVB      XAR0,#74              ; [CPU_ALU] |228| 
    1026 00000114 DDA0          SUBB      XAR5,#32              ; [CPU_ARAU] |228| 
    1027 00000115 2DA5          MOV       T,AR5                 ; [CPU_ALU] |228| 
    1028 00000116 6F02          B         $C$L34,UNC            ; [CPU_ALU] |228| 
    1029                      ; branch occurs ; [] |228| 
TMS320C2000 Assembler PC v22.6.0 Wed Feb 22 11:34:31 2023

Copyright (c) 1996-2018 Texas Instruments Incorporated
C:\Users\GA5354\AppData\Local\Temp\{6DA7DAC6-2868-4E23-B53B-8B51420AAAC1} PAGE   20

    1030 00000117       $C$L33:    
    1031                      .dwpsn  file "D:/GIANT/GIANT_TI_instaspin/motorware/motorware_1_01_00_18/sw/drivers/gpio/src/32b/f28x
    1032 00000117 D042          MOVB      XAR0,#66              ; [CPU_ALU] |224| 
    1033 00000118       $C$L34:    
    1034 00000118 0201          MOVB      ACC,#1                ; [CPU_ALU] |224| 
    1035 00000119 563B          LSLL      ACC,T                 ; [CPU_ALU] |224| 
    1036 0000011a 1E94          MOVL      *+XAR4[AR0],ACC       ; [CPU_ALU] |224| 
    1037 0000011b 761A   EDIS
    1038 0000011c FF69          SPM       #0                    ; [CPU_ALU] 
    1039              $C$DW$58        .dwtag  DW_TAG_TI_branch
    1040                      .dwattr $C$DW$58, DW_AT_low_pc(0x00)
    1041                      .dwattr $C$DW$58, DW_AT_TI_return
    1042              
    1043 0000011d 0006          LRETR     ; [CPU_ALU] 
    1044                      ; return occurs ; [] 
    1045                      .dwattr $C$DW$53, DW_AT_TI_end_file("D:/GIANT/GIANT_TI_instaspin/motorware/motorware_1_01_00_18/sw/dr
    1046                      .dwattr $C$DW$53, DW_AT_TI_end_line(0xea)
    1047                      .dwattr $C$DW$53, DW_AT_TI_end_column(0x01)
    1048                      .dwendentry
    1049                      .dwendtag $C$DW$53
    1050              
    1051 0000011e               .sect   ".text"
    1052                      .clink
    1053                      .global _GPIO_setExtInt
    1054              
    1055              $C$DW$59        .dwtag  DW_TAG_subprogram
    1056                      .dwattr $C$DW$59, DW_AT_name("GPIO_setExtInt")
    1057                      .dwattr $C$DW$59, DW_AT_low_pc(_GPIO_setExtInt)
    1058                      .dwattr $C$DW$59, DW_AT_high_pc(0x00)
    1059                      .dwattr $C$DW$59, DW_AT_TI_symbol_name("_GPIO_setExtInt")
    1060                      .dwattr $C$DW$59, DW_AT_external
    1061                      .dwattr $C$DW$59, DW_AT_TI_begin_file("D:/GIANT/GIANT_TI_instaspin/motorware/motorware_1_01_00_18/sw/
    1062                      .dwattr $C$DW$59, DW_AT_TI_begin_line(0xa9)
    1063                      .dwattr $C$DW$59, DW_AT_TI_begin_column(0x06)
    1064                      .dwattr $C$DW$59, DW_AT_TI_max_frame_size(-2)
    1065                      .dwpsn  file "D:/GIANT/GIANT_TI_instaspin/motorware/motorware_1_01_00_18/sw/drivers/gpio/src/32b/f28x
    1066              
    1067                      .dwfde $C$DW$CIE, _GPIO_setExtInt
    1068              $C$DW$60        .dwtag  DW_TAG_formal_parameter
    1069                      .dwattr $C$DW$60, DW_AT_name("gpioHandle")
    1070                      .dwattr $C$DW$60, DW_AT_TI_symbol_name("_gpioHandle")
    1071                      .dwattr $C$DW$60, DW_AT_type(*$C$DW$T$55)
    1072                      .dwattr $C$DW$60, DW_AT_location[DW_OP_reg12]
    1073              
    1074              $C$DW$61        .dwtag  DW_TAG_formal_parameter
    1075                      .dwattr $C$DW$61, DW_AT_name("gpioNumber")
    1076                      .dwattr $C$DW$61, DW_AT_TI_symbol_name("_gpioNumber")
    1077                      .dwattr $C$DW$61, DW_AT_type(*$C$DW$T$33)
    1078                      .dwattr $C$DW$61, DW_AT_location[DW_OP_reg0]
    1079              
    1080              $C$DW$62        .dwtag  DW_TAG_formal_parameter
    1081                      .dwattr $C$DW$62, DW_AT_name("intNumber")
    1082                      .dwattr $C$DW$62, DW_AT_TI_symbol_name("_intNumber")
    1083                      .dwattr $C$DW$62, DW_AT_type(*$C$DW$T$45)
    1084                      .dwattr $C$DW$62, DW_AT_location[DW_OP_reg1]
TMS320C2000 Assembler PC v22.6.0 Wed Feb 22 11:34:31 2023

Copyright (c) 1996-2018 Texas Instruments Incorporated
C:\Users\GA5354\AppData\Local\Temp\{6DA7DAC6-2868-4E23-B53B-8B51420AAAC1} PAGE   21

    1085              
    1086              
    1087              ;***************************************************************
    1088              ;* FNAME: _GPIO_setExtInt               FR SIZE:   0           *
    1089              ;*                                                             *
    1090              ;* FUNCTION ENVIRONMENT                                        *
    1091              ;*                                                             *
    1092              ;* FUNCTION PROPERTIES                                         *
    1093              ;*                            0 Parameter,  0 Auto,  0 SOE     *
    1094              ;***************************************************************
    1095              
    1096              _GPIO_setExtInt:
    1097              ;* AR6   assigned to _gpioNumber
    1098              $C$DW$63        .dwtag  DW_TAG_variable
    1099                      .dwattr $C$DW$63, DW_AT_name("gpioNumber")
    1100                      .dwattr $C$DW$63, DW_AT_TI_symbol_name("_gpioNumber")
    1101                      .dwattr $C$DW$63, DW_AT_type(*$C$DW$T$34)
    1102                      .dwattr $C$DW$63, DW_AT_location[DW_OP_reg16]
    1103              
    1104              ;* AR7   assigned to _intNumber
    1105              $C$DW$64        .dwtag  DW_TAG_variable
    1106                      .dwattr $C$DW$64, DW_AT_name("intNumber")
    1107                      .dwattr $C$DW$64, DW_AT_TI_symbol_name("_intNumber")
    1108                      .dwattr $C$DW$64, DW_AT_type(*$C$DW$T$46)
    1109                      .dwattr $C$DW$64, DW_AT_location[DW_OP_reg18]
    1110              
    1111                      .dwcfi  cfa_offset, -2
    1112                      .dwcfi  save_reg_to_mem, 26, 0
    1113 0000011e 80A8          MOVZ      AR7,AH                ; [CPU_ALU] |170| 
    1114 0000011f 88A9          MOVZ      AR6,AL                ; [CPU_ALU] |170| 
    1115 00000120 7622   EALLOW
    1116                      .dwpsn  file "D:/GIANT/GIANT_TI_instaspin/motorware/motorware_1_01_00_18/sw/drivers/gpio/src/32b/f28x
    1117 00000121 A8A9          MOVL      ACC,XAR4              ; [CPU_ALU] |177| 
    1118 00000122 0DA7          ADDU      ACC,AR7               ; [CPU_ALU] |177| 
    1119 00000123 8AA9          MOVL      XAR4,ACC              ; [CPU_ALU] |177| 
    1120 00000124 D060          MOVB      XAR0,#96              ; [CPU_ALU] |177| 
    1121 00000125 7E94          MOV       *+XAR4[AR0],AR6       ; [CPU_ALU] |177| 
    1122 00000126 761A   EDIS
    1123 00000127 FF69          SPM       #0                    ; [CPU_ALU] 
    1124              $C$DW$65        .dwtag  DW_TAG_TI_branch
    1125                      .dwattr $C$DW$65, DW_AT_low_pc(0x00)
    1126                      .dwattr $C$DW$65, DW_AT_TI_return
    1127              
    1128 00000128 0006          LRETR     ; [CPU_ALU] 
    1129                      ; return occurs ; [] 
    1130                      .dwattr $C$DW$59, DW_AT_TI_end_file("D:/GIANT/GIANT_TI_instaspin/motorware/motorware_1_01_00_18/sw/dr
    1131                      .dwattr $C$DW$59, DW_AT_TI_end_line(0xb6)
    1132                      .dwattr $C$DW$59, DW_AT_TI_end_column(0x01)
    1133                      .dwendentry
    1134                      .dwendtag $C$DW$59
    1135              
    1136 00000129               .sect   ".text"
    1137                      .clink
    1138                      .global _GPIO_setDirection
    1139              
TMS320C2000 Assembler PC v22.6.0 Wed Feb 22 11:34:31 2023

Copyright (c) 1996-2018 Texas Instruments Incorporated
C:\Users\GA5354\AppData\Local\Temp\{6DA7DAC6-2868-4E23-B53B-8B51420AAAC1} PAGE   22

    1140              $C$DW$66        .dwtag  DW_TAG_subprogram
    1141                      .dwattr $C$DW$66, DW_AT_name("GPIO_setDirection")
    1142                      .dwattr $C$DW$66, DW_AT_low_pc(_GPIO_setDirection)
    1143                      .dwattr $C$DW$66, DW_AT_high_pc(0x00)
    1144                      .dwattr $C$DW$66, DW_AT_TI_symbol_name("_GPIO_setDirection")
    1145                      .dwattr $C$DW$66, DW_AT_external
    1146                      .dwattr $C$DW$66, DW_AT_TI_begin_file("D:/GIANT/GIANT_TI_instaspin/motorware/motorware_1_01_00_18/sw/
    1147                      .dwattr $C$DW$66, DW_AT_TI_begin_line(0x8b)
    1148                      .dwattr $C$DW$66, DW_AT_TI_begin_column(0x06)
    1149                      .dwattr $C$DW$66, DW_AT_TI_max_frame_size(-2)
    1150                      .dwpsn  file "D:/GIANT/GIANT_TI_instaspin/motorware/motorware_1_01_00_18/sw/drivers/gpio/src/32b/f28x
    1151              
    1152                      .dwfde $C$DW$CIE, _GPIO_setDirection
    1153              $C$DW$67        .dwtag  DW_TAG_formal_parameter
    1154                      .dwattr $C$DW$67, DW_AT_name("gpioHandle")
    1155                      .dwattr $C$DW$67, DW_AT_TI_symbol_name("_gpioHandle")
    1156                      .dwattr $C$DW$67, DW_AT_type(*$C$DW$T$55)
    1157                      .dwattr $C$DW$67, DW_AT_location[DW_OP_reg12]
    1158              
    1159              $C$DW$68        .dwtag  DW_TAG_formal_parameter
    1160                      .dwattr $C$DW$68, DW_AT_name("gpioNumber")
    1161                      .dwattr $C$DW$68, DW_AT_TI_symbol_name("_gpioNumber")
    1162                      .dwattr $C$DW$68, DW_AT_type(*$C$DW$T$33)
    1163                      .dwattr $C$DW$68, DW_AT_location[DW_OP_reg0]
    1164              
    1165              $C$DW$69        .dwtag  DW_TAG_formal_parameter
    1166                      .dwattr $C$DW$69, DW_AT_name("direction")
    1167                      .dwattr $C$DW$69, DW_AT_TI_symbol_name("_direction")
    1168                      .dwattr $C$DW$69, DW_AT_type(*$C$DW$T$42)
    1169                      .dwattr $C$DW$69, DW_AT_location[DW_OP_reg1]
    1170              
    1171              
    1172              ;***************************************************************
    1173              ;* FNAME: _GPIO_setDirection            FR SIZE:   0           *
    1174              ;*                                                             *
    1175              ;* FUNCTION ENVIRONMENT                                        *
    1176              ;*                                                             *
    1177              ;* FUNCTION PROPERTIES                                         *
    1178              ;*                            0 Parameter,  0 Auto,  0 SOE     *
    1179              ;***************************************************************
    1180              
    1181              _GPIO_setDirection:
    1182              ;* T     assigned to $O$C1
    1183              ;* AR4   assigned to _gpioHandle
    1184              $C$DW$70        .dwtag  DW_TAG_variable
    1185                      .dwattr $C$DW$70, DW_AT_name("gpioHandle")
    1186                      .dwattr $C$DW$70, DW_AT_TI_symbol_name("_gpioHandle")
    1187                      .dwattr $C$DW$70, DW_AT_type(*$C$DW$T$56)
    1188                      .dwattr $C$DW$70, DW_AT_location[DW_OP_reg12]
    1189              
    1190              ;* T     assigned to _gpioNumber
    1191              $C$DW$71        .dwtag  DW_TAG_variable
    1192                      .dwattr $C$DW$71, DW_AT_name("gpioNumber")
    1193                      .dwattr $C$DW$71, DW_AT_TI_symbol_name("_gpioNumber")
    1194                      .dwattr $C$DW$71, DW_AT_type(*$C$DW$T$34)
TMS320C2000 Assembler PC v22.6.0 Wed Feb 22 11:34:31 2023

Copyright (c) 1996-2018 Texas Instruments Incorporated
C:\Users\GA5354\AppData\Local\Temp\{6DA7DAC6-2868-4E23-B53B-8B51420AAAC1} PAGE   23

    1195                      .dwattr $C$DW$71, DW_AT_location[DW_OP_reg22]
    1196              
    1197              ;* AR6   assigned to _direction
    1198              $C$DW$72        .dwtag  DW_TAG_variable
    1199                      .dwattr $C$DW$72, DW_AT_name("direction")
    1200                      .dwattr $C$DW$72, DW_AT_TI_symbol_name("_direction")
    1201                      .dwattr $C$DW$72, DW_AT_type(*$C$DW$T$43)
    1202                      .dwattr $C$DW$72, DW_AT_location[DW_OP_reg16]
    1203              
    1204                      .dwcfi  cfa_offset, -2
    1205                      .dwcfi  save_reg_to_mem, 26, 0
    1206 00000129 88A8          MOVZ      AR6,AH                ; [CPU_ALU] |140| 
    1207 0000012a 2DA9          MOV       T,AL                  ; [CPU_ALU] |140| 
    1208 0000012b 7622   EALLOW
    1209                      .dwpsn  file "D:/GIANT/GIANT_TI_instaspin/motorware/motorware_1_01_00_18/sw/drivers/gpio/src/32b/f28x
    1210 0000012c 5220          CMPB      AL,#32                ; [CPU_ALU] |146| 
    1211 0000012d 6807          B         $C$L35,LO             ; [CPU_ALU] |146| 
    1212                      ; branchcc occurs ; [] |146| 
    1213                      .dwpsn  file "D:/GIANT/GIANT_TI_instaspin/motorware/motorware_1_01_00_18/sw/drivers/gpio/src/32b/f28x
    1214 0000012e 83A4          MOVL      XAR5,XAR4             ; [CPU_ALU] |157| 
    1215 0000012f 9CE0          ADDB      AL,#-32               ; [CPU_ALU] |157| 
    1216 00000130 2DA9          MOV       T,AL                  ; [CPU_ALU] |157| 
    1217                      .dwpsn  file "D:/GIANT/GIANT_TI_instaspin/motorware/motorware_1_01_00_18/sw/drivers/gpio/src/32b/f28x
    1218 00000131 DC1A          ADDB      XAR4,#26              ; [CPU_ALU] |160| 
    1219                      .dwpsn  file "D:/GIANT/GIANT_TI_instaspin/motorware/motorware_1_01_00_18/sw/drivers/gpio/src/32b/f28x
    1220 00000132 DD1A          ADDB      XAR5,#26              ; [CPU_ALU] |157| 
    1221                      .dwpsn  file "D:/GIANT/GIANT_TI_instaspin/motorware/motorware_1_01_00_18/sw/drivers/gpio/src/32b/f28x
    1222 00000133 6F04          B         $C$L36,UNC            ; [CPU_ALU] |160| 
    1223                      ; branch occurs ; [] |160| 
    1224 00000134       $C$L35:    
    1225                      .dwpsn  file "D:/GIANT/GIANT_TI_instaspin/motorware/motorware_1_01_00_18/sw/drivers/gpio/src/32b/f28x
    1226 00000134 83A4          MOVL      XAR5,XAR4             ; [CPU_ALU] |149| 
    1227                      .dwpsn  file "D:/GIANT/GIANT_TI_instaspin/motorware/motorware_1_01_00_18/sw/drivers/gpio/src/32b/f28x
    1228 00000135 DC0A          ADDB      XAR4,#10              ; [CPU_ALU] |152| 
    1229                      .dwpsn  file "D:/GIANT/GIANT_TI_instaspin/motorware/motorware_1_01_00_18/sw/drivers/gpio/src/32b/f28x
    1230 00000136 DD0A          ADDB      XAR5,#10              ; [CPU_ALU] |149| 
    1231 00000137       $C$L36:    
    1232 00000137 0201          MOVB      ACC,#1                ; [CPU_ALU] |149| 
    1233 00000138 563B          LSLL      ACC,T                 ; [CPU_ALU] |149| 
    1234 00000139 FF55          NOT       ACC                   ; [CPU_ALU] |149| 
    1235 0000013a C0C5          AND       *+XAR5[0],AL          ; [CPU_ALU] |149| 
    1236 0000013b C1CD          AND       *+XAR5[1],AH          ; [CPU_ALU] |149| 
    1237                      .dwpsn  file "D:/GIANT/GIANT_TI_instaspin/motorware/motorware_1_01_00_18/sw/drivers/gpio/src/32b/f28x
    1238 0000013c 0EA6          MOVU      ACC,AR6               ; [CPU_ALU] |152| 
    1239 0000013d 563B          LSLL      ACC,T                 ; [CPU_ALU] |152| 
    1240 0000013e 98C4          OR        *+XAR4[0],AL          ; [CPU_ALU] |152| 
    1241 0000013f 99CC          OR        *+XAR4[1],AH          ; [CPU_ALU] |152| 
    1242 00000140 761A   EDIS
    1243 00000141 FF69          SPM       #0                    ; [CPU_ALU] 
    1244              $C$DW$73        .dwtag  DW_TAG_TI_branch
    1245                      .dwattr $C$DW$73, DW_AT_low_pc(0x00)
    1246                      .dwattr $C$DW$73, DW_AT_TI_return
    1247              
    1248 00000142 0006          LRETR     ; [CPU_ALU] 
    1249                      ; return occurs ; [] 
TMS320C2000 Assembler PC v22.6.0 Wed Feb 22 11:34:31 2023

Copyright (c) 1996-2018 Texas Instruments Incorporated
C:\Users\GA5354\AppData\Local\Temp\{6DA7DAC6-2868-4E23-B53B-8B51420AAAC1} PAGE   24

    1250                      .dwattr $C$DW$66, DW_AT_TI_end_file("D:/GIANT/GIANT_TI_instaspin/motorware/motorware_1_01_00_18/sw/dr
    1251                      .dwattr $C$DW$66, DW_AT_TI_end_line(0xa6)
    1252                      .dwattr $C$DW$66, DW_AT_TI_end_column(0x01)
    1253                      .dwendentry
    1254                      .dwendtag $C$DW$66
    1255              
    1256 00000143               .sect   ".text"
    1257                      .clink
    1258                      .global _GPIO_read
    1259              
    1260              $C$DW$74        .dwtag  DW_TAG_subprogram
    1261                      .dwattr $C$DW$74, DW_AT_name("GPIO_read")
    1262                      .dwattr $C$DW$74, DW_AT_low_pc(_GPIO_read)
    1263                      .dwattr $C$DW$74, DW_AT_high_pc(0x00)
    1264                      .dwattr $C$DW$74, DW_AT_TI_symbol_name("_GPIO_read")
    1265                      .dwattr $C$DW$74, DW_AT_external
    1266                      .dwattr $C$DW$74, DW_AT_type(*$C$DW$T$84)
    1267                      .dwattr $C$DW$74, DW_AT_TI_begin_file("D:/GIANT/GIANT_TI_instaspin/motorware/motorware_1_01_00_18/sw/
    1268                      .dwattr $C$DW$74, DW_AT_TI_begin_line(0xb9)
    1269                      .dwattr $C$DW$74, DW_AT_TI_begin_column(0x06)
    1270                      .dwattr $C$DW$74, DW_AT_TI_max_frame_size(-2)
    1271                      .dwpsn  file "D:/GIANT/GIANT_TI_instaspin/motorware/motorware_1_01_00_18/sw/drivers/gpio/src/32b/f28x
    1272              
    1273                      .dwfde $C$DW$CIE, _GPIO_read
    1274              $C$DW$75        .dwtag  DW_TAG_formal_parameter
    1275                      .dwattr $C$DW$75, DW_AT_name("gpioHandle")
    1276                      .dwattr $C$DW$75, DW_AT_TI_symbol_name("_gpioHandle")
    1277                      .dwattr $C$DW$75, DW_AT_type(*$C$DW$T$55)
    1278                      .dwattr $C$DW$75, DW_AT_location[DW_OP_reg12]
    1279              
    1280              $C$DW$76        .dwtag  DW_TAG_formal_parameter
    1281                      .dwattr $C$DW$76, DW_AT_name("gpioNumber")
    1282                      .dwattr $C$DW$76, DW_AT_TI_symbol_name("_gpioNumber")
    1283                      .dwattr $C$DW$76, DW_AT_type(*$C$DW$T$33)
    1284                      .dwattr $C$DW$76, DW_AT_location[DW_OP_reg0]
    1285              
    1286              
    1287              ;***************************************************************
    1288              ;* FNAME: _GPIO_read                    FR SIZE:   0           *
    1289              ;*                                                             *
    1290              ;* FUNCTION ENVIRONMENT                                        *
    1291              ;*                                                             *
    1292              ;* FUNCTION PROPERTIES                                         *
    1293              ;*                            0 Parameter,  0 Auto,  0 SOE     *
    1294              ;***************************************************************
    1295              
    1296              _GPIO_read:
    1297              ;* T     assigned to _gpioNumber
    1298              $C$DW$77        .dwtag  DW_TAG_variable
    1299                      .dwattr $C$DW$77, DW_AT_name("gpioNumber")
    1300                      .dwattr $C$DW$77, DW_AT_TI_symbol_name("_gpioNumber")
    1301                      .dwattr $C$DW$77, DW_AT_type(*$C$DW$T$34)
    1302                      .dwattr $C$DW$77, DW_AT_location[DW_OP_reg22]
    1303              
    1304              ;* AL    assigned to _gpio_status
TMS320C2000 Assembler PC v22.6.0 Wed Feb 22 11:34:31 2023

Copyright (c) 1996-2018 Texas Instruments Incorporated
C:\Users\GA5354\AppData\Local\Temp\{6DA7DAC6-2868-4E23-B53B-8B51420AAAC1} PAGE   25

    1305              $C$DW$78        .dwtag  DW_TAG_variable
    1306                      .dwattr $C$DW$78, DW_AT_name("gpio_status")
    1307                      .dwattr $C$DW$78, DW_AT_TI_symbol_name("_gpio_status")
    1308                      .dwattr $C$DW$78, DW_AT_type(*$C$DW$T$84)
    1309                      .dwattr $C$DW$78, DW_AT_location[DW_OP_reg0]
    1310              
    1311              ;* AL    assigned to _gpio_read
    1312              $C$DW$79        .dwtag  DW_TAG_variable
    1313                      .dwattr $C$DW$79, DW_AT_name("gpio_read")
    1314                      .dwattr $C$DW$79, DW_AT_TI_symbol_name("_gpio_read")
    1315                      .dwattr $C$DW$79, DW_AT_type(*$C$DW$T$20)
    1316                      .dwattr $C$DW$79, DW_AT_location[DW_OP_reg0]
    1317              
    1318                      .dwcfi  cfa_offset, -2
    1319                      .dwcfi  save_reg_to_mem, 26, 0
    1320                      .dwpsn  file "D:/GIANT/GIANT_TI_instaspin/motorware/motorware_1_01_00_18/sw/drivers/gpio/src/32b/f28x
    1321 00000143 5220          CMPB      AL,#32                ; [CPU_ALU] |194| 
    1322                      .dwpsn  file "D:/GIANT/GIANT_TI_instaspin/motorware/motorware_1_01_00_18/sw/drivers/gpio/src/32b/f28x
    1323 00000144 2DA9          MOV       T,AL                  ; [CPU_ALU] |186| 
    1324                      .dwpsn  file "D:/GIANT/GIANT_TI_instaspin/motorware/motorware_1_01_00_18/sw/drivers/gpio/src/32b/f28x
    1325 00000145 6703          B         $C$L37,HIS            ; [CPU_ALU] |194| 
    1326                      ; branchcc occurs ; [] |194| 
    1327 00000146 DC40          ADDB      XAR4,#64              ; [CPU_ALU] |194| 
    1328 00000147 6F05          B         $C$L38,UNC            ; [CPU_ALU] |194| 
    1329                      ; branch occurs ; [] |194| 
    1330 00000148       $C$L37:    
    1331 00000148 5DAC          MOVZ      AR5,T                 ; [CPU_ALU] |194| 
    1332 00000149 DC48          ADDB      XAR4,#72              ; [CPU_ALU] |194| 
    1333 0000014a DDA0          SUBB      XAR5,#32              ; [CPU_ARAU] |194| 
    1334 0000014b 2DA5          MOV       T,AR5                 ; [CPU_ALU] |194| 
    1335 0000014c       $C$L38:    
    1336 0000014c 0201          MOVB      ACC,#1                ; [CPU_ALU] |194| 
    1337                      .dwpsn  file "D:/GIANT/GIANT_TI_instaspin/motorware/motorware_1_01_00_18/sw/drivers/gpio/src/32b/f28x
    1338 0000014d BE00          MOVB      XAR6,#0               ; [CPU_ALU] |207| 
    1339                      .dwpsn  file "D:/GIANT/GIANT_TI_instaspin/motorware/motorware_1_01_00_18/sw/drivers/gpio/src/32b/f28x
    1340 0000014e 563B          LSLL      ACC,T                 ; [CPU_ALU] |194| 
    1341 0000014f CEC4          AND       AL,*+XAR4[0]          ; [CPU_ALU] |194| 
    1342 00000150 CFCC          AND       AH,*+XAR4[1]          ; [CPU_ALU] |194| 
    1343                      .dwpsn  file "D:/GIANT/GIANT_TI_instaspin/motorware/motorware_1_01_00_18/sw/drivers/gpio/src/32b/f28x
    1344 00000151 FF58          TEST      ACC                   ; [CPU_ALU] |207| 
    1345 00000152 56B0          MOVB      XAR6,#1,NEQ           ; [CPU_ALU] |207| 
         00000153 01A6 
    1346 00000154 92A6          MOV       AL,AR6                ; [CPU_ALU] |207| 
    1347              $C$DW$80        .dwtag  DW_TAG_TI_branch
    1348                      .dwattr $C$DW$80, DW_AT_low_pc(0x00)
    1349                      .dwattr $C$DW$80, DW_AT_TI_return
    1350              
    1351 00000155 0006          LRETR     ; [CPU_ALU] 
    1352                      ; return occurs ; [] 
    1353                      .dwattr $C$DW$74, DW_AT_TI_end_file("D:/GIANT/GIANT_TI_instaspin/motorware/motorware_1_01_00_18/sw/dr
    1354                      .dwattr $C$DW$74, DW_AT_TI_end_line(0xd4)
    1355                      .dwattr $C$DW$74, DW_AT_TI_end_column(0x01)
    1356                      .dwendentry
    1357                      .dwendtag $C$DW$74
    1358              
TMS320C2000 Assembler PC v22.6.0 Wed Feb 22 11:34:31 2023

Copyright (c) 1996-2018 Texas Instruments Incorporated
C:\Users\GA5354\AppData\Local\Temp\{6DA7DAC6-2868-4E23-B53B-8B51420AAAC1} PAGE   26

    1359 00000156               .sect   ".text"
    1360                      .clink
    1361                      .global _GPIO_lpmSelect
    1362              
    1363              $C$DW$81        .dwtag  DW_TAG_subprogram
    1364                      .dwattr $C$DW$81, DW_AT_name("GPIO_lpmSelect")
    1365                      .dwattr $C$DW$81, DW_AT_low_pc(_GPIO_lpmSelect)
    1366                      .dwattr $C$DW$81, DW_AT_high_pc(0x00)
    1367                      .dwattr $C$DW$81, DW_AT_TI_symbol_name("_GPIO_lpmSelect")
    1368                      .dwattr $C$DW$81, DW_AT_external
    1369                      .dwattr $C$DW$81, DW_AT_TI_begin_file("D:/GIANT/GIANT_TI_instaspin/motorware/motorware_1_01_00_18/sw/
    1370                      .dwattr $C$DW$81, DW_AT_TI_begin_line(0x1cd)
    1371                      .dwattr $C$DW$81, DW_AT_TI_begin_column(0x06)
    1372                      .dwattr $C$DW$81, DW_AT_TI_max_frame_size(-2)
    1373                      .dwpsn  file "D:/GIANT/GIANT_TI_instaspin/motorware/motorware_1_01_00_18/sw/drivers/gpio/src/32b/f28x
    1374              
    1375                      .dwfde $C$DW$CIE, _GPIO_lpmSelect
    1376              $C$DW$82        .dwtag  DW_TAG_formal_parameter
    1377                      .dwattr $C$DW$82, DW_AT_name("gpioHandle")
    1378                      .dwattr $C$DW$82, DW_AT_TI_symbol_name("_gpioHandle")
    1379                      .dwattr $C$DW$82, DW_AT_type(*$C$DW$T$55)
    1380                      .dwattr $C$DW$82, DW_AT_location[DW_OP_reg12]
    1381              
    1382              $C$DW$83        .dwtag  DW_TAG_formal_parameter
    1383                      .dwattr $C$DW$83, DW_AT_name("gpioNumber")
    1384                      .dwattr $C$DW$83, DW_AT_TI_symbol_name("_gpioNumber")
    1385                      .dwattr $C$DW$83, DW_AT_type(*$C$DW$T$33)
    1386                      .dwattr $C$DW$83, DW_AT_location[DW_OP_reg0]
    1387              
    1388              
    1389              ;***************************************************************
    1390              ;* FNAME: _GPIO_lpmSelect               FR SIZE:   0           *
    1391              ;*                                                             *
    1392              ;* FUNCTION ENVIRONMENT                                        *
    1393              ;*                                                             *
    1394              ;* FUNCTION PROPERTIES                                         *
    1395              ;*                            0 Parameter,  0 Auto,  0 SOE     *
    1396              ;***************************************************************
    1397              
    1398              _GPIO_lpmSelect:
    1399              ;* T     assigned to _gpioNumber
    1400              $C$DW$84        .dwtag  DW_TAG_variable
    1401                      .dwattr $C$DW$84, DW_AT_name("gpioNumber")
    1402                      .dwattr $C$DW$84, DW_AT_TI_symbol_name("_gpioNumber")
    1403                      .dwattr $C$DW$84, DW_AT_type(*$C$DW$T$34)
    1404                      .dwattr $C$DW$84, DW_AT_location[DW_OP_reg22]
    1405              
    1406                      .dwcfi  cfa_offset, -2
    1407                      .dwcfi  save_reg_to_mem, 26, 0
    1408 00000156 2DA9          MOV       T,AL                  ; [CPU_ALU] |462| 
    1409 00000157 7622   EALLOW
    1410                      .dwpsn  file "D:/GIANT/GIANT_TI_instaspin/motorware/motorware_1_01_00_18/sw/drivers/gpio/src/32b/f28x
    1411 00000158 DC68          ADDB      XAR4,#104             ; [CPU_ALU] |467| 
    1412 00000159 0201          MOVB      ACC,#1                ; [CPU_ALU] |467| 
    1413 0000015a 563B          LSLL      ACC,T                 ; [CPU_ALU] |467| 
TMS320C2000 Assembler PC v22.6.0 Wed Feb 22 11:34:31 2023

Copyright (c) 1996-2018 Texas Instruments Incorporated
C:\Users\GA5354\AppData\Local\Temp\{6DA7DAC6-2868-4E23-B53B-8B51420AAAC1} PAGE   27

    1414 0000015b 98C4          OR        *+XAR4[0],AL          ; [CPU_ALU] |467| 
    1415 0000015c 99CC          OR        *+XAR4[1],AH          ; [CPU_ALU] |467| 
    1416 0000015d 761A   EDIS
    1417 0000015e FF69          SPM       #0                    ; [CPU_ALU] 
    1418              $C$DW$85        .dwtag  DW_TAG_TI_branch
    1419                      .dwattr $C$DW$85, DW_AT_low_pc(0x00)
    1420                      .dwattr $C$DW$85, DW_AT_TI_return
    1421              
    1422 0000015f 0006          LRETR     ; [CPU_ALU] 
    1423                      ; return occurs ; [] 
    1424                      .dwattr $C$DW$81, DW_AT_TI_end_file("D:/GIANT/GIANT_TI_instaspin/motorware/motorware_1_01_00_18/sw/dr
    1425                      .dwattr $C$DW$81, DW_AT_TI_end_line(0x1d8)
    1426                      .dwattr $C$DW$81, DW_AT_TI_end_column(0x01)
    1427                      .dwendentry
    1428                      .dwendtag $C$DW$81
    1429              
    1430 00000160               .sect   ".text"
    1431                      .clink
    1432                      .global _GPIO_init
    1433              
    1434              $C$DW$86        .dwtag  DW_TAG_subprogram
    1435                      .dwattr $C$DW$86, DW_AT_name("GPIO_init")
    1436                      .dwattr $C$DW$86, DW_AT_low_pc(_GPIO_init)
    1437                      .dwattr $C$DW$86, DW_AT_high_pc(0x00)
    1438                      .dwattr $C$DW$86, DW_AT_TI_symbol_name("_GPIO_init")
    1439                      .dwattr $C$DW$86, DW_AT_external
    1440                      .dwattr $C$DW$86, DW_AT_type(*$C$DW$T$55)
    1441                      .dwattr $C$DW$86, DW_AT_TI_begin_file("D:/GIANT/GIANT_TI_instaspin/motorware/motorware_1_01_00_18/sw/
    1442                      .dwattr $C$DW$86, DW_AT_TI_begin_line(0x5c)
    1443                      .dwattr $C$DW$86, DW_AT_TI_begin_column(0x0d)
    1444                      .dwattr $C$DW$86, DW_AT_TI_max_frame_size(-2)
    1445                      .dwpsn  file "D:/GIANT/GIANT_TI_instaspin/motorware/motorware_1_01_00_18/sw/drivers/gpio/src/32b/f28x
    1446              
    1447                      .dwfde $C$DW$CIE, _GPIO_init
    1448              $C$DW$87        .dwtag  DW_TAG_formal_parameter
    1449                      .dwattr $C$DW$87, DW_AT_name("pMemory")
    1450                      .dwattr $C$DW$87, DW_AT_TI_symbol_name("_pMemory")
    1451                      .dwattr $C$DW$87, DW_AT_type(*$C$DW$T$3)
    1452                      .dwattr $C$DW$87, DW_AT_location[DW_OP_reg12]
    1453              
    1454              $C$DW$88        .dwtag  DW_TAG_formal_parameter
    1455                      .dwattr $C$DW$88, DW_AT_name("numBytes")
    1456                      .dwattr $C$DW$88, DW_AT_TI_symbol_name("_numBytes")
    1457                      .dwattr $C$DW$88, DW_AT_type(*$C$DW$T$57)
    1458                      .dwattr $C$DW$88, DW_AT_location[DW_OP_reg0]
    1459              
    1460              
    1461              ;***************************************************************
    1462              ;* FNAME: _GPIO_init                    FR SIZE:   0           *
    1463              ;*                                                             *
    1464              ;* FUNCTION ENVIRONMENT                                        *
    1465              ;*                                                             *
    1466              ;* FUNCTION PROPERTIES                                         *
    1467              ;*                            0 Parameter,  0 Auto,  0 SOE     *
    1468              ;***************************************************************
TMS320C2000 Assembler PC v22.6.0 Wed Feb 22 11:34:31 2023

Copyright (c) 1996-2018 Texas Instruments Incorporated
C:\Users\GA5354\AppData\Local\Temp\{6DA7DAC6-2868-4E23-B53B-8B51420AAAC1} PAGE   28

    1469              
    1470              _GPIO_init:
    1471              ;* AR6   assigned to _numBytes
    1472              $C$DW$89        .dwtag  DW_TAG_variable
    1473                      .dwattr $C$DW$89, DW_AT_name("numBytes")
    1474                      .dwattr $C$DW$89, DW_AT_TI_symbol_name("_numBytes")
    1475                      .dwattr $C$DW$89, DW_AT_type(*$C$DW$T$58)
    1476                      .dwattr $C$DW$89, DW_AT_location[DW_OP_reg16]
    1477              
    1478                      .dwcfi  cfa_offset, -2
    1479                      .dwcfi  save_reg_to_mem, 26, 0
    1480 00000160 1EA6          MOVL      XAR6,ACC              ; [CPU_ALU] |93| 
    1481                      .dwpsn  file "D:/GIANT/GIANT_TI_instaspin/motorware/motorware_1_01_00_18/sw/drivers/gpio/src/32b/f28x
    1482 00000161 026A          MOVB      ACC,#106              ; [CPU_ALU] |99| 
    1483 00000162 0FA6          CMPL      ACC,XAR6              ; [CPU_ALU] |99| 
    1484 00000163 6902          B         $C$L39,LOS            ; [CPU_ALU] |99| 
    1485                      ; branchcc occurs ; [] |99| 
    1486 00000164 D400          MOVB      XAR4,#0               ; [CPU_ALU] |99| 
    1487              $C$L39:    
    1488              $C$DW$90        .dwtag  DW_TAG_TI_branch
    1489                      .dwattr $C$DW$90, DW_AT_low_pc(0x00)
    1490                      .dwattr $C$DW$90, DW_AT_TI_return
    1491              
    1492 00000165 0006          LRETR     ; [CPU_ALU] 
    1493                      ; return occurs ; [] 
    1494                      .dwattr $C$DW$86, DW_AT_TI_end_file("D:/GIANT/GIANT_TI_instaspin/motorware/motorware_1_01_00_18/sw/dr
    1495                      .dwattr $C$DW$86, DW_AT_TI_end_line(0x6a)
    1496                      .dwattr $C$DW$86, DW_AT_TI_end_column(0x01)
    1497                      .dwendentry
    1498                      .dwendtag $C$DW$86
    1499              
    1500 00000166               .sect   ".text"
    1501                      .clink
    1502                      .global _GPIO_getPortData
    1503              
    1504              $C$DW$91        .dwtag  DW_TAG_subprogram
    1505                      .dwattr $C$DW$91, DW_AT_name("GPIO_getPortData")
    1506                      .dwattr $C$DW$91, DW_AT_low_pc(_GPIO_getPortData)
    1507                      .dwattr $C$DW$91, DW_AT_high_pc(0x00)
    1508                      .dwattr $C$DW$91, DW_AT_TI_symbol_name("_GPIO_getPortData")
    1509                      .dwattr $C$DW$91, DW_AT_external
    1510                      .dwattr $C$DW$91, DW_AT_type(*$C$DW$T$20)
    1511                      .dwattr $C$DW$91, DW_AT_TI_begin_file("D:/GIANT/GIANT_TI_instaspin/motorware/motorware_1_01_00_18/sw/
    1512                      .dwattr $C$DW$91, DW_AT_TI_begin_line(0x4a)
    1513                      .dwattr $C$DW$91, DW_AT_TI_begin_column(0x0a)
    1514                      .dwattr $C$DW$91, DW_AT_TI_max_frame_size(-2)
    1515                      .dwpsn  file "D:/GIANT/GIANT_TI_instaspin/motorware/motorware_1_01_00_18/sw/drivers/gpio/src/32b/f28x
    1516              
    1517                      .dwfde $C$DW$CIE, _GPIO_getPortData
    1518              $C$DW$92        .dwtag  DW_TAG_formal_parameter
    1519                      .dwattr $C$DW$92, DW_AT_name("gpioHandle")
    1520                      .dwattr $C$DW$92, DW_AT_TI_symbol_name("_gpioHandle")
    1521                      .dwattr $C$DW$92, DW_AT_type(*$C$DW$T$55)
    1522                      .dwattr $C$DW$92, DW_AT_location[DW_OP_reg12]
    1523              
TMS320C2000 Assembler PC v22.6.0 Wed Feb 22 11:34:31 2023

Copyright (c) 1996-2018 Texas Instruments Incorporated
C:\Users\GA5354\AppData\Local\Temp\{6DA7DAC6-2868-4E23-B53B-8B51420AAAC1} PAGE   29

    1524              $C$DW$93        .dwtag  DW_TAG_formal_parameter
    1525                      .dwattr $C$DW$93, DW_AT_name("gpioPort")
    1526                      .dwattr $C$DW$93, DW_AT_TI_symbol_name("_gpioPort")
    1527                      .dwattr $C$DW$93, DW_AT_type(*$C$DW$T$36)
    1528                      .dwattr $C$DW$93, DW_AT_location[DW_OP_reg0]
    1529              
    1530              
    1531              ;***************************************************************
    1532              ;* FNAME: _GPIO_getPortData             FR SIZE:   0           *
    1533              ;*                                                             *
    1534              ;* FUNCTION ENVIRONMENT                                        *
    1535              ;*                                                             *
    1536              ;* FUNCTION PROPERTIES                                         *
    1537              ;*                            0 Parameter,  0 Auto,  0 SOE     *
    1538              ;***************************************************************
    1539              
    1540              _GPIO_getPortData:
    1541              ;* AR4   assigned to _gpioHandle
    1542              $C$DW$94        .dwtag  DW_TAG_variable
    1543                      .dwattr $C$DW$94, DW_AT_name("gpioHandle")
    1544                      .dwattr $C$DW$94, DW_AT_TI_symbol_name("_gpioHandle")
    1545                      .dwattr $C$DW$94, DW_AT_type(*$C$DW$T$56)
    1546                      .dwattr $C$DW$94, DW_AT_location[DW_OP_reg12]
    1547              
    1548              ;* AL    assigned to _gpioPort
    1549              $C$DW$95        .dwtag  DW_TAG_variable
    1550                      .dwattr $C$DW$95, DW_AT_name("gpioPort")
    1551                      .dwattr $C$DW$95, DW_AT_TI_symbol_name("_gpioPort")
    1552                      .dwattr $C$DW$95, DW_AT_type(*$C$DW$T$37)
    1553                      .dwattr $C$DW$95, DW_AT_location[DW_OP_reg0]
    1554              
    1555                      .dwcfi  cfa_offset, -2
    1556                      .dwcfi  save_reg_to_mem, 26, 0
    1557                      .dwpsn  file "D:/GIANT/GIANT_TI_instaspin/motorware/motorware_1_01_00_18/sw/drivers/gpio/src/32b/f28x
    1558 00000166 5200          CMPB      AL,#0                 ; [CPU_ALU] |84| 
    1559 00000167 6107          B         $C$L41,EQ             ; [CPU_ALU] |84| 
    1560                      ; branchcc occurs ; [] |84| 
    1561 00000168 5201          CMPB      AL,#1                 ; [CPU_ALU] |84| 
    1562 00000169 6003          B         $C$L40,NEQ            ; [CPU_ALU] |84| 
    1563                      ; branchcc occurs ; [] |84| 
    1564 0000016a D048          MOVB      XAR0,#72              ; [CPU_ALU] |84| 
    1565 0000016b 6F04          B         $C$L42,UNC            ; [CPU_ALU] |84| 
    1566                      ; branch occurs ; [] |84| 
    1567 0000016c       $C$L40:    
    1568                      .dwcfi  remember_state
    1569 0000016c 0200          MOVB      ACC,#0                ; [CPU_ALU] |84| 
    1570              $C$DW$96        .dwtag  DW_TAG_TI_branch
    1571                      .dwattr $C$DW$96, DW_AT_low_pc(0x00)
    1572                      .dwattr $C$DW$96, DW_AT_TI_return
    1573              
    1574 0000016d 0006          LRETR     ; [CPU_ALU] 
    1575                      ; return occurs ; [] 
    1576                      .dwcfi  restore_state
    1577 0000016e       $C$L41:    
    1578 0000016e D040          MOVB      XAR0,#64              ; [CPU_ALU] |84| 
TMS320C2000 Assembler PC v22.6.0 Wed Feb 22 11:34:31 2023

Copyright (c) 1996-2018 Texas Instruments Incorporated
C:\Users\GA5354\AppData\Local\Temp\{6DA7DAC6-2868-4E23-B53B-8B51420AAAC1} PAGE   30

    1579 0000016f       $C$L42:    
    1580 0000016f 0694          MOVL      ACC,*+XAR4[AR0]       ; [CPU_ALU] |84| 
    1581              $C$DW$97        .dwtag  DW_TAG_TI_branch
    1582                      .dwattr $C$DW$97, DW_AT_low_pc(0x00)
    1583                      .dwattr $C$DW$97, DW_AT_TI_return
    1584              
    1585 00000170 0006          LRETR     ; [CPU_ALU] 
    1586                      ; return occurs ; [] 
    1587                      .dwattr $C$DW$91, DW_AT_TI_end_file("D:/GIANT/GIANT_TI_instaspin/motorware/motorware_1_01_00_18/sw/dr
    1588                      .dwattr $C$DW$91, DW_AT_TI_end_line(0x59)
    1589                      .dwattr $C$DW$91, DW_AT_TI_end_column(0x01)
    1590                      .dwendentry
    1591                      .dwendtag $C$DW$91
    1592              
    1593 00000171               .sect   ".text"
    1594                      .clink
    1595                      .global _GPIO_getData
    1596              
    1597              $C$DW$98        .dwtag  DW_TAG_subprogram
    1598                      .dwattr $C$DW$98, DW_AT_name("GPIO_getData")
    1599                      .dwattr $C$DW$98, DW_AT_low_pc(_GPIO_getData)
    1600                      .dwattr $C$DW$98, DW_AT_high_pc(0x00)
    1601                      .dwattr $C$DW$98, DW_AT_TI_symbol_name("_GPIO_getData")
    1602                      .dwattr $C$DW$98, DW_AT_external
    1603                      .dwattr $C$DW$98, DW_AT_type(*$C$DW$T$84)
    1604                      .dwattr $C$DW$98, DW_AT_TI_begin_file("D:/GIANT/GIANT_TI_instaspin/motorware/motorware_1_01_00_18/sw/
    1605                      .dwattr $C$DW$98, DW_AT_TI_begin_line(0x39)
    1606                      .dwattr $C$DW$98, DW_AT_TI_begin_column(0x06)
    1607                      .dwattr $C$DW$98, DW_AT_TI_max_frame_size(-2)
    1608                      .dwpsn  file "D:/GIANT/GIANT_TI_instaspin/motorware/motorware_1_01_00_18/sw/drivers/gpio/src/32b/f28x
    1609              
    1610                      .dwfde $C$DW$CIE, _GPIO_getData
    1611              $C$DW$99        .dwtag  DW_TAG_formal_parameter
    1612                      .dwattr $C$DW$99, DW_AT_name("gpioHandle")
    1613                      .dwattr $C$DW$99, DW_AT_TI_symbol_name("_gpioHandle")
    1614                      .dwattr $C$DW$99, DW_AT_type(*$C$DW$T$55)
    1615                      .dwattr $C$DW$99, DW_AT_location[DW_OP_reg12]
    1616              
    1617              $C$DW$100       .dwtag  DW_TAG_formal_parameter
    1618                      .dwattr $C$DW$100, DW_AT_name("gpioNumber")
    1619                      .dwattr $C$DW$100, DW_AT_TI_symbol_name("_gpioNumber")
    1620                      .dwattr $C$DW$100, DW_AT_type(*$C$DW$T$33)
    1621                      .dwattr $C$DW$100, DW_AT_location[DW_OP_reg0]
    1622              
    1623              
    1624              ;***************************************************************
    1625              ;* FNAME: _GPIO_getData                 FR SIZE:   0           *
    1626              ;*                                                             *
    1627              ;* FUNCTION ENVIRONMENT                                        *
    1628              ;*                                                             *
    1629              ;* FUNCTION PROPERTIES                                         *
    1630              ;*                            0 Parameter,  0 Auto,  0 SOE     *
    1631              ;***************************************************************
    1632              
    1633              _GPIO_getData:
TMS320C2000 Assembler PC v22.6.0 Wed Feb 22 11:34:31 2023

Copyright (c) 1996-2018 Texas Instruments Incorporated
C:\Users\GA5354\AppData\Local\Temp\{6DA7DAC6-2868-4E23-B53B-8B51420AAAC1} PAGE   31

    1634              ;* AR4   assigned to _gpioHandle
    1635              $C$DW$101       .dwtag  DW_TAG_variable
    1636                      .dwattr $C$DW$101, DW_AT_name("gpioHandle")
    1637                      .dwattr $C$DW$101, DW_AT_TI_symbol_name("_gpioHandle")
    1638                      .dwattr $C$DW$101, DW_AT_type(*$C$DW$T$56)
    1639                      .dwattr $C$DW$101, DW_AT_location[DW_OP_reg12]
    1640              
    1641              ;* T     assigned to _gpioNumber
    1642              $C$DW$102       .dwtag  DW_TAG_variable
    1643                      .dwattr $C$DW$102, DW_AT_name("gpioNumber")
    1644                      .dwattr $C$DW$102, DW_AT_TI_symbol_name("_gpioNumber")
    1645                      .dwattr $C$DW$102, DW_AT_type(*$C$DW$T$34)
    1646                      .dwattr $C$DW$102, DW_AT_location[DW_OP_reg22]
    1647              
    1648                      .dwcfi  cfa_offset, -2
    1649                      .dwcfi  save_reg_to_mem, 26, 0
    1650                      .dwpsn  file "D:/GIANT/GIANT_TI_instaspin/motorware/motorware_1_01_00_18/sw/drivers/gpio/src/32b/f28x
    1651 00000171 5220          CMPB      AL,#32                ; [CPU_ALU] |64| 
    1652                      .dwpsn  file "D:/GIANT/GIANT_TI_instaspin/motorware/motorware_1_01_00_18/sw/drivers/gpio/src/32b/f28x
    1653 00000172 2DA9          MOV       T,AL                  ; [CPU_ALU] |58| 
    1654                      .dwpsn  file "D:/GIANT/GIANT_TI_instaspin/motorware/motorware_1_01_00_18/sw/drivers/gpio/src/32b/f28x
    1655 00000173 6704          B         $C$L43,HIS            ; [CPU_ALU] |64| 
    1656                      ; branchcc occurs ; [] |64| 
    1657 00000174 D040          MOVB      XAR0,#64              ; [CPU_ALU] |64| 
    1658 00000175 0694          MOVL      ACC,*+XAR4[AR0]       ; [CPU_ALU] |64| 
    1659 00000176 6F06          B         $C$L44,UNC            ; [CPU_ALU] |64| 
    1660                      ; branch occurs ; [] |64| 
    1661 00000177       $C$L43:    
    1662 00000177 D048          MOVB      XAR0,#72              ; [CPU_ALU] |64| 
    1663 00000178 0694          MOVL      ACC,*+XAR4[AR0]       ; [CPU_ALU] |64| 
    1664 00000179 5CAC          MOVZ      AR4,T                 ; [CPU_ALU] |64| 
    1665 0000017a DCA0          SUBB      XAR4,#32              ; [CPU_ARAU] |64| 
    1666 0000017b 2DA4          MOV       T,AR4                 ; [CPU_ALU] |64| 
    1667 0000017c       $C$L44:    
    1668 0000017c 5622          LSRL      ACC,T                 ; [CPU_ALU] |64| 
    1669 0000017d 9001          ANDB      AL,#0x01              ; [CPU_ALU] |64| 
    1670              $C$DW$103       .dwtag  DW_TAG_TI_branch
    1671                      .dwattr $C$DW$103, DW_AT_low_pc(0x00)
    1672                      .dwattr $C$DW$103, DW_AT_TI_return
    1673              
    1674 0000017e 0006          LRETR     ; [CPU_ALU] 
    1675                      ; return occurs ; [] 
    1676                      .dwattr $C$DW$98, DW_AT_TI_end_file("D:/GIANT/GIANT_TI_instaspin/motorware/motorware_1_01_00_18/sw/dr
    1677                      .dwattr $C$DW$98, DW_AT_TI_end_line(0x47)
    1678                      .dwattr $C$DW$98, DW_AT_TI_end_column(0x01)
    1679                      .dwendentry
    1680                      .dwendtag $C$DW$98
    1681              
    1682              
    1683              ;***************************************************************
    1684              ;* TYPE INFORMATION                                            *
    1685              ;***************************************************************
    1686              
    1687              $C$DW$T$32      .dwtag  DW_TAG_enumeration_type
    1688                      .dwattr $C$DW$T$32, DW_AT_byte_size(0x01)
TMS320C2000 Assembler PC v22.6.0 Wed Feb 22 11:34:31 2023

Copyright (c) 1996-2018 Texas Instruments Incorporated
C:\Users\GA5354\AppData\Local\Temp\{6DA7DAC6-2868-4E23-B53B-8B51420AAAC1} PAGE   32

    1689              $C$DW$104       .dwtag  DW_TAG_enumerator
    1690                      .dwattr $C$DW$104, DW_AT_name("GPIO_Number_0")
    1691                      .dwattr $C$DW$104, DW_AT_const_value(0x00)
    1692              
    1693              $C$DW$105       .dwtag  DW_TAG_enumerator
    1694                      .dwattr $C$DW$105, DW_AT_name("GPIO_Number_1")
    1695                      .dwattr $C$DW$105, DW_AT_const_value(0x01)
    1696              
    1697              $C$DW$106       .dwtag  DW_TAG_enumerator
    1698                      .dwattr $C$DW$106, DW_AT_name("GPIO_Number_2")
    1699                      .dwattr $C$DW$106, DW_AT_const_value(0x02)
    1700              
    1701              $C$DW$107       .dwtag  DW_TAG_enumerator
    1702                      .dwattr $C$DW$107, DW_AT_name("GPIO_Number_3")
    1703                      .dwattr $C$DW$107, DW_AT_const_value(0x03)
    1704              
    1705              $C$DW$108       .dwtag  DW_TAG_enumerator
    1706                      .dwattr $C$DW$108, DW_AT_name("GPIO_Number_4")
    1707                      .dwattr $C$DW$108, DW_AT_const_value(0x04)
    1708              
    1709              $C$DW$109       .dwtag  DW_TAG_enumerator
    1710                      .dwattr $C$DW$109, DW_AT_name("GPIO_Number_5")
    1711                      .dwattr $C$DW$109, DW_AT_const_value(0x05)
    1712              
    1713              $C$DW$110       .dwtag  DW_TAG_enumerator
    1714                      .dwattr $C$DW$110, DW_AT_name("GPIO_Number_6")
    1715                      .dwattr $C$DW$110, DW_AT_const_value(0x06)
    1716              
    1717              $C$DW$111       .dwtag  DW_TAG_enumerator
    1718                      .dwattr $C$DW$111, DW_AT_name("GPIO_Number_7")
    1719                      .dwattr $C$DW$111, DW_AT_const_value(0x07)
    1720              
    1721              $C$DW$112       .dwtag  DW_TAG_enumerator
    1722                      .dwattr $C$DW$112, DW_AT_name("GPIO_Number_8")
    1723                      .dwattr $C$DW$112, DW_AT_const_value(0x08)
    1724              
    1725              $C$DW$113       .dwtag  DW_TAG_enumerator
    1726                      .dwattr $C$DW$113, DW_AT_name("GPIO_Number_9")
    1727                      .dwattr $C$DW$113, DW_AT_const_value(0x09)
    1728              
    1729              $C$DW$114       .dwtag  DW_TAG_enumerator
    1730                      .dwattr $C$DW$114, DW_AT_name("GPIO_Number_10")
    1731                      .dwattr $C$DW$114, DW_AT_const_value(0x0a)
    1732              
    1733              $C$DW$115       .dwtag  DW_TAG_enumerator
    1734                      .dwattr $C$DW$115, DW_AT_name("GPIO_Number_11")
    1735                      .dwattr $C$DW$115, DW_AT_const_value(0x0b)
    1736              
    1737              $C$DW$116       .dwtag  DW_TAG_enumerator
    1738                      .dwattr $C$DW$116, DW_AT_name("GPIO_Number_12")
    1739                      .dwattr $C$DW$116, DW_AT_const_value(0x0c)
    1740              
    1741              $C$DW$117       .dwtag  DW_TAG_enumerator
    1742                      .dwattr $C$DW$117, DW_AT_name("GPIO_Number_13")
    1743                      .dwattr $C$DW$117, DW_AT_const_value(0x0d)
TMS320C2000 Assembler PC v22.6.0 Wed Feb 22 11:34:31 2023

Copyright (c) 1996-2018 Texas Instruments Incorporated
C:\Users\GA5354\AppData\Local\Temp\{6DA7DAC6-2868-4E23-B53B-8B51420AAAC1} PAGE   33

    1744              
    1745              $C$DW$118       .dwtag  DW_TAG_enumerator
    1746                      .dwattr $C$DW$118, DW_AT_name("GPIO_Number_14")
    1747                      .dwattr $C$DW$118, DW_AT_const_value(0x0e)
    1748              
    1749              $C$DW$119       .dwtag  DW_TAG_enumerator
    1750                      .dwattr $C$DW$119, DW_AT_name("GPIO_Number_15")
    1751                      .dwattr $C$DW$119, DW_AT_const_value(0x0f)
    1752              
    1753              $C$DW$120       .dwtag  DW_TAG_enumerator
    1754                      .dwattr $C$DW$120, DW_AT_name("GPIO_Number_16")
    1755                      .dwattr $C$DW$120, DW_AT_const_value(0x10)
    1756              
    1757              $C$DW$121       .dwtag  DW_TAG_enumerator
    1758                      .dwattr $C$DW$121, DW_AT_name("GPIO_Number_17")
    1759                      .dwattr $C$DW$121, DW_AT_const_value(0x11)
    1760              
    1761              $C$DW$122       .dwtag  DW_TAG_enumerator
    1762                      .dwattr $C$DW$122, DW_AT_name("GPIO_Number_18")
    1763                      .dwattr $C$DW$122, DW_AT_const_value(0x12)
    1764              
    1765              $C$DW$123       .dwtag  DW_TAG_enumerator
    1766                      .dwattr $C$DW$123, DW_AT_name("GPIO_Number_19")
    1767                      .dwattr $C$DW$123, DW_AT_const_value(0x13)
    1768              
    1769              $C$DW$124       .dwtag  DW_TAG_enumerator
    1770                      .dwattr $C$DW$124, DW_AT_name("GPIO_Number_20")
    1771                      .dwattr $C$DW$124, DW_AT_const_value(0x14)
    1772              
    1773              $C$DW$125       .dwtag  DW_TAG_enumerator
    1774                      .dwattr $C$DW$125, DW_AT_name("GPIO_Number_21")
    1775                      .dwattr $C$DW$125, DW_AT_const_value(0x15)
    1776              
    1777              $C$DW$126       .dwtag  DW_TAG_enumerator
    1778                      .dwattr $C$DW$126, DW_AT_name("GPIO_Number_22")
    1779                      .dwattr $C$DW$126, DW_AT_const_value(0x16)
    1780              
    1781              $C$DW$127       .dwtag  DW_TAG_enumerator
    1782                      .dwattr $C$DW$127, DW_AT_name("GPIO_Number_23")
    1783                      .dwattr $C$DW$127, DW_AT_const_value(0x17)
    1784              
    1785              $C$DW$128       .dwtag  DW_TAG_enumerator
    1786                      .dwattr $C$DW$128, DW_AT_name("GPIO_Number_24")
    1787                      .dwattr $C$DW$128, DW_AT_const_value(0x18)
    1788              
    1789              $C$DW$129       .dwtag  DW_TAG_enumerator
    1790                      .dwattr $C$DW$129, DW_AT_name("GPIO_Number_25")
    1791                      .dwattr $C$DW$129, DW_AT_const_value(0x19)
    1792              
    1793              $C$DW$130       .dwtag  DW_TAG_enumerator
    1794                      .dwattr $C$DW$130, DW_AT_name("GPIO_Number_26")
    1795                      .dwattr $C$DW$130, DW_AT_const_value(0x1a)
    1796              
    1797              $C$DW$131       .dwtag  DW_TAG_enumerator
    1798                      .dwattr $C$DW$131, DW_AT_name("GPIO_Number_27")
TMS320C2000 Assembler PC v22.6.0 Wed Feb 22 11:34:31 2023

Copyright (c) 1996-2018 Texas Instruments Incorporated
C:\Users\GA5354\AppData\Local\Temp\{6DA7DAC6-2868-4E23-B53B-8B51420AAAC1} PAGE   34

    1799                      .dwattr $C$DW$131, DW_AT_const_value(0x1b)
    1800              
    1801              $C$DW$132       .dwtag  DW_TAG_enumerator
    1802                      .dwattr $C$DW$132, DW_AT_name("GPIO_Number_28")
    1803                      .dwattr $C$DW$132, DW_AT_const_value(0x1c)
    1804              
    1805              $C$DW$133       .dwtag  DW_TAG_enumerator
    1806                      .dwattr $C$DW$133, DW_AT_name("GPIO_Number_29")
    1807                      .dwattr $C$DW$133, DW_AT_const_value(0x1d)
    1808              
    1809              $C$DW$134       .dwtag  DW_TAG_enumerator
    1810                      .dwattr $C$DW$134, DW_AT_name("GPIO_Number_30")
    1811                      .dwattr $C$DW$134, DW_AT_const_value(0x1e)
    1812              
    1813              $C$DW$135       .dwtag  DW_TAG_enumerator
    1814                      .dwattr $C$DW$135, DW_AT_name("GPIO_Number_31")
    1815                      .dwattr $C$DW$135, DW_AT_const_value(0x1f)
    1816              
    1817              $C$DW$136       .dwtag  DW_TAG_enumerator
    1818                      .dwattr $C$DW$136, DW_AT_name("GPIO_Number_32")
    1819                      .dwattr $C$DW$136, DW_AT_const_value(0x20)
    1820              
    1821              $C$DW$137       .dwtag  DW_TAG_enumerator
    1822                      .dwattr $C$DW$137, DW_AT_name("GPIO_Number_33")
    1823                      .dwattr $C$DW$137, DW_AT_const_value(0x21)
    1824              
    1825              $C$DW$138       .dwtag  DW_TAG_enumerator
    1826                      .dwattr $C$DW$138, DW_AT_name("GPIO_Number_34")
    1827                      .dwattr $C$DW$138, DW_AT_const_value(0x22)
    1828              
    1829              $C$DW$139       .dwtag  DW_TAG_enumerator
    1830                      .dwattr $C$DW$139, DW_AT_name("GPIO_Number_35")
    1831                      .dwattr $C$DW$139, DW_AT_const_value(0x23)
    1832              
    1833              $C$DW$140       .dwtag  DW_TAG_enumerator
    1834                      .dwattr $C$DW$140, DW_AT_name("GPIO_Number_36")
    1835                      .dwattr $C$DW$140, DW_AT_const_value(0x24)
    1836              
    1837              $C$DW$141       .dwtag  DW_TAG_enumerator
    1838                      .dwattr $C$DW$141, DW_AT_name("GPIO_Number_37")
    1839                      .dwattr $C$DW$141, DW_AT_const_value(0x25)
    1840              
    1841              $C$DW$142       .dwtag  DW_TAG_enumerator
    1842                      .dwattr $C$DW$142, DW_AT_name("GPIO_Number_38")
    1843                      .dwattr $C$DW$142, DW_AT_const_value(0x26)
    1844              
    1845              $C$DW$143       .dwtag  DW_TAG_enumerator
    1846                      .dwattr $C$DW$143, DW_AT_name("GPIO_Number_39")
    1847                      .dwattr $C$DW$143, DW_AT_const_value(0x27)
    1848              
    1849              $C$DW$144       .dwtag  DW_TAG_enumerator
    1850                      .dwattr $C$DW$144, DW_AT_name("GPIO_Number_40")
    1851                      .dwattr $C$DW$144, DW_AT_const_value(0x28)
    1852              
    1853              $C$DW$145       .dwtag  DW_TAG_enumerator
TMS320C2000 Assembler PC v22.6.0 Wed Feb 22 11:34:31 2023

Copyright (c) 1996-2018 Texas Instruments Incorporated
C:\Users\GA5354\AppData\Local\Temp\{6DA7DAC6-2868-4E23-B53B-8B51420AAAC1} PAGE   35

    1854                      .dwattr $C$DW$145, DW_AT_name("GPIO_Number_41")
    1855                      .dwattr $C$DW$145, DW_AT_const_value(0x29)
    1856              
    1857              $C$DW$146       .dwtag  DW_TAG_enumerator
    1858                      .dwattr $C$DW$146, DW_AT_name("GPIO_Number_42")
    1859                      .dwattr $C$DW$146, DW_AT_const_value(0x2a)
    1860              
    1861              $C$DW$147       .dwtag  DW_TAG_enumerator
    1862                      .dwattr $C$DW$147, DW_AT_name("GPIO_Number_43")
    1863                      .dwattr $C$DW$147, DW_AT_const_value(0x2b)
    1864              
    1865              $C$DW$148       .dwtag  DW_TAG_enumerator
    1866                      .dwattr $C$DW$148, DW_AT_name("GPIO_Number_44")
    1867                      .dwattr $C$DW$148, DW_AT_const_value(0x2c)
    1868              
    1869              $C$DW$149       .dwtag  DW_TAG_enumerator
    1870                      .dwattr $C$DW$149, DW_AT_name("GPIO_Number_50")
    1871                      .dwattr $C$DW$149, DW_AT_const_value(0x32)
    1872              
    1873              $C$DW$150       .dwtag  DW_TAG_enumerator
    1874                      .dwattr $C$DW$150, DW_AT_name("GPIO_Number_51")
    1875                      .dwattr $C$DW$150, DW_AT_const_value(0x33)
    1876              
    1877              $C$DW$151       .dwtag  DW_TAG_enumerator
    1878                      .dwattr $C$DW$151, DW_AT_name("GPIO_Number_52")
    1879                      .dwattr $C$DW$151, DW_AT_const_value(0x34)
    1880              
    1881              $C$DW$152       .dwtag  DW_TAG_enumerator
    1882                      .dwattr $C$DW$152, DW_AT_name("GPIO_Number_53")
    1883                      .dwattr $C$DW$152, DW_AT_const_value(0x35)
    1884              
    1885              $C$DW$153       .dwtag  DW_TAG_enumerator
    1886                      .dwattr $C$DW$153, DW_AT_name("GPIO_Number_54")
    1887                      .dwattr $C$DW$153, DW_AT_const_value(0x36)
    1888              
    1889              $C$DW$154       .dwtag  DW_TAG_enumerator
    1890                      .dwattr $C$DW$154, DW_AT_name("GPIO_Number_55")
    1891                      .dwattr $C$DW$154, DW_AT_const_value(0x37)
    1892              
    1893              $C$DW$155       .dwtag  DW_TAG_enumerator
    1894                      .dwattr $C$DW$155, DW_AT_name("GPIO_Number_56")
    1895                      .dwattr $C$DW$155, DW_AT_const_value(0x38)
    1896              
    1897              $C$DW$156       .dwtag  DW_TAG_enumerator
    1898                      .dwattr $C$DW$156, DW_AT_name("GPIO_Number_57")
    1899                      .dwattr $C$DW$156, DW_AT_const_value(0x39)
    1900              
    1901              $C$DW$157       .dwtag  DW_TAG_enumerator
    1902                      .dwattr $C$DW$157, DW_AT_name("GPIO_Number_58")
    1903                      .dwattr $C$DW$157, DW_AT_const_value(0x3a)
    1904              
    1905              $C$DW$158       .dwtag  DW_TAG_enumerator
    1906                      .dwattr $C$DW$158, DW_AT_name("GPIO_numGpios")
    1907                      .dwattr $C$DW$158, DW_AT_const_value(0x3b)
    1908              
TMS320C2000 Assembler PC v22.6.0 Wed Feb 22 11:34:31 2023

Copyright (c) 1996-2018 Texas Instruments Incorporated
C:\Users\GA5354\AppData\Local\Temp\{6DA7DAC6-2868-4E23-B53B-8B51420AAAC1} PAGE   36

    1909                      .dwendtag $C$DW$T$32
    1910              
    1911              $C$DW$T$33      .dwtag  DW_TAG_typedef
    1912                      .dwattr $C$DW$T$33, DW_AT_name("GPIO_Number_e")
    1913                      .dwattr $C$DW$T$33, DW_AT_type(*$C$DW$T$32)
    1914                      .dwattr $C$DW$T$33, DW_AT_language(DW_LANG_C)
    1915              
    1916              $C$DW$159       .dwtag  DW_TAG_TI_far_type
    1917                      .dwattr $C$DW$159, DW_AT_type(*$C$DW$T$33)
    1918              
    1919              $C$DW$T$34      .dwtag  DW_TAG_const_type
    1920                      .dwattr $C$DW$T$34, DW_AT_type(*$C$DW$159)
    1921              
    1922              
    1923              $C$DW$T$35      .dwtag  DW_TAG_enumeration_type
    1924                      .dwattr $C$DW$T$35, DW_AT_byte_size(0x01)
    1925              $C$DW$160       .dwtag  DW_TAG_enumerator
    1926                      .dwattr $C$DW$160, DW_AT_name("GPIO_Port_A")
    1927                      .dwattr $C$DW$160, DW_AT_const_value(0x00)
    1928              
    1929              $C$DW$161       .dwtag  DW_TAG_enumerator
    1930                      .dwattr $C$DW$161, DW_AT_name("GPIO_Port_B")
    1931                      .dwattr $C$DW$161, DW_AT_const_value(0x01)
    1932              
    1933                      .dwendtag $C$DW$T$35
    1934              
    1935              $C$DW$T$36      .dwtag  DW_TAG_typedef
    1936                      .dwattr $C$DW$T$36, DW_AT_name("GPIO_Port_e")
    1937                      .dwattr $C$DW$T$36, DW_AT_type(*$C$DW$T$35)
    1938                      .dwattr $C$DW$T$36, DW_AT_language(DW_LANG_C)
    1939              
    1940              $C$DW$162       .dwtag  DW_TAG_TI_far_type
    1941                      .dwattr $C$DW$162, DW_AT_type(*$C$DW$T$36)
    1942              
    1943              $C$DW$T$37      .dwtag  DW_TAG_const_type
    1944                      .dwattr $C$DW$T$37, DW_AT_type(*$C$DW$162)
    1945              
    1946              
    1947              $C$DW$T$38      .dwtag  DW_TAG_enumeration_type
    1948                      .dwattr $C$DW$T$38, DW_AT_byte_size(0x01)
    1949              $C$DW$163       .dwtag  DW_TAG_enumerator
    1950                      .dwattr $C$DW$163, DW_AT_name("GPIO_Pullup_Enable")
    1951                      .dwattr $C$DW$163, DW_AT_const_value(0x00)
    1952              
    1953              $C$DW$164       .dwtag  DW_TAG_enumerator
    1954                      .dwattr $C$DW$164, DW_AT_name("GPIO_Pullup_Disable")
    1955                      .dwattr $C$DW$164, DW_AT_const_value(0x01)
    1956              
    1957                      .dwendtag $C$DW$T$38
    1958              
    1959              $C$DW$T$39      .dwtag  DW_TAG_typedef
    1960                      .dwattr $C$DW$T$39, DW_AT_name("GPIO_Pullup_e")
    1961                      .dwattr $C$DW$T$39, DW_AT_type(*$C$DW$T$38)
    1962                      .dwattr $C$DW$T$39, DW_AT_language(DW_LANG_C)
    1963              
TMS320C2000 Assembler PC v22.6.0 Wed Feb 22 11:34:31 2023

Copyright (c) 1996-2018 Texas Instruments Incorporated
C:\Users\GA5354\AppData\Local\Temp\{6DA7DAC6-2868-4E23-B53B-8B51420AAAC1} PAGE   37

    1964              $C$DW$165       .dwtag  DW_TAG_TI_far_type
    1965                      .dwattr $C$DW$165, DW_AT_type(*$C$DW$T$39)
    1966              
    1967              $C$DW$T$40      .dwtag  DW_TAG_const_type
    1968                      .dwattr $C$DW$T$40, DW_AT_type(*$C$DW$165)
    1969              
    1970              
    1971              $C$DW$T$41      .dwtag  DW_TAG_enumeration_type
    1972                      .dwattr $C$DW$T$41, DW_AT_byte_size(0x01)
    1973              $C$DW$166       .dwtag  DW_TAG_enumerator
    1974                      .dwattr $C$DW$166, DW_AT_name("GPIO_Direction_Input")
    1975                      .dwattr $C$DW$166, DW_AT_const_value(0x00)
    1976              
    1977              $C$DW$167       .dwtag  DW_TAG_enumerator
    1978                      .dwattr $C$DW$167, DW_AT_name("GPIO_Direction_Output")
    1979                      .dwattr $C$DW$167, DW_AT_const_value(0x01)
    1980              
    1981                      .dwendtag $C$DW$T$41
    1982              
    1983              $C$DW$T$42      .dwtag  DW_TAG_typedef
    1984                      .dwattr $C$DW$T$42, DW_AT_name("GPIO_Direction_e")
    1985                      .dwattr $C$DW$T$42, DW_AT_type(*$C$DW$T$41)
    1986                      .dwattr $C$DW$T$42, DW_AT_language(DW_LANG_C)
    1987              
    1988              $C$DW$168       .dwtag  DW_TAG_TI_far_type
    1989                      .dwattr $C$DW$168, DW_AT_type(*$C$DW$T$42)
    1990              
    1991              $C$DW$T$43      .dwtag  DW_TAG_const_type
    1992                      .dwattr $C$DW$T$43, DW_AT_type(*$C$DW$168)
    1993              
    1994              
    1995              $C$DW$T$44      .dwtag  DW_TAG_enumeration_type
    1996                      .dwattr $C$DW$T$44, DW_AT_byte_size(0x01)
    1997              $C$DW$169       .dwtag  DW_TAG_enumerator
    1998                      .dwattr $C$DW$169, DW_AT_name("CPU_ExtIntNumber_1")
    1999                      .dwattr $C$DW$169, DW_AT_const_value(0x00)
    2000              
    2001              $C$DW$170       .dwtag  DW_TAG_enumerator
    2002                      .dwattr $C$DW$170, DW_AT_name("CPU_ExtIntNumber_2")
    2003                      .dwattr $C$DW$170, DW_AT_const_value(0x01)
    2004              
    2005              $C$DW$171       .dwtag  DW_TAG_enumerator
    2006                      .dwattr $C$DW$171, DW_AT_name("CPU_ExtIntNumber_3")
    2007                      .dwattr $C$DW$171, DW_AT_const_value(0x02)
    2008              
    2009                      .dwendtag $C$DW$T$44
    2010              
    2011              $C$DW$T$45      .dwtag  DW_TAG_typedef
    2012                      .dwattr $C$DW$T$45, DW_AT_name("CPU_ExtIntNumber_e")
    2013                      .dwattr $C$DW$T$45, DW_AT_type(*$C$DW$T$44)
    2014                      .dwattr $C$DW$T$45, DW_AT_language(DW_LANG_C)
    2015              
    2016              $C$DW$172       .dwtag  DW_TAG_TI_far_type
    2017                      .dwattr $C$DW$172, DW_AT_type(*$C$DW$T$45)
    2018              
TMS320C2000 Assembler PC v22.6.0 Wed Feb 22 11:34:31 2023

Copyright (c) 1996-2018 Texas Instruments Incorporated
C:\Users\GA5354\AppData\Local\Temp\{6DA7DAC6-2868-4E23-B53B-8B51420AAAC1} PAGE   38

    2019              $C$DW$T$46      .dwtag  DW_TAG_const_type
    2020                      .dwattr $C$DW$T$46, DW_AT_type(*$C$DW$172)
    2021              
    2022              
    2023              $C$DW$T$47      .dwtag  DW_TAG_enumeration_type
    2024                      .dwattr $C$DW$T$47, DW_AT_byte_size(0x01)
    2025              $C$DW$173       .dwtag  DW_TAG_enumerator
    2026                      .dwattr $C$DW$173, DW_AT_name("GPIO_0_Mode_GeneralPurpose")
    2027                      .dwattr $C$DW$173, DW_AT_const_value(0x00)
    2028              
    2029              $C$DW$174       .dwtag  DW_TAG_enumerator
    2030                      .dwattr $C$DW$174, DW_AT_name("GPIO_0_Mode_EPWM1A")
    2031                      .dwattr $C$DW$174, DW_AT_const_value(0x01)
    2032              
    2033              $C$DW$175       .dwtag  DW_TAG_enumerator
    2034                      .dwattr $C$DW$175, DW_AT_name("GPIO_0_Mode_Rsvd_2")
    2035                      .dwattr $C$DW$175, DW_AT_const_value(0x02)
    2036              
    2037              $C$DW$176       .dwtag  DW_TAG_enumerator
    2038                      .dwattr $C$DW$176, DW_AT_name("GPIO_0_Mode_Rsvd_3")
    2039                      .dwattr $C$DW$176, DW_AT_const_value(0x03)
    2040              
    2041              $C$DW$177       .dwtag  DW_TAG_enumerator
    2042                      .dwattr $C$DW$177, DW_AT_name("GPIO_1_Mode_GeneralPurpose")
    2043                      .dwattr $C$DW$177, DW_AT_const_value(0x00)
    2044              
    2045              $C$DW$178       .dwtag  DW_TAG_enumerator
    2046                      .dwattr $C$DW$178, DW_AT_name("GPIO_1_Mode_EPWM1B")
    2047                      .dwattr $C$DW$178, DW_AT_const_value(0x01)
    2048              
    2049              $C$DW$179       .dwtag  DW_TAG_enumerator
    2050                      .dwattr $C$DW$179, DW_AT_name("GPIO_1_Mode_Rsvd_2")
    2051                      .dwattr $C$DW$179, DW_AT_const_value(0x02)
    2052              
    2053              $C$DW$180       .dwtag  DW_TAG_enumerator
    2054                      .dwattr $C$DW$180, DW_AT_name("GPIO_1_Mode_COMP1OUT")
    2055                      .dwattr $C$DW$180, DW_AT_const_value(0x03)
    2056              
    2057              $C$DW$181       .dwtag  DW_TAG_enumerator
    2058                      .dwattr $C$DW$181, DW_AT_name("GPIO_2_Mode_GeneralPurpose")
    2059                      .dwattr $C$DW$181, DW_AT_const_value(0x00)
    2060              
    2061              $C$DW$182       .dwtag  DW_TAG_enumerator
    2062                      .dwattr $C$DW$182, DW_AT_name("GPIO_2_Mode_EPWM2A")
    2063                      .dwattr $C$DW$182, DW_AT_const_value(0x01)
    2064              
    2065              $C$DW$183       .dwtag  DW_TAG_enumerator
    2066                      .dwattr $C$DW$183, DW_AT_name("GPIO_2_Mode_Rsvd_2")
    2067                      .dwattr $C$DW$183, DW_AT_const_value(0x02)
    2068              
    2069              $C$DW$184       .dwtag  DW_TAG_enumerator
    2070                      .dwattr $C$DW$184, DW_AT_name("GPIO_2_Mode_Rsvd_3")
    2071                      .dwattr $C$DW$184, DW_AT_const_value(0x03)
    2072              
    2073              $C$DW$185       .dwtag  DW_TAG_enumerator
TMS320C2000 Assembler PC v22.6.0 Wed Feb 22 11:34:31 2023

Copyright (c) 1996-2018 Texas Instruments Incorporated
C:\Users\GA5354\AppData\Local\Temp\{6DA7DAC6-2868-4E23-B53B-8B51420AAAC1} PAGE   39

    2074                      .dwattr $C$DW$185, DW_AT_name("GPIO_3_Mode_GeneralPurpose")
    2075                      .dwattr $C$DW$185, DW_AT_const_value(0x00)
    2076              
    2077              $C$DW$186       .dwtag  DW_TAG_enumerator
    2078                      .dwattr $C$DW$186, DW_AT_name("GPIO_3_Mode_EPWM2B")
    2079                      .dwattr $C$DW$186, DW_AT_const_value(0x01)
    2080              
    2081              $C$DW$187       .dwtag  DW_TAG_enumerator
    2082                      .dwattr $C$DW$187, DW_AT_name("GPIO_3_Mode_SPISOMIA")
    2083                      .dwattr $C$DW$187, DW_AT_const_value(0x02)
    2084              
    2085              $C$DW$188       .dwtag  DW_TAG_enumerator
    2086                      .dwattr $C$DW$188, DW_AT_name("GPIO_3_Mode_COMP2OUT")
    2087                      .dwattr $C$DW$188, DW_AT_const_value(0x03)
    2088              
    2089              $C$DW$189       .dwtag  DW_TAG_enumerator
    2090                      .dwattr $C$DW$189, DW_AT_name("GPIO_4_Mode_GeneralPurpose")
    2091                      .dwattr $C$DW$189, DW_AT_const_value(0x00)
    2092              
    2093              $C$DW$190       .dwtag  DW_TAG_enumerator
    2094                      .dwattr $C$DW$190, DW_AT_name("GPIO_4_Mode_EPWM3A")
    2095                      .dwattr $C$DW$190, DW_AT_const_value(0x01)
    2096              
    2097              $C$DW$191       .dwtag  DW_TAG_enumerator
    2098                      .dwattr $C$DW$191, DW_AT_name("GPIO_4_Mode_Rsvd_2")
    2099                      .dwattr $C$DW$191, DW_AT_const_value(0x02)
    2100              
    2101              $C$DW$192       .dwtag  DW_TAG_enumerator
    2102                      .dwattr $C$DW$192, DW_AT_name("GPIO_4_Mode_Rsvd_3")
    2103                      .dwattr $C$DW$192, DW_AT_const_value(0x03)
    2104              
    2105              $C$DW$193       .dwtag  DW_TAG_enumerator
    2106                      .dwattr $C$DW$193, DW_AT_name("GPIO_5_Mode_GeneralPurpose")
    2107                      .dwattr $C$DW$193, DW_AT_const_value(0x00)
    2108              
    2109              $C$DW$194       .dwtag  DW_TAG_enumerator
    2110                      .dwattr $C$DW$194, DW_AT_name("GPIO_5_Mode_EPWM3B")
    2111                      .dwattr $C$DW$194, DW_AT_const_value(0x01)
    2112              
    2113              $C$DW$195       .dwtag  DW_TAG_enumerator
    2114                      .dwattr $C$DW$195, DW_AT_name("GPIO_5_Mode_SPISIMOA")
    2115                      .dwattr $C$DW$195, DW_AT_const_value(0x02)
    2116              
    2117              $C$DW$196       .dwtag  DW_TAG_enumerator
    2118                      .dwattr $C$DW$196, DW_AT_name("GPIO_5_Mode_ECAP1")
    2119                      .dwattr $C$DW$196, DW_AT_const_value(0x03)
    2120              
    2121              $C$DW$197       .dwtag  DW_TAG_enumerator
    2122                      .dwattr $C$DW$197, DW_AT_name("GPIO_6_Mode_GeneralPurpose")
    2123                      .dwattr $C$DW$197, DW_AT_const_value(0x00)
    2124              
    2125              $C$DW$198       .dwtag  DW_TAG_enumerator
    2126                      .dwattr $C$DW$198, DW_AT_name("GPIO_6_Mode_EPWM4A")
    2127                      .dwattr $C$DW$198, DW_AT_const_value(0x01)
    2128              
TMS320C2000 Assembler PC v22.6.0 Wed Feb 22 11:34:31 2023

Copyright (c) 1996-2018 Texas Instruments Incorporated
C:\Users\GA5354\AppData\Local\Temp\{6DA7DAC6-2868-4E23-B53B-8B51420AAAC1} PAGE   40

    2129              $C$DW$199       .dwtag  DW_TAG_enumerator
    2130                      .dwattr $C$DW$199, DW_AT_name("GPIO_6_Mode_EPWMSYNCI")
    2131                      .dwattr $C$DW$199, DW_AT_const_value(0x02)
    2132              
    2133              $C$DW$200       .dwtag  DW_TAG_enumerator
    2134                      .dwattr $C$DW$200, DW_AT_name("GPIO_6_Mode_EPWMSYNCO")
    2135                      .dwattr $C$DW$200, DW_AT_const_value(0x03)
    2136              
    2137              $C$DW$201       .dwtag  DW_TAG_enumerator
    2138                      .dwattr $C$DW$201, DW_AT_name("GPIO_7_Mode_GeneralPurpose")
    2139                      .dwattr $C$DW$201, DW_AT_const_value(0x00)
    2140              
    2141              $C$DW$202       .dwtag  DW_TAG_enumerator
    2142                      .dwattr $C$DW$202, DW_AT_name("GPIO_7_Mode_EPWM4B")
    2143                      .dwattr $C$DW$202, DW_AT_const_value(0x01)
    2144              
    2145              $C$DW$203       .dwtag  DW_TAG_enumerator
    2146                      .dwattr $C$DW$203, DW_AT_name("GPIO_7_Mode_SCIRXDA")
    2147                      .dwattr $C$DW$203, DW_AT_const_value(0x02)
    2148              
    2149              $C$DW$204       .dwtag  DW_TAG_enumerator
    2150                      .dwattr $C$DW$204, DW_AT_name("GPIO_7_Mode_ECAP2")
    2151                      .dwattr $C$DW$204, DW_AT_const_value(0x03)
    2152              
    2153              $C$DW$205       .dwtag  DW_TAG_enumerator
    2154                      .dwattr $C$DW$205, DW_AT_name("GPIO_8_Mode_GeneralPurpose")
    2155                      .dwattr $C$DW$205, DW_AT_const_value(0x00)
    2156              
    2157              $C$DW$206       .dwtag  DW_TAG_enumerator
    2158                      .dwattr $C$DW$206, DW_AT_name("GPIO_8_Mode_EPWM5A")
    2159                      .dwattr $C$DW$206, DW_AT_const_value(0x01)
    2160              
    2161              $C$DW$207       .dwtag  DW_TAG_enumerator
    2162                      .dwattr $C$DW$207, DW_AT_name("GPIO_8_Mode_Rsvd_2")
    2163                      .dwattr $C$DW$207, DW_AT_const_value(0x02)
    2164              
    2165              $C$DW$208       .dwtag  DW_TAG_enumerator
    2166                      .dwattr $C$DW$208, DW_AT_name("GPIO_8_Mode_ADCSOCAO_NOT")
    2167                      .dwattr $C$DW$208, DW_AT_const_value(0x03)
    2168              
    2169              $C$DW$209       .dwtag  DW_TAG_enumerator
    2170                      .dwattr $C$DW$209, DW_AT_name("GPIO_9_Mode_GeneralPurpose")
    2171                      .dwattr $C$DW$209, DW_AT_const_value(0x00)
    2172              
    2173              $C$DW$210       .dwtag  DW_TAG_enumerator
    2174                      .dwattr $C$DW$210, DW_AT_name("GPIO_9_Mode_EPWM5B")
    2175                      .dwattr $C$DW$210, DW_AT_const_value(0x01)
    2176              
    2177              $C$DW$211       .dwtag  DW_TAG_enumerator
    2178                      .dwattr $C$DW$211, DW_AT_name("GPIO_9_Mode_SCITXDB")
    2179                      .dwattr $C$DW$211, DW_AT_const_value(0x02)
    2180              
    2181              $C$DW$212       .dwtag  DW_TAG_enumerator
    2182                      .dwattr $C$DW$212, DW_AT_name("GPIO_9_Mode_ECAP3")
    2183                      .dwattr $C$DW$212, DW_AT_const_value(0x03)
TMS320C2000 Assembler PC v22.6.0 Wed Feb 22 11:34:31 2023

Copyright (c) 1996-2018 Texas Instruments Incorporated
C:\Users\GA5354\AppData\Local\Temp\{6DA7DAC6-2868-4E23-B53B-8B51420AAAC1} PAGE   41

    2184              
    2185              $C$DW$213       .dwtag  DW_TAG_enumerator
    2186                      .dwattr $C$DW$213, DW_AT_name("GPIO_10_Mode_GeneralPurpose")
    2187                      .dwattr $C$DW$213, DW_AT_const_value(0x00)
    2188              
    2189              $C$DW$214       .dwtag  DW_TAG_enumerator
    2190                      .dwattr $C$DW$214, DW_AT_name("GPIO_10_Mode_EPWM6A")
    2191                      .dwattr $C$DW$214, DW_AT_const_value(0x01)
    2192              
    2193              $C$DW$215       .dwtag  DW_TAG_enumerator
    2194                      .dwattr $C$DW$215, DW_AT_name("GPIO_10_Mode_Rsvd_2")
    2195                      .dwattr $C$DW$215, DW_AT_const_value(0x02)
    2196              
    2197              $C$DW$216       .dwtag  DW_TAG_enumerator
    2198                      .dwattr $C$DW$216, DW_AT_name("GPIO_10_Mode_ADCSOCBO_NOT")
    2199                      .dwattr $C$DW$216, DW_AT_const_value(0x03)
    2200              
    2201              $C$DW$217       .dwtag  DW_TAG_enumerator
    2202                      .dwattr $C$DW$217, DW_AT_name("GPIO_11_Mode_GeneralPurpose")
    2203                      .dwattr $C$DW$217, DW_AT_const_value(0x00)
    2204              
    2205              $C$DW$218       .dwtag  DW_TAG_enumerator
    2206                      .dwattr $C$DW$218, DW_AT_name("GPIO_11_Mode_EPWM6B")
    2207                      .dwattr $C$DW$218, DW_AT_const_value(0x01)
    2208              
    2209              $C$DW$219       .dwtag  DW_TAG_enumerator
    2210                      .dwattr $C$DW$219, DW_AT_name("GPIO_11_Mode_SCIRXDB")
    2211                      .dwattr $C$DW$219, DW_AT_const_value(0x02)
    2212              
    2213              $C$DW$220       .dwtag  DW_TAG_enumerator
    2214                      .dwattr $C$DW$220, DW_AT_name("GPIO_11_Mode_ECAP1")
    2215                      .dwattr $C$DW$220, DW_AT_const_value(0x03)
    2216              
    2217              $C$DW$221       .dwtag  DW_TAG_enumerator
    2218                      .dwattr $C$DW$221, DW_AT_name("GPIO_12_Mode_GeneralPurpose")
    2219                      .dwattr $C$DW$221, DW_AT_const_value(0x00)
    2220              
    2221              $C$DW$222       .dwtag  DW_TAG_enumerator
    2222                      .dwattr $C$DW$222, DW_AT_name("GPIO_12_Mode_TZ1_NOT")
    2223                      .dwattr $C$DW$222, DW_AT_const_value(0x01)
    2224              
    2225              $C$DW$223       .dwtag  DW_TAG_enumerator
    2226                      .dwattr $C$DW$223, DW_AT_name("GPIO_12_Mode_SCITXDA")
    2227                      .dwattr $C$DW$223, DW_AT_const_value(0x02)
    2228              
    2229              $C$DW$224       .dwtag  DW_TAG_enumerator
    2230                      .dwattr $C$DW$224, DW_AT_name("GPIO_12_Mode_SPISIMOB")
    2231                      .dwattr $C$DW$224, DW_AT_const_value(0x03)
    2232              
    2233              $C$DW$225       .dwtag  DW_TAG_enumerator
    2234                      .dwattr $C$DW$225, DW_AT_name("GPIO_13_Mode_GeneralPurpose")
    2235                      .dwattr $C$DW$225, DW_AT_const_value(0x00)
    2236              
    2237              $C$DW$226       .dwtag  DW_TAG_enumerator
    2238                      .dwattr $C$DW$226, DW_AT_name("GPIO_13_Mode_TZ2_NOT")
TMS320C2000 Assembler PC v22.6.0 Wed Feb 22 11:34:31 2023

Copyright (c) 1996-2018 Texas Instruments Incorporated
C:\Users\GA5354\AppData\Local\Temp\{6DA7DAC6-2868-4E23-B53B-8B51420AAAC1} PAGE   42

    2239                      .dwattr $C$DW$226, DW_AT_const_value(0x01)
    2240              
    2241              $C$DW$227       .dwtag  DW_TAG_enumerator
    2242                      .dwattr $C$DW$227, DW_AT_name("GPIO_13_Mode_Rsvd_2")
    2243                      .dwattr $C$DW$227, DW_AT_const_value(0x02)
    2244              
    2245              $C$DW$228       .dwtag  DW_TAG_enumerator
    2246                      .dwattr $C$DW$228, DW_AT_name("GPIO_13_Mode_SPISOMIB")
    2247                      .dwattr $C$DW$228, DW_AT_const_value(0x03)
    2248              
    2249              $C$DW$229       .dwtag  DW_TAG_enumerator
    2250                      .dwattr $C$DW$229, DW_AT_name("GPIO_14_Mode_GeneralPurpose")
    2251                      .dwattr $C$DW$229, DW_AT_const_value(0x00)
    2252              
    2253              $C$DW$230       .dwtag  DW_TAG_enumerator
    2254                      .dwattr $C$DW$230, DW_AT_name("GPIO_14_Mode_TZ3_NOT")
    2255                      .dwattr $C$DW$230, DW_AT_const_value(0x01)
    2256              
    2257              $C$DW$231       .dwtag  DW_TAG_enumerator
    2258                      .dwattr $C$DW$231, DW_AT_name("GPIO_14_Mode_SCITXDB")
    2259                      .dwattr $C$DW$231, DW_AT_const_value(0x02)
    2260              
    2261              $C$DW$232       .dwtag  DW_TAG_enumerator
    2262                      .dwattr $C$DW$232, DW_AT_name("GPIO_14_Mode_SPICLKB")
    2263                      .dwattr $C$DW$232, DW_AT_const_value(0x03)
    2264              
    2265              $C$DW$233       .dwtag  DW_TAG_enumerator
    2266                      .dwattr $C$DW$233, DW_AT_name("GPIO_15_Mode_GeneralPurpose")
    2267                      .dwattr $C$DW$233, DW_AT_const_value(0x00)
    2268              
    2269              $C$DW$234       .dwtag  DW_TAG_enumerator
    2270                      .dwattr $C$DW$234, DW_AT_name("GPIO_15_Mode_ECAP2")
    2271                      .dwattr $C$DW$234, DW_AT_const_value(0x01)
    2272              
    2273              $C$DW$235       .dwtag  DW_TAG_enumerator
    2274                      .dwattr $C$DW$235, DW_AT_name("GPIO_15_Mode_SCIRXDB")
    2275                      .dwattr $C$DW$235, DW_AT_const_value(0x02)
    2276              
    2277              $C$DW$236       .dwtag  DW_TAG_enumerator
    2278                      .dwattr $C$DW$236, DW_AT_name("GPIO_15_Mode_SPISTEB_NOT")
    2279                      .dwattr $C$DW$236, DW_AT_const_value(0x03)
    2280              
    2281              $C$DW$237       .dwtag  DW_TAG_enumerator
    2282                      .dwattr $C$DW$237, DW_AT_name("GPIO_16_Mode_GeneralPurpose")
    2283                      .dwattr $C$DW$237, DW_AT_const_value(0x00)
    2284              
    2285              $C$DW$238       .dwtag  DW_TAG_enumerator
    2286                      .dwattr $C$DW$238, DW_AT_name("GPIO_16_Mode_SPISIMOA")
    2287                      .dwattr $C$DW$238, DW_AT_const_value(0x01)
    2288              
    2289              $C$DW$239       .dwtag  DW_TAG_enumerator
    2290                      .dwattr $C$DW$239, DW_AT_name("GPIO_16_Mode_Rsvd_2")
    2291                      .dwattr $C$DW$239, DW_AT_const_value(0x02)
    2292              
    2293              $C$DW$240       .dwtag  DW_TAG_enumerator
TMS320C2000 Assembler PC v22.6.0 Wed Feb 22 11:34:31 2023

Copyright (c) 1996-2018 Texas Instruments Incorporated
C:\Users\GA5354\AppData\Local\Temp\{6DA7DAC6-2868-4E23-B53B-8B51420AAAC1} PAGE   43

    2294                      .dwattr $C$DW$240, DW_AT_name("GPIO_16_Mode_TZ2_NOT")
    2295                      .dwattr $C$DW$240, DW_AT_const_value(0x03)
    2296              
    2297              $C$DW$241       .dwtag  DW_TAG_enumerator
    2298                      .dwattr $C$DW$241, DW_AT_name("GPIO_17_Mode_GeneralPurpose")
    2299                      .dwattr $C$DW$241, DW_AT_const_value(0x00)
    2300              
    2301              $C$DW$242       .dwtag  DW_TAG_enumerator
    2302                      .dwattr $C$DW$242, DW_AT_name("GPIO_17_Mode_SPISOMIA")
    2303                      .dwattr $C$DW$242, DW_AT_const_value(0x01)
    2304              
    2305              $C$DW$243       .dwtag  DW_TAG_enumerator
    2306                      .dwattr $C$DW$243, DW_AT_name("GPIO_17_Mode_Rsvd_2")
    2307                      .dwattr $C$DW$243, DW_AT_const_value(0x02)
    2308              
    2309              $C$DW$244       .dwtag  DW_TAG_enumerator
    2310                      .dwattr $C$DW$244, DW_AT_name("GPIO_17_Mode_TZ3_NOT")
    2311                      .dwattr $C$DW$244, DW_AT_const_value(0x03)
    2312              
    2313              $C$DW$245       .dwtag  DW_TAG_enumerator
    2314                      .dwattr $C$DW$245, DW_AT_name("GPIO_18_Mode_GeneralPurpose")
    2315                      .dwattr $C$DW$245, DW_AT_const_value(0x00)
    2316              
    2317              $C$DW$246       .dwtag  DW_TAG_enumerator
    2318                      .dwattr $C$DW$246, DW_AT_name("GPIO_18_Mode_SPICLKA")
    2319                      .dwattr $C$DW$246, DW_AT_const_value(0x01)
    2320              
    2321              $C$DW$247       .dwtag  DW_TAG_enumerator
    2322                      .dwattr $C$DW$247, DW_AT_name("GPIO_18_Mode_SCITXDB")
    2323                      .dwattr $C$DW$247, DW_AT_const_value(0x02)
    2324              
    2325              $C$DW$248       .dwtag  DW_TAG_enumerator
    2326                      .dwattr $C$DW$248, DW_AT_name("GPIO_18_Mode_XCLKOUT")
    2327                      .dwattr $C$DW$248, DW_AT_const_value(0x03)
    2328              
    2329              $C$DW$249       .dwtag  DW_TAG_enumerator
    2330                      .dwattr $C$DW$249, DW_AT_name("GPIO_19_Mode_GeneralPurpose")
    2331                      .dwattr $C$DW$249, DW_AT_const_value(0x00)
    2332              
    2333              $C$DW$250       .dwtag  DW_TAG_enumerator
    2334                      .dwattr $C$DW$250, DW_AT_name("GPIO_19_Mode_SPISTEA_NOT")
    2335                      .dwattr $C$DW$250, DW_AT_const_value(0x01)
    2336              
    2337              $C$DW$251       .dwtag  DW_TAG_enumerator
    2338                      .dwattr $C$DW$251, DW_AT_name("GPIO_19_Mode_SCIRXDB")
    2339                      .dwattr $C$DW$251, DW_AT_const_value(0x02)
    2340              
    2341              $C$DW$252       .dwtag  DW_TAG_enumerator
    2342                      .dwattr $C$DW$252, DW_AT_name("GPIO_19_Mode_ECAP1")
    2343                      .dwattr $C$DW$252, DW_AT_const_value(0x03)
    2344              
    2345              $C$DW$253       .dwtag  DW_TAG_enumerator
    2346                      .dwattr $C$DW$253, DW_AT_name("GPIO_20_Mode_GeneralPurpose")
    2347                      .dwattr $C$DW$253, DW_AT_const_value(0x00)
    2348              
TMS320C2000 Assembler PC v22.6.0 Wed Feb 22 11:34:31 2023

Copyright (c) 1996-2018 Texas Instruments Incorporated
C:\Users\GA5354\AppData\Local\Temp\{6DA7DAC6-2868-4E23-B53B-8B51420AAAC1} PAGE   44

    2349              $C$DW$254       .dwtag  DW_TAG_enumerator
    2350                      .dwattr $C$DW$254, DW_AT_name("GPIO_20_Mode_EQEP1A")
    2351                      .dwattr $C$DW$254, DW_AT_const_value(0x01)
    2352              
    2353              $C$DW$255       .dwtag  DW_TAG_enumerator
    2354                      .dwattr $C$DW$255, DW_AT_name("GPIO_20_Mode_MDXA")
    2355                      .dwattr $C$DW$255, DW_AT_const_value(0x02)
    2356              
    2357              $C$DW$256       .dwtag  DW_TAG_enumerator
    2358                      .dwattr $C$DW$256, DW_AT_name("GPIO_20_Mode_COMP1OUT")
    2359                      .dwattr $C$DW$256, DW_AT_const_value(0x03)
    2360              
    2361              $C$DW$257       .dwtag  DW_TAG_enumerator
    2362                      .dwattr $C$DW$257, DW_AT_name("GPIO_21_Mode_GeneralPurpose")
    2363                      .dwattr $C$DW$257, DW_AT_const_value(0x00)
    2364              
    2365              $C$DW$258       .dwtag  DW_TAG_enumerator
    2366                      .dwattr $C$DW$258, DW_AT_name("GPIO_21_Mode_EQEP1B")
    2367                      .dwattr $C$DW$258, DW_AT_const_value(0x01)
    2368              
    2369              $C$DW$259       .dwtag  DW_TAG_enumerator
    2370                      .dwattr $C$DW$259, DW_AT_name("GPIO_21_Mode_MDRA")
    2371                      .dwattr $C$DW$259, DW_AT_const_value(0x02)
    2372              
    2373              $C$DW$260       .dwtag  DW_TAG_enumerator
    2374                      .dwattr $C$DW$260, DW_AT_name("GPIO_21_Mode_COMP2OUT")
    2375                      .dwattr $C$DW$260, DW_AT_const_value(0x03)
    2376              
    2377              $C$DW$261       .dwtag  DW_TAG_enumerator
    2378                      .dwattr $C$DW$261, DW_AT_name("GPIO_22_Mode_GeneralPurpose")
    2379                      .dwattr $C$DW$261, DW_AT_const_value(0x00)
    2380              
    2381              $C$DW$262       .dwtag  DW_TAG_enumerator
    2382                      .dwattr $C$DW$262, DW_AT_name("GPIO_22_Mode_EQEP1S")
    2383                      .dwattr $C$DW$262, DW_AT_const_value(0x01)
    2384              
    2385              $C$DW$263       .dwtag  DW_TAG_enumerator
    2386                      .dwattr $C$DW$263, DW_AT_name("GPIO_22_Mode_MCLKXA")
    2387                      .dwattr $C$DW$263, DW_AT_const_value(0x02)
    2388              
    2389              $C$DW$264       .dwtag  DW_TAG_enumerator
    2390                      .dwattr $C$DW$264, DW_AT_name("GPIO_22_Mode_SCITXDB")
    2391                      .dwattr $C$DW$264, DW_AT_const_value(0x03)
    2392              
    2393              $C$DW$265       .dwtag  DW_TAG_enumerator
    2394                      .dwattr $C$DW$265, DW_AT_name("GPIO_23_Mode_GeneralPurpose")
    2395                      .dwattr $C$DW$265, DW_AT_const_value(0x00)
    2396              
    2397              $C$DW$266       .dwtag  DW_TAG_enumerator
    2398                      .dwattr $C$DW$266, DW_AT_name("GPIO_23_Mode_EQEP1I")
    2399                      .dwattr $C$DW$266, DW_AT_const_value(0x01)
    2400              
    2401              $C$DW$267       .dwtag  DW_TAG_enumerator
    2402                      .dwattr $C$DW$267, DW_AT_name("GPIO_23_Mode_MFSXA")
    2403                      .dwattr $C$DW$267, DW_AT_const_value(0x02)
TMS320C2000 Assembler PC v22.6.0 Wed Feb 22 11:34:31 2023

Copyright (c) 1996-2018 Texas Instruments Incorporated
C:\Users\GA5354\AppData\Local\Temp\{6DA7DAC6-2868-4E23-B53B-8B51420AAAC1} PAGE   45

    2404              
    2405              $C$DW$268       .dwtag  DW_TAG_enumerator
    2406                      .dwattr $C$DW$268, DW_AT_name("GPIO_23_Mode_SCIRXDB")
    2407                      .dwattr $C$DW$268, DW_AT_const_value(0x03)
    2408              
    2409              $C$DW$269       .dwtag  DW_TAG_enumerator
    2410                      .dwattr $C$DW$269, DW_AT_name("GPIO_24_Mode_GeneralPurpose")
    2411                      .dwattr $C$DW$269, DW_AT_const_value(0x00)
    2412              
    2413              $C$DW$270       .dwtag  DW_TAG_enumerator
    2414                      .dwattr $C$DW$270, DW_AT_name("GPIO_24_Mode_ECAP1")
    2415                      .dwattr $C$DW$270, DW_AT_const_value(0x01)
    2416              
    2417              $C$DW$271       .dwtag  DW_TAG_enumerator
    2418                      .dwattr $C$DW$271, DW_AT_name("GPIO_24_Mode_EQEP2A")
    2419                      .dwattr $C$DW$271, DW_AT_const_value(0x02)
    2420              
    2421              $C$DW$272       .dwtag  DW_TAG_enumerator
    2422                      .dwattr $C$DW$272, DW_AT_name("GPIO_24_Mode_SPISIMOB")
    2423                      .dwattr $C$DW$272, DW_AT_const_value(0x03)
    2424              
    2425              $C$DW$273       .dwtag  DW_TAG_enumerator
    2426                      .dwattr $C$DW$273, DW_AT_name("GPIO_25_Mode_GeneralPurpose")
    2427                      .dwattr $C$DW$273, DW_AT_const_value(0x00)
    2428              
    2429              $C$DW$274       .dwtag  DW_TAG_enumerator
    2430                      .dwattr $C$DW$274, DW_AT_name("GPIO_25_Mode_ECAP2")
    2431                      .dwattr $C$DW$274, DW_AT_const_value(0x01)
    2432              
    2433              $C$DW$275       .dwtag  DW_TAG_enumerator
    2434                      .dwattr $C$DW$275, DW_AT_name("GPIO_25_Mode_EQEP2B")
    2435                      .dwattr $C$DW$275, DW_AT_const_value(0x02)
    2436              
    2437              $C$DW$276       .dwtag  DW_TAG_enumerator
    2438                      .dwattr $C$DW$276, DW_AT_name("GPIO_25_Mode_SPISOMIB")
    2439                      .dwattr $C$DW$276, DW_AT_const_value(0x03)
    2440              
    2441              $C$DW$277       .dwtag  DW_TAG_enumerator
    2442                      .dwattr $C$DW$277, DW_AT_name("GPIO_26_Mode_GeneralPurpose")
    2443                      .dwattr $C$DW$277, DW_AT_const_value(0x00)
    2444              
    2445              $C$DW$278       .dwtag  DW_TAG_enumerator
    2446                      .dwattr $C$DW$278, DW_AT_name("GPIO_26_Mode_ECAP3")
    2447                      .dwattr $C$DW$278, DW_AT_const_value(0x01)
    2448              
    2449              $C$DW$279       .dwtag  DW_TAG_enumerator
    2450                      .dwattr $C$DW$279, DW_AT_name("GPIO_26_Mode_EQEP2I")
    2451                      .dwattr $C$DW$279, DW_AT_const_value(0x02)
    2452              
    2453              $C$DW$280       .dwtag  DW_TAG_enumerator
    2454                      .dwattr $C$DW$280, DW_AT_name("GPIO_26_Mode_SPICLKB")
    2455                      .dwattr $C$DW$280, DW_AT_const_value(0x03)
    2456              
    2457              $C$DW$281       .dwtag  DW_TAG_enumerator
    2458                      .dwattr $C$DW$281, DW_AT_name("GPIO_27_Mode_GeneralPurpose")
TMS320C2000 Assembler PC v22.6.0 Wed Feb 22 11:34:31 2023

Copyright (c) 1996-2018 Texas Instruments Incorporated
C:\Users\GA5354\AppData\Local\Temp\{6DA7DAC6-2868-4E23-B53B-8B51420AAAC1} PAGE   46

    2459                      .dwattr $C$DW$281, DW_AT_const_value(0x00)
    2460              
    2461              $C$DW$282       .dwtag  DW_TAG_enumerator
    2462                      .dwattr $C$DW$282, DW_AT_name("GPIO_27_Mode_HRCAP2")
    2463                      .dwattr $C$DW$282, DW_AT_const_value(0x01)
    2464              
    2465              $C$DW$283       .dwtag  DW_TAG_enumerator
    2466                      .dwattr $C$DW$283, DW_AT_name("GPIO_27_Mode_EQEP2S")
    2467                      .dwattr $C$DW$283, DW_AT_const_value(0x02)
    2468              
    2469              $C$DW$284       .dwtag  DW_TAG_enumerator
    2470                      .dwattr $C$DW$284, DW_AT_name("GPIO_27_Mode_SPISTEB_NOT")
    2471                      .dwattr $C$DW$284, DW_AT_const_value(0x03)
    2472              
    2473              $C$DW$285       .dwtag  DW_TAG_enumerator
    2474                      .dwattr $C$DW$285, DW_AT_name("GPIO_28_Mode_GeneralPurpose")
    2475                      .dwattr $C$DW$285, DW_AT_const_value(0x00)
    2476              
    2477              $C$DW$286       .dwtag  DW_TAG_enumerator
    2478                      .dwattr $C$DW$286, DW_AT_name("GPIO_28_Mode_SCIRXDA")
    2479                      .dwattr $C$DW$286, DW_AT_const_value(0x01)
    2480              
    2481              $C$DW$287       .dwtag  DW_TAG_enumerator
    2482                      .dwattr $C$DW$287, DW_AT_name("GPIO_28_Mode_SDDA")
    2483                      .dwattr $C$DW$287, DW_AT_const_value(0x02)
    2484              
    2485              $C$DW$288       .dwtag  DW_TAG_enumerator
    2486                      .dwattr $C$DW$288, DW_AT_name("GPIO_28_Mode_TZ2_NOT")
    2487                      .dwattr $C$DW$288, DW_AT_const_value(0x03)
    2488              
    2489              $C$DW$289       .dwtag  DW_TAG_enumerator
    2490                      .dwattr $C$DW$289, DW_AT_name("GPIO_29_Mode_GeneralPurpose")
    2491                      .dwattr $C$DW$289, DW_AT_const_value(0x00)
    2492              
    2493              $C$DW$290       .dwtag  DW_TAG_enumerator
    2494                      .dwattr $C$DW$290, DW_AT_name("GPIO_29_Mode_SCITXDA")
    2495                      .dwattr $C$DW$290, DW_AT_const_value(0x01)
    2496              
    2497              $C$DW$291       .dwtag  DW_TAG_enumerator
    2498                      .dwattr $C$DW$291, DW_AT_name("GPIO_29_Mode_SCLA")
    2499                      .dwattr $C$DW$291, DW_AT_const_value(0x02)
    2500              
    2501              $C$DW$292       .dwtag  DW_TAG_enumerator
    2502                      .dwattr $C$DW$292, DW_AT_name("GPIO_29_Mode_TZ3_NOT")
    2503                      .dwattr $C$DW$292, DW_AT_const_value(0x03)
    2504              
    2505              $C$DW$293       .dwtag  DW_TAG_enumerator
    2506                      .dwattr $C$DW$293, DW_AT_name("GPIO_30_Mode_GeneralPurpose")
    2507                      .dwattr $C$DW$293, DW_AT_const_value(0x00)
    2508              
    2509              $C$DW$294       .dwtag  DW_TAG_enumerator
    2510                      .dwattr $C$DW$294, DW_AT_name("GPIO_30_Mode_CANRXA")
    2511                      .dwattr $C$DW$294, DW_AT_const_value(0x01)
    2512              
    2513              $C$DW$295       .dwtag  DW_TAG_enumerator
TMS320C2000 Assembler PC v22.6.0 Wed Feb 22 11:34:31 2023

Copyright (c) 1996-2018 Texas Instruments Incorporated
C:\Users\GA5354\AppData\Local\Temp\{6DA7DAC6-2868-4E23-B53B-8B51420AAAC1} PAGE   47

    2514                      .dwattr $C$DW$295, DW_AT_name("GPIO_30_Mode_EQEP2I")
    2515                      .dwattr $C$DW$295, DW_AT_const_value(0x02)
    2516              
    2517              $C$DW$296       .dwtag  DW_TAG_enumerator
    2518                      .dwattr $C$DW$296, DW_AT_name("GPIO_30_Mode_EPWM7A")
    2519                      .dwattr $C$DW$296, DW_AT_const_value(0x03)
    2520              
    2521              $C$DW$297       .dwtag  DW_TAG_enumerator
    2522                      .dwattr $C$DW$297, DW_AT_name("GPIO_31_Mode_GeneralPurpose")
    2523                      .dwattr $C$DW$297, DW_AT_const_value(0x00)
    2524              
    2525              $C$DW$298       .dwtag  DW_TAG_enumerator
    2526                      .dwattr $C$DW$298, DW_AT_name("GPIO_31_Mode_CANTXA")
    2527                      .dwattr $C$DW$298, DW_AT_const_value(0x01)
    2528              
    2529              $C$DW$299       .dwtag  DW_TAG_enumerator
    2530                      .dwattr $C$DW$299, DW_AT_name("GPIO_31_Mode_EQEP2S")
    2531                      .dwattr $C$DW$299, DW_AT_const_value(0x02)
    2532              
    2533              $C$DW$300       .dwtag  DW_TAG_enumerator
    2534                      .dwattr $C$DW$300, DW_AT_name("GPIO_31_Mode_EPWM8A")
    2535                      .dwattr $C$DW$300, DW_AT_const_value(0x03)
    2536              
    2537              $C$DW$301       .dwtag  DW_TAG_enumerator
    2538                      .dwattr $C$DW$301, DW_AT_name("GPIO_32_Mode_GeneralPurpose")
    2539                      .dwattr $C$DW$301, DW_AT_const_value(0x00)
    2540              
    2541              $C$DW$302       .dwtag  DW_TAG_enumerator
    2542                      .dwattr $C$DW$302, DW_AT_name("GPIO_32_Mode_SDAA")
    2543                      .dwattr $C$DW$302, DW_AT_const_value(0x01)
    2544              
    2545              $C$DW$303       .dwtag  DW_TAG_enumerator
    2546                      .dwattr $C$DW$303, DW_AT_name("GPIO_32_Mode_EPWMSYNCI")
    2547                      .dwattr $C$DW$303, DW_AT_const_value(0x02)
    2548              
    2549              $C$DW$304       .dwtag  DW_TAG_enumerator
    2550                      .dwattr $C$DW$304, DW_AT_name("GPIO_32_Mode_ADCSOCAO_NOT")
    2551                      .dwattr $C$DW$304, DW_AT_const_value(0x03)
    2552              
    2553              $C$DW$305       .dwtag  DW_TAG_enumerator
    2554                      .dwattr $C$DW$305, DW_AT_name("GPIO_33_Mode_GeneralPurpose")
    2555                      .dwattr $C$DW$305, DW_AT_const_value(0x00)
    2556              
    2557              $C$DW$306       .dwtag  DW_TAG_enumerator
    2558                      .dwattr $C$DW$306, DW_AT_name("GPIO_33_Mode_SCLA")
    2559                      .dwattr $C$DW$306, DW_AT_const_value(0x01)
    2560              
    2561              $C$DW$307       .dwtag  DW_TAG_enumerator
    2562                      .dwattr $C$DW$307, DW_AT_name("GPIO_33_Mode_EPWMSYNCO")
    2563                      .dwattr $C$DW$307, DW_AT_const_value(0x02)
    2564              
    2565              $C$DW$308       .dwtag  DW_TAG_enumerator
    2566                      .dwattr $C$DW$308, DW_AT_name("GPIO_33_Mode_ADCSOCBO_NOT")
    2567                      .dwattr $C$DW$308, DW_AT_const_value(0x03)
    2568              
TMS320C2000 Assembler PC v22.6.0 Wed Feb 22 11:34:31 2023

Copyright (c) 1996-2018 Texas Instruments Incorporated
C:\Users\GA5354\AppData\Local\Temp\{6DA7DAC6-2868-4E23-B53B-8B51420AAAC1} PAGE   48

    2569              $C$DW$309       .dwtag  DW_TAG_enumerator
    2570                      .dwattr $C$DW$309, DW_AT_name("GPIO_34_Mode_GeneralPurpose")
    2571                      .dwattr $C$DW$309, DW_AT_const_value(0x00)
    2572              
    2573              $C$DW$310       .dwtag  DW_TAG_enumerator
    2574                      .dwattr $C$DW$310, DW_AT_name("GPIO_34_Mode_COMP2OUT")
    2575                      .dwattr $C$DW$310, DW_AT_const_value(0x01)
    2576              
    2577              $C$DW$311       .dwtag  DW_TAG_enumerator
    2578                      .dwattr $C$DW$311, DW_AT_name("GPIO_34_Mode_Rsvd_2")
    2579                      .dwattr $C$DW$311, DW_AT_const_value(0x02)
    2580              
    2581              $C$DW$312       .dwtag  DW_TAG_enumerator
    2582                      .dwattr $C$DW$312, DW_AT_name("GPIO_34_Mode_COMP3OUT")
    2583                      .dwattr $C$DW$312, DW_AT_const_value(0x03)
    2584              
    2585              $C$DW$313       .dwtag  DW_TAG_enumerator
    2586                      .dwattr $C$DW$313, DW_AT_name("GPIO_35_Mode_JTAG_TDI")
    2587                      .dwattr $C$DW$313, DW_AT_const_value(0x00)
    2588              
    2589              $C$DW$314       .dwtag  DW_TAG_enumerator
    2590                      .dwattr $C$DW$314, DW_AT_name("GPIO_35_Mode_Rsvd_1")
    2591                      .dwattr $C$DW$314, DW_AT_const_value(0x01)
    2592              
    2593              $C$DW$315       .dwtag  DW_TAG_enumerator
    2594                      .dwattr $C$DW$315, DW_AT_name("GPIO_35_Mode_Rsvd_2")
    2595                      .dwattr $C$DW$315, DW_AT_const_value(0x02)
    2596              
    2597              $C$DW$316       .dwtag  DW_TAG_enumerator
    2598                      .dwattr $C$DW$316, DW_AT_name("GPIO_35_Mode_Rsvd_3")
    2599                      .dwattr $C$DW$316, DW_AT_const_value(0x03)
    2600              
    2601              $C$DW$317       .dwtag  DW_TAG_enumerator
    2602                      .dwattr $C$DW$317, DW_AT_name("GPIO_36_Mode_JTAG_TMS")
    2603                      .dwattr $C$DW$317, DW_AT_const_value(0x00)
    2604              
    2605              $C$DW$318       .dwtag  DW_TAG_enumerator
    2606                      .dwattr $C$DW$318, DW_AT_name("GPIO_36_Mode_Rsvd_1")
    2607                      .dwattr $C$DW$318, DW_AT_const_value(0x01)
    2608              
    2609              $C$DW$319       .dwtag  DW_TAG_enumerator
    2610                      .dwattr $C$DW$319, DW_AT_name("GPIO_36_Mode_Rsvd_2")
    2611                      .dwattr $C$DW$319, DW_AT_const_value(0x02)
    2612              
    2613              $C$DW$320       .dwtag  DW_TAG_enumerator
    2614                      .dwattr $C$DW$320, DW_AT_name("GPIO_36_Mode_Rsvd_3")
    2615                      .dwattr $C$DW$320, DW_AT_const_value(0x03)
    2616              
    2617              $C$DW$321       .dwtag  DW_TAG_enumerator
    2618                      .dwattr $C$DW$321, DW_AT_name("GPIO_37_Mode_JTAG_TDO")
    2619                      .dwattr $C$DW$321, DW_AT_const_value(0x00)
    2620              
    2621              $C$DW$322       .dwtag  DW_TAG_enumerator
    2622                      .dwattr $C$DW$322, DW_AT_name("GPIO_37_Mode_Rsvd_1")
    2623                      .dwattr $C$DW$322, DW_AT_const_value(0x01)
TMS320C2000 Assembler PC v22.6.0 Wed Feb 22 11:34:31 2023

Copyright (c) 1996-2018 Texas Instruments Incorporated
C:\Users\GA5354\AppData\Local\Temp\{6DA7DAC6-2868-4E23-B53B-8B51420AAAC1} PAGE   49

    2624              
    2625              $C$DW$323       .dwtag  DW_TAG_enumerator
    2626                      .dwattr $C$DW$323, DW_AT_name("GPIO_37_Mode_Rsvd_2")
    2627                      .dwattr $C$DW$323, DW_AT_const_value(0x02)
    2628              
    2629              $C$DW$324       .dwtag  DW_TAG_enumerator
    2630                      .dwattr $C$DW$324, DW_AT_name("GPIO_37_Mode_Rsvd_3")
    2631                      .dwattr $C$DW$324, DW_AT_const_value(0x03)
    2632              
    2633              $C$DW$325       .dwtag  DW_TAG_enumerator
    2634                      .dwattr $C$DW$325, DW_AT_name("GPIO_38_Mode_JTAG_TCK")
    2635                      .dwattr $C$DW$325, DW_AT_const_value(0x00)
    2636              
    2637              $C$DW$326       .dwtag  DW_TAG_enumerator
    2638                      .dwattr $C$DW$326, DW_AT_name("GPIO_38_Mode_Rsvd_1")
    2639                      .dwattr $C$DW$326, DW_AT_const_value(0x01)
    2640              
    2641              $C$DW$327       .dwtag  DW_TAG_enumerator
    2642                      .dwattr $C$DW$327, DW_AT_name("GPIO_38_Mode_Rsvd_2")
    2643                      .dwattr $C$DW$327, DW_AT_const_value(0x02)
    2644              
    2645              $C$DW$328       .dwtag  DW_TAG_enumerator
    2646                      .dwattr $C$DW$328, DW_AT_name("GPIO_38_Mode_Rsvd_3")
    2647                      .dwattr $C$DW$328, DW_AT_const_value(0x03)
    2648              
    2649              $C$DW$329       .dwtag  DW_TAG_enumerator
    2650                      .dwattr $C$DW$329, DW_AT_name("GPIO_39_Mode_GeneralPurpose")
    2651                      .dwattr $C$DW$329, DW_AT_const_value(0x00)
    2652              
    2653              $C$DW$330       .dwtag  DW_TAG_enumerator
    2654                      .dwattr $C$DW$330, DW_AT_name("GPIO_39_Mode_Rsvd_1")
    2655                      .dwattr $C$DW$330, DW_AT_const_value(0x01)
    2656              
    2657              $C$DW$331       .dwtag  DW_TAG_enumerator
    2658                      .dwattr $C$DW$331, DW_AT_name("GPIO_39_Mode_Rsvd_2")
    2659                      .dwattr $C$DW$331, DW_AT_const_value(0x02)
    2660              
    2661              $C$DW$332       .dwtag  DW_TAG_enumerator
    2662                      .dwattr $C$DW$332, DW_AT_name("GPIO_39_Mode_Rsvd_3")
    2663                      .dwattr $C$DW$332, DW_AT_const_value(0x03)
    2664              
    2665              $C$DW$333       .dwtag  DW_TAG_enumerator
    2666                      .dwattr $C$DW$333, DW_AT_name("GPIO_40_Mode_GeneralPurpose")
    2667                      .dwattr $C$DW$333, DW_AT_const_value(0x00)
    2668              
    2669              $C$DW$334       .dwtag  DW_TAG_enumerator
    2670                      .dwattr $C$DW$334, DW_AT_name("GPIO_40_Mode_EPWM7A")
    2671                      .dwattr $C$DW$334, DW_AT_const_value(0x01)
    2672              
    2673              $C$DW$335       .dwtag  DW_TAG_enumerator
    2674                      .dwattr $C$DW$335, DW_AT_name("GPIO_40_Mode_SCITXDB")
    2675                      .dwattr $C$DW$335, DW_AT_const_value(0x02)
    2676              
    2677              $C$DW$336       .dwtag  DW_TAG_enumerator
    2678                      .dwattr $C$DW$336, DW_AT_name("GPIO_40_Mode_Rsvd_3")
TMS320C2000 Assembler PC v22.6.0 Wed Feb 22 11:34:31 2023

Copyright (c) 1996-2018 Texas Instruments Incorporated
C:\Users\GA5354\AppData\Local\Temp\{6DA7DAC6-2868-4E23-B53B-8B51420AAAC1} PAGE   50

    2679                      .dwattr $C$DW$336, DW_AT_const_value(0x03)
    2680              
    2681              $C$DW$337       .dwtag  DW_TAG_enumerator
    2682                      .dwattr $C$DW$337, DW_AT_name("GPIO_41_Mode_GeneralPurpose")
    2683                      .dwattr $C$DW$337, DW_AT_const_value(0x00)
    2684              
    2685              $C$DW$338       .dwtag  DW_TAG_enumerator
    2686                      .dwattr $C$DW$338, DW_AT_name("GPIO_41_Mode_EPWM7B")
    2687                      .dwattr $C$DW$338, DW_AT_const_value(0x01)
    2688              
    2689              $C$DW$339       .dwtag  DW_TAG_enumerator
    2690                      .dwattr $C$DW$339, DW_AT_name("GPIO_41_Mode_SCIRXDB")
    2691                      .dwattr $C$DW$339, DW_AT_const_value(0x02)
    2692              
    2693              $C$DW$340       .dwtag  DW_TAG_enumerator
    2694                      .dwattr $C$DW$340, DW_AT_name("GPIO_41_Mode_Rsvd_3")
    2695                      .dwattr $C$DW$340, DW_AT_const_value(0x03)
    2696              
    2697              $C$DW$341       .dwtag  DW_TAG_enumerator
    2698                      .dwattr $C$DW$341, DW_AT_name("GPIO_42_Mode_GeneralPurpose")
    2699                      .dwattr $C$DW$341, DW_AT_const_value(0x00)
    2700              
    2701              $C$DW$342       .dwtag  DW_TAG_enumerator
    2702                      .dwattr $C$DW$342, DW_AT_name("GPIO_42_Mode_EPWM8A")
    2703                      .dwattr $C$DW$342, DW_AT_const_value(0x01)
    2704              
    2705              $C$DW$343       .dwtag  DW_TAG_enumerator
    2706                      .dwattr $C$DW$343, DW_AT_name("GPIO_42_Mode_TZ1_NOT")
    2707                      .dwattr $C$DW$343, DW_AT_const_value(0x02)
    2708              
    2709              $C$DW$344       .dwtag  DW_TAG_enumerator
    2710                      .dwattr $C$DW$344, DW_AT_name("GPIO_42_Mode_COMP1OUT")
    2711                      .dwattr $C$DW$344, DW_AT_const_value(0x03)
    2712              
    2713              $C$DW$345       .dwtag  DW_TAG_enumerator
    2714                      .dwattr $C$DW$345, DW_AT_name("GPIO_43_Mode_GeneralPurpose")
    2715                      .dwattr $C$DW$345, DW_AT_const_value(0x00)
    2716              
    2717              $C$DW$346       .dwtag  DW_TAG_enumerator
    2718                      .dwattr $C$DW$346, DW_AT_name("GPIO_43_Mode_EPWM8B")
    2719                      .dwattr $C$DW$346, DW_AT_const_value(0x01)
    2720              
    2721              $C$DW$347       .dwtag  DW_TAG_enumerator
    2722                      .dwattr $C$DW$347, DW_AT_name("GPIO_43_Mode_TZ2_NOT")
    2723                      .dwattr $C$DW$347, DW_AT_const_value(0x02)
    2724              
    2725              $C$DW$348       .dwtag  DW_TAG_enumerator
    2726                      .dwattr $C$DW$348, DW_AT_name("GPIO_43_Mode_COMP2OUT")
    2727                      .dwattr $C$DW$348, DW_AT_const_value(0x03)
    2728              
    2729              $C$DW$349       .dwtag  DW_TAG_enumerator
    2730                      .dwattr $C$DW$349, DW_AT_name("GPIO_44_Mode_GeneralPurpose")
    2731                      .dwattr $C$DW$349, DW_AT_const_value(0x00)
    2732              
    2733              $C$DW$350       .dwtag  DW_TAG_enumerator
TMS320C2000 Assembler PC v22.6.0 Wed Feb 22 11:34:31 2023

Copyright (c) 1996-2018 Texas Instruments Incorporated
C:\Users\GA5354\AppData\Local\Temp\{6DA7DAC6-2868-4E23-B53B-8B51420AAAC1} PAGE   51

    2734                      .dwattr $C$DW$350, DW_AT_name("GPIO_44_Mode_MFSRA")
    2735                      .dwattr $C$DW$350, DW_AT_const_value(0x01)
    2736              
    2737              $C$DW$351       .dwtag  DW_TAG_enumerator
    2738                      .dwattr $C$DW$351, DW_AT_name("GPIO_44_Mode_SCIRXDB")
    2739                      .dwattr $C$DW$351, DW_AT_const_value(0x02)
    2740              
    2741              $C$DW$352       .dwtag  DW_TAG_enumerator
    2742                      .dwattr $C$DW$352, DW_AT_name("GPIO_44_Mode_EPWM7B")
    2743                      .dwattr $C$DW$352, DW_AT_const_value(0x03)
    2744              
    2745              $C$DW$353       .dwtag  DW_TAG_enumerator
    2746                      .dwattr $C$DW$353, DW_AT_name("GPIO_50_Mode_GeneralPurpose")
    2747                      .dwattr $C$DW$353, DW_AT_const_value(0x00)
    2748              
    2749              $C$DW$354       .dwtag  DW_TAG_enumerator
    2750                      .dwattr $C$DW$354, DW_AT_name("GPIO_50_Mode_EQEP1A")
    2751                      .dwattr $C$DW$354, DW_AT_const_value(0x01)
    2752              
    2753              $C$DW$355       .dwtag  DW_TAG_enumerator
    2754                      .dwattr $C$DW$355, DW_AT_name("GPIO_50_Mode_MDXA")
    2755                      .dwattr $C$DW$355, DW_AT_const_value(0x02)
    2756              
    2757              $C$DW$356       .dwtag  DW_TAG_enumerator
    2758                      .dwattr $C$DW$356, DW_AT_name("GPIO_50_Mode_TZ1_NOT")
    2759                      .dwattr $C$DW$356, DW_AT_const_value(0x03)
    2760              
    2761              $C$DW$357       .dwtag  DW_TAG_enumerator
    2762                      .dwattr $C$DW$357, DW_AT_name("GPIO_51_Mode_GeneralPurpose")
    2763                      .dwattr $C$DW$357, DW_AT_const_value(0x00)
    2764              
    2765              $C$DW$358       .dwtag  DW_TAG_enumerator
    2766                      .dwattr $C$DW$358, DW_AT_name("GPIO_51_Mode_EQEP1B")
    2767                      .dwattr $C$DW$358, DW_AT_const_value(0x01)
    2768              
    2769              $C$DW$359       .dwtag  DW_TAG_enumerator
    2770                      .dwattr $C$DW$359, DW_AT_name("GPIO_51_Mode_MDRA")
    2771                      .dwattr $C$DW$359, DW_AT_const_value(0x02)
    2772              
    2773              $C$DW$360       .dwtag  DW_TAG_enumerator
    2774                      .dwattr $C$DW$360, DW_AT_name("GPIO_51_Mode_TZ2_NOT")
    2775                      .dwattr $C$DW$360, DW_AT_const_value(0x03)
    2776              
    2777              $C$DW$361       .dwtag  DW_TAG_enumerator
    2778                      .dwattr $C$DW$361, DW_AT_name("GPIO_52_Mode_GeneralPurpose")
    2779                      .dwattr $C$DW$361, DW_AT_const_value(0x00)
    2780              
    2781              $C$DW$362       .dwtag  DW_TAG_enumerator
    2782                      .dwattr $C$DW$362, DW_AT_name("GPIO_52_Mode_EQEP1S")
    2783                      .dwattr $C$DW$362, DW_AT_const_value(0x01)
    2784              
    2785              $C$DW$363       .dwtag  DW_TAG_enumerator
    2786                      .dwattr $C$DW$363, DW_AT_name("GPIO_52_Mode_MCLKXA")
    2787                      .dwattr $C$DW$363, DW_AT_const_value(0x02)
    2788              
TMS320C2000 Assembler PC v22.6.0 Wed Feb 22 11:34:31 2023

Copyright (c) 1996-2018 Texas Instruments Incorporated
C:\Users\GA5354\AppData\Local\Temp\{6DA7DAC6-2868-4E23-B53B-8B51420AAAC1} PAGE   52

    2789              $C$DW$364       .dwtag  DW_TAG_enumerator
    2790                      .dwattr $C$DW$364, DW_AT_name("GPIO_52_Mode_TZ3_NOT")
    2791                      .dwattr $C$DW$364, DW_AT_const_value(0x03)
    2792              
    2793              $C$DW$365       .dwtag  DW_TAG_enumerator
    2794                      .dwattr $C$DW$365, DW_AT_name("GPIO_53_Mode_GeneralPurpose")
    2795                      .dwattr $C$DW$365, DW_AT_const_value(0x00)
    2796              
    2797              $C$DW$366       .dwtag  DW_TAG_enumerator
    2798                      .dwattr $C$DW$366, DW_AT_name("GPIO_53_Mode_EQEP1I")
    2799                      .dwattr $C$DW$366, DW_AT_const_value(0x01)
    2800              
    2801              $C$DW$367       .dwtag  DW_TAG_enumerator
    2802                      .dwattr $C$DW$367, DW_AT_name("GPIO_53_Mode_MFSXA")
    2803                      .dwattr $C$DW$367, DW_AT_const_value(0x02)
    2804              
    2805              $C$DW$368       .dwtag  DW_TAG_enumerator
    2806                      .dwattr $C$DW$368, DW_AT_name("GPIO_53_Mode_Rsvd_1")
    2807                      .dwattr $C$DW$368, DW_AT_const_value(0x03)
    2808              
    2809              $C$DW$369       .dwtag  DW_TAG_enumerator
    2810                      .dwattr $C$DW$369, DW_AT_name("GPIO_54_Mode_GeneralPurpose")
    2811                      .dwattr $C$DW$369, DW_AT_const_value(0x00)
    2812              
    2813              $C$DW$370       .dwtag  DW_TAG_enumerator
    2814                      .dwattr $C$DW$370, DW_AT_name("GPIO_54_Mode_SPISIMOA")
    2815                      .dwattr $C$DW$370, DW_AT_const_value(0x01)
    2816              
    2817              $C$DW$371       .dwtag  DW_TAG_enumerator
    2818                      .dwattr $C$DW$371, DW_AT_name("GPIO_54_Mode_EQEP2A")
    2819                      .dwattr $C$DW$371, DW_AT_const_value(0x02)
    2820              
    2821              $C$DW$372       .dwtag  DW_TAG_enumerator
    2822                      .dwattr $C$DW$372, DW_AT_name("GPIO_54_Mode_HRCAP1")
    2823                      .dwattr $C$DW$372, DW_AT_const_value(0x03)
    2824              
    2825              $C$DW$373       .dwtag  DW_TAG_enumerator
    2826                      .dwattr $C$DW$373, DW_AT_name("GPIO_55_Mode_GeneralPurpose")
    2827                      .dwattr $C$DW$373, DW_AT_const_value(0x00)
    2828              
    2829              $C$DW$374       .dwtag  DW_TAG_enumerator
    2830                      .dwattr $C$DW$374, DW_AT_name("GPIO_55_Mode_SPISOMIA")
    2831                      .dwattr $C$DW$374, DW_AT_const_value(0x01)
    2832              
    2833              $C$DW$375       .dwtag  DW_TAG_enumerator
    2834                      .dwattr $C$DW$375, DW_AT_name("GPIO_55_Mode_EQEP2B")
    2835                      .dwattr $C$DW$375, DW_AT_const_value(0x02)
    2836              
    2837              $C$DW$376       .dwtag  DW_TAG_enumerator
    2838                      .dwattr $C$DW$376, DW_AT_name("GPIO_55_Mode_HRCAP2")
    2839                      .dwattr $C$DW$376, DW_AT_const_value(0x03)
    2840              
    2841              $C$DW$377       .dwtag  DW_TAG_enumerator
    2842                      .dwattr $C$DW$377, DW_AT_name("GPIO_56_Mode_GeneralPurpose")
    2843                      .dwattr $C$DW$377, DW_AT_const_value(0x00)
TMS320C2000 Assembler PC v22.6.0 Wed Feb 22 11:34:31 2023

Copyright (c) 1996-2018 Texas Instruments Incorporated
C:\Users\GA5354\AppData\Local\Temp\{6DA7DAC6-2868-4E23-B53B-8B51420AAAC1} PAGE   53

    2844              
    2845              $C$DW$378       .dwtag  DW_TAG_enumerator
    2846                      .dwattr $C$DW$378, DW_AT_name("GPIO_56_Mode_SPICLKA")
    2847                      .dwattr $C$DW$378, DW_AT_const_value(0x01)
    2848              
    2849              $C$DW$379       .dwtag  DW_TAG_enumerator
    2850                      .dwattr $C$DW$379, DW_AT_name("GPIO_56_Mode_EQEP2I")
    2851                      .dwattr $C$DW$379, DW_AT_const_value(0x02)
    2852              
    2853              $C$DW$380       .dwtag  DW_TAG_enumerator
    2854                      .dwattr $C$DW$380, DW_AT_name("GPIO_56_Mode_HRCAP3")
    2855                      .dwattr $C$DW$380, DW_AT_const_value(0x03)
    2856              
    2857              $C$DW$381       .dwtag  DW_TAG_enumerator
    2858                      .dwattr $C$DW$381, DW_AT_name("GPIO_57_Mode_GeneralPurpose")
    2859                      .dwattr $C$DW$381, DW_AT_const_value(0x00)
    2860              
    2861              $C$DW$382       .dwtag  DW_TAG_enumerator
    2862                      .dwattr $C$DW$382, DW_AT_name("GPIO_57_Mode_SPISTEA_NOT")
    2863                      .dwattr $C$DW$382, DW_AT_const_value(0x01)
    2864              
    2865              $C$DW$383       .dwtag  DW_TAG_enumerator
    2866                      .dwattr $C$DW$383, DW_AT_name("GPIO_57_Mode_EQEP2S")
    2867                      .dwattr $C$DW$383, DW_AT_const_value(0x02)
    2868              
    2869              $C$DW$384       .dwtag  DW_TAG_enumerator
    2870                      .dwattr $C$DW$384, DW_AT_name("GPIO_57_Mode_HRCAP4")
    2871                      .dwattr $C$DW$384, DW_AT_const_value(0x03)
    2872              
    2873              $C$DW$385       .dwtag  DW_TAG_enumerator
    2874                      .dwattr $C$DW$385, DW_AT_name("GPIO_58_Mode_GeneralPurpose")
    2875                      .dwattr $C$DW$385, DW_AT_const_value(0x00)
    2876              
    2877              $C$DW$386       .dwtag  DW_TAG_enumerator
    2878                      .dwattr $C$DW$386, DW_AT_name("GPIO_58_Mode_MCLKRA")
    2879                      .dwattr $C$DW$386, DW_AT_const_value(0x01)
    2880              
    2881              $C$DW$387       .dwtag  DW_TAG_enumerator
    2882                      .dwattr $C$DW$387, DW_AT_name("GPIO_58_Mode_SCITXDB")
    2883                      .dwattr $C$DW$387, DW_AT_const_value(0x02)
    2884              
    2885              $C$DW$388       .dwtag  DW_TAG_enumerator
    2886                      .dwattr $C$DW$388, DW_AT_name("GPIO_58_Mode_EPWM7A")
    2887                      .dwattr $C$DW$388, DW_AT_const_value(0x03)
    2888              
    2889                      .dwendtag $C$DW$T$47
    2890              
    2891              $C$DW$T$48      .dwtag  DW_TAG_typedef
    2892                      .dwattr $C$DW$T$48, DW_AT_name("GPIO_Mode_e")
    2893                      .dwattr $C$DW$T$48, DW_AT_type(*$C$DW$T$47)
    2894                      .dwattr $C$DW$T$48, DW_AT_language(DW_LANG_C)
    2895              
    2896              $C$DW$389       .dwtag  DW_TAG_TI_far_type
    2897                      .dwattr $C$DW$389, DW_AT_type(*$C$DW$T$48)
    2898              
TMS320C2000 Assembler PC v22.6.0 Wed Feb 22 11:34:31 2023

Copyright (c) 1996-2018 Texas Instruments Incorporated
C:\Users\GA5354\AppData\Local\Temp\{6DA7DAC6-2868-4E23-B53B-8B51420AAAC1} PAGE   54

    2899              $C$DW$T$49      .dwtag  DW_TAG_const_type
    2900                      .dwattr $C$DW$T$49, DW_AT_type(*$C$DW$389)
    2901              
    2902              
    2903              $C$DW$T$50      .dwtag  DW_TAG_enumeration_type
    2904                      .dwattr $C$DW$T$50, DW_AT_byte_size(0x01)
    2905              $C$DW$390       .dwtag  DW_TAG_enumerator
    2906                      .dwattr $C$DW$390, DW_AT_name("GPIO_Qual_Sync")
    2907                      .dwattr $C$DW$390, DW_AT_const_value(0x00)
    2908              
    2909              $C$DW$391       .dwtag  DW_TAG_enumerator
    2910                      .dwattr $C$DW$391, DW_AT_name("GPIO_Qual_Sample_3")
    2911                      .dwattr $C$DW$391, DW_AT_const_value(0x01)
    2912              
    2913              $C$DW$392       .dwtag  DW_TAG_enumerator
    2914                      .dwattr $C$DW$392, DW_AT_name("GPIO_Qual_Sample_6")
    2915                      .dwattr $C$DW$392, DW_AT_const_value(0x02)
    2916              
    2917              $C$DW$393       .dwtag  DW_TAG_enumerator
    2918                      .dwattr $C$DW$393, DW_AT_name("GPIO_Qual_ASync")
    2919                      .dwattr $C$DW$393, DW_AT_const_value(0x03)
    2920              
    2921                      .dwendtag $C$DW$T$50
    2922              
    2923              $C$DW$T$51      .dwtag  DW_TAG_typedef
    2924                      .dwattr $C$DW$T$51, DW_AT_name("GPIO_Qual_e")
    2925                      .dwattr $C$DW$T$51, DW_AT_type(*$C$DW$T$50)
    2926                      .dwattr $C$DW$T$51, DW_AT_language(DW_LANG_C)
    2927              
    2928              $C$DW$394       .dwtag  DW_TAG_TI_far_type
    2929                      .dwattr $C$DW$394, DW_AT_type(*$C$DW$T$51)
    2930              
    2931              $C$DW$T$52      .dwtag  DW_TAG_const_type
    2932                      .dwattr $C$DW$T$52, DW_AT_type(*$C$DW$394)
    2933              
    2934              
    2935              $C$DW$T$31      .dwtag  DW_TAG_structure_type
    2936                      .dwattr $C$DW$T$31, DW_AT_name("_GPIO_Obj_")
    2937                      .dwattr $C$DW$T$31, DW_AT_byte_size(0x6a)
    2938              $C$DW$395       .dwtag  DW_TAG_member
    2939                      .dwattr $C$DW$395, DW_AT_type(*$C$DW$T$21)
    2940                      .dwattr $C$DW$395, DW_AT_name("GPACTRL")
    2941                      .dwattr $C$DW$395, DW_AT_TI_symbol_name("_GPACTRL")
    2942                      .dwattr $C$DW$395, DW_AT_data_member_location[DW_OP_plus_uconst 0x0]
    2943                      .dwattr $C$DW$395, DW_AT_accessibility(DW_ACCESS_public)
    2944              
    2945              $C$DW$396       .dwtag  DW_TAG_member
    2946                      .dwattr $C$DW$396, DW_AT_type(*$C$DW$T$21)
    2947                      .dwattr $C$DW$396, DW_AT_name("GPAQSEL1")
    2948                      .dwattr $C$DW$396, DW_AT_TI_symbol_name("_GPAQSEL1")
    2949                      .dwattr $C$DW$396, DW_AT_data_member_location[DW_OP_plus_uconst 0x2]
    2950                      .dwattr $C$DW$396, DW_AT_accessibility(DW_ACCESS_public)
    2951              
    2952              $C$DW$397       .dwtag  DW_TAG_member
    2953                      .dwattr $C$DW$397, DW_AT_type(*$C$DW$T$21)
TMS320C2000 Assembler PC v22.6.0 Wed Feb 22 11:34:31 2023

Copyright (c) 1996-2018 Texas Instruments Incorporated
C:\Users\GA5354\AppData\Local\Temp\{6DA7DAC6-2868-4E23-B53B-8B51420AAAC1} PAGE   55

    2954                      .dwattr $C$DW$397, DW_AT_name("GPAQSEL2")
    2955                      .dwattr $C$DW$397, DW_AT_TI_symbol_name("_GPAQSEL2")
    2956                      .dwattr $C$DW$397, DW_AT_data_member_location[DW_OP_plus_uconst 0x4]
    2957                      .dwattr $C$DW$397, DW_AT_accessibility(DW_ACCESS_public)
    2958              
    2959              $C$DW$398       .dwtag  DW_TAG_member
    2960                      .dwattr $C$DW$398, DW_AT_type(*$C$DW$T$21)
    2961                      .dwattr $C$DW$398, DW_AT_name("GPAMUX1")
    2962                      .dwattr $C$DW$398, DW_AT_TI_symbol_name("_GPAMUX1")
    2963                      .dwattr $C$DW$398, DW_AT_data_member_location[DW_OP_plus_uconst 0x6]
    2964                      .dwattr $C$DW$398, DW_AT_accessibility(DW_ACCESS_public)
    2965              
    2966              $C$DW$399       .dwtag  DW_TAG_member
    2967                      .dwattr $C$DW$399, DW_AT_type(*$C$DW$T$21)
    2968                      .dwattr $C$DW$399, DW_AT_name("GPAMUX2")
    2969                      .dwattr $C$DW$399, DW_AT_TI_symbol_name("_GPAMUX2")
    2970                      .dwattr $C$DW$399, DW_AT_data_member_location[DW_OP_plus_uconst 0x8]
    2971                      .dwattr $C$DW$399, DW_AT_accessibility(DW_ACCESS_public)
    2972              
    2973              $C$DW$400       .dwtag  DW_TAG_member
    2974                      .dwattr $C$DW$400, DW_AT_type(*$C$DW$T$21)
    2975                      .dwattr $C$DW$400, DW_AT_name("GPADIR")
    2976                      .dwattr $C$DW$400, DW_AT_TI_symbol_name("_GPADIR")
    2977                      .dwattr $C$DW$400, DW_AT_data_member_location[DW_OP_plus_uconst 0xa]
    2978                      .dwattr $C$DW$400, DW_AT_accessibility(DW_ACCESS_public)
    2979              
    2980              $C$DW$401       .dwtag  DW_TAG_member
    2981                      .dwattr $C$DW$401, DW_AT_type(*$C$DW$T$21)
    2982                      .dwattr $C$DW$401, DW_AT_name("GPAPUD")
    2983                      .dwattr $C$DW$401, DW_AT_TI_symbol_name("_GPAPUD")
    2984                      .dwattr $C$DW$401, DW_AT_data_member_location[DW_OP_plus_uconst 0xc]
    2985                      .dwattr $C$DW$401, DW_AT_accessibility(DW_ACCESS_public)
    2986              
    2987              $C$DW$402       .dwtag  DW_TAG_member
    2988                      .dwattr $C$DW$402, DW_AT_type(*$C$DW$T$25)
    2989                      .dwattr $C$DW$402, DW_AT_name("rsvd_1")
    2990                      .dwattr $C$DW$402, DW_AT_TI_symbol_name("_rsvd_1")
    2991                      .dwattr $C$DW$402, DW_AT_data_member_location[DW_OP_plus_uconst 0xe]
    2992                      .dwattr $C$DW$402, DW_AT_accessibility(DW_ACCESS_public)
    2993              
    2994              $C$DW$403       .dwtag  DW_TAG_member
    2995                      .dwattr $C$DW$403, DW_AT_type(*$C$DW$T$21)
    2996                      .dwattr $C$DW$403, DW_AT_name("GPBCTRL")
    2997                      .dwattr $C$DW$403, DW_AT_TI_symbol_name("_GPBCTRL")
    2998                      .dwattr $C$DW$403, DW_AT_data_member_location[DW_OP_plus_uconst 0x10]
    2999                      .dwattr $C$DW$403, DW_AT_accessibility(DW_ACCESS_public)
    3000              
    3001              $C$DW$404       .dwtag  DW_TAG_member
    3002                      .dwattr $C$DW$404, DW_AT_type(*$C$DW$T$21)
    3003                      .dwattr $C$DW$404, DW_AT_name("GPBQSEL1")
    3004                      .dwattr $C$DW$404, DW_AT_TI_symbol_name("_GPBQSEL1")
    3005                      .dwattr $C$DW$404, DW_AT_data_member_location[DW_OP_plus_uconst 0x12]
    3006                      .dwattr $C$DW$404, DW_AT_accessibility(DW_ACCESS_public)
    3007              
    3008              $C$DW$405       .dwtag  DW_TAG_member
TMS320C2000 Assembler PC v22.6.0 Wed Feb 22 11:34:31 2023

Copyright (c) 1996-2018 Texas Instruments Incorporated
C:\Users\GA5354\AppData\Local\Temp\{6DA7DAC6-2868-4E23-B53B-8B51420AAAC1} PAGE   56

    3009                      .dwattr $C$DW$405, DW_AT_type(*$C$DW$T$21)
    3010                      .dwattr $C$DW$405, DW_AT_name("GPBQSEL2")
    3011                      .dwattr $C$DW$405, DW_AT_TI_symbol_name("_GPBQSEL2")
    3012                      .dwattr $C$DW$405, DW_AT_data_member_location[DW_OP_plus_uconst 0x14]
    3013                      .dwattr $C$DW$405, DW_AT_accessibility(DW_ACCESS_public)
    3014              
    3015              $C$DW$406       .dwtag  DW_TAG_member
    3016                      .dwattr $C$DW$406, DW_AT_type(*$C$DW$T$21)
    3017                      .dwattr $C$DW$406, DW_AT_name("GPBMUX1")
    3018                      .dwattr $C$DW$406, DW_AT_TI_symbol_name("_GPBMUX1")
    3019                      .dwattr $C$DW$406, DW_AT_data_member_location[DW_OP_plus_uconst 0x16]
    3020                      .dwattr $C$DW$406, DW_AT_accessibility(DW_ACCESS_public)
    3021              
    3022              $C$DW$407       .dwtag  DW_TAG_member
    3023                      .dwattr $C$DW$407, DW_AT_type(*$C$DW$T$21)
    3024                      .dwattr $C$DW$407, DW_AT_name("GPBMUX2")
    3025                      .dwattr $C$DW$407, DW_AT_TI_symbol_name("_GPBMUX2")
    3026                      .dwattr $C$DW$407, DW_AT_data_member_location[DW_OP_plus_uconst 0x18]
    3027                      .dwattr $C$DW$407, DW_AT_accessibility(DW_ACCESS_public)
    3028              
    3029              $C$DW$408       .dwtag  DW_TAG_member
    3030                      .dwattr $C$DW$408, DW_AT_type(*$C$DW$T$21)
    3031                      .dwattr $C$DW$408, DW_AT_name("GPBDIR")
    3032                      .dwattr $C$DW$408, DW_AT_TI_symbol_name("_GPBDIR")
    3033                      .dwattr $C$DW$408, DW_AT_data_member_location[DW_OP_plus_uconst 0x1a]
    3034                      .dwattr $C$DW$408, DW_AT_accessibility(DW_ACCESS_public)
    3035              
    3036              $C$DW$409       .dwtag  DW_TAG_member
    3037                      .dwattr $C$DW$409, DW_AT_type(*$C$DW$T$21)
    3038                      .dwattr $C$DW$409, DW_AT_name("GPBPUD")
    3039                      .dwattr $C$DW$409, DW_AT_TI_symbol_name("_GPBPUD")
    3040                      .dwattr $C$DW$409, DW_AT_data_member_location[DW_OP_plus_uconst 0x1c]
    3041                      .dwattr $C$DW$409, DW_AT_accessibility(DW_ACCESS_public)
    3042              
    3043              $C$DW$410       .dwtag  DW_TAG_member
    3044                      .dwattr $C$DW$410, DW_AT_type(*$C$DW$T$26)
    3045                      .dwattr $C$DW$410, DW_AT_name("rsvd_4")
    3046                      .dwattr $C$DW$410, DW_AT_TI_symbol_name("_rsvd_4")
    3047                      .dwattr $C$DW$410, DW_AT_data_member_location[DW_OP_plus_uconst 0x1e]
    3048                      .dwattr $C$DW$410, DW_AT_accessibility(DW_ACCESS_public)
    3049              
    3050              $C$DW$411       .dwtag  DW_TAG_member
    3051                      .dwattr $C$DW$411, DW_AT_type(*$C$DW$T$21)
    3052                      .dwattr $C$DW$411, DW_AT_name("AIOMUX1")
    3053                      .dwattr $C$DW$411, DW_AT_TI_symbol_name("_AIOMUX1")
    3054                      .dwattr $C$DW$411, DW_AT_data_member_location[DW_OP_plus_uconst 0x36]
    3055                      .dwattr $C$DW$411, DW_AT_accessibility(DW_ACCESS_public)
    3056              
    3057              $C$DW$412       .dwtag  DW_TAG_member
    3058                      .dwattr $C$DW$412, DW_AT_type(*$C$DW$T$25)
    3059                      .dwattr $C$DW$412, DW_AT_name("rsvd_5")
    3060                      .dwattr $C$DW$412, DW_AT_TI_symbol_name("_rsvd_5")
    3061                      .dwattr $C$DW$412, DW_AT_data_member_location[DW_OP_plus_uconst 0x38]
    3062                      .dwattr $C$DW$412, DW_AT_accessibility(DW_ACCESS_public)
    3063              
TMS320C2000 Assembler PC v22.6.0 Wed Feb 22 11:34:31 2023

Copyright (c) 1996-2018 Texas Instruments Incorporated
C:\Users\GA5354\AppData\Local\Temp\{6DA7DAC6-2868-4E23-B53B-8B51420AAAC1} PAGE   57

    3064              $C$DW$413       .dwtag  DW_TAG_member
    3065                      .dwattr $C$DW$413, DW_AT_type(*$C$DW$T$21)
    3066                      .dwattr $C$DW$413, DW_AT_name("AIODIR")
    3067                      .dwattr $C$DW$413, DW_AT_TI_symbol_name("_AIODIR")
    3068                      .dwattr $C$DW$413, DW_AT_data_member_location[DW_OP_plus_uconst 0x3a]
    3069                      .dwattr $C$DW$413, DW_AT_accessibility(DW_ACCESS_public)
    3070              
    3071              $C$DW$414       .dwtag  DW_TAG_member
    3072                      .dwattr $C$DW$414, DW_AT_type(*$C$DW$T$27)
    3073                      .dwattr $C$DW$414, DW_AT_name("rsvd_6")
    3074                      .dwattr $C$DW$414, DW_AT_TI_symbol_name("_rsvd_6")
    3075                      .dwattr $C$DW$414, DW_AT_data_member_location[DW_OP_plus_uconst 0x3c]
    3076                      .dwattr $C$DW$414, DW_AT_accessibility(DW_ACCESS_public)
    3077              
    3078              $C$DW$415       .dwtag  DW_TAG_member
    3079                      .dwattr $C$DW$415, DW_AT_type(*$C$DW$T$21)
    3080                      .dwattr $C$DW$415, DW_AT_name("GPADAT")
    3081                      .dwattr $C$DW$415, DW_AT_TI_symbol_name("_GPADAT")
    3082                      .dwattr $C$DW$415, DW_AT_data_member_location[DW_OP_plus_uconst 0x40]
    3083                      .dwattr $C$DW$415, DW_AT_accessibility(DW_ACCESS_public)
    3084              
    3085              $C$DW$416       .dwtag  DW_TAG_member
    3086                      .dwattr $C$DW$416, DW_AT_type(*$C$DW$T$21)
    3087                      .dwattr $C$DW$416, DW_AT_name("GPASET")
    3088                      .dwattr $C$DW$416, DW_AT_TI_symbol_name("_GPASET")
    3089                      .dwattr $C$DW$416, DW_AT_data_member_location[DW_OP_plus_uconst 0x42]
    3090                      .dwattr $C$DW$416, DW_AT_accessibility(DW_ACCESS_public)
    3091              
    3092              $C$DW$417       .dwtag  DW_TAG_member
    3093                      .dwattr $C$DW$417, DW_AT_type(*$C$DW$T$21)
    3094                      .dwattr $C$DW$417, DW_AT_name("GPACLEAR")
    3095                      .dwattr $C$DW$417, DW_AT_TI_symbol_name("_GPACLEAR")
    3096                      .dwattr $C$DW$417, DW_AT_data_member_location[DW_OP_plus_uconst 0x44]
    3097                      .dwattr $C$DW$417, DW_AT_accessibility(DW_ACCESS_public)
    3098              
    3099              $C$DW$418       .dwtag  DW_TAG_member
    3100                      .dwattr $C$DW$418, DW_AT_type(*$C$DW$T$21)
    3101                      .dwattr $C$DW$418, DW_AT_name("GPATOGGLE")
    3102                      .dwattr $C$DW$418, DW_AT_TI_symbol_name("_GPATOGGLE")
    3103                      .dwattr $C$DW$418, DW_AT_data_member_location[DW_OP_plus_uconst 0x46]
    3104                      .dwattr $C$DW$418, DW_AT_accessibility(DW_ACCESS_public)
    3105              
    3106              $C$DW$419       .dwtag  DW_TAG_member
    3107                      .dwattr $C$DW$419, DW_AT_type(*$C$DW$T$21)
    3108                      .dwattr $C$DW$419, DW_AT_name("GPBDAT")
    3109                      .dwattr $C$DW$419, DW_AT_TI_symbol_name("_GPBDAT")
    3110                      .dwattr $C$DW$419, DW_AT_data_member_location[DW_OP_plus_uconst 0x48]
    3111                      .dwattr $C$DW$419, DW_AT_accessibility(DW_ACCESS_public)
    3112              
    3113              $C$DW$420       .dwtag  DW_TAG_member
    3114                      .dwattr $C$DW$420, DW_AT_type(*$C$DW$T$21)
    3115                      .dwattr $C$DW$420, DW_AT_name("GPBSET")
    3116                      .dwattr $C$DW$420, DW_AT_TI_symbol_name("_GPBSET")
    3117                      .dwattr $C$DW$420, DW_AT_data_member_location[DW_OP_plus_uconst 0x4a]
    3118                      .dwattr $C$DW$420, DW_AT_accessibility(DW_ACCESS_public)
TMS320C2000 Assembler PC v22.6.0 Wed Feb 22 11:34:31 2023

Copyright (c) 1996-2018 Texas Instruments Incorporated
C:\Users\GA5354\AppData\Local\Temp\{6DA7DAC6-2868-4E23-B53B-8B51420AAAC1} PAGE   58

    3119              
    3120              $C$DW$421       .dwtag  DW_TAG_member
    3121                      .dwattr $C$DW$421, DW_AT_type(*$C$DW$T$21)
    3122                      .dwattr $C$DW$421, DW_AT_name("GPBCLEAR")
    3123                      .dwattr $C$DW$421, DW_AT_TI_symbol_name("_GPBCLEAR")
    3124                      .dwattr $C$DW$421, DW_AT_data_member_location[DW_OP_plus_uconst 0x4c]
    3125                      .dwattr $C$DW$421, DW_AT_accessibility(DW_ACCESS_public)
    3126              
    3127              $C$DW$422       .dwtag  DW_TAG_member
    3128                      .dwattr $C$DW$422, DW_AT_type(*$C$DW$T$21)
    3129                      .dwattr $C$DW$422, DW_AT_name("GPBTOGGLE")
    3130                      .dwattr $C$DW$422, DW_AT_TI_symbol_name("_GPBTOGGLE")
    3131                      .dwattr $C$DW$422, DW_AT_data_member_location[DW_OP_plus_uconst 0x4e]
    3132                      .dwattr $C$DW$422, DW_AT_accessibility(DW_ACCESS_public)
    3133              
    3134              $C$DW$423       .dwtag  DW_TAG_member
    3135                      .dwattr $C$DW$423, DW_AT_type(*$C$DW$T$28)
    3136                      .dwattr $C$DW$423, DW_AT_name("rsvd_7")
    3137                      .dwattr $C$DW$423, DW_AT_TI_symbol_name("_rsvd_7")
    3138                      .dwattr $C$DW$423, DW_AT_data_member_location[DW_OP_plus_uconst 0x50]
    3139                      .dwattr $C$DW$423, DW_AT_accessibility(DW_ACCESS_public)
    3140              
    3141              $C$DW$424       .dwtag  DW_TAG_member
    3142                      .dwattr $C$DW$424, DW_AT_type(*$C$DW$T$21)
    3143                      .dwattr $C$DW$424, DW_AT_name("AIODAT")
    3144                      .dwattr $C$DW$424, DW_AT_TI_symbol_name("_AIODAT")
    3145                      .dwattr $C$DW$424, DW_AT_data_member_location[DW_OP_plus_uconst 0x58]
    3146                      .dwattr $C$DW$424, DW_AT_accessibility(DW_ACCESS_public)
    3147              
    3148              $C$DW$425       .dwtag  DW_TAG_member
    3149                      .dwattr $C$DW$425, DW_AT_type(*$C$DW$T$21)
    3150                      .dwattr $C$DW$425, DW_AT_name("AIOSET")
    3151                      .dwattr $C$DW$425, DW_AT_TI_symbol_name("_AIOSET")
    3152                      .dwattr $C$DW$425, DW_AT_data_member_location[DW_OP_plus_uconst 0x5a]
    3153                      .dwattr $C$DW$425, DW_AT_accessibility(DW_ACCESS_public)
    3154              
    3155              $C$DW$426       .dwtag  DW_TAG_member
    3156                      .dwattr $C$DW$426, DW_AT_type(*$C$DW$T$21)
    3157                      .dwattr $C$DW$426, DW_AT_name("AIOCLEAR")
    3158                      .dwattr $C$DW$426, DW_AT_TI_symbol_name("_AIOCLEAR")
    3159                      .dwattr $C$DW$426, DW_AT_data_member_location[DW_OP_plus_uconst 0x5c]
    3160                      .dwattr $C$DW$426, DW_AT_accessibility(DW_ACCESS_public)
    3161              
    3162              $C$DW$427       .dwtag  DW_TAG_member
    3163                      .dwattr $C$DW$427, DW_AT_type(*$C$DW$T$21)
    3164                      .dwattr $C$DW$427, DW_AT_name("AIOTOGGLE")
    3165                      .dwattr $C$DW$427, DW_AT_TI_symbol_name("_AIOTOGGLE")
    3166                      .dwattr $C$DW$427, DW_AT_data_member_location[DW_OP_plus_uconst 0x5e]
    3167                      .dwattr $C$DW$427, DW_AT_accessibility(DW_ACCESS_public)
    3168              
    3169              $C$DW$428       .dwtag  DW_TAG_member
    3170                      .dwattr $C$DW$428, DW_AT_type(*$C$DW$T$29)
    3171                      .dwattr $C$DW$428, DW_AT_name("GPIOXINTnSEL")
    3172                      .dwattr $C$DW$428, DW_AT_TI_symbol_name("_GPIOXINTnSEL")
    3173                      .dwattr $C$DW$428, DW_AT_data_member_location[DW_OP_plus_uconst 0x60]
TMS320C2000 Assembler PC v22.6.0 Wed Feb 22 11:34:31 2023

Copyright (c) 1996-2018 Texas Instruments Incorporated
C:\Users\GA5354\AppData\Local\Temp\{6DA7DAC6-2868-4E23-B53B-8B51420AAAC1} PAGE   59

    3174                      .dwattr $C$DW$428, DW_AT_accessibility(DW_ACCESS_public)
    3175              
    3176              $C$DW$429       .dwtag  DW_TAG_member
    3177                      .dwattr $C$DW$429, DW_AT_type(*$C$DW$T$30)
    3178                      .dwattr $C$DW$429, DW_AT_name("rsvd_8")
    3179                      .dwattr $C$DW$429, DW_AT_TI_symbol_name("_rsvd_8")
    3180                      .dwattr $C$DW$429, DW_AT_data_member_location[DW_OP_plus_uconst 0x63]
    3181                      .dwattr $C$DW$429, DW_AT_accessibility(DW_ACCESS_public)
    3182              
    3183              $C$DW$430       .dwtag  DW_TAG_member
    3184                      .dwattr $C$DW$430, DW_AT_type(*$C$DW$T$21)
    3185                      .dwattr $C$DW$430, DW_AT_name("GPIOLPMSEL")
    3186                      .dwattr $C$DW$430, DW_AT_TI_symbol_name("_GPIOLPMSEL")
    3187                      .dwattr $C$DW$430, DW_AT_data_member_location[DW_OP_plus_uconst 0x68]
    3188                      .dwattr $C$DW$430, DW_AT_accessibility(DW_ACCESS_public)
    3189              
    3190                      .dwendtag $C$DW$T$31
    3191              
    3192              $C$DW$T$53      .dwtag  DW_TAG_typedef
    3193                      .dwattr $C$DW$T$53, DW_AT_name("GPIO_Obj")
    3194                      .dwattr $C$DW$T$53, DW_AT_type(*$C$DW$T$31)
    3195                      .dwattr $C$DW$T$53, DW_AT_language(DW_LANG_C)
    3196              
    3197              $C$DW$T$54      .dwtag  DW_TAG_pointer_type
    3198                      .dwattr $C$DW$T$54, DW_AT_type(*$C$DW$T$31)
    3199                      .dwattr $C$DW$T$54, DW_AT_address_class(0x20)
    3200              
    3201              $C$DW$T$55      .dwtag  DW_TAG_typedef
    3202                      .dwattr $C$DW$T$55, DW_AT_name("GPIO_Handle")
    3203                      .dwattr $C$DW$T$55, DW_AT_type(*$C$DW$T$54)
    3204                      .dwattr $C$DW$T$55, DW_AT_language(DW_LANG_C)
    3205              
    3206              $C$DW$431       .dwtag  DW_TAG_TI_far_type
    3207                      .dwattr $C$DW$431, DW_AT_type(*$C$DW$T$55)
    3208              
    3209              $C$DW$T$56      .dwtag  DW_TAG_const_type
    3210                      .dwattr $C$DW$T$56, DW_AT_type(*$C$DW$431)
    3211              
    3212              $C$DW$T$2       .dwtag  DW_TAG_unspecified_type
    3213                      .dwattr $C$DW$T$2, DW_AT_name("void")
    3214              
    3215              $C$DW$T$3       .dwtag  DW_TAG_pointer_type
    3216                      .dwattr $C$DW$T$3, DW_AT_type(*$C$DW$T$2)
    3217                      .dwattr $C$DW$T$3, DW_AT_address_class(0x20)
    3218              
    3219              $C$DW$T$4       .dwtag  DW_TAG_base_type
    3220                      .dwattr $C$DW$T$4, DW_AT_encoding(DW_ATE_boolean)
    3221                      .dwattr $C$DW$T$4, DW_AT_name("bool")
    3222                      .dwattr $C$DW$T$4, DW_AT_byte_size(0x01)
    3223              
    3224              $C$DW$T$5       .dwtag  DW_TAG_base_type
    3225                      .dwattr $C$DW$T$5, DW_AT_encoding(DW_ATE_signed_char)
    3226                      .dwattr $C$DW$T$5, DW_AT_name("signed char")
    3227                      .dwattr $C$DW$T$5, DW_AT_byte_size(0x01)
    3228              
TMS320C2000 Assembler PC v22.6.0 Wed Feb 22 11:34:31 2023

Copyright (c) 1996-2018 Texas Instruments Incorporated
C:\Users\GA5354\AppData\Local\Temp\{6DA7DAC6-2868-4E23-B53B-8B51420AAAC1} PAGE   60

    3229              $C$DW$T$6       .dwtag  DW_TAG_base_type
    3230                      .dwattr $C$DW$T$6, DW_AT_encoding(DW_ATE_unsigned_char)
    3231                      .dwattr $C$DW$T$6, DW_AT_name("unsigned char")
    3232                      .dwattr $C$DW$T$6, DW_AT_byte_size(0x01)
    3233              
    3234              $C$DW$T$7       .dwtag  DW_TAG_base_type
    3235                      .dwattr $C$DW$T$7, DW_AT_encoding(DW_ATE_signed_char)
    3236                      .dwattr $C$DW$T$7, DW_AT_name("wchar_t")
    3237                      .dwattr $C$DW$T$7, DW_AT_byte_size(0x01)
    3238              
    3239              $C$DW$T$8       .dwtag  DW_TAG_base_type
    3240                      .dwattr $C$DW$T$8, DW_AT_encoding(DW_ATE_signed)
    3241                      .dwattr $C$DW$T$8, DW_AT_name("short")
    3242                      .dwattr $C$DW$T$8, DW_AT_byte_size(0x01)
    3243              
    3244              $C$DW$T$9       .dwtag  DW_TAG_base_type
    3245                      .dwattr $C$DW$T$9, DW_AT_encoding(DW_ATE_unsigned)
    3246                      .dwattr $C$DW$T$9, DW_AT_name("unsigned short")
    3247                      .dwattr $C$DW$T$9, DW_AT_byte_size(0x01)
    3248              
    3249              $C$DW$T$10      .dwtag  DW_TAG_base_type
    3250                      .dwattr $C$DW$T$10, DW_AT_encoding(DW_ATE_signed)
    3251                      .dwattr $C$DW$T$10, DW_AT_name("int")
    3252                      .dwattr $C$DW$T$10, DW_AT_byte_size(0x01)
    3253              
    3254              $C$DW$T$11      .dwtag  DW_TAG_base_type
    3255                      .dwattr $C$DW$T$11, DW_AT_encoding(DW_ATE_unsigned)
    3256                      .dwattr $C$DW$T$11, DW_AT_name("unsigned int")
    3257                      .dwattr $C$DW$T$11, DW_AT_byte_size(0x01)
    3258              
    3259              $C$DW$T$22      .dwtag  DW_TAG_typedef
    3260                      .dwattr $C$DW$T$22, DW_AT_name("__uint16_t")
    3261                      .dwattr $C$DW$T$22, DW_AT_type(*$C$DW$T$11)
    3262                      .dwattr $C$DW$T$22, DW_AT_language(DW_LANG_C)
    3263              
    3264              $C$DW$T$71      .dwtag  DW_TAG_typedef
    3265                      .dwattr $C$DW$T$71, DW_AT_name("__uint_least8_t")
    3266                      .dwattr $C$DW$T$71, DW_AT_type(*$C$DW$T$22)
    3267                      .dwattr $C$DW$T$71, DW_AT_language(DW_LANG_C)
    3268              
    3269              $C$DW$T$72      .dwtag  DW_TAG_typedef
    3270                      .dwattr $C$DW$T$72, DW_AT_name("uint_least8_t")
    3271                      .dwattr $C$DW$T$72, DW_AT_type(*$C$DW$T$71)
    3272                      .dwattr $C$DW$T$72, DW_AT_language(DW_LANG_C)
    3273              
    3274              $C$DW$432       .dwtag  DW_TAG_TI_far_type
    3275                      .dwattr $C$DW$432, DW_AT_type(*$C$DW$T$72)
    3276              
    3277              $C$DW$T$73      .dwtag  DW_TAG_const_type
    3278                      .dwattr $C$DW$T$73, DW_AT_type(*$C$DW$432)
    3279              
    3280              $C$DW$T$23      .dwtag  DW_TAG_typedef
    3281                      .dwattr $C$DW$T$23, DW_AT_name("uint16_t")
    3282                      .dwattr $C$DW$T$23, DW_AT_type(*$C$DW$T$22)
    3283                      .dwattr $C$DW$T$23, DW_AT_language(DW_LANG_C)
TMS320C2000 Assembler PC v22.6.0 Wed Feb 22 11:34:31 2023

Copyright (c) 1996-2018 Texas Instruments Incorporated
C:\Users\GA5354\AppData\Local\Temp\{6DA7DAC6-2868-4E23-B53B-8B51420AAAC1} PAGE   61

    3284              
    3285              $C$DW$433       .dwtag  DW_TAG_TI_far_type
    3286                      .dwattr $C$DW$433, DW_AT_type(*$C$DW$T$23)
    3287              
    3288              $C$DW$T$24      .dwtag  DW_TAG_volatile_type
    3289                      .dwattr $C$DW$T$24, DW_AT_type(*$C$DW$433)
    3290              
    3291              
    3292              $C$DW$T$25      .dwtag  DW_TAG_array_type
    3293                      .dwattr $C$DW$T$25, DW_AT_type(*$C$DW$T$24)
    3294                      .dwattr $C$DW$T$25, DW_AT_language(DW_LANG_C)
    3295                      .dwattr $C$DW$T$25, DW_AT_byte_size(0x02)
    3296              $C$DW$434       .dwtag  DW_TAG_subrange_type
    3297                      .dwattr $C$DW$434, DW_AT_upper_bound(0x01)
    3298              
    3299                      .dwendtag $C$DW$T$25
    3300              
    3301              
    3302              $C$DW$T$26      .dwtag  DW_TAG_array_type
    3303                      .dwattr $C$DW$T$26, DW_AT_type(*$C$DW$T$24)
    3304                      .dwattr $C$DW$T$26, DW_AT_language(DW_LANG_C)
    3305                      .dwattr $C$DW$T$26, DW_AT_byte_size(0x18)
    3306              $C$DW$435       .dwtag  DW_TAG_subrange_type
    3307                      .dwattr $C$DW$435, DW_AT_upper_bound(0x17)
    3308              
    3309                      .dwendtag $C$DW$T$26
    3310              
    3311              
    3312              $C$DW$T$27      .dwtag  DW_TAG_array_type
    3313                      .dwattr $C$DW$T$27, DW_AT_type(*$C$DW$T$24)
    3314                      .dwattr $C$DW$T$27, DW_AT_language(DW_LANG_C)
    3315                      .dwattr $C$DW$T$27, DW_AT_byte_size(0x04)
    3316              $C$DW$436       .dwtag  DW_TAG_subrange_type
    3317                      .dwattr $C$DW$436, DW_AT_upper_bound(0x03)
    3318              
    3319                      .dwendtag $C$DW$T$27
    3320              
    3321              
    3322              $C$DW$T$28      .dwtag  DW_TAG_array_type
    3323                      .dwattr $C$DW$T$28, DW_AT_type(*$C$DW$T$24)
    3324                      .dwattr $C$DW$T$28, DW_AT_language(DW_LANG_C)
    3325                      .dwattr $C$DW$T$28, DW_AT_byte_size(0x08)
    3326              $C$DW$437       .dwtag  DW_TAG_subrange_type
    3327                      .dwattr $C$DW$437, DW_AT_upper_bound(0x07)
    3328              
    3329                      .dwendtag $C$DW$T$28
    3330              
    3331              
    3332              $C$DW$T$29      .dwtag  DW_TAG_array_type
    3333                      .dwattr $C$DW$T$29, DW_AT_type(*$C$DW$T$24)
    3334                      .dwattr $C$DW$T$29, DW_AT_language(DW_LANG_C)
    3335                      .dwattr $C$DW$T$29, DW_AT_byte_size(0x03)
    3336              $C$DW$438       .dwtag  DW_TAG_subrange_type
    3337                      .dwattr $C$DW$438, DW_AT_upper_bound(0x02)
    3338              
TMS320C2000 Assembler PC v22.6.0 Wed Feb 22 11:34:31 2023

Copyright (c) 1996-2018 Texas Instruments Incorporated
C:\Users\GA5354\AppData\Local\Temp\{6DA7DAC6-2868-4E23-B53B-8B51420AAAC1} PAGE   62

    3339                      .dwendtag $C$DW$T$29
    3340              
    3341              
    3342              $C$DW$T$30      .dwtag  DW_TAG_array_type
    3343                      .dwattr $C$DW$T$30, DW_AT_type(*$C$DW$T$24)
    3344                      .dwattr $C$DW$T$30, DW_AT_language(DW_LANG_C)
    3345                      .dwattr $C$DW$T$30, DW_AT_byte_size(0x05)
    3346              $C$DW$439       .dwtag  DW_TAG_subrange_type
    3347                      .dwattr $C$DW$439, DW_AT_upper_bound(0x04)
    3348              
    3349                      .dwendtag $C$DW$T$30
    3350              
    3351              $C$DW$T$12      .dwtag  DW_TAG_base_type
    3352                      .dwattr $C$DW$T$12, DW_AT_encoding(DW_ATE_signed)
    3353                      .dwattr $C$DW$T$12, DW_AT_name("long")
    3354                      .dwattr $C$DW$T$12, DW_AT_byte_size(0x02)
    3355              
    3356              $C$DW$T$13      .dwtag  DW_TAG_base_type
    3357                      .dwattr $C$DW$T$13, DW_AT_encoding(DW_ATE_unsigned)
    3358                      .dwattr $C$DW$T$13, DW_AT_name("unsigned long")
    3359                      .dwattr $C$DW$T$13, DW_AT_byte_size(0x02)
    3360              
    3361              $C$DW$T$19      .dwtag  DW_TAG_typedef
    3362                      .dwattr $C$DW$T$19, DW_AT_name("__uint32_t")
    3363                      .dwattr $C$DW$T$19, DW_AT_type(*$C$DW$T$13)
    3364                      .dwattr $C$DW$T$19, DW_AT_language(DW_LANG_C)
    3365              
    3366              $C$DW$T$20      .dwtag  DW_TAG_typedef
    3367                      .dwattr $C$DW$T$20, DW_AT_name("uint32_t")
    3368                      .dwattr $C$DW$T$20, DW_AT_type(*$C$DW$T$19)
    3369                      .dwattr $C$DW$T$20, DW_AT_language(DW_LANG_C)
    3370              
    3371              $C$DW$440       .dwtag  DW_TAG_TI_far_type
    3372                      .dwattr $C$DW$440, DW_AT_type(*$C$DW$T$20)
    3373              
    3374              $C$DW$T$21      .dwtag  DW_TAG_volatile_type
    3375                      .dwattr $C$DW$T$21, DW_AT_type(*$C$DW$440)
    3376              
    3377              $C$DW$441       .dwtag  DW_TAG_TI_far_type
    3378                      .dwattr $C$DW$441, DW_AT_type(*$C$DW$T$20)
    3379              
    3380              $C$DW$T$68      .dwtag  DW_TAG_const_type
    3381                      .dwattr $C$DW$T$68, DW_AT_type(*$C$DW$441)
    3382              
    3383              $C$DW$T$57      .dwtag  DW_TAG_typedef
    3384                      .dwattr $C$DW$T$57, DW_AT_name("size_t")
    3385                      .dwattr $C$DW$T$57, DW_AT_type(*$C$DW$T$13)
    3386                      .dwattr $C$DW$T$57, DW_AT_language(DW_LANG_C)
    3387              
    3388              $C$DW$442       .dwtag  DW_TAG_TI_far_type
    3389                      .dwattr $C$DW$442, DW_AT_type(*$C$DW$T$57)
    3390              
    3391              $C$DW$T$58      .dwtag  DW_TAG_const_type
    3392                      .dwattr $C$DW$T$58, DW_AT_type(*$C$DW$442)
    3393              
TMS320C2000 Assembler PC v22.6.0 Wed Feb 22 11:34:31 2023

Copyright (c) 1996-2018 Texas Instruments Incorporated
C:\Users\GA5354\AppData\Local\Temp\{6DA7DAC6-2868-4E23-B53B-8B51420AAAC1} PAGE   63

    3394              $C$DW$T$14      .dwtag  DW_TAG_base_type
    3395                      .dwattr $C$DW$T$14, DW_AT_encoding(DW_ATE_signed)
    3396                      .dwattr $C$DW$T$14, DW_AT_name("long long")
    3397                      .dwattr $C$DW$T$14, DW_AT_byte_size(0x04)
    3398              
    3399              $C$DW$T$15      .dwtag  DW_TAG_base_type
    3400                      .dwattr $C$DW$T$15, DW_AT_encoding(DW_ATE_unsigned)
    3401                      .dwattr $C$DW$T$15, DW_AT_name("unsigned long long")
    3402                      .dwattr $C$DW$T$15, DW_AT_byte_size(0x04)
    3403              
    3404              $C$DW$T$16      .dwtag  DW_TAG_base_type
    3405                      .dwattr $C$DW$T$16, DW_AT_encoding(DW_ATE_float)
    3406                      .dwattr $C$DW$T$16, DW_AT_name("float")
    3407                      .dwattr $C$DW$T$16, DW_AT_byte_size(0x02)
    3408              
    3409              $C$DW$T$17      .dwtag  DW_TAG_base_type
    3410                      .dwattr $C$DW$T$17, DW_AT_encoding(DW_ATE_float)
    3411                      .dwattr $C$DW$T$17, DW_AT_name("double")
    3412                      .dwattr $C$DW$T$17, DW_AT_byte_size(0x02)
    3413              
    3414              $C$DW$T$18      .dwtag  DW_TAG_base_type
    3415                      .dwattr $C$DW$T$18, DW_AT_encoding(DW_ATE_float)
    3416                      .dwattr $C$DW$T$18, DW_AT_name("long double")
    3417                      .dwattr $C$DW$T$18, DW_AT_byte_size(0x04)
    3418              
    3419              $C$DW$T$84      .dwtag  DW_TAG_base_type
    3420                      .dwattr $C$DW$T$84, DW_AT_encoding(DW_ATE_unsigned_char)
    3421                      .dwattr $C$DW$T$84, DW_AT_name("unsigned char")
    3422                      .dwattr $C$DW$T$84, DW_AT_byte_size(0x01)
    3423              
    3424                      .dwattr $C$DW$CU, DW_AT_language(DW_LANG_C)
    3425              
    3426              ;***************************************************************
    3427              ;* DWARF CIE ENTRIES                                           *
    3428              ;***************************************************************
    3429              
    3430              $C$DW$CIE       .dwcie 26
    3431                      .dwcfi  cfa_register, 20
    3432                      .dwcfi  cfa_offset, 0
    3433                      .dwcfi  same_value, 28
    3434                      .dwcfi  same_value, 6
    3435                      .dwcfi  same_value, 7
    3436                      .dwcfi  same_value, 8
    3437                      .dwcfi  same_value, 9
    3438                      .dwcfi  same_value, 10
    3439                      .dwcfi  same_value, 11
    3440                      .dwendentry
    3441              
    3442              ;***************************************************************
    3443              ;* DWARF REGISTER MAP                                          *
    3444              ;***************************************************************
    3445              
    3446              $C$DW$443       .dwtag  DW_TAG_TI_assign_register
    3447                      .dwattr $C$DW$443, DW_AT_name("AL")
    3448                      .dwattr $C$DW$443, DW_AT_location[DW_OP_reg0]
TMS320C2000 Assembler PC v22.6.0 Wed Feb 22 11:34:31 2023

Copyright (c) 1996-2018 Texas Instruments Incorporated
C:\Users\GA5354\AppData\Local\Temp\{6DA7DAC6-2868-4E23-B53B-8B51420AAAC1} PAGE   64

    3449              
    3450              $C$DW$444       .dwtag  DW_TAG_TI_assign_register
    3451                      .dwattr $C$DW$444, DW_AT_name("AH")
    3452                      .dwattr $C$DW$444, DW_AT_location[DW_OP_reg1]
    3453              
    3454              $C$DW$445       .dwtag  DW_TAG_TI_assign_register
    3455                      .dwattr $C$DW$445, DW_AT_name("PL")
    3456                      .dwattr $C$DW$445, DW_AT_location[DW_OP_reg2]
    3457              
    3458              $C$DW$446       .dwtag  DW_TAG_TI_assign_register
    3459                      .dwattr $C$DW$446, DW_AT_name("PH")
    3460                      .dwattr $C$DW$446, DW_AT_location[DW_OP_reg3]
    3461              
    3462              $C$DW$447       .dwtag  DW_TAG_TI_assign_register
    3463                      .dwattr $C$DW$447, DW_AT_name("SP")
    3464                      .dwattr $C$DW$447, DW_AT_location[DW_OP_reg20]
    3465              
    3466              $C$DW$448       .dwtag  DW_TAG_TI_assign_register
    3467                      .dwattr $C$DW$448, DW_AT_name("XT")
    3468                      .dwattr $C$DW$448, DW_AT_location[DW_OP_reg21]
    3469              
    3470              $C$DW$449       .dwtag  DW_TAG_TI_assign_register
    3471                      .dwattr $C$DW$449, DW_AT_name("T")
    3472                      .dwattr $C$DW$449, DW_AT_location[DW_OP_reg22]
    3473              
    3474              $C$DW$450       .dwtag  DW_TAG_TI_assign_register
    3475                      .dwattr $C$DW$450, DW_AT_name("ST0")
    3476                      .dwattr $C$DW$450, DW_AT_location[DW_OP_reg23]
    3477              
    3478              $C$DW$451       .dwtag  DW_TAG_TI_assign_register
    3479                      .dwattr $C$DW$451, DW_AT_name("ST1")
    3480                      .dwattr $C$DW$451, DW_AT_location[DW_OP_reg24]
    3481              
    3482              $C$DW$452       .dwtag  DW_TAG_TI_assign_register
    3483                      .dwattr $C$DW$452, DW_AT_name("PC")
    3484                      .dwattr $C$DW$452, DW_AT_location[DW_OP_reg25]
    3485              
    3486              $C$DW$453       .dwtag  DW_TAG_TI_assign_register
    3487                      .dwattr $C$DW$453, DW_AT_name("RPC")
    3488                      .dwattr $C$DW$453, DW_AT_location[DW_OP_reg26]
    3489              
    3490              $C$DW$454       .dwtag  DW_TAG_TI_assign_register
    3491                      .dwattr $C$DW$454, DW_AT_name("FP")
    3492                      .dwattr $C$DW$454, DW_AT_location[DW_OP_reg28]
    3493              
    3494              $C$DW$455       .dwtag  DW_TAG_TI_assign_register
    3495                      .dwattr $C$DW$455, DW_AT_name("DP")
    3496                      .dwattr $C$DW$455, DW_AT_location[DW_OP_reg29]
    3497              
    3498              $C$DW$456       .dwtag  DW_TAG_TI_assign_register
    3499                      .dwattr $C$DW$456, DW_AT_name("SXM")
    3500                      .dwattr $C$DW$456, DW_AT_location[DW_OP_reg30]
    3501              
    3502              $C$DW$457       .dwtag  DW_TAG_TI_assign_register
    3503                      .dwattr $C$DW$457, DW_AT_name("PM")
TMS320C2000 Assembler PC v22.6.0 Wed Feb 22 11:34:31 2023

Copyright (c) 1996-2018 Texas Instruments Incorporated
C:\Users\GA5354\AppData\Local\Temp\{6DA7DAC6-2868-4E23-B53B-8B51420AAAC1} PAGE   65

    3504                      .dwattr $C$DW$457, DW_AT_location[DW_OP_reg31]
    3505              
    3506              $C$DW$458       .dwtag  DW_TAG_TI_assign_register
    3507                      .dwattr $C$DW$458, DW_AT_name("OVM")
    3508                      .dwattr $C$DW$458, DW_AT_location[DW_OP_regx 0x20]
    3509              
    3510              $C$DW$459       .dwtag  DW_TAG_TI_assign_register
    3511                      .dwattr $C$DW$459, DW_AT_name("PAGE0")
    3512                      .dwattr $C$DW$459, DW_AT_location[DW_OP_regx 0x21]
    3513              
    3514              $C$DW$460       .dwtag  DW_TAG_TI_assign_register
    3515                      .dwattr $C$DW$460, DW_AT_name("AMODE")
    3516                      .dwattr $C$DW$460, DW_AT_location[DW_OP_regx 0x22]
    3517              
    3518              $C$DW$461       .dwtag  DW_TAG_TI_assign_register
    3519                      .dwattr $C$DW$461, DW_AT_name("EALLOW")
    3520                      .dwattr $C$DW$461, DW_AT_location[DW_OP_regx 0x4e]
    3521              
    3522              $C$DW$462       .dwtag  DW_TAG_TI_assign_register
    3523                      .dwattr $C$DW$462, DW_AT_name("INTM")
    3524                      .dwattr $C$DW$462, DW_AT_location[DW_OP_regx 0x23]
    3525              
    3526              $C$DW$463       .dwtag  DW_TAG_TI_assign_register
    3527                      .dwattr $C$DW$463, DW_AT_name("IFR")
    3528                      .dwattr $C$DW$463, DW_AT_location[DW_OP_regx 0x24]
    3529              
    3530              $C$DW$464       .dwtag  DW_TAG_TI_assign_register
    3531                      .dwattr $C$DW$464, DW_AT_name("IER")
    3532                      .dwattr $C$DW$464, DW_AT_location[DW_OP_regx 0x25]
    3533              
    3534              $C$DW$465       .dwtag  DW_TAG_TI_assign_register
    3535                      .dwattr $C$DW$465, DW_AT_name("V")
    3536                      .dwattr $C$DW$465, DW_AT_location[DW_OP_regx 0x26]
    3537              
    3538              $C$DW$466       .dwtag  DW_TAG_TI_assign_register
    3539                      .dwattr $C$DW$466, DW_AT_name("PSEUDOH")
    3540                      .dwattr $C$DW$466, DW_AT_location[DW_OP_regx 0x4c]
    3541              
    3542              $C$DW$467       .dwtag  DW_TAG_TI_assign_register
    3543                      .dwattr $C$DW$467, DW_AT_name("VOL")
    3544                      .dwattr $C$DW$467, DW_AT_location[DW_OP_regx 0x4d]
    3545              
    3546              $C$DW$468       .dwtag  DW_TAG_TI_assign_register
    3547                      .dwattr $C$DW$468, DW_AT_name("AR0")
    3548                      .dwattr $C$DW$468, DW_AT_location[DW_OP_reg4]
    3549              
    3550              $C$DW$469       .dwtag  DW_TAG_TI_assign_register
    3551                      .dwattr $C$DW$469, DW_AT_name("XAR0")
    3552                      .dwattr $C$DW$469, DW_AT_location[DW_OP_reg5]
    3553              
    3554              $C$DW$470       .dwtag  DW_TAG_TI_assign_register
    3555                      .dwattr $C$DW$470, DW_AT_name("AR1")
    3556                      .dwattr $C$DW$470, DW_AT_location[DW_OP_reg6]
    3557              
    3558              $C$DW$471       .dwtag  DW_TAG_TI_assign_register
TMS320C2000 Assembler PC v22.6.0 Wed Feb 22 11:34:31 2023

Copyright (c) 1996-2018 Texas Instruments Incorporated
C:\Users\GA5354\AppData\Local\Temp\{6DA7DAC6-2868-4E23-B53B-8B51420AAAC1} PAGE   66

    3559                      .dwattr $C$DW$471, DW_AT_name("XAR1")
    3560                      .dwattr $C$DW$471, DW_AT_location[DW_OP_reg7]
    3561              
    3562              $C$DW$472       .dwtag  DW_TAG_TI_assign_register
    3563                      .dwattr $C$DW$472, DW_AT_name("AR2")
